---
triple:          'arm64-apple-darwin'
binary-path:     '/Users/teodordermendzhiev/Library/Developer/Xcode/DerivedData/v8ios-guuegdqojkhtxjgqgmysqgxkmdle/ArchiveIntermediates/NativeScript/InstallationBuildProductsLocation/Library/Frameworks/NativeScript.framework/NativeScript'
relocations:
  - { offsetInCU: 0x33, offset: 0x33, size: 0x8, addend: 0x0, symName: _NativeScriptVersionString, symObjAddr: 0x0, symBinAddr: 0xB9E820, symSize: 0x0 }
  - { offsetInCU: 0x67, offset: 0x67, size: 0x8, addend: 0x0, symName: _NativeScriptVersionNumber, symObjAddr: 0x30, symBinAddr: 0xB9E850, symSize: 0x0 }
  - { offsetInCU: 0x26, offset: 0xA2, size: 0x8, addend: 0x0, symName: __ZN3tns21OneByteStringResourceC2EPKcm, symObjAddr: 0x0, symBinAddr: 0x4000, symSize: 0x14 }
  - { offsetInCU: 0xD557, offset: 0xD5D3, size: 0x8, addend: 0x0, symName: __ZN3tns21OneByteStringResourceC2EPKcm, symObjAddr: 0x0, symBinAddr: 0x4000, symSize: 0x14 }
  - { offsetInCU: 0xD5D5, offset: 0xD651, size: 0x8, addend: 0x0, symName: __ZN3tns21OneByteStringResourceC1EPKcm, symObjAddr: 0x14, symBinAddr: 0x4014, symSize: 0x14 }
  - { offsetInCU: 0xD61D, offset: 0xD699, size: 0x8, addend: 0x0, symName: __ZN3tns21OneByteStringResourceC1EPKcm, symObjAddr: 0x14, symBinAddr: 0x4014, symSize: 0x14 }
  - { offsetInCU: 0xD660, offset: 0xD6DC, size: 0x8, addend: 0x0, symName: __ZN3tns21OneByteStringResourceD2Ev, symObjAddr: 0x28, symBinAddr: 0x4028, symSize: 0x38 }
  - { offsetInCU: 0xD69D, offset: 0xD719, size: 0x8, addend: 0x0, symName: __ZN3tns21OneByteStringResourceD1Ev, symObjAddr: 0x60, symBinAddr: 0x4060, symSize: 0x38 }
  - { offsetInCU: 0xD6F6, offset: 0xD772, size: 0x8, addend: 0x0, symName: __ZN3tns21OneByteStringResourceD0Ev, symObjAddr: 0x98, symBinAddr: 0x4098, symSize: 0x38 }
  - { offsetInCU: 0xD75B, offset: 0xD7D7, size: 0x8, addend: 0x0, symName: __ZNK3tns21OneByteStringResource4dataEv, symObjAddr: 0xD0, symBinAddr: 0x40D0, symSize: 0x8 }
  - { offsetInCU: 0xD784, offset: 0xD800, size: 0x8, addend: 0x0, symName: __ZNK3tns21OneByteStringResource6lengthEv, symObjAddr: 0xD8, symBinAddr: 0x40D8, symSize: 0x8 }
  - { offsetInCU: 0xD7AD, offset: 0xD829, size: 0x8, addend: 0x0, symName: __ZNK2v86String26ExternalStringResourceBase11IsCacheableEv, symObjAddr: 0xE0, symBinAddr: 0x40E0, symSize: 0x8 }
  - { offsetInCU: 0xD7D4, offset: 0xD850, size: 0x8, addend: 0x0, symName: __ZN2v86String26ExternalStringResourceBase7DisposeEv, symObjAddr: 0xE8, symBinAddr: 0x40E8, symSize: 0x14 }
  - { offsetInCU: 0xD804, offset: 0xD880, size: 0x8, addend: 0x0, symName: __ZNK2v86String26ExternalStringResourceBase4LockEv, symObjAddr: 0xFC, symBinAddr: 0x40FC, symSize: 0x4 }
  - { offsetInCU: 0xD828, offset: 0xD8A4, size: 0x8, addend: 0x0, symName: __ZNK2v86String26ExternalStringResourceBase6UnlockEv, symObjAddr: 0x100, symBinAddr: 0x4100, symSize: 0x4 }
  - { offsetInCU: 0xAB2E, offset: 0x183FF, size: 0x8, addend: 0x0, symName: __ZNSt3__120__throw_length_errorB7v160006EPKc, symObjAddr: 0xB7C, symBinAddr: 0x4C80, symSize: 0x50 }
  - { offsetInCU: 0xE775, offset: 0x1C046, size: 0x8, addend: 0x0, symName: __ZN4rnv819JSIV8ValueConverter10ToJSIValueEPN2v87IsolateERKNS1_5LocalINS1_5ValueEEE, symObjAddr: 0x0, symBinAddr: 0x4104, symSize: 0x1E4 }
  - { offsetInCU: 0xEE24, offset: 0x1C6F5, size: 0x8, addend: 0x0, symName: __ZN4rnv819JSIV8ValueConverter9ToV8ValueERKNS_9V8RuntimeERKN8facebook3jsi5ValueE, symObjAddr: 0x1E4, symBinAddr: 0x42E8, symSize: 0x1C0 }
  - { offsetInCU: 0xF1AB, offset: 0x1CA7C, size: 0x8, addend: 0x0, symName: __ZNKR8facebook3jsi5Value9getStringERNS0_7RuntimeE, symObjAddr: 0x46C, symBinAddr: 0x4570, symSize: 0x48 }
  - { offsetInCU: 0xF27F, offset: 0x1CB50, size: 0x8, addend: 0x0, symName: __ZN4rnv819JSIV8ValueConverter10ToV8ObjectERKNS_9V8RuntimeERKN8facebook3jsi6ObjectE, symObjAddr: 0x4B4, symBinAddr: 0x45B8, symSize: 0xB0 }
  - { offsetInCU: 0xF28A, offset: 0x1CB5B, size: 0x8, addend: 0x0, symName: __ZN4rnv819JSIV8ValueConverter10ToV8StringERKNS_9V8RuntimeERKN8facebook3jsi6StringE, symObjAddr: 0x3A4, symBinAddr: 0x44A8, symSize: 0xC8 }
  - { offsetInCU: 0xF4A6, offset: 0x1CD77, size: 0x8, addend: 0x0, symName: __ZNKR8facebook3jsi5Value9getObjectERNS0_7RuntimeE, symObjAddr: 0x564, symBinAddr: 0x4668, symSize: 0x48 }
  - { offsetInCU: 0xF57A, offset: 0x1CE4B, size: 0x8, addend: 0x0, symName: __ZN4rnv819JSIV8ValueConverter10ToV8StringERKNS_9V8RuntimeERKN8facebook3jsi10PropNameIDE, symObjAddr: 0x5AC, symBinAddr: 0x46B0, symSize: 0xC8 }
  - { offsetInCU: 0xF585, offset: 0x1CE56, size: 0x8, addend: 0x0, symName: __ZN4rnv819JSIV8ValueConverter10ToV8ObjectERKNS_9V8RuntimeERKN8facebook3jsi6ObjectE, symObjAddr: 0x4B4, symBinAddr: 0x45B8, symSize: 0xB0 }
  - { offsetInCU: 0xF722, offset: 0x1CFF3, size: 0x8, addend: 0x0, symName: __ZNKR8facebook3jsi5Value9getStringERNS0_7RuntimeE.cold.1, symObjAddr: 0xBF0, symBinAddr: 0xB9856C, symSize: 0x28 }
  - { offsetInCU: 0xF791, offset: 0x1D062, size: 0x8, addend: 0x0, symName: __ZNKR8facebook3jsi5Value9getObjectERNS0_7RuntimeE.cold.1, symObjAddr: 0xC18, symBinAddr: 0xB98594, symSize: 0x28 }
  - { offsetInCU: 0xF7A9, offset: 0x1D07A, size: 0x8, addend: 0x0, symName: __ZN4rnv819JSIV8ValueConverter10ToV8StringERKNS_9V8RuntimeERKN8facebook3jsi10PropNameIDE, symObjAddr: 0x5AC, symBinAddr: 0x46B0, symSize: 0xC8 }
  - { offsetInCU: 0xFA0A, offset: 0x1D2DB, size: 0x8, addend: 0x0, symName: __ZN4rnv819JSIV8ValueConverter10ToV8StringERKNS_9V8RuntimeERKNSt3__110shared_ptrIKN8facebook3jsi6BufferEEE, symObjAddr: 0x674, symBinAddr: 0x4778, symSize: 0xA8 }
  - { offsetInCU: 0xFBAA, offset: 0x1D47B, size: 0x8, addend: 0x0, symName: __ZN4rnv819JSIV8ValueConverter10ToV8SymbolERKNS_9V8RuntimeERKN8facebook3jsi6SymbolE, symObjAddr: 0x71C, symBinAddr: 0x4820, symSize: 0xB0 }
  - { offsetInCU: 0xFCEE, offset: 0x1D5BF, size: 0x8, addend: 0x0, symName: __ZN4rnv819JSIV8ValueConverter9ToV8ArrayERKNS_9V8RuntimeERKN8facebook3jsi5ArrayE, symObjAddr: 0x7CC, symBinAddr: 0x48D0, symSize: 0xB0 }
  - { offsetInCU: 0xFE32, offset: 0x1D703, size: 0x8, addend: 0x0, symName: __ZN4rnv819JSIV8ValueConverter12ToV8FunctionERKNS_9V8RuntimeERKN8facebook3jsi8FunctionE, symObjAddr: 0x87C, symBinAddr: 0x4980, symSize: 0xB0 }
  - { offsetInCU: 0xFFF4, offset: 0x1D8C5, size: 0x8, addend: 0x0, symName: __ZN4rnv819JSIV8ValueConverter15ToJSIPropNameIDERKNS_9V8RuntimeERKN2v85LocalINS4_4NameEEE, symObjAddr: 0x92C, symBinAddr: 0x4A30, symSize: 0x90 }
  - { offsetInCU: 0x101B4, offset: 0x1DA85, size: 0x8, addend: 0x0, symName: __ZN4rnv819JSIV8ValueConverter11ToSTLStringERKN2v86String9Utf8ValueE, symObjAddr: 0x9BC, symBinAddr: 0x4AC0, symSize: 0x20 }
  - { offsetInCU: 0x101D6, offset: 0x1DAA7, size: 0x8, addend: 0x0, symName: __ZN4rnv819JSIV8ValueConverter11ToSTLStringERKN2v86String9Utf8ValueE, symObjAddr: 0x9BC, symBinAddr: 0x4AC0, symSize: 0x20 }
  - { offsetInCU: 0x1029B, offset: 0x1DB6C, size: 0x8, addend: 0x0, symName: __ZNSt3__112basic_stringIcNS_11char_traitsIcEENS_9allocatorIcEEEC2B7v160006EPKcm, symObjAddr: 0xAD4, symBinAddr: 0x4BD8, symSize: 0x94 }
  - { offsetInCU: 0x105EE, offset: 0x1DEBF, size: 0x8, addend: 0x0, symName: __ZNKSt3__112basic_stringIcNS_11char_traitsIcEENS_9allocatorIcEEE20__throw_length_errorB7v160006Ev, symObjAddr: 0xB68, symBinAddr: 0x4C6C, symSize: 0x14 }
  - { offsetInCU: 0x1060E, offset: 0x1DEDF, size: 0x8, addend: 0x0, symName: __ZN4rnv819JSIV8ValueConverter11ToSTLStringEPN2v87IsolateERKNS1_5LocalINS1_5ValueEEE, symObjAddr: 0x9DC, symBinAddr: 0x4AE0, symSize: 0xEC }
  - { offsetInCU: 0x10A56, offset: 0x1E327, size: 0x8, addend: 0x0, symName: __ZNKSt3__112basic_stringIcNS_11char_traitsIcEENS_9allocatorIcEEE20__throw_length_errorB7v160006Ev, symObjAddr: 0xB68, symBinAddr: 0x4C6C, symSize: 0x14 }
  - { offsetInCU: 0x10A80, offset: 0x1E351, size: 0x8, addend: 0x0, symName: __ZNSt3__120__throw_length_errorB7v160006EPKc, symObjAddr: 0xB7C, symBinAddr: 0x4C80, symSize: 0x50 }
  - { offsetInCU: 0x10A8B, offset: 0x1E35C, size: 0x8, addend: 0x0, symName: __ZNSt12length_errorC1B7v160006EPKc, symObjAddr: 0xBCC, symBinAddr: 0x4CD0, symSize: 0x24 }
  - { offsetInCU: 0x26, offset: 0x1E40C, size: 0x8, addend: 0x0, symName: __ZN3tns7WeakRef4InitEN2v85LocalINS1_7ContextEEE, symObjAddr: 0x0, symBinAddr: 0x4CF4, symSize: 0x144 }
  - { offsetInCU: 0xCE39, offset: 0x2B21F, size: 0x8, addend: 0x0, symName: __ZN3tns7WeakRef4InitEN2v85LocalINS1_7ContextEEE, symObjAddr: 0x0, symBinAddr: 0x4CF4, symSize: 0x144 }
  - { offsetInCU: 0xD556, offset: 0x2B93C, size: 0x8, addend: 0x0, symName: __ZNSt3__112basic_stringIcNS_11char_traitsIcEENS_9allocatorIcEEEC2B7v160006IDnEEPKc, symObjAddr: 0x144, symBinAddr: 0x4E38, symSize: 0x9C }
  - { offsetInCU: 0x26, offset: 0x2BF10, size: 0x8, addend: 0x0, symName: __ZN3tns9ExtVector11NewInstanceEPN2v87IsolateEPvP9_ffi_typePKNS_12TypeEncodingES9_, symObjAddr: 0x0, symBinAddr: 0x4ED4, symSize: 0x1E0 }
  - { offsetInCU: 0x602E, offset: 0x31F18, size: 0x8, addend: 0x0, symName: __ZN3tns9ExtVector11NewInstanceEPN2v87IsolateEPvP9_ffi_typePKNS_12TypeEncodingES9_, symObjAddr: 0x0, symBinAddr: 0x4ED4, symSize: 0x1E0 }
  - { offsetInCU: 0x6835, offset: 0x3271F, size: 0x8, addend: 0x0, symName: __ZN3tns9ExtVector22RegisterToStringMethodEPN2v87IsolateENS1_5LocalINS1_14ObjectTemplateEEE, symObjAddr: 0x42C, symBinAddr: 0x5300, symSize: 0xEC }
  - { offsetInCU: 0x6DB0, offset: 0x32C9A, size: 0x8, addend: 0x0, symName: __ZN3tns9ExtVector26IndexedPropertyGetCallbackEjRKN2v820PropertyCallbackInfoINS1_5ValueEEE, symObjAddr: 0x1E0, symBinAddr: 0x50B4, symSize: 0x138 }
  - { offsetInCU: 0x733A, offset: 0x33224, size: 0x8, addend: 0x0, symName: __ZN3tns9ExtVector26IndexedPropertySetCallbackEjN2v85LocalINS1_5ValueEEERKNS1_20PropertyCallbackInfoIS3_EE, symObjAddr: 0x318, symBinAddr: 0x51EC, symSize: 0x114 }
  - { offsetInCU: 0x77D3, offset: 0x336BD, size: 0x8, addend: 0x0, symName: __ZN3tns16ExtVectorWrapperD1Ev, symObjAddr: 0x518, symBinAddr: 0x53EC, symSize: 0x4 }
  - { offsetInCU: 0x77FE, offset: 0x336E8, size: 0x8, addend: 0x0, symName: __ZN3tns16ExtVectorWrapperD0Ev, symObjAddr: 0x51C, symBinAddr: 0x53F0, symSize: 0x4 }
  - { offsetInCU: 0x7829, offset: 0x33713, size: 0x8, addend: 0x0, symName: __ZN3tns16ExtVectorWrapper4TypeEv, symObjAddr: 0x520, symBinAddr: 0x53F4, symSize: 0x8 }
  - { offsetInCU: 0x7A60, offset: 0x3394A, size: 0x8, addend: 0x0, symName: '__ZZN3tns9ExtVector22RegisterToStringMethodEPN2v87IsolateENS1_5LocalINS1_14ObjectTemplateEEEEN3$_08__invokeERKNS1_20FunctionCallbackInfoINS1_5ValueEEE', symObjAddr: 0x528, symBinAddr: 0x53FC, symSize: 0x144 }
  - { offsetInCU: 0x59, offset: 0x34170, size: 0x8, addend: 0x0, symName: __ZN3tnsL12NSTimerClassE, symObjAddr: 0x1DD6E0, symBinAddr: 0x157ECA0, symSize: 0x0 }
  - { offsetInCU: 0x1FC6, offset: 0x360DD, size: 0x8, addend: 0x0, symName: __ZN3tns8ToStringEPN2v87IsolateERKNS0_5LocalINS0_5ValueEEE, symObjAddr: 0xFFC, symBinAddr: 0x653C, symSize: 0xBC }
  - { offsetInCU: 0x124CE, offset: 0x465E5, size: 0x8, addend: 0x0, symName: __ZNSt3__124__put_character_sequenceB7v160006IcNS_11char_traitsIcEEEERNS_13basic_ostreamIT_T0_EES7_PKS4_m, symObjAddr: 0x28BC, symBinAddr: 0x7C38, symSize: 0x164 }
  - { offsetInCU: 0x13F81, offset: 0x48098, size: 0x8, addend: 0x0, symName: __ZNSt3__115allocate_sharedB7v160006IN3tns6CachesENS_9allocatorIS2_EEJRPN2v87IsolateEEvEENS_10shared_ptrIT_EERKT0_DpOT1_, symObjAddr: 0x11A4, symBinAddr: 0x66E4, symSize: 0x58 }
  - { offsetInCU: 0x1424C, offset: 0x48363, size: 0x8, addend: 0x0, symName: __ZNSt3__115allocate_sharedB7v160006IN2v810PersistentINS1_5ValueENS1_27NonCopyablePersistentTraitsIS3_EEEENS_9allocatorIS6_EEJRPNS1_7IsolateERKNS1_5LocalIS3_EEEvEENS_10shared_ptrIT_EERKT0_DpOT1_, symObjAddr: 0x1E38, symBinAddr: 0x71B4, symSize: 0x60 }
  - { offsetInCU: 0x14810, offset: 0x48927, size: 0x8, addend: 0x0, symName: __ZNSt3__130__uninitialized_allocator_copyB7v160006INS_9allocatorIN3tns11StructFieldEEEPS3_S5_S5_EET2_RT_T0_T1_S6_, symObjAddr: 0x14A8, symBinAddr: 0x6968, symSize: 0xB8 }
  - { offsetInCU: 0x14A15, offset: 0x48B2C, size: 0x8, addend: 0x0, symName: __ZNSt3__119__allocate_at_leastB7v160006INS_9allocatorIN3tns11StructFieldEEEEENS_19__allocation_resultINS_16allocator_traitsIT_E7pointerEEERS7_m, symObjAddr: 0x13F0, symBinAddr: 0x6924, symSize: 0x44 }
  - { offsetInCU: 0x15924, offset: 0x49A3B, size: 0x8, addend: 0x0, symName: __ZNSt3__116__pad_and_outputB7v160006IcNS_11char_traitsIcEEEENS_19ostreambuf_iteratorIT_T0_EES6_PKS4_S8_S8_RNS_8ios_baseES4_, symObjAddr: 0x2A20, symBinAddr: 0x7D9C, symSize: 0x13C }
  - { offsetInCU: 0x1625F, offset: 0x4A376, size: 0x8, addend: 0x0, symName: __ZSt28__throw_bad_array_new_lengthB7v160006v, symObjAddr: 0x11FC, symBinAddr: 0x673C, symSize: 0x28 }
  - { offsetInCU: 0x203A8, offset: 0x544BF, size: 0x8, addend: 0x0, symName: __ZN3tns13ObjectManager4InitEPN2v87IsolateENS1_5LocalINS1_14ObjectTemplateEEE, symObjAddr: 0x0, symBinAddr: 0x5540, symSize: 0xEC }
  - { offsetInCU: 0x2092F, offset: 0x54A46, size: 0x8, addend: 0x0, symName: __ZNSt3__115allocate_sharedB7v160006IN2v810PersistentINS1_5ValueENS1_27NonCopyablePersistentTraitsIS3_EEEENS_9allocatorIS6_EEJRPNS1_7IsolateERKNS1_5LocalIS3_EEEvEENS_10shared_ptrIT_EERKT0_DpOT1_, symObjAddr: 0x1E38, symBinAddr: 0x71B4, symSize: 0x60 }
  - { offsetInCU: 0x20D06, offset: 0x54E1D, size: 0x8, addend: 0x0, symName: __ZN3tns13ObjectManager32ReleaseNativeCounterpartCallbackERKN2v820FunctionCallbackInfoINS1_5ValueEEE, symObjAddr: 0xEC, symBinAddr: 0x562C, symSize: 0x480 }
  - { offsetInCU: 0x220E1, offset: 0x561F8, size: 0x8, addend: 0x0, symName: __ZNSt3__119basic_ostringstreamIcNS_11char_traitsIcEENS_9allocatorIcEEEC1B7v160006Ev, symObjAddr: 0xE9C, symBinAddr: 0x63DC, symSize: 0xD4 }
  - { offsetInCU: 0x2219F, offset: 0x562B6, size: 0x8, addend: 0x0, symName: __ZNKSt3__115basic_stringbufIcNS_11char_traitsIcEENS_9allocatorIcEEE3strEv, symObjAddr: 0x2BF4, symBinAddr: 0x7F70, symSize: 0x68 }
  - { offsetInCU: 0x22310, offset: 0x56427, size: 0x8, addend: 0x0, symName: __ZNK10robin_hood6detail5TableILb1ELm80EP11objc_objectNSt3__110shared_ptrIN2v810PersistentINS6_5ValueENS6_27NonCopyablePersistentTraitsIS8_EEEEEENS_4hashIS3_vEENS4_8equal_toIS3_EEE7findIdxIS3_EEmRKT_, symObjAddr: 0x2CF4, symBinAddr: 0x8070, symSize: 0xE8 }
  - { offsetInCU: 0x2236C, offset: 0x56483, size: 0x8, addend: 0x0, symName: __ZNK10robin_hood6detail5TableILb1ELm80EP11objc_objectNSt3__110shared_ptrIN2v810PersistentINS6_5ValueENS6_27NonCopyablePersistentTraitsIS8_EEEEEENS_4hashIS3_vEENS4_8equal_toIS3_EEE7findIdxIS3_EEmRKT_, symObjAddr: 0x2CF4, symBinAddr: 0x8070, symSize: 0xE8 }
  - { offsetInCU: 0x224A8, offset: 0x565BF, size: 0x8, addend: 0x0, symName: __ZNSt3__110shared_ptrIN2v810PersistentINS1_5ValueENS1_27NonCopyablePersistentTraitsIS3_EEEEED2B7v160006Ev, symObjAddr: 0x1CEC, symBinAddr: 0x7104, symSize: 0x58 }
  - { offsetInCU: 0x2252D, offset: 0x56644, size: 0x8, addend: 0x0, symName: __ZN10robin_hood6detail5TableILb1ELm80EP11objc_objectNSt3__110shared_ptrIN2v810PersistentINS6_5ValueENS6_27NonCopyablePersistentTraitsIS8_EEEEEENS_4hashIS3_vEENS4_8equal_toIS3_EEE5eraseENSH_4IterILb0EEE, symObjAddr: 0x10B8, symBinAddr: 0x65F8, symSize: 0xA0 }
  - { offsetInCU: 0x225DC, offset: 0x566F3, size: 0x8, addend: 0x0, symName: __ZNSt3__110shared_ptrIN3tns6CachesEED2B7v160006Ev, symObjAddr: 0x1D44, symBinAddr: 0x715C, symSize: 0x58 }
  - { offsetInCU: 0x22661, offset: 0x56778, size: 0x8, addend: 0x0, symName: __ZNSt3__119basic_ostringstreamIcNS_11char_traitsIcEENS_9allocatorIcEEED1Ev, symObjAddr: 0xF70, symBinAddr: 0x64B0, symSize: 0x8C }
  - { offsetInCU: 0x22940, offset: 0x56A57, size: 0x8, addend: 0x0, symName: __ZN3tns13ObjectManager8RegisterEN2v85LocalINS1_7ContextEEENS2_INS1_5ValueEEE, symObjAddr: 0x56C, symBinAddr: 0x5AAC, symSize: 0x100 }
  - { offsetInCU: 0x22D75, offset: 0x56E8C, size: 0x8, addend: 0x0, symName: __ZN3tns13ObjectManager17FinalizerCallbackERKN2v816WeakCallbackInfoINS_23ObjectWeakCallbackStateEEE, symObjAddr: 0x66C, symBinAddr: 0x5BAC, symSize: 0x98 }
  - { offsetInCU: 0x22FB6, offset: 0x570CD, size: 0x8, addend: 0x0, symName: __ZN3tns13ObjectManager12DisposeValueEPN2v87IsolateENS1_5LocalINS1_5ValueEEEb, symObjAddr: 0x704, symBinAddr: 0x5C44, symSize: 0x4AC }
  - { offsetInCU: 0x247B3, offset: 0x588CA, size: 0x8, addend: 0x0, symName: __ZN10robin_hood6detail5TableILb1ELm80EP11objc_objectNSt3__110shared_ptrIN2v810PersistentINS6_5ValueENS6_27NonCopyablePersistentTraitsIS8_EEEEEENS_4hashIS3_vEENS4_8equal_toIS3_EEE5eraseERKS3_, symObjAddr: 0xD14, symBinAddr: 0x6254, symSize: 0xC4 }
  - { offsetInCU: 0x248DD, offset: 0x589F4, size: 0x8, addend: 0x0, symName: __ZN10robin_hood6detail5TableILb1ELm80EPKvNSt3__110shared_ptrIN2v810PersistentINS6_6ObjectENS6_27NonCopyablePersistentTraitsIS8_EEEEEENS_4hashIS3_vEENS4_8equal_toIS3_EEE5eraseERKS3_, symObjAddr: 0xDD8, symBinAddr: 0x6318, symSize: 0xC4 }
  - { offsetInCU: 0x24A07, offset: 0x58B1E, size: 0x8, addend: 0x0, symName: __ZN3tns17StructTypeWrapper10StructInfoEv, symObjAddr: 0xBB0, symBinAddr: 0x60F0, symSize: 0x5C }
  - { offsetInCU: 0x24BB5, offset: 0x58CCC, size: 0x8, addend: 0x0, symName: __ZN3tns10StructInfoD1Ev, symObjAddr: 0xC0C, symBinAddr: 0x614C, symSize: 0x38 }
  - { offsetInCU: 0x24D47, offset: 0x58E5E, size: 0x8, addend: 0x0, symName: __ZN10robin_hood6detail5TableILb1ELm80ENSt3__14pairIPvNS2_12basic_stringIcNS2_11char_traitsIcEENS2_9allocatorIcEEEEEENS2_10shared_ptrIN2v810PersistentINSD_5ValueENSD_27NonCopyablePersistentTraitsISF_EEEEEEN3tns9pair_hashENS2_8equal_toISB_EEE5eraseERKSB_, symObjAddr: 0xC44, symBinAddr: 0x6184, symSize: 0xD0 }
  - { offsetInCU: 0x24E88, offset: 0x58F9F, size: 0x8, addend: 0x0, symName: __ZNSt3__16vectorIN3tns11StructFieldENS_9allocatorIS2_EEEC2ERKS5_, symObjAddr: 0x12D8, symBinAddr: 0x680C, symSize: 0xB4 }
  - { offsetInCU: 0x2510E, offset: 0x59225, size: 0x8, addend: 0x0, symName: __ZNSt3__16vectorIN3tns11StructFieldENS_9allocatorIS2_EEED2B7v160006Ev, symObjAddr: 0x16A8, symBinAddr: 0x6B68, symSize: 0x38 }
  - { offsetInCU: 0x25220, offset: 0x59337, size: 0x8, addend: 0x0, symName: __ZNK3tns9pair_hashclIPvNSt3__112basic_stringIcNS3_11char_traitsIcEENS3_9allocatorIcEEEEEEmRKNS3_4pairIT_T0_EE, symObjAddr: 0x20FC, symBinAddr: 0x7478, symSize: 0x68 }
  - { offsetInCU: 0x25355, offset: 0x5946C, size: 0x8, addend: 0x0, symName: __ZNKSt3__18equal_toINS_4pairIPvNS_12basic_stringIcNS_11char_traitsIcEENS_9allocatorIcEEEEEEEclB7v160006ERKS9_SC_, symObjAddr: 0x1F40, symBinAddr: 0x72BC, symSize: 0xC0 }
  - { offsetInCU: 0x25543, offset: 0x5965A, size: 0x8, addend: 0x0, symName: __ZN10robin_hood6detail5TableILb1ELm80ENSt3__14pairIPvNS2_12basic_stringIcNS2_11char_traitsIcEENS2_9allocatorIcEEEEEENS2_10shared_ptrIN2v810PersistentINSD_5ValueENSD_27NonCopyablePersistentTraitsISF_EEEEEEN3tns9pair_hashENS2_8equal_toISB_EEE9shiftDownEm, symObjAddr: 0x2000, symBinAddr: 0x737C, symSize: 0xFC }
  - { offsetInCU: 0x259A5, offset: 0x59ABC, size: 0x8, addend: 0x0, symName: __ZN10robin_hood6detail5TableILb1ELm80EP11objc_objectNSt3__110shared_ptrIN2v810PersistentINS6_5ValueENS6_27NonCopyablePersistentTraitsIS8_EEEEEENS_4hashIS3_vEENS4_8equal_toIS3_EEE9shiftDownEm, symObjAddr: 0x26C0, symBinAddr: 0x7A3C, symSize: 0xA0 }
  - { offsetInCU: 0x25BA9, offset: 0x59CC0, size: 0x8, addend: 0x0, symName: __ZN10robin_hood6detail5TableILb1ELm80EPKvNSt3__110shared_ptrIN2v810PersistentINS6_6ObjectENS6_27NonCopyablePersistentTraitsIS8_EEEEEENS_4hashIS3_vEENS4_8equal_toIS3_EEE9shiftDownEm, symObjAddr: 0x2760, symBinAddr: 0x7ADC, symSize: 0xA0 }
  - { offsetInCU: 0x260E2, offset: 0x5A1F9, size: 0x8, addend: 0x0, symName: __ZN3tns13ObjectManager12IsInstanceOfEP11objc_objectP10objc_class, symObjAddr: 0x1158, symBinAddr: 0x6698, symSize: 0x8 }
  - { offsetInCU: 0x26128, offset: 0x5A23F, size: 0x8, addend: 0x0, symName: __ZN3tns13ObjectManager14GetRetainCountEP11objc_object, symObjAddr: 0x1160, symBinAddr: 0x66A0, symSize: 0x44 }
  - { offsetInCU: 0x263BF, offset: 0x5A4D6, size: 0x8, addend: 0x0, symName: __ZNSt3__120__shared_ptr_emplaceIN3tns6CachesENS_9allocatorIS2_EEEC2B7v160006IJRPN2v87IsolateEEEES4_DpOT_, symObjAddr: 0x1224, symBinAddr: 0x6764, symSize: 0x64 }
  - { offsetInCU: 0x264B0, offset: 0x5A5C7, size: 0x8, addend: 0x0, symName: __ZNSt3__120__shared_ptr_emplaceIN3tns6CachesENS_9allocatorIS2_EEED1Ev, symObjAddr: 0x1288, symBinAddr: 0x67C8, symSize: 0x14 }
  - { offsetInCU: 0x264D1, offset: 0x5A5E8, size: 0x8, addend: 0x0, symName: __ZNSt3__120__shared_ptr_emplaceIN3tns6CachesENS_9allocatorIS2_EEED1Ev, symObjAddr: 0x1288, symBinAddr: 0x67C8, symSize: 0x14 }
  - { offsetInCU: 0x26509, offset: 0x5A620, size: 0x8, addend: 0x0, symName: __ZNSt3__120__shared_ptr_emplaceIN3tns6CachesENS_9allocatorIS2_EEED0Ev, symObjAddr: 0x129C, symBinAddr: 0x67DC, symSize: 0x24 }
  - { offsetInCU: 0x26570, offset: 0x5A687, size: 0x8, addend: 0x0, symName: __ZNSt3__120__shared_ptr_emplaceIN3tns6CachesENS_9allocatorIS2_EEE16__on_zero_sharedEv, symObjAddr: 0x12C0, symBinAddr: 0x6800, symSize: 0x8 }
  - { offsetInCU: 0x26599, offset: 0x5A6B0, size: 0x8, addend: 0x0, symName: __ZNSt3__120__shared_ptr_emplaceIN3tns6CachesENS_9allocatorIS2_EEE16__on_zero_sharedEv, symObjAddr: 0x12C0, symBinAddr: 0x6800, symSize: 0x8 }
  - { offsetInCU: 0x265B5, offset: 0x5A6CC, size: 0x8, addend: 0x0, symName: __ZNSt3__120__shared_ptr_emplaceIN3tns6CachesENS_9allocatorIS2_EEE21__on_zero_shared_weakEv, symObjAddr: 0x12C8, symBinAddr: 0x6808, symSize: 0x4 }
  - { offsetInCU: 0x265E8, offset: 0x5A6FF, size: 0x8, addend: 0x0, symName: __ZNSt3__120__shared_ptr_emplaceIN3tns6CachesENS_9allocatorIS2_EEE21__on_zero_shared_weakEv, symObjAddr: 0x12C8, symBinAddr: 0x6808, symSize: 0x4 }
  - { offsetInCU: 0x2660C, offset: 0x5A723, size: 0x8, addend: 0x0, symName: __ZNSt3__120__shared_ptr_emplaceIN3tns6CachesENS_9allocatorIS2_EEE21__on_zero_shared_weakEv, symObjAddr: 0x12C8, symBinAddr: 0x6808, symSize: 0x4 }
  - { offsetInCU: 0x26630, offset: 0x5A747, size: 0x8, addend: 0x0, symName: __ZNSt3__120__shared_ptr_emplaceIN3tns6CachesENS_9allocatorIS2_EEE21__on_zero_shared_weakEv, symObjAddr: 0x12C8, symBinAddr: 0x6808, symSize: 0x4 }
  - { offsetInCU: 0x2665E, offset: 0x5A775, size: 0x8, addend: 0x0, symName: __ZNSt3__120__shared_ptr_emplaceIN3tns6CachesENS_9allocatorIS2_EEE21__on_zero_shared_weakEv, symObjAddr: 0x12C8, symBinAddr: 0x6808, symSize: 0x4 }
  - { offsetInCU: 0x26687, offset: 0x5A79E, size: 0x8, addend: 0x0, symName: __ZNSt3__120__shared_ptr_emplaceIN3tns6CachesENS_9allocatorIS2_EEE21__on_zero_shared_weakEv, symObjAddr: 0x12C8, symBinAddr: 0x6808, symSize: 0x4 }
  - { offsetInCU: 0x26852, offset: 0x5A969, size: 0x8, addend: 0x0, symName: __ZNSt3__16vectorIN3tns11StructFieldENS_9allocatorIS2_EEE11__vallocateB7v160006Em, symObjAddr: 0x138C, symBinAddr: 0x68C0, symSize: 0x50 }
  - { offsetInCU: 0x268C9, offset: 0x5A9E0, size: 0x8, addend: 0x0, symName: __ZNKSt3__16vectorIN3tns11StructFieldENS_9allocatorIS2_EEE20__throw_length_errorB7v160006Ev, symObjAddr: 0x13DC, symBinAddr: 0x6910, symSize: 0x14 }
  - { offsetInCU: 0x268D5, offset: 0x5A9EC, size: 0x8, addend: 0x0, symName: __ZNSt3__128__exception_guard_exceptionsINS_6vectorIN3tns11StructFieldENS_9allocatorIS3_EEE16__destroy_vectorEED2B7v160006Ev, symObjAddr: 0x15E0, symBinAddr: 0x6AA0, symSize: 0x34 }
  - { offsetInCU: 0x26923, offset: 0x5AA3A, size: 0x8, addend: 0x0, symName: __ZNKSt3__16vectorIN3tns11StructFieldENS_9allocatorIS2_EEE20__throw_length_errorB7v160006Ev, symObjAddr: 0x13DC, symBinAddr: 0x6910, symSize: 0x14 }
  - { offsetInCU: 0x2694C, offset: 0x5AA63, size: 0x8, addend: 0x0, symName: __ZNSt3__119__allocate_at_leastB7v160006INS_9allocatorIN3tns11StructFieldEEEEENS_19__allocation_resultINS_16allocator_traitsIT_E7pointerEEERS7_m, symObjAddr: 0x13F0, symBinAddr: 0x6924, symSize: 0x44 }
  - { offsetInCU: 0x26B1C, offset: 0x5AC33, size: 0x8, addend: 0x0, symName: __ZNSt3__128__exception_guard_exceptionsINS_29_AllocatorDestroyRangeReverseINS_9allocatorIN3tns11StructFieldEEEPS4_EEED2B7v160006Ev, symObjAddr: 0x1560, symBinAddr: 0x6A20, symSize: 0x34 }
  - { offsetInCU: 0x26B55, offset: 0x5AC6C, size: 0x8, addend: 0x0, symName: __ZNKSt3__129_AllocatorDestroyRangeReverseINS_9allocatorIN3tns11StructFieldEEEPS3_EclB7v160006Ev, symObjAddr: 0x1594, symBinAddr: 0x6A54, symSize: 0x4C }
  - { offsetInCU: 0x26E7C, offset: 0x5AF93, size: 0x8, addend: 0x0, symName: __ZNSt3__16vectorIN3tns11StructFieldENS_9allocatorIS2_EEE16__destroy_vectorclB7v160006Ev, symObjAddr: 0x1614, symBinAddr: 0x6AD4, symSize: 0x40 }
  - { offsetInCU: 0x26FBE, offset: 0x5B0D5, size: 0x8, addend: 0x0, symName: __ZNSt3__16vectorIN3tns11StructFieldENS_9allocatorIS2_EEE7__clearB7v160006Ev, symObjAddr: 0x1654, symBinAddr: 0x6B14, symSize: 0x54 }
  - { offsetInCU: 0x27245, offset: 0x5B35C, size: 0x8, addend: 0x0, symName: __ZTv0_n24_NSt3__119basic_ostringstreamIcNS_11char_traitsIcEENS_9allocatorIcEEED1Ev, symObjAddr: 0x16E0, symBinAddr: 0x6BA0, symSize: 0x8C }
  - { offsetInCU: 0x273F8, offset: 0x5B50F, size: 0x8, addend: 0x0, symName: __ZNSt3__119basic_ostringstreamIcNS_11char_traitsIcEENS_9allocatorIcEEED0Ev, symObjAddr: 0x176C, symBinAddr: 0x6C2C, symSize: 0x8C }
  - { offsetInCU: 0x275CE, offset: 0x5B6E5, size: 0x8, addend: 0x0, symName: __ZTv0_n24_NSt3__119basic_ostringstreamIcNS_11char_traitsIcEENS_9allocatorIcEEED0Ev, symObjAddr: 0x17F8, symBinAddr: 0x6CB8, symSize: 0x94 }
  - { offsetInCU: 0x2779D, offset: 0x5B8B4, size: 0x8, addend: 0x0, symName: __ZNSt3__115basic_stringbufIcNS_11char_traitsIcEENS_9allocatorIcEEED1Ev, symObjAddr: 0x188C, symBinAddr: 0x6D4C, symSize: 0x40 }
  - { offsetInCU: 0x27910, offset: 0x5BA27, size: 0x8, addend: 0x0, symName: __ZNSt3__115basic_stringbufIcNS_11char_traitsIcEENS_9allocatorIcEEED0Ev, symObjAddr: 0x18CC, symBinAddr: 0x6D8C, symSize: 0x44 }
  - { offsetInCU: 0x27B81, offset: 0x5BC98, size: 0x8, addend: 0x0, symName: __ZNSt3__115basic_stringbufIcNS_11char_traitsIcEENS_9allocatorIcEEE7seekoffExNS_8ios_base7seekdirEj, symObjAddr: 0x1910, symBinAddr: 0x6DD0, symSize: 0x100 }
  - { offsetInCU: 0x27D8F, offset: 0x5BEA6, size: 0x8, addend: 0x0, symName: __ZNSt3__115basic_stringbufIcNS_11char_traitsIcEENS_9allocatorIcEEE7seekposENS_4fposI11__mbstate_tEEj, symObjAddr: 0x1A10, symBinAddr: 0x6ED0, symSize: 0x18 }
  - { offsetInCU: 0x27E14, offset: 0x5BF2B, size: 0x8, addend: 0x0, symName: __ZNSt3__115basic_stringbufIcNS_11char_traitsIcEENS_9allocatorIcEEE9underflowEv, symObjAddr: 0x1A28, symBinAddr: 0x6EE8, symSize: 0x50 }
  - { offsetInCU: 0x27EBC, offset: 0x5BFD3, size: 0x8, addend: 0x0, symName: __ZNSt3__115basic_stringbufIcNS_11char_traitsIcEENS_9allocatorIcEEE9pbackfailEi, symObjAddr: 0x1A78, symBinAddr: 0x6F38, symSize: 0x6C }
  - { offsetInCU: 0x2809E, offset: 0x5C1B5, size: 0x8, addend: 0x0, symName: __ZNSt3__115basic_stringbufIcNS_11char_traitsIcEENS_9allocatorIcEEE8overflowEi, symObjAddr: 0x1AE4, symBinAddr: 0x6FA4, symSize: 0x160 }
  - { offsetInCU: 0x285DD, offset: 0x5C6F4, size: 0x8, addend: 0x0, symName: __ZNSt3__110shared_ptrIN2v810PersistentINS1_5ValueENS1_27NonCopyablePersistentTraitsIS3_EEEEED2B7v160006Ev, symObjAddr: 0x1CEC, symBinAddr: 0x7104, symSize: 0x58 }
  - { offsetInCU: 0x28824, offset: 0x5C93B, size: 0x8, addend: 0x0, symName: __ZNSt3__120__shared_ptr_emplaceIN2v810PersistentINS1_5ValueENS1_27NonCopyablePersistentTraitsIS3_EEEENS_9allocatorIS6_EEEC2B7v160006IJRPNS1_7IsolateERKNS1_5LocalIS3_EEEEES8_DpOT_, symObjAddr: 0x1E98, symBinAddr: 0x7214, symSize: 0x68 }
  - { offsetInCU: 0x28A66, offset: 0x5CB7D, size: 0x8, addend: 0x0, symName: __ZNSt3__120__shared_ptr_emplaceIN2v810PersistentINS1_5ValueENS1_27NonCopyablePersistentTraitsIS3_EEEENS_9allocatorIS6_EEED1Ev, symObjAddr: 0x1F00, symBinAddr: 0x727C, symSize: 0x14 }
  - { offsetInCU: 0x28A87, offset: 0x5CB9E, size: 0x8, addend: 0x0, symName: __ZNSt3__120__shared_ptr_emplaceIN2v810PersistentINS1_5ValueENS1_27NonCopyablePersistentTraitsIS3_EEEENS_9allocatorIS6_EEED1Ev, symObjAddr: 0x1F00, symBinAddr: 0x727C, symSize: 0x14 }
  - { offsetInCU: 0x28ABF, offset: 0x5CBD6, size: 0x8, addend: 0x0, symName: __ZNSt3__120__shared_ptr_emplaceIN2v810PersistentINS1_5ValueENS1_27NonCopyablePersistentTraitsIS3_EEEENS_9allocatorIS6_EEED0Ev, symObjAddr: 0x1F14, symBinAddr: 0x7290, symSize: 0x24 }
  - { offsetInCU: 0x28B26, offset: 0x5CC3D, size: 0x8, addend: 0x0, symName: __ZNSt3__120__shared_ptr_emplaceIN2v810PersistentINS1_5ValueENS1_27NonCopyablePersistentTraitsIS3_EEEENS_9allocatorIS6_EEE16__on_zero_sharedEv, symObjAddr: 0x1F38, symBinAddr: 0x72B4, symSize: 0x4 }
  - { offsetInCU: 0x28B4A, offset: 0x5CC61, size: 0x8, addend: 0x0, symName: __ZNSt3__120__shared_ptr_emplaceIN2v810PersistentINS1_5ValueENS1_27NonCopyablePersistentTraitsIS3_EEEENS_9allocatorIS6_EEE21__on_zero_shared_weakEv, symObjAddr: 0x1F3C, symBinAddr: 0x72B8, symSize: 0x4 }
  - { offsetInCU: 0x28B7D, offset: 0x5CC94, size: 0x8, addend: 0x0, symName: __ZNSt3__120__shared_ptr_emplaceIN2v810PersistentINS1_5ValueENS1_27NonCopyablePersistentTraitsIS3_EEEENS_9allocatorIS6_EEE21__on_zero_shared_weakEv, symObjAddr: 0x1F3C, symBinAddr: 0x72B8, symSize: 0x4 }
  - { offsetInCU: 0x28BA1, offset: 0x5CCB8, size: 0x8, addend: 0x0, symName: __ZNSt3__120__shared_ptr_emplaceIN2v810PersistentINS1_5ValueENS1_27NonCopyablePersistentTraitsIS3_EEEENS_9allocatorIS6_EEE21__on_zero_shared_weakEv, symObjAddr: 0x1F3C, symBinAddr: 0x72B8, symSize: 0x4 }
  - { offsetInCU: 0x28BC5, offset: 0x5CCDC, size: 0x8, addend: 0x0, symName: __ZNSt3__120__shared_ptr_emplaceIN2v810PersistentINS1_5ValueENS1_27NonCopyablePersistentTraitsIS3_EEEENS_9allocatorIS6_EEE21__on_zero_shared_weakEv, symObjAddr: 0x1F3C, symBinAddr: 0x72B8, symSize: 0x4 }
  - { offsetInCU: 0x28BF1, offset: 0x5CD08, size: 0x8, addend: 0x0, symName: __ZNSt3__120__shared_ptr_emplaceIN2v810PersistentINS1_5ValueENS1_27NonCopyablePersistentTraitsIS3_EEEENS_9allocatorIS6_EEE21__on_zero_shared_weakEv, symObjAddr: 0x1F3C, symBinAddr: 0x72B8, symSize: 0x4 }
  - { offsetInCU: 0x28C18, offset: 0x5CD2F, size: 0x8, addend: 0x0, symName: __ZNSt3__120__shared_ptr_emplaceIN2v810PersistentINS1_5ValueENS1_27NonCopyablePersistentTraitsIS3_EEEENS_9allocatorIS6_EEE21__on_zero_shared_weakEv, symObjAddr: 0x1F3C, symBinAddr: 0x72B8, symSize: 0x4 }
  - { offsetInCU: 0x28DA2, offset: 0x5CEB9, size: 0x8, addend: 0x0, symName: __ZNSt3__110shared_ptrIN2v810PersistentINS1_5ValueENS1_27NonCopyablePersistentTraitsIS3_EEEEEaSB7v160006EOS7_, symObjAddr: 0x265C, symBinAddr: 0x79D8, symSize: 0x64 }
  - { offsetInCU: 0x290C0, offset: 0x5D1D7, size: 0x8, addend: 0x0, symName: __ZNKSt3__113__string_hashIcNS_9allocatorIcEEEclERKNS_12basic_stringIcNS_11char_traitsIcEES2_EE, symObjAddr: 0x2164, symBinAddr: 0x74E0, symSize: 0x3C }
  - { offsetInCU: 0x2918B, offset: 0x5D2A2, size: 0x8, addend: 0x0, symName: __ZNSt3__121__murmur2_or_cityhashImLm64EEclEPKvm, symObjAddr: 0x21A0, symBinAddr: 0x751C, symSize: 0x208 }
  - { offsetInCU: 0x297F7, offset: 0x5D90E, size: 0x8, addend: 0x0, symName: __ZNSt3__121__murmur2_or_cityhashImLm64EE18__hash_len_0_to_16EPKcm, symObjAddr: 0x23A8, symBinAddr: 0x7724, symSize: 0xF8 }
  - { offsetInCU: 0x299CB, offset: 0x5DAE2, size: 0x8, addend: 0x0, symName: __ZNSt3__121__murmur2_or_cityhashImLm64EE19__hash_len_33_to_64EPKcm, symObjAddr: 0x254C, symBinAddr: 0x78C8, symSize: 0x110 }
  - { offsetInCU: 0x29B5C, offset: 0x5DC73, size: 0x8, addend: 0x0, symName: __ZNSt3__121__murmur2_or_cityhashImLm64EE19__hash_len_17_to_32EPKcm, symObjAddr: 0x24A0, symBinAddr: 0x781C, symSize: 0xAC }
  - { offsetInCU: 0x29EBB, offset: 0x5DFD2, size: 0x8, addend: 0x0, symName: __ZNSt3__110shared_ptrIN2v810PersistentINS1_6ObjectENS1_27NonCopyablePersistentTraitsIS3_EEEEEaSB7v160006EOS7_, symObjAddr: 0x2800, symBinAddr: 0x7B7C, symSize: 0x64 }
  - { offsetInCU: 0x2A019, offset: 0x5E130, size: 0x8, addend: 0x0, symName: __ZNSt3__110shared_ptrIN2v810PersistentINS1_6ObjectENS1_27NonCopyablePersistentTraitsIS3_EEEEED2B7v160006Ev, symObjAddr: 0x2864, symBinAddr: 0x7BE0, symSize: 0x58 }
  - { offsetInCU: 0x2A376, offset: 0x5E48D, size: 0x8, addend: 0x0, symName: __ZNSt3__112basic_stringIcNS_11char_traitsIcEENS_9allocatorIcEEEC2B7v160006Emc, symObjAddr: 0x2B5C, symBinAddr: 0x7ED8, symSize: 0x98 }
  - { offsetInCU: 0x2A5A3, offset: 0x5E6BA, size: 0x8, addend: 0x0, symName: __ZNKSt3__115basic_stringbufIcNS_11char_traitsIcEENS_9allocatorIcEEE3strEv, symObjAddr: 0x2BF4, symBinAddr: 0x7F70, symSize: 0x68 }
  - { offsetInCU: 0x2A6BA, offset: 0x5E7D1, size: 0x8, addend: 0x0, symName: __ZNSt3__112basic_stringIcNS_11char_traitsIcEENS_9allocatorIcEEEC2B7v160006IPcvEET_S8_RKS4_, symObjAddr: 0x2C5C, symBinAddr: 0x7FD8, symSize: 0x98 }
  - { offsetInCU: 0x2A909, offset: 0x5EA20, size: 0x8, addend: 0x0, symName: __ZNK10robin_hood6detail5TableILb1ELm80EP11objc_objectNSt3__110shared_ptrIN2v810PersistentINS6_5ValueENS6_27NonCopyablePersistentTraitsIS8_EEEEEENS_4hashIS3_vEENS4_8equal_toIS3_EEE7findIdxIS3_EEmRKT_, symObjAddr: 0x2CF4, symBinAddr: 0x8070, symSize: 0xE8 }
  - { offsetInCU: 0x53, offset: 0x5EB1A, size: 0x8, addend: 0x0, symName: __ZN12v8_inspector19JsV8InspectorClient7DomainsE, symObjAddr: 0x86FFF0, symBinAddr: 0x1593C80, symSize: 0x0 }
  - { offsetInCU: 0x72403, offset: 0xD0ECA, size: 0x8, addend: 0x0, symName: __ZNSt3__125__throw_bad_function_callB7v160006Ev, symObjAddr: 0x4514, symBinAddr: 0xC32C, symSize: 0x34 }
  - { offsetInCU: 0x7308A, offset: 0xD1B51, size: 0x8, addend: 0x0, symName: __ZNSt3__119__allocate_at_leastB7v160006INS_9allocatorIPNS_12basic_stringIcNS_11char_traitsIcEENS1_IcEEEEEEEENS_19__allocation_resultINS_16allocator_traitsIT_E7pointerEEERSB_m, symObjAddr: 0x41F8, symBinAddr: 0xC010, symSize: 0x34 }
  - { offsetInCU: 0x7312F, offset: 0xD1BF6, size: 0x8, addend: 0x0, symName: '__ZNSt3__110__function6__funcIZN12v8_inspector19JsV8InspectorClient25onFrontendMessageReceivedENS_12basic_stringIcNS_11char_traitsIcEENS_9allocatorIcEEEEE3$_2NS7_ISA_EEFvvEED1Ev', symObjAddr: 0x422C, symBinAddr: 0xC044, symSize: 0x3C }
  - { offsetInCU: 0x736C3, offset: 0xD218A, size: 0x8, addend: 0x0, symName: __ZNSt3__127__tree_balance_after_insertB7v160006IPNS_16__tree_node_baseIPvEEEEvT_S5_, symObjAddr: 0x49DC, symBinAddr: 0xC758, symSize: 0x198 }
  - { offsetInCU: 0x7A3B8, offset: 0xD8E7F, size: 0x8, addend: 0x0, symName: __ZN3tns10ToV8StringEPN2v87IsolateERKNSt3__112basic_stringIcNS3_11char_traitsIcEENS3_9allocatorIcEEEE, symObjAddr: 0x1A5C, symBinAddr: 0x9BD8, symSize: 0x50 }
  - { offsetInCU: 0x8CCE1, offset: 0xEB7A8, size: 0x8, addend: 0x0, symName: ____ZN12v8_inspector19JsV8InspectorClient15enableInspectorEiPPc_block_invoke_4, symObjAddr: 0x460, symBinAddr: 0x85DC, symSize: 0x190 }
  - { offsetInCU: 0x8D546, offset: 0xEC00D, size: 0x8, addend: 0x0, symName: __ZN12v8_inspector19JsV8InspectorClient25onFrontendMessageReceivedENSt3__112basic_stringIcNS1_11char_traitsIcEENS1_9allocatorIcEEEE, symObjAddr: 0xA08, symBinAddr: 0x8B84, symSize: 0x1BC }
  - { offsetInCU: 0x9019B, offset: 0xEEC62, size: 0x8, addend: 0x0, symName: __ZN12v8_inspector19JsV8InspectorClientC2EPN3tns7RuntimeE, symObjAddr: 0x0, symBinAddr: 0x817C, symSize: 0xD0 }
  - { offsetInCU: 0x90474, offset: 0xEEF3B, size: 0x8, addend: 0x0, symName: __ZN12v8_inspector19JsV8InspectorClientC2EPN3tns7RuntimeE.cold.1, symObjAddr: 0x4C10, symBinAddr: 0xB985BC, symSize: 0x20 }
  - { offsetInCU: 0x904FF, offset: 0xEEFC6, size: 0x8, addend: 0x0, symName: __ZN12v8_inspector19JsV8InspectorClientC1EPN3tns7RuntimeE, symObjAddr: 0xD0, symBinAddr: 0x824C, symSize: 0x4 }
  - { offsetInCU: 0x90539, offset: 0xEF000, size: 0x8, addend: 0x0, symName: __ZN12v8_inspector19JsV8InspectorClientC1EPN3tns7RuntimeE, symObjAddr: 0xD0, symBinAddr: 0x824C, symSize: 0x4 }
  - { offsetInCU: 0x90544, offset: 0xEF00B, size: 0x8, addend: 0x0, symName: __ZN12v8_inspector19JsV8InspectorClient15enableInspectorEiPPc, symObjAddr: 0xD4, symBinAddr: 0x8250, symSize: 0x23C }
  - { offsetInCU: 0x90776, offset: 0xEF23D, size: 0x8, addend: 0x0, symName: ____ZN12v8_inspector19JsV8InspectorClient15enableInspectorEiPPc_block_invoke, symObjAddr: 0x310, symBinAddr: 0x848C, symSize: 0xD4 }
  - { offsetInCU: 0x90942, offset: 0xEF409, size: 0x8, addend: 0x0, symName: ____ZN12v8_inspector19JsV8InspectorClient15enableInspectorEiPPc_block_invoke_2, symObjAddr: 0x3E4, symBinAddr: 0x8560, symSize: 0x2C }
  - { offsetInCU: 0x9097B, offset: 0xEF442, size: 0x8, addend: 0x0, symName: ____ZN12v8_inspector19JsV8InspectorClient15enableInspectorEiPPc_block_invoke_3, symObjAddr: 0x410, symBinAddr: 0x858C, symSize: 0x50 }
  - { offsetInCU: 0x90E5D, offset: 0xEF924, size: 0x8, addend: 0x0, symName: ____ZN12v8_inspector19JsV8InspectorClient15enableInspectorEiPPc_block_invoke_4.cold.1, symObjAddr: 0x4C30, symBinAddr: 0xB985DC, symSize: 0x40 }
  - { offsetInCU: 0x90ECF, offset: 0xEF996, size: 0x8, addend: 0x0, symName: __ZN12v8_inspector19JsV8InspectorClient19onFrontendConnectedENSt3__18functionIFvNS1_12basic_stringIcNS1_11char_traitsIcEENS1_9allocatorIcEEEEEEE, symObjAddr: 0x5F0, symBinAddr: 0x876C, symSize: 0xAC }
  - { offsetInCU: 0x90F6D, offset: 0xEFA34, size: 0x8, addend: 0x0, symName: __ZNSt3__18functionIFvNS_12basic_stringIcNS_11char_traitsIcEENS_9allocatorIcEEEEEEaSERKS8_, symObjAddr: 0x89C, symBinAddr: 0x8A18, symSize: 0x98 }
  - { offsetInCU: 0x910EB, offset: 0xEFBB2, size: 0x8, addend: 0x0, symName: __ZN12v8_inspector19JsV8InspectorClient10disconnectEv, symObjAddr: 0x934, symBinAddr: 0x8AB0, symSize: 0xD4 }
  - { offsetInCU: 0x912A6, offset: 0xEFD6D, size: 0x8, addend: 0x0, symName: ____ZN12v8_inspector19JsV8InspectorClient19onFrontendConnectedENSt3__18functionIFvNS1_12basic_stringIcNS1_11char_traitsIcEENS1_9allocatorIcEEEEEEE_block_invoke, symObjAddr: 0x69C, symBinAddr: 0x8818, symSize: 0x38 }
  - { offsetInCU: 0x912ED, offset: 0xEFDB4, size: 0x8, addend: 0x0, symName: __ZN12v8_inspector19JsV8InspectorClient13scheduleBreakEv, symObjAddr: 0x6D4, symBinAddr: 0x8850, symSize: 0x1C8 }
  - { offsetInCU: 0x91EEB, offset: 0xF09B2, size: 0x8, addend: 0x0, symName: __ZNSt3__15dequeINS_12basic_stringIcNS_11char_traitsIcEENS_9allocatorIcEEEENS4_IS6_EEE9pop_frontEv, symObjAddr: 0x45FC, symBinAddr: 0xC378, symSize: 0x74 }
  - { offsetInCU: 0x91F95, offset: 0xF0A5C, size: 0x8, addend: 0x0, symName: __ZNSt3__110__function12__value_funcIFvNS_12basic_stringIcNS_11char_traitsIcEENS_9allocatorIcEEEEEEC2B7v160006ERKS9_, symObjAddr: 0x3674, symBinAddr: 0xB48C, symSize: 0x64 }
  - { offsetInCU: 0x91FDA, offset: 0xF0AA1, size: 0x8, addend: 0x0, symName: __ZNSt3__110__function12__value_funcIFvNS_12basic_stringIcNS_11char_traitsIcEENS_9allocatorIcEEEEEE4swapB7v160006ERS9_, symObjAddr: 0x383C, symBinAddr: 0xB654, symSize: 0x16C }
  - { offsetInCU: 0x920D1, offset: 0xF0B98, size: 0x8, addend: 0x0, symName: __ZN12v8_inspector19JsV8InspectorClient22createInspectorSessionEv, symObjAddr: 0xD78, symBinAddr: 0x8EF4, symSize: 0x88 }
  - { offsetInCU: 0x92813, offset: 0xF12DA, size: 0x8, addend: 0x0, symName: ____ZN12v8_inspector19JsV8InspectorClient25onFrontendMessageReceivedENSt3__112basic_stringIcNS1_11char_traitsIcEENS1_9allocatorIcEEEE_block_invoke, symObjAddr: 0xBC4, symBinAddr: 0x8D40, symSize: 0x30 }
  - { offsetInCU: 0x9288D, offset: 0xF1354, size: 0x8, addend: 0x0, symName: __ZNSt3__15dequeINS_12basic_stringIcNS_11char_traitsIcEENS_9allocatorIcEEEENS4_IS6_EEE9push_backERKS6_, symObjAddr: 0x39A8, symBinAddr: 0xB7C0, symSize: 0xAC }
  - { offsetInCU: 0x929EC, offset: 0xF14B3, size: 0x8, addend: 0x0, symName: ___copy_helper_block_e8_40c66_ZTSNSt3__112basic_stringIcNS_11char_traitsIcEENS_9allocatorIcEEEE, symObjAddr: 0xBF4, symBinAddr: 0x8D70, symSize: 0xC }
  - { offsetInCU: 0x92A15, offset: 0xF14DC, size: 0x8, addend: 0x0, symName: ___destroy_helper_block_e8_40c66_ZTSNSt3__112basic_stringIcNS_11char_traitsIcEENS_9allocatorIcEEEE, symObjAddr: 0xC00, symBinAddr: 0x8D7C, symSize: 0x14 }
  - { offsetInCU: 0x92A65, offset: 0xF152C, size: 0x8, addend: 0x0, symName: ___destroy_helper_block_e8_40c66_ZTSNSt3__112basic_stringIcNS_11char_traitsIcEENS_9allocatorIcEEEE, symObjAddr: 0xC00, symBinAddr: 0x8D7C, symSize: 0x14 }
  - { offsetInCU: 0x92D60, offset: 0xF1827, size: 0x8, addend: 0x0, symName: __ZN12v8_inspector19JsV8InspectorClient4initEv, symObjAddr: 0xC14, symBinAddr: 0x8D90, symSize: 0x164 }
  - { offsetInCU: 0x9312A, offset: 0xF1BF1, size: 0x8, addend: 0x0, symName: __ZNKSt3__114default_deleteIN3tns9inspector16TracingAgentImplEEclB7v160006EPS3_, symObjAddr: 0x4484, symBinAddr: 0xC29C, symSize: 0x38 }
  - { offsetInCU: 0x93306, offset: 0xF1DCD, size: 0x8, addend: 0x0, symName: __ZN12v8_inspector19JsV8InspectorClient7connectEiPPc, symObjAddr: 0xE00, symBinAddr: 0x8F7C, symSize: 0xC }
  - { offsetInCU: 0x9345F, offset: 0xF1F26, size: 0x8, addend: 0x0, symName: __ZN12v8_inspector19JsV8InspectorClient21runMessageLoopOnPauseEi, symObjAddr: 0xE0C, symBinAddr: 0x8F88, symSize: 0x1F4 }
  - { offsetInCU: 0x9399E, offset: 0xF2465, size: 0x8, addend: 0x0, symName: __ZN12v8_inspector19JsV8InspectorClient11PumpMessageEv, symObjAddr: 0x1048, symBinAddr: 0x91C4, symSize: 0xE8 }
  - { offsetInCU: 0x93CAD, offset: 0xF2774, size: 0x8, addend: 0x0, symName: __ZN12v8_inspector19JsV8InspectorClient15dispatchMessageERKNSt3__112basic_stringIcNS1_11char_traitsIcEENS1_9allocatorIcEEEE, symObjAddr: 0x1130, symBinAddr: 0x92AC, symSize: 0x6E8 }
  - { offsetInCU: 0x9565D, offset: 0xF4124, size: 0x8, addend: 0x0, symName: __ZNSt3__110shared_ptrIN2v88PlatformEED2B7v160006Ev, symObjAddr: 0x44BC, symBinAddr: 0xC2D4, symSize: 0x58 }
  - { offsetInCU: 0x956E2, offset: 0xF41A9, size: 0x8, addend: 0x0, symName: ____ZN12v8_inspector19JsV8InspectorClient21runMessageLoopOnPauseEi_block_invoke, symObjAddr: 0x1000, symBinAddr: 0x917C, symSize: 0x2C }
  - { offsetInCU: 0x95723, offset: 0xF41EA, size: 0x8, addend: 0x0, symName: ___copy_helper_block_e8_32r, symObjAddr: 0x102C, symBinAddr: 0x91A8, symSize: 0x10 }
  - { offsetInCU: 0x9574C, offset: 0xF4213, size: 0x8, addend: 0x0, symName: ___destroy_helper_block_e8_32r, symObjAddr: 0x103C, symBinAddr: 0x91B8, symSize: 0xC }
  - { offsetInCU: 0x95CCC, offset: 0xF4793, size: 0x8, addend: 0x0, symName: __ZN12v8_inspector19JsV8InspectorClient25CallDomainHandlerFunctionEN2v85LocalINS1_7ContextEEENS2_INS1_8FunctionEEERKNS2_INS1_6ObjectEEERS8_RNS2_INS1_5ValueEEE, symObjAddr: 0x1AAC, symBinAddr: 0x9C28, symSize: 0x2B0 }
  - { offsetInCU: 0x96390, offset: 0xF4E57, size: 0x8, addend: 0x0, symName: __ZN12v8_inspector19JsV8InspectorClient39GetReturnMessageFromDomainHandlerResultERKN2v85LocalINS1_5ValueEEES6_, symObjAddr: 0x1D5C, symBinAddr: 0x9ED8, symSize: 0x4EC }
  - { offsetInCU: 0x9789D, offset: 0xF6364, size: 0x8, addend: 0x0, symName: ____ZN12v8_inspector19JsV8InspectorClient21runMessageLoopOnPauseEi_block_invoke.18, symObjAddr: 0x1818, symBinAddr: 0x9994, symSize: 0x10 }
  - { offsetInCU: 0x978C6, offset: 0xF638D, size: 0x8, addend: 0x0, symName: __ZN12v8_inspector19JsV8InspectorClient22quitMessageLoopOnPauseEv, symObjAddr: 0x1828, symBinAddr: 0x99A4, symSize: 0x58 }
  - { offsetInCU: 0x978FD, offset: 0xF63C4, size: 0x8, addend: 0x0, symName: ____ZN12v8_inspector19JsV8InspectorClient22quitMessageLoopOnPauseEv_block_invoke, symObjAddr: 0x1880, symBinAddr: 0x99FC, symSize: 0x10 }
  - { offsetInCU: 0x97926, offset: 0xF63ED, size: 0x8, addend: 0x0, symName: __ZN12v8_inspector19JsV8InspectorClient12sendResponseEiNSt3__110unique_ptrINS_12StringBufferENS1_14default_deleteIS3_EEEE, symObjAddr: 0x1890, symBinAddr: 0x9A0C, symSize: 0x74 }
  - { offsetInCU: 0x97B8B, offset: 0xF6652, size: 0x8, addend: 0x0, symName: __ZN12v8_inspector19JsV8InspectorClient6notifyENSt3__110unique_ptrINS_12StringBufferENS1_14default_deleteIS3_EEEE, symObjAddr: 0x1904, symBinAddr: 0x9A80, symSize: 0xCC }
  - { offsetInCU: 0x981F7, offset: 0xF6CBE, size: 0x8, addend: 0x0, symName: __ZThn8_N12v8_inspector19JsV8InspectorClient12sendResponseEiNSt3__110unique_ptrINS_12StringBufferENS1_14default_deleteIS3_EEEE, symObjAddr: 0x19D0, symBinAddr: 0x9B4C, symSize: 0x8 }
  - { offsetInCU: 0x9821C, offset: 0xF6CE3, size: 0x8, addend: 0x0, symName: __ZN12v8_inspector19JsV8InspectorClient16sendNotificationENSt3__110unique_ptrINS_12StringBufferENS1_14default_deleteIS3_EEEE, symObjAddr: 0x19D8, symBinAddr: 0x9B54, symSize: 0x74 }
  - { offsetInCU: 0x98476, offset: 0xF6F3D, size: 0x8, addend: 0x0, symName: __ZThn8_N12v8_inspector19JsV8InspectorClient16sendNotificationENSt3__110unique_ptrINS_12StringBufferENS1_14default_deleteIS3_EEEE, symObjAddr: 0x1A4C, symBinAddr: 0x9BC8, symSize: 0x8 }
  - { offsetInCU: 0x9849B, offset: 0xF6F62, size: 0x8, addend: 0x0, symName: __ZN12v8_inspector19JsV8InspectorClient26flushProtocolNotificationsEv, symObjAddr: 0x1A54, symBinAddr: 0x9BD0, symSize: 0x4 }
  - { offsetInCU: 0x984BF, offset: 0xF6F86, size: 0x8, addend: 0x0, symName: __ZThn8_N12v8_inspector19JsV8InspectorClient26flushProtocolNotificationsEv, symObjAddr: 0x1A58, symBinAddr: 0x9BD4, symSize: 0x4 }
  - { offsetInCU: 0x987D1, offset: 0xF7298, size: 0x8, addend: 0x0, symName: __ZN12v8_inspector19JsV8InspectorClient27ensureDefaultContextInGroupEi, symObjAddr: 0x2248, symBinAddr: 0xA3C4, symSize: 0x2C }
  - { offsetInCU: 0x98884, offset: 0xF734B, size: 0x8, addend: 0x0, symName: ___Block_byref_object_copy_, symObjAddr: 0x2274, symBinAddr: 0xA3F0, symSize: 0x1C }
  - { offsetInCU: 0x988AC, offset: 0xF7373, size: 0x8, addend: 0x0, symName: ___Block_byref_object_copy_, symObjAddr: 0x2274, symBinAddr: 0xA3F0, symSize: 0x1C }
  - { offsetInCU: 0x988D2, offset: 0xF7399, size: 0x8, addend: 0x0, symName: ___Block_byref_object_copy_, symObjAddr: 0x2274, symBinAddr: 0xA3F0, symSize: 0x1C }
  - { offsetInCU: 0x98919, offset: 0xF73E0, size: 0x8, addend: 0x0, symName: ___Block_byref_object_dispose_, symObjAddr: 0x2290, symBinAddr: 0xA40C, symSize: 0x14 }
  - { offsetInCU: 0x98969, offset: 0xF7430, size: 0x8, addend: 0x0, symName: ___Block_byref_object_dispose_, symObjAddr: 0x2290, symBinAddr: 0xA40C, symSize: 0x14 }
  - { offsetInCU: 0x98AD7, offset: 0xF759E, size: 0x8, addend: 0x0, symName: ____ZN12v8_inspector19JsV8InspectorClient11PumpMessageEv_block_invoke, symObjAddr: 0x22A4, symBinAddr: 0xA420, symSize: 0x74 }
  - { offsetInCU: 0x98BDE, offset: 0xF76A5, size: 0x8, addend: 0x0, symName: __ZNSt3__15dequeINS_12basic_stringIcNS_11char_traitsIcEENS_9allocatorIcEEEENS4_IS6_EEE9pop_frontEv, symObjAddr: 0x45FC, symBinAddr: 0xC378, symSize: 0x74 }
  - { offsetInCU: 0x98DD8, offset: 0xF789F, size: 0x8, addend: 0x0, symName: __ZN12v8_inspector19JsV8InspectorClient15registerModulesEv, symObjAddr: 0x2318, symBinAddr: 0xA494, symSize: 0x44C }
  - { offsetInCU: 0x99C16, offset: 0xF86DD, size: 0x8, addend: 0x0, symName: __ZN12v8_inspector19JsV8InspectorClient32registerDomainDispatcherCallbackERKN2v820FunctionCallbackInfoINS1_5ValueEEE, symObjAddr: 0x2764, symBinAddr: 0xA8E0, symSize: 0x174 }
  - { offsetInCU: 0x9A1F6, offset: 0xF8CBD, size: 0x8, addend: 0x0, symName: __ZNSt3__16__treeINS_12__value_typeINS_12basic_stringIcNS_11char_traitsIcEENS_9allocatorIcEEEEPN2v810PersistentINS8_6ObjectENS8_27NonCopyablePersistentTraitsISA_EEEEEENS_19__map_value_compareIS7_SF_NS_4lessIS7_EELb1EEENS5_ISF_EEE4findIS7_EENS_15__tree_iteratorISF_PNS_11__tree_nodeISF_PvEElEERKT_, symObjAddr: 0x46D4, symBinAddr: 0xC450, symSize: 0x8C }
  - { offsetInCU: 0x9A324, offset: 0xF8DEB, size: 0x8, addend: 0x0, symName: __ZNSt3__16__treeINS_12__value_typeINS_12basic_stringIcNS_11char_traitsIcEENS_9allocatorIcEEEEPN2v810PersistentINS8_6ObjectENS8_27NonCopyablePersistentTraitsISA_EEEEEENS_19__map_value_compareIS7_SF_NS_4lessIS7_EELb1EEENS5_ISF_EEE25__emplace_unique_key_argsIS7_JRS7_RSE_EEENS_4pairINS_15__tree_iteratorISF_PNS_11__tree_nodeISF_PvEElEEbEERKT_DpOT0_, symObjAddr: 0x47DC, symBinAddr: 0xC558, symSize: 0x84 }
  - { offsetInCU: 0x9A486, offset: 0xF8F4D, size: 0x8, addend: 0x0, symName: __ZN12v8_inspector19JsV8InspectorClient26inspectorSendEventCallbackERKN2v820FunctionCallbackInfoINS1_5ValueEEE, symObjAddr: 0x28D8, symBinAddr: 0xAA54, symSize: 0x164 }
  - { offsetInCU: 0x9AF93, offset: 0xF9A5A, size: 0x8, addend: 0x0, symName: __ZN12v8_inspector19JsV8InspectorClient26inspectorTimestampCallbackERKN2v820FunctionCallbackInfoINS1_5ValueEEE, symObjAddr: 0x2A3C, symBinAddr: 0xABB8, symSize: 0x48 }
  - { offsetInCU: 0x9B6A2, offset: 0xFA169, size: 0x8, addend: 0x0, symName: __ZN12v8_inspector19JsV8InspectorClient10consoleLogEPN2v87IsolateENS_14ConsoleAPITypeERKNSt3__16vectorINS1_5LocalINS1_5ValueEEENS5_9allocatorIS9_EEEE, symObjAddr: 0x2B40, symBinAddr: 0xAC00, symSize: 0x1CC }
  - { offsetInCU: 0x9BF4E, offset: 0xFAA15, size: 0x8, addend: 0x0, symName: __ZN12v8_inspector19JsV8InspectorClient10consoleLogEPN2v87IsolateENS_14ConsoleAPITypeERKNSt3__16vectorINS1_5LocalINS1_5ValueEEENS5_9allocatorIS9_EEEE.cold.1, symObjAddr: 0x4C70, symBinAddr: 0xB9861C, symSize: 0x20 }
  - { offsetInCU: 0x9C0EE, offset: 0xFABB5, size: 0x8, addend: 0x0, symName: __ZNSt3__13mapINS_12basic_stringIcNS_11char_traitsIcEENS_9allocatorIcEEEEPN2v810PersistentINS7_6ObjectENS7_27NonCopyablePersistentTraitsIS9_EEEENS_4lessIS6_EENS4_INS_4pairIKS6_SD_EEEEED1B7v160006Ev, symObjAddr: 0x2D0C, symBinAddr: 0xADCC, symSize: 0x28 }
  - { offsetInCU: 0x9C19F, offset: 0xFAC66, size: 0x8, addend: 0x0, symName: __ZNSt3__16__treeINS_12__value_typeINS_12basic_stringIcNS_11char_traitsIcEENS_9allocatorIcEEEEPN2v810PersistentINS8_6ObjectENS8_27NonCopyablePersistentTraitsISA_EEEEEENS_19__map_value_compareIS7_SF_NS_4lessIS7_EELb1EEENS5_ISF_EEE7destroyEPNS_11__tree_nodeISF_PvEE, symObjAddr: 0x4BC0, symBinAddr: 0xC93C, symSize: 0x50 }
  - { offsetInCU: 0x9C500, offset: 0xFAFC7, size: 0x8, addend: 0x0, symName: __ZN12v8_inspector19JsV8InspectorClientD1Ev, symObjAddr: 0x2D34, symBinAddr: 0xADF4, symSize: 0xA8 }
  - { offsetInCU: 0x9C7F1, offset: 0xFB2B8, size: 0x8, addend: 0x0, symName: __ZNSt3__15dequeINS_12basic_stringIcNS_11char_traitsIcEENS_9allocatorIcEEEENS4_IS6_EEED2B7v160006Ev, symObjAddr: 0x32B8, symBinAddr: 0xB128, symSize: 0x144 }
  - { offsetInCU: 0x9CD17, offset: 0xFB7DE, size: 0x8, addend: 0x0, symName: __ZN12v8_inspector19JsV8InspectorClientD0Ev, symObjAddr: 0x2DDC, symBinAddr: 0xAE9C, symSize: 0xA8 }
  - { offsetInCU: 0x9D024, offset: 0xFBAEB, size: 0x8, addend: 0x0, symName: __ZN12v8_inspector17V8InspectorClient23runIfWaitingForDebuggerEi, symObjAddr: 0x2E84, symBinAddr: 0xAF44, symSize: 0x4 }
  - { offsetInCU: 0x9D056, offset: 0xFBB1D, size: 0x8, addend: 0x0, symName: __ZN12v8_inspector17V8InspectorClient11muteMetricsEi, symObjAddr: 0x2E88, symBinAddr: 0xAF48, symSize: 0x4 }
  - { offsetInCU: 0x9D088, offset: 0xFBB4F, size: 0x8, addend: 0x0, symName: __ZN12v8_inspector17V8InspectorClient13unmuteMetricsEi, symObjAddr: 0x2E8C, symBinAddr: 0xAF4C, symSize: 0x4 }
  - { offsetInCU: 0x9D0BA, offset: 0xFBB81, size: 0x8, addend: 0x0, symName: __ZN12v8_inspector17V8InspectorClient16beginUserGestureEv, symObjAddr: 0x2E90, symBinAddr: 0xAF50, symSize: 0x4 }
  - { offsetInCU: 0x9D0DE, offset: 0xFBBA5, size: 0x8, addend: 0x0, symName: __ZN12v8_inspector17V8InspectorClient14endUserGestureEv, symObjAddr: 0x2E94, symBinAddr: 0xAF54, symSize: 0x4 }
  - { offsetInCU: 0x9D1FF, offset: 0xFBCC6, size: 0x8, addend: 0x0, symName: __ZN12v8_inspector17V8InspectorClient25serializeToWebDriverValueEN2v85LocalINS1_5ValueEEEi, symObjAddr: 0x2E98, symBinAddr: 0xAF58, symSize: 0x8 }
  - { offsetInCU: 0x9D242, offset: 0xFBD09, size: 0x8, addend: 0x0, symName: __ZN12v8_inspector17V8InspectorClient25serializeToWebDriverValueEN2v85LocalINS1_5ValueEEEi, symObjAddr: 0x2E98, symBinAddr: 0xAF58, symSize: 0x8 }
  - { offsetInCU: 0x9D264, offset: 0xFBD2B, size: 0x8, addend: 0x0, symName: __ZN12v8_inspector17V8InspectorClient25serializeToWebDriverValueEN2v85LocalINS1_5ValueEEEi, symObjAddr: 0x2E98, symBinAddr: 0xAF58, symSize: 0x8 }
  - { offsetInCU: 0x9D286, offset: 0xFBD4D, size: 0x8, addend: 0x0, symName: __ZN12v8_inspector17V8InspectorClient25serializeToWebDriverValueEN2v85LocalINS1_5ValueEEEi, symObjAddr: 0x2E98, symBinAddr: 0xAF58, symSize: 0x8 }
  - { offsetInCU: 0x9D2A1, offset: 0xFBD68, size: 0x8, addend: 0x0, symName: __ZN12v8_inspector17V8InspectorClient25serializeToWebDriverValueEN2v85LocalINS1_5ValueEEEi, symObjAddr: 0x2E98, symBinAddr: 0xAF58, symSize: 0x8 }
  - { offsetInCU: 0x9D2BC, offset: 0xFBD83, size: 0x8, addend: 0x0, symName: __ZN12v8_inspector17V8InspectorClient25serializeToWebDriverValueEN2v85LocalINS1_5ValueEEEi, symObjAddr: 0x2E98, symBinAddr: 0xAF58, symSize: 0x8 }
  - { offsetInCU: 0x9D3D1, offset: 0xFBE98, size: 0x8, addend: 0x0, symName: __ZN12v8_inspector17V8InspectorClient12valueSubtypeEN2v85LocalINS1_5ValueEEE, symObjAddr: 0x2EA0, symBinAddr: 0xAF60, symSize: 0x8 }
  - { offsetInCU: 0x9D402, offset: 0xFBEC9, size: 0x8, addend: 0x0, symName: __ZN12v8_inspector17V8InspectorClient12valueSubtypeEN2v85LocalINS1_5ValueEEE, symObjAddr: 0x2EA0, symBinAddr: 0xAF60, symSize: 0x8 }
  - { offsetInCU: 0x9D424, offset: 0xFBEEB, size: 0x8, addend: 0x0, symName: __ZN12v8_inspector17V8InspectorClient12valueSubtypeEN2v85LocalINS1_5ValueEEE, symObjAddr: 0x2EA0, symBinAddr: 0xAF60, symSize: 0x8 }
  - { offsetInCU: 0x9D446, offset: 0xFBF0D, size: 0x8, addend: 0x0, symName: __ZN12v8_inspector17V8InspectorClient12valueSubtypeEN2v85LocalINS1_5ValueEEE, symObjAddr: 0x2EA0, symBinAddr: 0xAF60, symSize: 0x8 }
  - { offsetInCU: 0x9D461, offset: 0xFBF28, size: 0x8, addend: 0x0, symName: __ZN12v8_inspector17V8InspectorClient12valueSubtypeEN2v85LocalINS1_5ValueEEE, symObjAddr: 0x2EA0, symBinAddr: 0xAF60, symSize: 0x8 }
  - { offsetInCU: 0x9D47C, offset: 0xFBF43, size: 0x8, addend: 0x0, symName: __ZN12v8_inspector17V8InspectorClient12valueSubtypeEN2v85LocalINS1_5ValueEEE, symObjAddr: 0x2EA0, symBinAddr: 0xAF60, symSize: 0x8 }
  - { offsetInCU: 0x9D499, offset: 0xFBF60, size: 0x8, addend: 0x0, symName: __ZN12v8_inspector17V8InspectorClient26descriptionForValueSubtypeEN2v85LocalINS1_7ContextEEENS2_INS1_5ValueEEE, symObjAddr: 0x2EA8, symBinAddr: 0xAF68, symSize: 0x8 }
  - { offsetInCU: 0x9D4D4, offset: 0xFBF9B, size: 0x8, addend: 0x0, symName: __ZN12v8_inspector17V8InspectorClient26descriptionForValueSubtypeEN2v85LocalINS1_7ContextEEENS2_INS1_5ValueEEE, symObjAddr: 0x2EA8, symBinAddr: 0xAF68, symSize: 0x8 }
  - { offsetInCU: 0x9D4F6, offset: 0xFBFBD, size: 0x8, addend: 0x0, symName: __ZN12v8_inspector17V8InspectorClient26descriptionForValueSubtypeEN2v85LocalINS1_7ContextEEENS2_INS1_5ValueEEE, symObjAddr: 0x2EA8, symBinAddr: 0xAF68, symSize: 0x8 }
  - { offsetInCU: 0x9D518, offset: 0xFBFDF, size: 0x8, addend: 0x0, symName: __ZN12v8_inspector17V8InspectorClient26descriptionForValueSubtypeEN2v85LocalINS1_7ContextEEENS2_INS1_5ValueEEE, symObjAddr: 0x2EA8, symBinAddr: 0xAF68, symSize: 0x8 }
  - { offsetInCU: 0x9D533, offset: 0xFBFFA, size: 0x8, addend: 0x0, symName: __ZN12v8_inspector17V8InspectorClient26descriptionForValueSubtypeEN2v85LocalINS1_7ContextEEENS2_INS1_5ValueEEE, symObjAddr: 0x2EA8, symBinAddr: 0xAF68, symSize: 0x8 }
  - { offsetInCU: 0x9D54E, offset: 0xFC015, size: 0x8, addend: 0x0, symName: __ZN12v8_inspector17V8InspectorClient26descriptionForValueSubtypeEN2v85LocalINS1_7ContextEEENS2_INS1_5ValueEEE, symObjAddr: 0x2EA8, symBinAddr: 0xAF68, symSize: 0x8 }
  - { offsetInCU: 0x9D56B, offset: 0xFC032, size: 0x8, addend: 0x0, symName: __ZN12v8_inspector17V8InspectorClient23isInspectableHeapObjectEN2v85LocalINS1_6ObjectEEE, symObjAddr: 0x2EB0, symBinAddr: 0xAF70, symSize: 0x8 }
  - { offsetInCU: 0x9D59C, offset: 0xFC063, size: 0x8, addend: 0x0, symName: __ZN12v8_inspector17V8InspectorClient29beginEnsureAllContextsInGroupEi, symObjAddr: 0x2EB8, symBinAddr: 0xAF78, symSize: 0x4 }
  - { offsetInCU: 0x9D5CE, offset: 0xFC095, size: 0x8, addend: 0x0, symName: __ZN12v8_inspector17V8InspectorClient27endEnsureAllContextsInGroupEi, symObjAddr: 0x2EBC, symBinAddr: 0xAF7C, symSize: 0x4 }
  - { offsetInCU: 0x9D600, offset: 0xFC0C7, size: 0x8, addend: 0x0, symName: __ZN12v8_inspector17V8InspectorClient31installAdditionalCommandLineAPIEN2v85LocalINS1_7ContextEEENS2_INS1_6ObjectEEE, symObjAddr: 0x2EC0, symBinAddr: 0xAF80, symSize: 0x4 }
  - { offsetInCU: 0x9D638, offset: 0xFC0FF, size: 0x8, addend: 0x0, symName: __ZN12v8_inspector17V8InspectorClient17consoleAPIMessageEiN2v87Isolate17MessageErrorLevelERKNS_10StringViewES6_jjPNS_12V8StackTraceE, symObjAddr: 0x2EC4, symBinAddr: 0xAF84, symSize: 0x4 }
  - { offsetInCU: 0x9D6BE, offset: 0xFC185, size: 0x8, addend: 0x0, symName: __ZN12v8_inspector17V8InspectorClient10memoryInfoEPN2v87IsolateENS1_5LocalINS1_7ContextEEE, symObjAddr: 0x2EC8, symBinAddr: 0xAF88, symSize: 0x8 }
  - { offsetInCU: 0x9D6FB, offset: 0xFC1C2, size: 0x8, addend: 0x0, symName: __ZN12v8_inspector17V8InspectorClient11consoleTimeERKNS_10StringViewE, symObjAddr: 0x2ED0, symBinAddr: 0xAF90, symSize: 0x4 }
  - { offsetInCU: 0x9D72E, offset: 0xFC1F5, size: 0x8, addend: 0x0, symName: __ZN12v8_inspector17V8InspectorClient14consoleTimeEndERKNS_10StringViewE, symObjAddr: 0x2ED4, symBinAddr: 0xAF94, symSize: 0x4 }
  - { offsetInCU: 0x9D761, offset: 0xFC228, size: 0x8, addend: 0x0, symName: __ZN12v8_inspector17V8InspectorClient16consoleTimeStampERKNS_10StringViewE, symObjAddr: 0x2ED8, symBinAddr: 0xAF98, symSize: 0x4 }
  - { offsetInCU: 0x9D794, offset: 0xFC25B, size: 0x8, addend: 0x0, symName: __ZN12v8_inspector17V8InspectorClient12consoleClearEi, symObjAddr: 0x2EDC, symBinAddr: 0xAF9C, symSize: 0x4 }
  - { offsetInCU: 0x9D7C7, offset: 0xFC28E, size: 0x8, addend: 0x0, symName: __ZN12v8_inspector17V8InspectorClient13currentTimeMSEv, symObjAddr: 0x2EE0, symBinAddr: 0xAFA0, symSize: 0x8 }
  - { offsetInCU: 0x9D7EB, offset: 0xFC2B2, size: 0x8, addend: 0x0, symName: __ZN12v8_inspector17V8InspectorClient19startRepeatingTimerEdPFvPvES1_, symObjAddr: 0x2EE8, symBinAddr: 0xAFA8, symSize: 0x4 }
  - { offsetInCU: 0x9D835, offset: 0xFC2FC, size: 0x8, addend: 0x0, symName: __ZN12v8_inspector17V8InspectorClient11cancelTimerEPv, symObjAddr: 0x2EEC, symBinAddr: 0xAFAC, symSize: 0x4 }
  - { offsetInCU: 0x9D868, offset: 0xFC32F, size: 0x8, addend: 0x0, symName: __ZN12v8_inspector17V8InspectorClient17canExecuteScriptsEi, symObjAddr: 0x2EF0, symBinAddr: 0xAFB0, symSize: 0x8 }
  - { offsetInCU: 0x9D89E, offset: 0xFC365, size: 0x8, addend: 0x0, symName: __ZN12v8_inspector17V8InspectorClient29maxAsyncCallStackDepthChangedEi, symObjAddr: 0x2EF8, symBinAddr: 0xAFB8, symSize: 0x4 }
  - { offsetInCU: 0x9D8D1, offset: 0xFC398, size: 0x8, addend: 0x0, symName: __ZN12v8_inspector17V8InspectorClient17resourceNameToUrlERKNS_10StringViewE, symObjAddr: 0x2EFC, symBinAddr: 0xAFBC, symSize: 0x8 }
  - { offsetInCU: 0x9D907, offset: 0xFC3CE, size: 0x8, addend: 0x0, symName: __ZN12v8_inspector17V8InspectorClient17resourceNameToUrlERKNS_10StringViewE, symObjAddr: 0x2EFC, symBinAddr: 0xAFBC, symSize: 0x8 }
  - { offsetInCU: 0x9D92B, offset: 0xFC3F2, size: 0x8, addend: 0x0, symName: __ZN12v8_inspector17V8InspectorClient17resourceNameToUrlERKNS_10StringViewE, symObjAddr: 0x2EFC, symBinAddr: 0xAFBC, symSize: 0x8 }
  - { offsetInCU: 0x9D94D, offset: 0xFC414, size: 0x8, addend: 0x0, symName: __ZN12v8_inspector17V8InspectorClient17resourceNameToUrlERKNS_10StringViewE, symObjAddr: 0x2EFC, symBinAddr: 0xAFBC, symSize: 0x8 }
  - { offsetInCU: 0x9D968, offset: 0xFC42F, size: 0x8, addend: 0x0, symName: __ZN12v8_inspector17V8InspectorClient17resourceNameToUrlERKNS_10StringViewE, symObjAddr: 0x2EFC, symBinAddr: 0xAFBC, symSize: 0x8 }
  - { offsetInCU: 0x9D983, offset: 0xFC44A, size: 0x8, addend: 0x0, symName: __ZN12v8_inspector17V8InspectorClient17resourceNameToUrlERKNS_10StringViewE, symObjAddr: 0x2EFC, symBinAddr: 0xAFBC, symSize: 0x8 }
  - { offsetInCU: 0x9D9A0, offset: 0xFC467, size: 0x8, addend: 0x0, symName: __ZN12v8_inspector17V8InspectorClient16generateUniqueIdEv, symObjAddr: 0x2F04, symBinAddr: 0xAFC4, symSize: 0x8 }
  - { offsetInCU: 0x9D9C7, offset: 0xFC48E, size: 0x8, addend: 0x0, symName: __ZN12v8_inspector17V8InspectorClient13dispatchErrorEN2v85LocalINS1_7ContextEEENS2_INS1_7MessageEEENS2_INS1_5ValueEEE, symObjAddr: 0x2F0C, symBinAddr: 0xAFCC, symSize: 0x4 }
  - { offsetInCU: 0x9DA0C, offset: 0xFC4D3, size: 0x8, addend: 0x0, symName: __ZThn8_N12v8_inspector19JsV8InspectorClientD1Ev, symObjAddr: 0x2F10, symBinAddr: 0xAFD0, symSize: 0xA8 }
  - { offsetInCU: 0x9DD25, offset: 0xFC7EC, size: 0x8, addend: 0x0, symName: __ZThn8_N12v8_inspector19JsV8InspectorClientD0Ev, symObjAddr: 0x2FB8, symBinAddr: 0xB078, symSize: 0xB0 }
  - { offsetInCU: 0x9E6F1, offset: 0xFD1B8, size: 0x8, addend: 0x0, symName: __ZNSt3__114__split_bufferIPNS_12basic_stringIcNS_11char_traitsIcEENS_9allocatorIcEEEENS4_IS7_EEED2Ev, symObjAddr: 0x33FC, symBinAddr: 0xB26C, symSize: 0x4C }
  - { offsetInCU: 0x9E90B, offset: 0xFD3D2, size: 0x8, addend: 0x0, symName: '__ZNSt3__110__function6__funcIZZN12v8_inspector19JsV8InspectorClient15enableInspectorEiPPcEUb_E3$_0NS_9allocatorIS6_EEFvNS_8functionIFvNS_12basic_stringIcNS_11char_traitsIcEENS7_IcEEEEEEEEED1Ev', symObjAddr: 0x34A0, symBinAddr: 0xB2B8, symSize: 0x4 }
  - { offsetInCU: 0x9E936, offset: 0xFD3FD, size: 0x8, addend: 0x0, symName: '__ZNSt3__110__function6__funcIZZN12v8_inspector19JsV8InspectorClient15enableInspectorEiPPcEUb_E3$_0NS_9allocatorIS6_EEFvNS_8functionIFvNS_12basic_stringIcNS_11char_traitsIcEENS7_IcEEEEEEEEED0Ev', symObjAddr: 0x34A4, symBinAddr: 0xB2BC, symSize: 0x4 }
  - { offsetInCU: 0x9EB3A, offset: 0xFD601, size: 0x8, addend: 0x0, symName: '__ZNKSt3__110__function6__funcIZZN12v8_inspector19JsV8InspectorClient15enableInspectorEiPPcEUb_E3$_0NS_9allocatorIS6_EEFvNS_8functionIFvNS_12basic_stringIcNS_11char_traitsIcEENS7_IcEEEEEEEEE7__cloneEv', symObjAddr: 0x34A8, symBinAddr: 0xB2C0, symSize: 0x34 }
  - { offsetInCU: 0x9EE38, offset: 0xFD8FF, size: 0x8, addend: 0x0, symName: '__ZNKSt3__110__function6__funcIZZN12v8_inspector19JsV8InspectorClient15enableInspectorEiPPcEUb_E3$_0NS_9allocatorIS6_EEFvNS_8functionIFvNS_12basic_stringIcNS_11char_traitsIcEENS7_IcEEEEEEEEE7__cloneEPNS0_6__baseISH_EE', symObjAddr: 0x34DC, symBinAddr: 0xB2F4, symSize: 0x14 }
  - { offsetInCU: 0x9EE70, offset: 0xFD937, size: 0x8, addend: 0x0, symName: '__ZNKSt3__110__function6__funcIZZN12v8_inspector19JsV8InspectorClient15enableInspectorEiPPcEUb_E3$_0NS_9allocatorIS6_EEFvNS_8functionIFvNS_12basic_stringIcNS_11char_traitsIcEENS7_IcEEEEEEEEE7__cloneEPNS0_6__baseISH_EE', symObjAddr: 0x34DC, symBinAddr: 0xB2F4, symSize: 0x14 }
  - { offsetInCU: 0x9EE9F, offset: 0xFD966, size: 0x8, addend: 0x0, symName: '__ZNKSt3__110__function6__funcIZZN12v8_inspector19JsV8InspectorClient15enableInspectorEiPPcEUb_E3$_0NS_9allocatorIS6_EEFvNS_8functionIFvNS_12basic_stringIcNS_11char_traitsIcEENS7_IcEEEEEEEEE7__cloneEPNS0_6__baseISH_EE', symObjAddr: 0x34DC, symBinAddr: 0xB2F4, symSize: 0x14 }
  - { offsetInCU: 0x9EECE, offset: 0xFD995, size: 0x8, addend: 0x0, symName: '__ZNKSt3__110__function6__funcIZZN12v8_inspector19JsV8InspectorClient15enableInspectorEiPPcEUb_E3$_0NS_9allocatorIS6_EEFvNS_8functionIFvNS_12basic_stringIcNS_11char_traitsIcEENS7_IcEEEEEEEEE7__cloneEPNS0_6__baseISH_EE', symObjAddr: 0x34DC, symBinAddr: 0xB2F4, symSize: 0x14 }
  - { offsetInCU: 0x9EEE4, offset: 0xFD9AB, size: 0x8, addend: 0x0, symName: '__ZNKSt3__110__function6__funcIZZN12v8_inspector19JsV8InspectorClient15enableInspectorEiPPcEUb_E3$_0NS_9allocatorIS6_EEFvNS_8functionIFvNS_12basic_stringIcNS_11char_traitsIcEENS7_IcEEEEEEEEE7__cloneEPNS0_6__baseISH_EE', symObjAddr: 0x34DC, symBinAddr: 0xB2F4, symSize: 0x14 }
  - { offsetInCU: 0x9EEF8, offset: 0xFD9BF, size: 0x8, addend: 0x0, symName: '__ZNKSt3__110__function6__funcIZZN12v8_inspector19JsV8InspectorClient15enableInspectorEiPPcEUb_E3$_0NS_9allocatorIS6_EEFvNS_8functionIFvNS_12basic_stringIcNS_11char_traitsIcEENS7_IcEEEEEEEEE7__cloneEPNS0_6__baseISH_EE', symObjAddr: 0x34DC, symBinAddr: 0xB2F4, symSize: 0x14 }
  - { offsetInCU: 0x9EF0C, offset: 0xFD9D3, size: 0x8, addend: 0x0, symName: '__ZNKSt3__110__function6__funcIZZN12v8_inspector19JsV8InspectorClient15enableInspectorEiPPcEUb_E3$_0NS_9allocatorIS6_EEFvNS_8functionIFvNS_12basic_stringIcNS_11char_traitsIcEENS7_IcEEEEEEEEE7__cloneEPNS0_6__baseISH_EE', symObjAddr: 0x34DC, symBinAddr: 0xB2F4, symSize: 0x14 }
  - { offsetInCU: 0x9EF20, offset: 0xFD9E7, size: 0x8, addend: 0x0, symName: '__ZNKSt3__110__function6__funcIZZN12v8_inspector19JsV8InspectorClient15enableInspectorEiPPcEUb_E3$_0NS_9allocatorIS6_EEFvNS_8functionIFvNS_12basic_stringIcNS_11char_traitsIcEENS7_IcEEEEEEEEE7__cloneEPNS0_6__baseISH_EE', symObjAddr: 0x34DC, symBinAddr: 0xB2F4, symSize: 0x14 }
  - { offsetInCU: 0x9EF38, offset: 0xFD9FF, size: 0x8, addend: 0x0, symName: '__ZNSt3__110__function6__funcIZZN12v8_inspector19JsV8InspectorClient15enableInspectorEiPPcEUb_E3$_0NS_9allocatorIS6_EEFvNS_8functionIFvNS_12basic_stringIcNS_11char_traitsIcEENS7_IcEEEEEEEEE7destroyEv', symObjAddr: 0x34F0, symBinAddr: 0xB308, symSize: 0x4 }
  - { offsetInCU: 0x9EF87, offset: 0xFDA4E, size: 0x8, addend: 0x0, symName: '__ZNSt3__110__function6__funcIZZN12v8_inspector19JsV8InspectorClient15enableInspectorEiPPcEUb_E3$_0NS_9allocatorIS6_EEFvNS_8functionIFvNS_12basic_stringIcNS_11char_traitsIcEENS7_IcEEEEEEEEE18destroy_deallocateEv', symObjAddr: 0x34F4, symBinAddr: 0xB30C, symSize: 0x4 }
  - { offsetInCU: 0x9EFBD, offset: 0xFDA84, size: 0x8, addend: 0x0, symName: '__ZNSt3__110__function6__funcIZZN12v8_inspector19JsV8InspectorClient15enableInspectorEiPPcEUb_E3$_0NS_9allocatorIS6_EEFvNS_8functionIFvNS_12basic_stringIcNS_11char_traitsIcEENS7_IcEEEEEEEEE18destroy_deallocateEv', symObjAddr: 0x34F4, symBinAddr: 0xB30C, symSize: 0x4 }
  - { offsetInCU: 0x9EFE1, offset: 0xFDAA8, size: 0x8, addend: 0x0, symName: '__ZNSt3__110__function6__funcIZZN12v8_inspector19JsV8InspectorClient15enableInspectorEiPPcEUb_E3$_0NS_9allocatorIS6_EEFvNS_8functionIFvNS_12basic_stringIcNS_11char_traitsIcEENS7_IcEEEEEEEEE18destroy_deallocateEv', symObjAddr: 0x34F4, symBinAddr: 0xB30C, symSize: 0x4 }
  - { offsetInCU: 0x9F00D, offset: 0xFDAD4, size: 0x8, addend: 0x0, symName: '__ZNSt3__110__function6__funcIZZN12v8_inspector19JsV8InspectorClient15enableInspectorEiPPcEUb_E3$_0NS_9allocatorIS6_EEFvNS_8functionIFvNS_12basic_stringIcNS_11char_traitsIcEENS7_IcEEEEEEEEE18destroy_deallocateEv', symObjAddr: 0x34F4, symBinAddr: 0xB30C, symSize: 0x4 }
  - { offsetInCU: 0x9F034, offset: 0xFDAFB, size: 0x8, addend: 0x0, symName: '__ZNSt3__110__function6__funcIZZN12v8_inspector19JsV8InspectorClient15enableInspectorEiPPcEUb_E3$_0NS_9allocatorIS6_EEFvNS_8functionIFvNS_12basic_stringIcNS_11char_traitsIcEENS7_IcEEEEEEEEE18destroy_deallocateEv', symObjAddr: 0x34F4, symBinAddr: 0xB30C, symSize: 0x4 }
  - { offsetInCU: 0x9F172, offset: 0xFDC39, size: 0x8, addend: 0x0, symName: '__ZNSt3__110__function6__funcIZZN12v8_inspector19JsV8InspectorClient15enableInspectorEiPPcEUb_E3$_0NS_9allocatorIS6_EEFvNS_8functionIFvNS_12basic_stringIcNS_11char_traitsIcEENS7_IcEEEEEEEEEclEOSG_', symObjAddr: 0x34F8, symBinAddr: 0xB310, symSize: 0x17C }
  - { offsetInCU: 0x9F5AD, offset: 0xFE074, size: 0x8, addend: 0x0, symName: __ZNSt3__110__function12__value_funcIFvNS_12basic_stringIcNS_11char_traitsIcEENS_9allocatorIcEEEEEEC2B7v160006EOS9_, symObjAddr: 0x36D8, symBinAddr: 0xB4F0, symSize: 0x64 }
  - { offsetInCU: 0x9F5F5, offset: 0xFE0BC, size: 0x8, addend: 0x0, symName: '__ZNSt3__110__function6__funcIZZN12v8_inspector19JsV8InspectorClient15enableInspectorEiPPcEUb_E3$_1NS_9allocatorIS6_EEFvNS_12basic_stringIcNS_11char_traitsIcEENS7_IcEEEEEED1Ev', symObjAddr: 0x373C, symBinAddr: 0xB554, symSize: 0x4 }
  - { offsetInCU: 0x9F620, offset: 0xFE0E7, size: 0x8, addend: 0x0, symName: '__ZNSt3__110__function6__funcIZZN12v8_inspector19JsV8InspectorClient15enableInspectorEiPPcEUb_E3$_1NS_9allocatorIS6_EEFvNS_12basic_stringIcNS_11char_traitsIcEENS7_IcEEEEEED0Ev', symObjAddr: 0x3740, symBinAddr: 0xB558, symSize: 0x4 }
  - { offsetInCU: 0x9F824, offset: 0xFE2EB, size: 0x8, addend: 0x0, symName: '__ZNKSt3__110__function6__funcIZZN12v8_inspector19JsV8InspectorClient15enableInspectorEiPPcEUb_E3$_1NS_9allocatorIS6_EEFvNS_12basic_stringIcNS_11char_traitsIcEENS7_IcEEEEEE7__cloneEv', symObjAddr: 0x3744, symBinAddr: 0xB55C, symSize: 0x34 }
  - { offsetInCU: 0x9FB22, offset: 0xFE5E9, size: 0x8, addend: 0x0, symName: '__ZNKSt3__110__function6__funcIZZN12v8_inspector19JsV8InspectorClient15enableInspectorEiPPcEUb_E3$_1NS_9allocatorIS6_EEFvNS_12basic_stringIcNS_11char_traitsIcEENS7_IcEEEEEE7__cloneEPNS0_6__baseISE_EE', symObjAddr: 0x3778, symBinAddr: 0xB590, symSize: 0x14 }
  - { offsetInCU: 0x9FB5A, offset: 0xFE621, size: 0x8, addend: 0x0, symName: '__ZNKSt3__110__function6__funcIZZN12v8_inspector19JsV8InspectorClient15enableInspectorEiPPcEUb_E3$_1NS_9allocatorIS6_EEFvNS_12basic_stringIcNS_11char_traitsIcEENS7_IcEEEEEE7__cloneEPNS0_6__baseISE_EE', symObjAddr: 0x3778, symBinAddr: 0xB590, symSize: 0x14 }
  - { offsetInCU: 0x9FB89, offset: 0xFE650, size: 0x8, addend: 0x0, symName: '__ZNKSt3__110__function6__funcIZZN12v8_inspector19JsV8InspectorClient15enableInspectorEiPPcEUb_E3$_1NS_9allocatorIS6_EEFvNS_12basic_stringIcNS_11char_traitsIcEENS7_IcEEEEEE7__cloneEPNS0_6__baseISE_EE', symObjAddr: 0x3778, symBinAddr: 0xB590, symSize: 0x14 }
  - { offsetInCU: 0x9FBB8, offset: 0xFE67F, size: 0x8, addend: 0x0, symName: '__ZNKSt3__110__function6__funcIZZN12v8_inspector19JsV8InspectorClient15enableInspectorEiPPcEUb_E3$_1NS_9allocatorIS6_EEFvNS_12basic_stringIcNS_11char_traitsIcEENS7_IcEEEEEE7__cloneEPNS0_6__baseISE_EE', symObjAddr: 0x3778, symBinAddr: 0xB590, symSize: 0x14 }
  - { offsetInCU: 0x9FBCE, offset: 0xFE695, size: 0x8, addend: 0x0, symName: '__ZNKSt3__110__function6__funcIZZN12v8_inspector19JsV8InspectorClient15enableInspectorEiPPcEUb_E3$_1NS_9allocatorIS6_EEFvNS_12basic_stringIcNS_11char_traitsIcEENS7_IcEEEEEE7__cloneEPNS0_6__baseISE_EE', symObjAddr: 0x3778, symBinAddr: 0xB590, symSize: 0x14 }
  - { offsetInCU: 0x9FBE2, offset: 0xFE6A9, size: 0x8, addend: 0x0, symName: '__ZNKSt3__110__function6__funcIZZN12v8_inspector19JsV8InspectorClient15enableInspectorEiPPcEUb_E3$_1NS_9allocatorIS6_EEFvNS_12basic_stringIcNS_11char_traitsIcEENS7_IcEEEEEE7__cloneEPNS0_6__baseISE_EE', symObjAddr: 0x3778, symBinAddr: 0xB590, symSize: 0x14 }
  - { offsetInCU: 0x9FBF6, offset: 0xFE6BD, size: 0x8, addend: 0x0, symName: '__ZNKSt3__110__function6__funcIZZN12v8_inspector19JsV8InspectorClient15enableInspectorEiPPcEUb_E3$_1NS_9allocatorIS6_EEFvNS_12basic_stringIcNS_11char_traitsIcEENS7_IcEEEEEE7__cloneEPNS0_6__baseISE_EE', symObjAddr: 0x3778, symBinAddr: 0xB590, symSize: 0x14 }
  - { offsetInCU: 0x9FC0A, offset: 0xFE6D1, size: 0x8, addend: 0x0, symName: '__ZNKSt3__110__function6__funcIZZN12v8_inspector19JsV8InspectorClient15enableInspectorEiPPcEUb_E3$_1NS_9allocatorIS6_EEFvNS_12basic_stringIcNS_11char_traitsIcEENS7_IcEEEEEE7__cloneEPNS0_6__baseISE_EE', symObjAddr: 0x3778, symBinAddr: 0xB590, symSize: 0x14 }
  - { offsetInCU: 0x9FC22, offset: 0xFE6E9, size: 0x8, addend: 0x0, symName: '__ZNSt3__110__function6__funcIZZN12v8_inspector19JsV8InspectorClient15enableInspectorEiPPcEUb_E3$_1NS_9allocatorIS6_EEFvNS_12basic_stringIcNS_11char_traitsIcEENS7_IcEEEEEE7destroyEv', symObjAddr: 0x378C, symBinAddr: 0xB5A4, symSize: 0x4 }
  - { offsetInCU: 0x9FC71, offset: 0xFE738, size: 0x8, addend: 0x0, symName: '__ZNSt3__110__function6__funcIZZN12v8_inspector19JsV8InspectorClient15enableInspectorEiPPcEUb_E3$_1NS_9allocatorIS6_EEFvNS_12basic_stringIcNS_11char_traitsIcEENS7_IcEEEEEE18destroy_deallocateEv', symObjAddr: 0x3790, symBinAddr: 0xB5A8, symSize: 0x4 }
  - { offsetInCU: 0x9FCA7, offset: 0xFE76E, size: 0x8, addend: 0x0, symName: '__ZNSt3__110__function6__funcIZZN12v8_inspector19JsV8InspectorClient15enableInspectorEiPPcEUb_E3$_1NS_9allocatorIS6_EEFvNS_12basic_stringIcNS_11char_traitsIcEENS7_IcEEEEEE18destroy_deallocateEv', symObjAddr: 0x3790, symBinAddr: 0xB5A8, symSize: 0x4 }
  - { offsetInCU: 0x9FCCB, offset: 0xFE792, size: 0x8, addend: 0x0, symName: '__ZNSt3__110__function6__funcIZZN12v8_inspector19JsV8InspectorClient15enableInspectorEiPPcEUb_E3$_1NS_9allocatorIS6_EEFvNS_12basic_stringIcNS_11char_traitsIcEENS7_IcEEEEEE18destroy_deallocateEv', symObjAddr: 0x3790, symBinAddr: 0xB5A8, symSize: 0x4 }
  - { offsetInCU: 0x9FCF7, offset: 0xFE7BE, size: 0x8, addend: 0x0, symName: '__ZNSt3__110__function6__funcIZZN12v8_inspector19JsV8InspectorClient15enableInspectorEiPPcEUb_E3$_1NS_9allocatorIS6_EEFvNS_12basic_stringIcNS_11char_traitsIcEENS7_IcEEEEEE18destroy_deallocateEv', symObjAddr: 0x3790, symBinAddr: 0xB5A8, symSize: 0x4 }
  - { offsetInCU: 0x9FD1E, offset: 0xFE7E5, size: 0x8, addend: 0x0, symName: '__ZNSt3__110__function6__funcIZZN12v8_inspector19JsV8InspectorClient15enableInspectorEiPPcEUb_E3$_1NS_9allocatorIS6_EEFvNS_12basic_stringIcNS_11char_traitsIcEENS7_IcEEEEEE18destroy_deallocateEv', symObjAddr: 0x3790, symBinAddr: 0xB5A8, symSize: 0x4 }
  - { offsetInCU: 0x9FDC2, offset: 0xFE889, size: 0x8, addend: 0x0, symName: '__ZNSt3__110__function6__funcIZZN12v8_inspector19JsV8InspectorClient15enableInspectorEiPPcEUb_E3$_1NS_9allocatorIS6_EEFvNS_12basic_stringIcNS_11char_traitsIcEENS7_IcEEEEEEclEOSD_', symObjAddr: 0x3794, symBinAddr: 0xB5AC, symSize: 0xA8 }
  - { offsetInCU: 0xA045B, offset: 0xFEF22, size: 0x8, addend: 0x0, symName: __ZNSt3__15dequeINS_12basic_stringIcNS_11char_traitsIcEENS_9allocatorIcEEEENS4_IS6_EEE19__add_back_capacityEv, symObjAddr: 0x3A54, symBinAddr: 0xB86C, symSize: 0x368 }
  - { offsetInCU: 0xA1B42, offset: 0x100609, size: 0x8, addend: 0x0, symName: __ZNSt3__114__split_bufferIPNS_12basic_stringIcNS_11char_traitsIcEENS_9allocatorIcEEEENS4_IS7_EEE9push_backEOS7_, symObjAddr: 0x3DBC, symBinAddr: 0xBBD4, symSize: 0x104 }
  - { offsetInCU: 0xA1F8C, offset: 0x100A53, size: 0x8, addend: 0x0, symName: __ZNSt3__114__split_bufferIPNS_12basic_stringIcNS_11char_traitsIcEENS_9allocatorIcEEEERNS4_IS7_EEE9push_backEOS7_, symObjAddr: 0x3FDC, symBinAddr: 0xBDF4, symSize: 0x104 }
  - { offsetInCU: 0xA241E, offset: 0x100EE5, size: 0x8, addend: 0x0, symName: __ZNSt3__114__split_bufferIPNS_12basic_stringIcNS_11char_traitsIcEENS_9allocatorIcEEEERNS4_IS7_EEE10push_frontERKS7_, symObjAddr: 0x40E0, symBinAddr: 0xBEF8, symSize: 0x118 }
  - { offsetInCU: 0xA28D9, offset: 0x1013A0, size: 0x8, addend: 0x0, symName: __ZNSt3__114__split_bufferIPNS_12basic_stringIcNS_11char_traitsIcEENS_9allocatorIcEEEENS4_IS7_EEE10push_frontEOS7_, symObjAddr: 0x3EC0, symBinAddr: 0xBCD8, symSize: 0x11C }
  - { offsetInCU: 0xA2EA7, offset: 0x10196E, size: 0x8, addend: 0x0, symName: '__ZNSt3__110__function6__funcIZN12v8_inspector19JsV8InspectorClient25onFrontendMessageReceivedENS_12basic_stringIcNS_11char_traitsIcEENS_9allocatorIcEEEEE3$_2NS7_ISA_EEFvvEED1Ev', symObjAddr: 0x422C, symBinAddr: 0xC044, symSize: 0x3C }
  - { offsetInCU: 0xA310D, offset: 0x101BD4, size: 0x8, addend: 0x0, symName: '__ZNSt3__110__function6__funcIZN12v8_inspector19JsV8InspectorClient25onFrontendMessageReceivedENS_12basic_stringIcNS_11char_traitsIcEENS_9allocatorIcEEEEE3$_2NS7_ISA_EEFvvEED0Ev', symObjAddr: 0x4268, symBinAddr: 0xC080, symSize: 0x3C }
  - { offsetInCU: 0xA367D, offset: 0x102144, size: 0x8, addend: 0x0, symName: '__ZNKSt3__110__function6__funcIZN12v8_inspector19JsV8InspectorClient25onFrontendMessageReceivedENS_12basic_stringIcNS_11char_traitsIcEENS_9allocatorIcEEEEE3$_2NS7_ISA_EEFvvEE7__cloneEv', symObjAddr: 0x42A4, symBinAddr: 0xC0BC, symSize: 0x58 }
  - { offsetInCU: 0xA3AD6, offset: 0x10259D, size: 0x8, addend: 0x0, symName: '__ZNKSt3__110__function6__funcIZN12v8_inspector19JsV8InspectorClient25onFrontendMessageReceivedENS_12basic_stringIcNS_11char_traitsIcEENS_9allocatorIcEEEEE3$_2NS7_ISA_EEFvvEE7__cloneEPNS0_6__baseISC_EE', symObjAddr: 0x42FC, symBinAddr: 0xC114, symSize: 0x20 }
  - { offsetInCU: 0xA3B13, offset: 0x1025DA, size: 0x8, addend: 0x0, symName: '__ZNKSt3__110__function6__funcIZN12v8_inspector19JsV8InspectorClient25onFrontendMessageReceivedENS_12basic_stringIcNS_11char_traitsIcEENS_9allocatorIcEEEEE3$_2NS7_ISA_EEFvvEE7__cloneEPNS0_6__baseISC_EE', symObjAddr: 0x42FC, symBinAddr: 0xC114, symSize: 0x20 }
  - { offsetInCU: 0xA3B47, offset: 0x10260E, size: 0x8, addend: 0x0, symName: '__ZNKSt3__110__function6__funcIZN12v8_inspector19JsV8InspectorClient25onFrontendMessageReceivedENS_12basic_stringIcNS_11char_traitsIcEENS_9allocatorIcEEEEE3$_2NS7_ISA_EEFvvEE7__cloneEPNS0_6__baseISC_EE', symObjAddr: 0x42FC, symBinAddr: 0xC114, symSize: 0x20 }
  - { offsetInCU: 0xA3CA6, offset: 0x10276D, size: 0x8, addend: 0x0, symName: '__ZNSt3__110__function6__funcIZN12v8_inspector19JsV8InspectorClient25onFrontendMessageReceivedENS_12basic_stringIcNS_11char_traitsIcEENS_9allocatorIcEEEEE3$_2NS7_ISA_EEFvvEE7destroyEv', symObjAddr: 0x431C, symBinAddr: 0xC134, symSize: 0x14 }
  - { offsetInCU: 0xA3D8C, offset: 0x102853, size: 0x8, addend: 0x0, symName: '__ZNSt3__110__function6__funcIZN12v8_inspector19JsV8InspectorClient25onFrontendMessageReceivedENS_12basic_stringIcNS_11char_traitsIcEENS_9allocatorIcEEEEE3$_2NS7_ISA_EEFvvEE7destroyEv', symObjAddr: 0x431C, symBinAddr: 0xC134, symSize: 0x14 }
  - { offsetInCU: 0xA3E70, offset: 0x102937, size: 0x8, addend: 0x0, symName: '__ZNSt3__110__function6__funcIZN12v8_inspector19JsV8InspectorClient25onFrontendMessageReceivedENS_12basic_stringIcNS_11char_traitsIcEENS_9allocatorIcEEEEE3$_2NS7_ISA_EEFvvEE18destroy_deallocateEv', symObjAddr: 0x4330, symBinAddr: 0xC148, symSize: 0x30 }
  - { offsetInCU: 0xA4197, offset: 0x102C5E, size: 0x8, addend: 0x0, symName: '__ZNSt3__110__function6__funcIZN12v8_inspector19JsV8InspectorClient25onFrontendMessageReceivedENS_12basic_stringIcNS_11char_traitsIcEENS_9allocatorIcEEEEE3$_2NS7_ISA_EEFvvEEclEv', symObjAddr: 0x4360, symBinAddr: 0xC178, symSize: 0x58 }
  - { offsetInCU: 0xA42B4, offset: 0x102D7B, size: 0x8, addend: 0x0, symName: '____ZZN12v8_inspector19JsV8InspectorClient25onFrontendMessageReceivedENSt3__112basic_stringIcNS1_11char_traitsIcEENS1_9allocatorIcEEEEENK3$_2clEv_block_invoke', symObjAddr: 0x43B8, symBinAddr: 0xC1D0, symSize: 0xCC }
  - { offsetInCU: 0xA4839, offset: 0x103300, size: 0x8, addend: 0x0, symName: __ZNSt3__117bad_function_callD1Ev, symObjAddr: 0x4548, symBinAddr: 0xC360, symSize: 0x4 }
  - { offsetInCU: 0xA485B, offset: 0x103322, size: 0x8, addend: 0x0, symName: __ZNSt3__117bad_function_callD1Ev, symObjAddr: 0x4548, symBinAddr: 0xC360, symSize: 0x4 }
  - { offsetInCU: 0xA488C, offset: 0x103353, size: 0x8, addend: 0x0, symName: __ZNSt3__117bad_function_callD0Ev, symObjAddr: 0x454C, symBinAddr: 0xC364, symSize: 0x14 }
  - { offsetInCU: 0xA48FF, offset: 0x1033C6, size: 0x8, addend: 0x0, symName: __ZNSt3__15dequeINS_12basic_stringIcNS_11char_traitsIcEENS_9allocatorIcEEEENS4_IS6_EEE26__maybe_remove_front_spareB7v160006Eb, symObjAddr: 0x4670, symBinAddr: 0xC3EC, symSize: 0x64 }
  - { offsetInCU: 0xA4BA3, offset: 0x10366A, size: 0x8, addend: 0x0, symName: __ZNKSt3__14lessINS_12basic_stringIcNS_11char_traitsIcEENS_9allocatorIcEEEEEclB7v160006ERKS6_S9_, symObjAddr: 0x4760, symBinAddr: 0xC4DC, symSize: 0x7C }
  - { offsetInCU: 0xA4ECD, offset: 0x103994, size: 0x8, addend: 0x0, symName: __ZNSt3__16__treeINS_12__value_typeINS_12basic_stringIcNS_11char_traitsIcEENS_9allocatorIcEEEEPN2v810PersistentINS8_6ObjectENS8_27NonCopyablePersistentTraitsISA_EEEEEENS_19__map_value_compareIS7_SF_NS_4lessIS7_EELb1EEENS5_ISF_EEE12__find_equalIS7_EERPNS_16__tree_node_baseIPvEERPNS_15__tree_end_nodeISQ_EERKT_, symObjAddr: 0x4860, symBinAddr: 0xC5DC, symSize: 0x9C }
  - { offsetInCU: 0xA4FD5, offset: 0x103A9C, size: 0x8, addend: 0x0, symName: __ZNSt3__16__treeINS_12__value_typeINS_12basic_stringIcNS_11char_traitsIcEENS_9allocatorIcEEEEPN2v810PersistentINS8_6ObjectENS8_27NonCopyablePersistentTraitsISA_EEEEEENS_19__map_value_compareIS7_SF_NS_4lessIS7_EELb1EEENS5_ISF_EEE16__construct_nodeIJRS7_RSE_EEENS_10unique_ptrINS_11__tree_nodeISF_PvEENS_22__tree_node_destructorINS5_ISS_EEEEEEDpOT_, symObjAddr: 0x48FC, symBinAddr: 0xC678, symSize: 0x8C }
  - { offsetInCU: 0xA52C0, offset: 0x103D87, size: 0x8, addend: 0x0, symName: __ZNSt3__16__treeINS_12__value_typeINS_12basic_stringIcNS_11char_traitsIcEENS_9allocatorIcEEEEPN2v810PersistentINS8_6ObjectENS8_27NonCopyablePersistentTraitsISA_EEEEEENS_19__map_value_compareIS7_SF_NS_4lessIS7_EELb1EEENS5_ISF_EEE16__insert_node_atEPNS_15__tree_end_nodeIPNS_16__tree_node_baseIPvEEEERSQ_SQ_, symObjAddr: 0x4988, symBinAddr: 0xC704, symSize: 0x54 }
  - { offsetInCU: 0xA5674, offset: 0x10413B, size: 0x8, addend: 0x0, symName: __ZNSt3__122__tree_node_destructorINS_9allocatorINS_11__tree_nodeINS_12__value_typeINS_12basic_stringIcNS_11char_traitsIcEENS1_IcEEEEPN2v810PersistentINS9_6ObjectENS9_27NonCopyablePersistentTraitsISB_EEEEEEPvEEEEEclB7v160006EPSI_, symObjAddr: 0x4B74, symBinAddr: 0xC8F0, symSize: 0x4C }
  - { offsetInCU: 0x26, offset: 0x104BB1, size: 0x8, addend: 0x0, symName: __ZN3tns12ClassBuilder16GetExtendedClassENSt3__112basic_stringIcNS1_11char_traitsIcEENS1_9allocatorIcEEEES7_, symObjAddr: 0x0, symBinAddr: 0xC9B8, symSize: 0x330 }
  - { offsetInCU: 0x70CF, offset: 0x10BC5A, size: 0x8, addend: 0x0, symName: __ZN3tns12ClassBuilder16GetExtendedClassENSt3__112basic_stringIcNS1_11char_traitsIcEENS1_9allocatorIcEEEES7_, symObjAddr: 0x0, symBinAddr: 0xC9B8, symSize: 0x330 }
  - { offsetInCU: 0x85D5, offset: 0x10D160, size: 0x8, addend: 0x0, symName: __ZNSt3__112basic_stringIcNS_11char_traitsIcEENS_9allocatorIcEEEC2B7v160006ENS_24__uninitialized_size_tagEmRKS4_, symObjAddr: 0x330, symBinAddr: 0xCCE8, symSize: 0x74 }
  - { offsetInCU: 0x6C66, offset: 0x1140E9, size: 0x8, addend: 0x0, symName: __ZNSt3__115allocate_sharedB7v160006IN2v810PersistentINS1_6ObjectENS1_27NonCopyablePersistentTraitsIS3_EEEENS_9allocatorIS6_EEJRPNS1_7IsolateENS1_5LocalIS3_EEEvEENS_10shared_ptrIT_EERKT0_DpOT1_, symObjAddr: 0x2110, symBinAddr: 0xEBE4, symSize: 0x60 }
  - { offsetInCU: 0xCFCE, offset: 0x11A451, size: 0x8, addend: 0x0, symName: __ZN10robin_hood6detail7doThrowISt9bad_allocJEEEvDpOT0_, symObjAddr: 0x294C, symBinAddr: 0xF3C8, symSize: 0x28 }
  - { offsetInCU: 0xFE98, offset: 0x11D31B, size: 0x8, addend: 0x0, symName: __ZN3tns7Pointer8RegisterEN2v85LocalINS1_7ContextEEENS2_INS1_6ObjectEEE, symObjAddr: 0x0, symBinAddr: 0xCD5C, symSize: 0x118 }
  - { offsetInCU: 0x102D5, offset: 0x11D758, size: 0x8, addend: 0x0, symName: __ZN3tns7Pointer18GetPointerCtorFuncEN2v85LocalINS1_7ContextEEE, symObjAddr: 0x118, symBinAddr: 0xCE74, symSize: 0x3AC }
  - { offsetInCU: 0x1176B, offset: 0x11EBEE, size: 0x8, addend: 0x0, symName: __ZN3tns7Pointer17RegisterAddMethodEN2v85LocalINS1_7ContextEEENS2_INS1_6ObjectEEE, symObjAddr: 0x9A4, symBinAddr: 0xD700, symSize: 0x174 }
  - { offsetInCU: 0x11D93, offset: 0x11F216, size: 0x8, addend: 0x0, symName: __ZN3tns7Pointer22RegisterSubtractMethodEN2v85LocalINS1_7ContextEEENS2_INS1_6ObjectEEE, symObjAddr: 0xB18, symBinAddr: 0xD874, symSize: 0x174 }
  - { offsetInCU: 0x123BB, offset: 0x11F83E, size: 0x8, addend: 0x0, symName: __ZN3tns7Pointer22RegisterToStringMethodEN2v85LocalINS1_7ContextEEENS2_INS1_6ObjectEEE, symObjAddr: 0xC8C, symBinAddr: 0xD9E8, symSize: 0x174 }
  - { offsetInCU: 0x129E3, offset: 0x11FE66, size: 0x8, addend: 0x0, symName: __ZN3tns7Pointer25RegisterToHexStringMethodEN2v85LocalINS1_7ContextEEENS2_INS1_6ObjectEEE, symObjAddr: 0xE00, symBinAddr: 0xDB5C, symSize: 0x174 }
  - { offsetInCU: 0x1300B, offset: 0x12048E, size: 0x8, addend: 0x0, symName: __ZN3tns7Pointer29RegisterToDecimalStringMethodEN2v85LocalINS1_7ContextEEENS2_INS1_6ObjectEEE, symObjAddr: 0xF74, symBinAddr: 0xDCD0, symSize: 0x174 }
  - { offsetInCU: 0x13633, offset: 0x120AB6, size: 0x8, addend: 0x0, symName: __ZN3tns7Pointer22RegisterToNumberMethodEN2v85LocalINS1_7ContextEEENS2_INS1_6ObjectEEE, symObjAddr: 0x10E8, symBinAddr: 0xDE44, symSize: 0x174 }
  - { offsetInCU: 0x13C74, offset: 0x1210F7, size: 0x8, addend: 0x0, symName: __ZN3tns7Pointer22RegisterToBigIntMethodEN2v85LocalINS1_7ContextEEENS2_INS1_6ObjectEEE, symObjAddr: 0x125C, symBinAddr: 0xDFB8, symSize: 0x174 }
  - { offsetInCU: 0x14333, offset: 0x1217B6, size: 0x8, addend: 0x0, symName: __ZN3tns7Pointer11NewInstanceEN2v85LocalINS1_7ContextEEEPv, symObjAddr: 0x4C4, symBinAddr: 0xD220, symSize: 0xA4 }
  - { offsetInCU: 0x146D0, offset: 0x121B53, size: 0x8, addend: 0x0, symName: __ZN3tns7Pointer26PointerConstructorCallbackERKN2v820FunctionCallbackInfoINS1_5ValueEEE, symObjAddr: 0x568, symBinAddr: 0xD2C4, symSize: 0x43C }
  - { offsetInCU: 0x15440, offset: 0x1228C3, size: 0x8, addend: 0x0, symName: __ZNK10robin_hood6detail5TableILb1ELm80EPKvNSt3__110shared_ptrIN2v810PersistentINS6_6ObjectENS6_27NonCopyablePersistentTraitsIS8_EEEEEENS_4hashIS3_vEENS4_8equal_toIS3_EEE7findIdxIS3_EEmRKT_, symObjAddr: 0x2028, symBinAddr: 0xEAFC, symSize: 0xE8 }
  - { offsetInCU: 0x1549D, offset: 0x122920, size: 0x8, addend: 0x0, symName: __ZNK10robin_hood6detail5TableILb1ELm80EPKvNSt3__110shared_ptrIN2v810PersistentINS6_6ObjectENS6_27NonCopyablePersistentTraitsIS8_EEEEEENS_4hashIS3_vEENS4_8equal_toIS3_EEE7findIdxIS3_EEmRKT_, symObjAddr: 0x2028, symBinAddr: 0xEAFC, symSize: 0xE8 }
  - { offsetInCU: 0x155D8, offset: 0x122A5B, size: 0x8, addend: 0x0, symName: __ZN10robin_hood6detail5TableILb1ELm80EPKvNSt3__110shared_ptrIN2v810PersistentINS6_6ObjectENS6_27NonCopyablePersistentTraitsIS8_EEEEEENS_4hashIS3_vEENS4_8equal_toIS3_EEE7emplaceIJRPvSC_EEENS4_4pairINSH_4IterILb0EEEbEEDpOT_, symObjAddr: 0x13D0, symBinAddr: 0xE12C, symSize: 0x130 }
  - { offsetInCU: 0x15EA6, offset: 0x123329, size: 0x8, addend: 0x0, symName: __ZN10robin_hood6detail5TableILb1ELm80EPKvNSt3__110shared_ptrIN2v810PersistentINS6_6ObjectENS6_27NonCopyablePersistentTraitsIS8_EEEEEENS_4hashIS3_vEENS4_8equal_toIS3_EEE25insertKeyPrepareEmptySpotIRKS3_EENS4_4pairImNSH_14InsertionStateEEEOT_, symObjAddr: 0x2270, symBinAddr: 0xECEC, symSize: 0x1A0 }
  - { offsetInCU: 0x16128, offset: 0x1235AB, size: 0x8, addend: 0x0, symName: __ZNK10robin_hood6detail5TableILb1ELm80EPKvNSt3__110shared_ptrIN2v810PersistentINS6_6ObjectENS6_27NonCopyablePersistentTraitsIS8_EEEEEENS_4hashIS3_vEENS4_8equal_toIS3_EEE18throwOverflowErrorEv, symObjAddr: 0x2410, symBinAddr: 0xEE8C, symSize: 0x50 }
  - { offsetInCU: 0x163EF, offset: 0x123872, size: 0x8, addend: 0x0, symName: __ZN3tns18PointerTypeWrapperD1Ev, symObjAddr: 0x160C, symBinAddr: 0xE25C, symSize: 0x4 }
  - { offsetInCU: 0x16418, offset: 0x12389B, size: 0x8, addend: 0x0, symName: __ZN3tns18PointerTypeWrapperD0Ev, symObjAddr: 0x1610, symBinAddr: 0xE260, symSize: 0x4 }
  - { offsetInCU: 0x16441, offset: 0x1238C4, size: 0x8, addend: 0x0, symName: __ZN3tns18PointerTypeWrapper4TypeEv, symObjAddr: 0x1614, symBinAddr: 0xE264, symSize: 0x8 }
  - { offsetInCU: 0x16468, offset: 0x1238EB, size: 0x8, addend: 0x0, symName: __ZN3tns14PointerWrapperD1Ev, symObjAddr: 0x161C, symBinAddr: 0xE26C, symSize: 0x4 }
  - { offsetInCU: 0x16491, offset: 0x123914, size: 0x8, addend: 0x0, symName: __ZN3tns14PointerWrapperD0Ev, symObjAddr: 0x1620, symBinAddr: 0xE270, symSize: 0x4 }
  - { offsetInCU: 0x164BA, offset: 0x12393D, size: 0x8, addend: 0x0, symName: __ZN3tns14PointerWrapper4TypeEv, symObjAddr: 0x1624, symBinAddr: 0xE274, symSize: 0x8 }
  - { offsetInCU: 0x16704, offset: 0x123B87, size: 0x8, addend: 0x0, symName: '__ZZN3tns7Pointer17RegisterAddMethodEN2v85LocalINS1_7ContextEEENS2_INS1_6ObjectEEEEN3$_08__invokeERKNS1_20FunctionCallbackInfoINS1_5ValueEEE', symObjAddr: 0x162C, symBinAddr: 0xE27C, symSize: 0x188 }
  - { offsetInCU: 0x16E94, offset: 0x124317, size: 0x8, addend: 0x0, symName: '__ZZN3tns7Pointer22RegisterSubtractMethodEN2v85LocalINS1_7ContextEEENS2_INS1_6ObjectEEEEN3$_18__invokeERKNS1_20FunctionCallbackInfoINS1_5ValueEEE', symObjAddr: 0x17B4, symBinAddr: 0xE404, symSize: 0x210 }
  - { offsetInCU: 0x177F3, offset: 0x124C76, size: 0x8, addend: 0x0, symName: '__ZZN3tns7Pointer22RegisterToStringMethodEN2v85LocalINS1_7ContextEEENS2_INS1_6ObjectEEEEN3$_28__invokeERKNS1_20FunctionCallbackInfoINS1_5ValueEEE', symObjAddr: 0x19C4, symBinAddr: 0xE614, symSize: 0x144 }
  - { offsetInCU: 0x17E03, offset: 0x125286, size: 0x8, addend: 0x0, symName: '__ZZN3tns7Pointer25RegisterToHexStringMethodEN2v85LocalINS1_7ContextEEENS2_INS1_6ObjectEEEEN3$_38__invokeERKNS1_20FunctionCallbackInfoINS1_5ValueEEE', symObjAddr: 0x1B08, symBinAddr: 0xE758, symSize: 0x144 }
  - { offsetInCU: 0x1841F, offset: 0x1258A2, size: 0x8, addend: 0x0, symName: '__ZZN3tns7Pointer29RegisterToDecimalStringMethodEN2v85LocalINS1_7ContextEEENS2_INS1_6ObjectEEEEN3$_48__invokeERKNS1_20FunctionCallbackInfoINS1_5ValueEEE', symObjAddr: 0x1C4C, symBinAddr: 0xE89C, symSize: 0x144 }
  - { offsetInCU: 0x18A6B, offset: 0x125EEE, size: 0x8, addend: 0x0, symName: '__ZZN3tns7Pointer22RegisterToNumberMethodEN2v85LocalINS1_7ContextEEENS2_INS1_6ObjectEEEEN3$_58__invokeERKNS1_20FunctionCallbackInfoINS1_5ValueEEE', symObjAddr: 0x1D90, symBinAddr: 0xE9E0, symSize: 0x90 }
  - { offsetInCU: 0x18D47, offset: 0x1261CA, size: 0x8, addend: 0x0, symName: '__ZZN3tns7Pointer22RegisterToBigIntMethodEN2v85LocalINS1_7ContextEEENS2_INS1_6ObjectEEEEN3$_68__invokeERKNS1_20FunctionCallbackInfoINS1_5ValueEEE', symObjAddr: 0x1E20, symBinAddr: 0xEA70, symSize: 0x8C }
  - { offsetInCU: 0x194EA, offset: 0x12696D, size: 0x8, addend: 0x0, symName: __ZNSt3__120__shared_ptr_emplaceIN2v810PersistentINS1_6ObjectENS1_27NonCopyablePersistentTraitsIS3_EEEENS_9allocatorIS6_EEEC2B7v160006IJRPNS1_7IsolateENS1_5LocalIS3_EEEEES8_DpOT_, symObjAddr: 0x2170, symBinAddr: 0xEC44, symSize: 0x68 }
  - { offsetInCU: 0x19731, offset: 0x126BB4, size: 0x8, addend: 0x0, symName: __ZNSt3__120__shared_ptr_emplaceIN2v810PersistentINS1_6ObjectENS1_27NonCopyablePersistentTraitsIS3_EEEENS_9allocatorIS6_EEED1Ev, symObjAddr: 0x21D8, symBinAddr: 0xECAC, symSize: 0x14 }
  - { offsetInCU: 0x19753, offset: 0x126BD6, size: 0x8, addend: 0x0, symName: __ZNSt3__120__shared_ptr_emplaceIN2v810PersistentINS1_6ObjectENS1_27NonCopyablePersistentTraitsIS3_EEEENS_9allocatorIS6_EEED1Ev, symObjAddr: 0x21D8, symBinAddr: 0xECAC, symSize: 0x14 }
  - { offsetInCU: 0x1978A, offset: 0x126C0D, size: 0x8, addend: 0x0, symName: __ZNSt3__120__shared_ptr_emplaceIN2v810PersistentINS1_6ObjectENS1_27NonCopyablePersistentTraitsIS3_EEEENS_9allocatorIS6_EEED0Ev, symObjAddr: 0x21EC, symBinAddr: 0xECC0, symSize: 0x24 }
  - { offsetInCU: 0x197F1, offset: 0x126C74, size: 0x8, addend: 0x0, symName: __ZNSt3__120__shared_ptr_emplaceIN2v810PersistentINS1_6ObjectENS1_27NonCopyablePersistentTraitsIS3_EEEENS_9allocatorIS6_EEE16__on_zero_sharedEv, symObjAddr: 0x2210, symBinAddr: 0xECE4, symSize: 0x4 }
  - { offsetInCU: 0x19815, offset: 0x126C98, size: 0x8, addend: 0x0, symName: __ZNSt3__120__shared_ptr_emplaceIN2v810PersistentINS1_6ObjectENS1_27NonCopyablePersistentTraitsIS3_EEEENS_9allocatorIS6_EEE21__on_zero_shared_weakEv, symObjAddr: 0x2214, symBinAddr: 0xECE8, symSize: 0x4 }
  - { offsetInCU: 0x19849, offset: 0x126CCC, size: 0x8, addend: 0x0, symName: __ZNSt3__120__shared_ptr_emplaceIN2v810PersistentINS1_6ObjectENS1_27NonCopyablePersistentTraitsIS3_EEEENS_9allocatorIS6_EEE21__on_zero_shared_weakEv, symObjAddr: 0x2214, symBinAddr: 0xECE8, symSize: 0x4 }
  - { offsetInCU: 0x1986D, offset: 0x126CF0, size: 0x8, addend: 0x0, symName: __ZNSt3__120__shared_ptr_emplaceIN2v810PersistentINS1_6ObjectENS1_27NonCopyablePersistentTraitsIS3_EEEENS_9allocatorIS6_EEE21__on_zero_shared_weakEv, symObjAddr: 0x2214, symBinAddr: 0xECE8, symSize: 0x4 }
  - { offsetInCU: 0x19891, offset: 0x126D14, size: 0x8, addend: 0x0, symName: __ZNSt3__120__shared_ptr_emplaceIN2v810PersistentINS1_6ObjectENS1_27NonCopyablePersistentTraitsIS3_EEEENS_9allocatorIS6_EEE21__on_zero_shared_weakEv, symObjAddr: 0x2214, symBinAddr: 0xECE8, symSize: 0x4 }
  - { offsetInCU: 0x198BD, offset: 0x126D40, size: 0x8, addend: 0x0, symName: __ZNSt3__120__shared_ptr_emplaceIN2v810PersistentINS1_6ObjectENS1_27NonCopyablePersistentTraitsIS3_EEEENS_9allocatorIS6_EEE21__on_zero_shared_weakEv, symObjAddr: 0x2214, symBinAddr: 0xECE8, symSize: 0x4 }
  - { offsetInCU: 0x198E4, offset: 0x126D67, size: 0x8, addend: 0x0, symName: __ZNSt3__120__shared_ptr_emplaceIN2v810PersistentINS1_6ObjectENS1_27NonCopyablePersistentTraitsIS3_EEEENS_9allocatorIS6_EEE21__on_zero_shared_weakEv, symObjAddr: 0x2214, symBinAddr: 0xECE8, symSize: 0x4 }
  - { offsetInCU: 0x1993E, offset: 0x126DC1, size: 0x8, addend: 0x0, symName: __ZN10robin_hood6detail5TableILb1ELm80EPKvNSt3__110shared_ptrIN2v810PersistentINS6_6ObjectENS6_27NonCopyablePersistentTraitsIS8_EEEEEENS_4hashIS3_vEENS4_8equal_toIS3_EEE13increase_sizeEv, symObjAddr: 0x2460, symBinAddr: 0xEEDC, symSize: 0x12C }
  - { offsetInCU: 0x19A08, offset: 0x126E8B, size: 0x8, addend: 0x0, symName: __ZN10robin_hood6detail5TableILb1ELm80EPKvNSt3__110shared_ptrIN2v810PersistentINS6_6ObjectENS6_27NonCopyablePersistentTraitsIS8_EEEEEENS_4hashIS3_vEENS4_8equal_toIS3_EEE7shiftUpEmm, symObjAddr: 0x258C, symBinAddr: 0xF008, symSize: 0xEC }
  - { offsetInCU: 0x19B79, offset: 0x126FFC, size: 0x8, addend: 0x0, symName: __ZNSt14overflow_errorC1B7v160006EPKc, symObjAddr: 0x2B28, symBinAddr: 0xF540, symSize: 0x24 }
  - { offsetInCU: 0x19C0E, offset: 0x127091, size: 0x8, addend: 0x0, symName: __ZN10robin_hood6detail5TableILb1ELm80EPKvNSt3__110shared_ptrIN2v810PersistentINS6_6ObjectENS6_27NonCopyablePersistentTraitsIS8_EEEEEENS_4hashIS3_vEENS4_8equal_toIS3_EEE17try_increase_infoEv, symObjAddr: 0x2754, symBinAddr: 0xF1D0, symSize: 0x100 }
  - { offsetInCU: 0x19D18, offset: 0x12719B, size: 0x8, addend: 0x0, symName: __ZN10robin_hood6detail5TableILb1ELm80EPKvNSt3__110shared_ptrIN2v810PersistentINS6_6ObjectENS6_27NonCopyablePersistentTraitsIS8_EEEEEENS_4hashIS3_vEENS4_8equal_toIS3_EEE8initDataEm, symObjAddr: 0x2678, symBinAddr: 0xF0F4, symSize: 0xDC }
  - { offsetInCU: 0x19E2C, offset: 0x1272AF, size: 0x8, addend: 0x0, symName: __ZN10robin_hood6detail5TableILb1ELm80EPKvNSt3__110shared_ptrIN2v810PersistentINS6_6ObjectENS6_27NonCopyablePersistentTraitsIS8_EEEEEENS_4hashIS3_vEENS4_8equal_toIS3_EEE17try_increase_infoEv, symObjAddr: 0x2754, symBinAddr: 0xF1D0, symSize: 0x100 }
  - { offsetInCU: 0x19E37, offset: 0x1272BA, size: 0x8, addend: 0x0, symName: __ZN10robin_hood6detail5TableILb1ELm80EPKvNSt3__110shared_ptrIN2v810PersistentINS6_6ObjectENS6_27NonCopyablePersistentTraitsIS8_EEEEEENS_4hashIS3_vEENS4_8equal_toIS3_EEE16rehashPowerOfTwoEmb, symObjAddr: 0x2854, symBinAddr: 0xF2D0, symSize: 0xF8 }
  - { offsetInCU: 0x1A0A2, offset: 0x127525, size: 0x8, addend: 0x0, symName: __ZN10robin_hood6detail5TableILb1ELm80EPKvNSt3__110shared_ptrIN2v810PersistentINS6_6ObjectENS6_27NonCopyablePersistentTraitsIS8_EEEEEENS_4hashIS3_vEENS4_8equal_toIS3_EEE11insert_moveEONSH_8DataNodeISH_Lb1EEE, symObjAddr: 0x2974, symBinAddr: 0xF3F0, symSize: 0x150 }
  - { offsetInCU: 0x2158, offset: 0x1299A5, size: 0x8, addend: 0x0, symName: __ZN3tns10ToNSStringEPN2v87IsolateERKNS0_5LocalINS0_5ValueEEE, symObjAddr: 0x27E8, symBinAddr: 0x11B30, symSize: 0xCC }
  - { offsetInCU: 0xEE6B, offset: 0x1366B8, size: 0x8, addend: 0x0, symName: __ZNSt3__119__allocate_at_leastB7v160006INS_9allocatorIPKN3tns10MethodMetaEEEEENS_19__allocation_resultINS_16allocator_traitsIT_E7pointerEEERS9_m, symObjAddr: 0x887C, symBinAddr: 0x1687C, symSize: 0x34 }
  - { offsetInCU: 0xEF10, offset: 0x13675D, size: 0x8, addend: 0x0, symName: __ZNSt3__16vectorIN2v85LocalINS1_5ValueEEENS_9allocatorIS4_EEE6assignIPS4_Li0EEEvT_SA_, symObjAddr: 0x88B0, symBinAddr: 0x168B0, symSize: 0x108 }
  - { offsetInCU: 0xF205, offset: 0x136A52, size: 0x8, addend: 0x0, symName: __ZNSt3__119__allocate_at_leastB7v160006INS_9allocatorIN2v85LocalINS2_5ValueEEEEEEENS_19__allocation_resultINS_16allocator_traitsIT_E7pointerEEERS9_m, symObjAddr: 0x7F20, symBinAddr: 0x16008, symSize: 0x34 }
  - { offsetInCU: 0xFBAF, offset: 0x1373FC, size: 0x8, addend: 0x0, symName: __ZNSt3__115allocate_sharedB7v160006IN2v810PersistentINS1_5ValueENS1_27NonCopyablePersistentTraitsIS3_EEEENS_9allocatorIS6_EEJRPNS1_7IsolateERNS1_5LocalINS1_6ObjectEEEEvEENS_10shared_ptrIT_EERKT0_DpOT1_, symObjAddr: 0x9958, symBinAddr: 0x17898, symSize: 0x60 }
  - { offsetInCU: 0x113CB, offset: 0x138C18, size: 0x8, addend: 0x0, symName: __ZNK3tns10MethodMeta8selectorEv, symObjAddr: 0x5DCC, symBinAddr: 0x14934, symSize: 0x230 }
  - { offsetInCU: 0x113F0, offset: 0x138C3D, size: 0x8, addend: 0x0, symName: __ZZNK3tns10MethodMeta8selectorEvE23methodMetaSelectorCache, symObjAddr: 0xB558, symBinAddr: 0xD09118, symSize: 0x0 }
  - { offsetInCU: 0x11407, offset: 0x138C54, size: 0x8, addend: 0x0, symName: __ZZNK3tns10MethodMeta8selectorEvE1p, symObjAddr: 0xB598, symBinAddr: 0xD09158, symSize: 0x0 }
  - { offsetInCU: 0x1C723, offset: 0x143F70, size: 0x8, addend: 0x0, symName: __ZN3tns12ArgConverter4InitEN2v85LocalINS1_7ContextEEEPFvNS2_INS1_4NameEEERKNS1_20PropertyCallbackInfoINS1_5ValueEEEEPFvS6_NS2_IS8_EESB_E, symObjAddr: 0x0, symBinAddr: 0xF564, symSize: 0x190 }
  - { offsetInCU: 0x1CC71, offset: 0x1444BE, size: 0x8, addend: 0x0, symName: __ZN3tns12ArgConverter27CreateEmptyInstanceFunctionEN2v85LocalINS1_7ContextEEEPFvNS2_INS1_4NameEEERKNS1_20PropertyCallbackInfoINS1_5ValueEEEEPFvS6_NS2_IS8_EESB_E, symObjAddr: 0x190, symBinAddr: 0xF6F4, symSize: 0x138 }
  - { offsetInCU: 0x1DB20, offset: 0x14536D, size: 0x8, addend: 0x0, symName: __ZN3tns12ArgConverter6InvokeEN2v85LocalINS1_7ContextEEEP10objc_classNS2_INS1_6ObjectEEERNS_6V8ArgsEPKNS_10MethodMetaEb, symObjAddr: 0x2C8, symBinAddr: 0xF82C, symSize: 0x668 }
  - { offsetInCU: 0x1FEC3, offset: 0x147710, size: 0x8, addend: 0x0, symName: __ZNK10robin_hood6detail5TableILb1ELm80ENSt3__112basic_stringIcNS2_11char_traitsIcEENS2_9allocatorIcEEEENS2_10unique_ptrIN2v810PersistentINSA_6ObjectENSA_27NonCopyablePersistentTraitsISC_EEEENS2_14default_deleteISF_EEEENS_4hashIS8_vEENS2_8equal_toIS8_EEE7findIdxIS8_EEmRKT_, symObjAddr: 0x783C, symBinAddr: 0x15D5C, symSize: 0x108 }
  - { offsetInCU: 0x1FEE7, offset: 0x147734, size: 0x8, addend: 0x0, symName: __ZN3tns12ArgConverter19FindMethodOverloadsEP10objc_classNSt3__112basic_stringIcNS3_11char_traitsIcEENS3_9allocatorIcEEEENS_10MemberTypeERNS3_6vectorIPKNS_10MethodMetaENS7_ISE_EEEE, symObjAddr: 0x930, symBinAddr: 0xFE94, symSize: 0x278 }
  - { offsetInCU: 0x20C70, offset: 0x1484BD, size: 0x8, addend: 0x0, symName: __ZN3tns14ObjCMethodCallC2EN2v85LocalINS1_7ContextEEEPKNS_10MethodMetaEP11objc_objectP10objc_classRNS_6V8ArgsEb, symObjAddr: 0x5C14, symBinAddr: 0x1477C, symSize: 0x1B8 }
  - { offsetInCU: 0x212A9, offset: 0x148AF6, size: 0x8, addend: 0x0, symName: __ZNK10robin_hood6detail5TableILb1ELm80ENSt3__112basic_stringIcNS2_11char_traitsIcEENS2_9allocatorIcEEEENS2_10unique_ptrIN2v810PersistentINSA_6ObjectENSA_27NonCopyablePersistentTraitsISC_EEEENS2_14default_deleteISF_EEEENS_4hashIS8_vEENS2_8equal_toIS8_EEE7findIdxIS8_EEmRKT_, symObjAddr: 0x783C, symBinAddr: 0x15D5C, symSize: 0x108 }
  - { offsetInCU: 0x21BE3, offset: 0x149430, size: 0x8, addend: 0x0, symName: __ZN3tns12ArgConverter8FindMetaEP10objc_classPKNS_12TypeEncodingE, symObjAddr: 0x2E84, symBinAddr: 0x12138, symSize: 0x28C }
  - { offsetInCU: 0x22A28, offset: 0x14A275, size: 0x8, addend: 0x0, symName: __ZNK3tns13InterfaceMeta8baseNameEv, symObjAddr: 0x5350, symBinAddr: 0x14550, symSize: 0x78 }
  - { offsetInCU: 0x22CCD, offset: 0x14A51A, size: 0x8, addend: 0x0, symName: __ZNSt3__16__treeIPKN3tns10MemberMetaENS_4lessIS4_EENS_9allocatorIS4_EEE7destroyEPNS_11__tree_nodeIS4_PvEE, symObjAddr: 0x9A60, symBinAddr: 0x17960, symSize: 0x40 }
  - { offsetInCU: 0x22E0D, offset: 0x14A65A, size: 0x8, addend: 0x0, symName: __ZNKSt3__16vectorIPKN3tns10MethodMetaENS_9allocatorIS4_EEE20__throw_length_errorB7v160006Ev, symObjAddr: 0x8868, symBinAddr: 0x16868, symSize: 0x14 }
  - { offsetInCU: 0x22E36, offset: 0x14A683, size: 0x8, addend: 0x0, symName: __ZNSt3__119__allocate_at_leastB7v160006INS_9allocatorIPKN3tns10MethodMetaEEEEENS_19__allocation_resultINS_16allocator_traitsIT_E7pointerEEERS9_m, symObjAddr: 0x887C, symBinAddr: 0x1687C, symSize: 0x34 }
  - { offsetInCU: 0x22F76, offset: 0x14A7C3, size: 0x8, addend: 0x0, symName: __ZN3tns12ArgConverter15ConvertArgumentEN2v85LocalINS1_7ContextEEEPNS_15BaseDataWrapperEbRKNSt3__16vectorINS7_12basic_stringIcNS7_11char_traitsIcEENS7_9allocatorIcEEEENSC_ISE_EEEE, symObjAddr: 0xD08, symBinAddr: 0x1010C, symSize: 0x60 }
  - { offsetInCU: 0x23017, offset: 0x14A864, size: 0x8, addend: 0x0, symName: __ZN3tns12ArgConverter15CreateJsWrapperEN2v85LocalINS1_7ContextEEEPNS_15BaseDataWrapperENS2_INS1_6ObjectEEEbRKNSt3__16vectorINS9_12basic_stringIcNS9_11char_traitsIcEENS9_9allocatorIcEEEENSE_ISG_EEEE, symObjAddr: 0xD68, symBinAddr: 0x1016C, symSize: 0xBB4 }
  - { offsetInCU: 0x266E3, offset: 0x14DF30, size: 0x8, addend: 0x0, symName: __ZN3tns12ArgConverter17CreateEmptyObjectEN2v85LocalINS1_7ContextEEEb, symObjAddr: 0x463C, symBinAddr: 0x138A0, symSize: 0x120 }
  - { offsetInCU: 0x26C46, offset: 0x14E493, size: 0x8, addend: 0x0, symName: __ZN3tns12ArgConverter17CreateEmptyStructEN2v85LocalINS1_7ContextEEE, symObjAddr: 0x44D0, symBinAddr: 0x13784, symSize: 0x11C }
  - { offsetInCU: 0x2736F, offset: 0x14EBBC, size: 0x8, addend: 0x0, symName: __ZNKSt3__18functionIFN2v85LocalINS1_16FunctionTemplateEEENS2_INS1_7ContextEEEPKN3tns13BaseClassMetaENS7_21KnownUnknownClassPairERKNS_6vectorINS_12basic_stringIcNS_11char_traitsIcEENS_9allocatorIcEEEENSG_ISI_EEEEEEclES6_SA_SB_SM_, symObjAddr: 0x475C, symBinAddr: 0x139C0, symSize: 0x4C }
  - { offsetInCU: 0x2741E, offset: 0x14EC6B, size: 0x8, addend: 0x0, symName: __ZNK3tns11GlobalTableILNS_15GlobalTableTypeE0EE8findMetaEPKcb, symObjAddr: 0x47A8, symBinAddr: 0x13A0C, symSize: 0x54 }
  - { offsetInCU: 0x2742A, offset: 0x14EC77, size: 0x8, addend: 0x0, symName: __ZNK10robin_hood6detail5TableILb1ELm80EPKN3tns4MetaENSt3__110unique_ptrIN2v810PersistentINS8_5ValueENS8_27NonCopyablePersistentTraitsISA_EEEENS6_14default_deleteISD_EEEENS_4hashIS5_vEENS6_8equal_toIS5_EEE7findIdxIS5_EEmRKT_, symObjAddr: 0x8A44, symBinAddr: 0x169F8, symSize: 0xD8 }
  - { offsetInCU: 0x27486, offset: 0x14ECD3, size: 0x8, addend: 0x0, symName: __ZNK10robin_hood6detail5TableILb1ELm80EPKN3tns4MetaENSt3__110unique_ptrIN2v810PersistentINS8_5ValueENS8_27NonCopyablePersistentTraitsISA_EEEENS6_14default_deleteISD_EEEENS_4hashIS5_vEENS6_8equal_toIS5_EEE7findIdxIS5_EEmRKT_, symObjAddr: 0x8A44, symBinAddr: 0x169F8, symSize: 0xD8 }
  - { offsetInCU: 0x275C2, offset: 0x14EE0F, size: 0x8, addend: 0x0, symName: __ZNSt3__16vectorINS_12basic_stringIcNS_11char_traitsIcEENS_9allocatorIcEEEENS4_IS6_EEED2B7v160006Ev, symObjAddr: 0x76D4, symBinAddr: 0x15C90, symSize: 0x38 }
  - { offsetInCU: 0x27743, offset: 0x14EF90, size: 0x8, addend: 0x0, symName: __ZN10robin_hood6detail5TableILb1ELm80EP11objc_objectNSt3__110shared_ptrIN2v810PersistentINS6_5ValueENS6_27NonCopyablePersistentTraitsIS8_EEEEEENS_4hashIS3_vEENS4_8equal_toIS3_EEE7emplaceIJRS3_RSC_EEENS4_4pairINSH_4IterILb0EEEbEEDpOT_, symObjAddr: 0x390C, symBinAddr: 0x12BC0, symSize: 0x148 }
  - { offsetInCU: 0x285B9, offset: 0x14FE06, size: 0x8, addend: 0x0, symName: __ZN3tns12ArgConverter14MethodCallbackEP7ffi_cifPvPS3_S3_, symObjAddr: 0x191C, symBinAddr: 0x10D20, symSize: 0x7D4 }
  - { offsetInCU: 0x29E6C, offset: 0x1516B9, size: 0x8, addend: 0x0, symName: __ZNSt3__16vectorIN2v85LocalINS1_5ValueEEENS_9allocatorIS4_EEE7reserveEm, symObjAddr: 0x20F0, symBinAddr: 0x114F4, symSize: 0x94 }
  - { offsetInCU: 0x2A161, offset: 0x1519AE, size: 0x8, addend: 0x0, symName: __ZNK3tns12TypeEncoding4nextEv, symObjAddr: 0x2184, symBinAddr: 0x11588, symSize: 0xE4 }
  - { offsetInCU: 0x2A16D, offset: 0x1519BA, size: 0x8, addend: 0x0, symName: __ZNK3tns12TypeEncoding4nextEv, symObjAddr: 0x2184, symBinAddr: 0x11588, symSize: 0xE4 }
  - { offsetInCU: 0x2A352, offset: 0x151B9F, size: 0x8, addend: 0x0, symName: __ZN3tns12ArgConverter19IsErrorOutParameterEPKNS_12TypeEncodingE, symObjAddr: 0x2268, symBinAddr: 0x1166C, symSize: 0xA4 }
  - { offsetInCU: 0x2A608, offset: 0x151E55, size: 0x8, addend: 0x0, symName: __ZN3tns12ArgConverter8SetValueEN2v85LocalINS1_7ContextEEEPvNS2_INS1_5ValueEEEPKNS_12TypeEncodingE, symObjAddr: 0x23C8, symBinAddr: 0x11710, symSize: 0x420 }
  - { offsetInCU: 0x2B458, offset: 0x152CA5, size: 0x8, addend: 0x0, symName: __ZNKSt3__16vectorIN2v85LocalINS1_5ValueEEENS_9allocatorIS4_EEE20__throw_length_errorB7v160006Ev, symObjAddr: 0x7F0C, symBinAddr: 0x15FF4, symSize: 0x14 }
  - { offsetInCU: 0x2B481, offset: 0x152CCE, size: 0x8, addend: 0x0, symName: __ZNSt3__119__allocate_at_leastB7v160006INS_9allocatorIN2v85LocalINS2_5ValueEEEEEEENS_19__allocation_resultINS_16allocator_traitsIT_E7pointerEEERS9_m, symObjAddr: 0x7F20, symBinAddr: 0x16008, symSize: 0x34 }
  - { offsetInCU: 0x2BA79, offset: 0x1532C6, size: 0x8, addend: 0x0, symName: __ZNK3tns5PtrToIcE8valuePtrEv, symObjAddr: 0x28B4, symBinAddr: 0x11BFC, symSize: 0x78 }
  - { offsetInCU: 0x2BCE5, offset: 0x153532, size: 0x8, addend: 0x0, symName: __ZN3tns12ArgConverter7GetMetaENSt3__112basic_stringIcNS1_11char_traitsIcEENS1_9allocatorIcEEEE, symObjAddr: 0x292C, symBinAddr: 0x11C74, symSize: 0x13C }
  - { offsetInCU: 0x2C3E8, offset: 0x153C35, size: 0x8, addend: 0x0, symName: __ZNK10robin_hood6detail5TableILb1ELm80ENSt3__112basic_stringIcNS2_11char_traitsIcEENS2_9allocatorIcEEEEPKN3tns4MetaENS_4hashIS8_vEENS2_8equal_toIS8_EEE7findIdxIS8_EEmRKT_, symObjAddr: 0x9434, symBinAddr: 0x173E8, symSize: 0x108 }
  - { offsetInCU: 0x2C524, offset: 0x153D71, size: 0x8, addend: 0x0, symName: __ZNK3tns11GlobalTableILNS_15GlobalTableTypeE0EE8findMetaEPKcb, symObjAddr: 0x47A8, symBinAddr: 0x13A0C, symSize: 0x54 }
  - { offsetInCU: 0x2C5B7, offset: 0x153E04, size: 0x8, addend: 0x0, symName: __ZNK3tns11GlobalTableILNS_15GlobalTableTypeE1EE8findMetaEPKcb, symObjAddr: 0x47FC, symBinAddr: 0x13A60, symSize: 0x54 }
  - { offsetInCU: 0x2C64F, offset: 0x153E9C, size: 0x8, addend: 0x0, symName: __ZN10robin_hood6detail5TableILb1ELm80ENSt3__112basic_stringIcNS2_11char_traitsIcEENS2_9allocatorIcEEEEPKN3tns4MetaENS_4hashIS8_vEENS2_8equal_toIS8_EEEixISC_EENS2_9enable_ifIXntsr3std7is_voidIT_EE5valueERSK_E4typeERKS8_, symObjAddr: 0x8B1C, symBinAddr: 0x16AD0, symSize: 0xD4 }
  - { offsetInCU: 0x2CCCD, offset: 0x15451A, size: 0x8, addend: 0x0, symName: __ZN3tns12ArgConverter15ConstructObjectEN2v85LocalINS1_7ContextEEERKNS1_20FunctionCallbackInfoINS1_5ValueEEEP10objc_classPKNS_13InterfaceMetaE, symObjAddr: 0x2AFC, symBinAddr: 0x11DB0, symSize: 0x388 }
  - { offsetInCU: 0x2D97F, offset: 0x1551CC, size: 0x8, addend: 0x0, symName: __ZN3tns12ArgConverter15FindInitializerEN2v85LocalINS1_7ContextEEEP10objc_classPKNS_13InterfaceMetaERKNS1_20FunctionCallbackInfoINS1_5ValueEEERNSt3__16vectorINS2_ISB_EENSF_9allocatorISH_EEEE, symObjAddr: 0x3110, symBinAddr: 0x123C4, symSize: 0x7FC }
  - { offsetInCU: 0x30541, offset: 0x157D8E, size: 0x8, addend: 0x0, symName: __ZN3tns12ArgConverter15GetInitializersEPNS_6CachesEP10objc_classPKNS_13InterfaceMetaE, symObjAddr: 0x3DF0, symBinAddr: 0x130A4, symSize: 0xE0 }
  - { offsetInCU: 0x3090F, offset: 0x15815C, size: 0x8, addend: 0x0, symName: __ZN3tns12ArgConverter9CanInvokeEN2v85LocalINS1_7ContextEEEPKNS_10MethodMetaERKNS1_20FunctionCallbackInfoINS1_5ValueEEE, symObjAddr: 0x3ED0, symBinAddr: 0x13184, symSize: 0x168 }
  - { offsetInCU: 0x30F4D, offset: 0x15879A, size: 0x8, addend: 0x0, symName: __ZNK3tns13InterfaceMeta8baseMetaEv, symObjAddr: 0x4038, symBinAddr: 0x132EC, symSize: 0x48 }
  - { offsetInCU: 0x30FBA, offset: 0x158807, size: 0x8, addend: 0x0, symName: __ZNSt3__16vectorIN2v85LocalINS1_5ValueEEENS_9allocatorIS4_EEE6assignIPS4_Li0EEEvT_SA_, symObjAddr: 0x88B0, symBinAddr: 0x168B0, symSize: 0x108 }
  - { offsetInCU: 0x315DB, offset: 0x158E28, size: 0x8, addend: 0x0, symName: __ZNSt3__16vectorIN2v85LocalINS1_5ValueEEENS_9allocatorIS4_EEE11__vallocateB7v160006Em, symObjAddr: 0x89B8, symBinAddr: 0x169B8, symSize: 0x40 }
  - { offsetInCU: 0x315F7, offset: 0x158E44, size: 0x8, addend: 0x0, symName: __ZN3tns12ArgConverter18GetInitializerArgsEN2v85LocalINS1_6ObjectEEERNSt3__112basic_stringIcNS5_11char_traitsIcEENS5_9allocatorIcEEEE, symObjAddr: 0x3A54, symBinAddr: 0x12D08, symSize: 0x39C }
  - { offsetInCU: 0x3295E, offset: 0x15A1AB, size: 0x8, addend: 0x0, symName: __ZNSt3__118basic_stringstreamIcNS_11char_traitsIcEENS_9allocatorIcEEEC1B7v160006Ev, symObjAddr: 0x4080, symBinAddr: 0x13334, symSize: 0xE8 }
  - { offsetInCU: 0x32A39, offset: 0x15A286, size: 0x8, addend: 0x0, symName: __ZNSt3__118basic_stringstreamIcNS_11char_traitsIcEENS_9allocatorIcEEED1Ev, symObjAddr: 0x4168, symBinAddr: 0x1341C, symSize: 0x94 }
  - { offsetInCU: 0x32F4A, offset: 0x15A797, size: 0x8, addend: 0x0, symName: __ZN10robin_hood6detail5TableILb1ELm80EP11objc_objectNSt3__110shared_ptrIN2v810PersistentINS6_5ValueENS6_27NonCopyablePersistentTraitsIS8_EEEEEENS_4hashIS3_vEENS4_8equal_toIS3_EEE25insertKeyPrepareEmptySpotIRKS3_EENS4_4pairImNSH_14InsertionStateEEEOT_, symObjAddr: 0x803C, symBinAddr: 0x1603C, symSize: 0x1A0 }
  - { offsetInCU: 0x331CC, offset: 0x15AA19, size: 0x8, addend: 0x0, symName: __ZNK10robin_hood6detail5TableILb1ELm80EP11objc_objectNSt3__110shared_ptrIN2v810PersistentINS6_5ValueENS6_27NonCopyablePersistentTraitsIS8_EEEEEENS_4hashIS3_vEENS4_8equal_toIS3_EEE18throwOverflowErrorEv, symObjAddr: 0x81DC, symBinAddr: 0x161DC, symSize: 0x50 }
  - { offsetInCU: 0x333D2, offset: 0x15AC1F, size: 0x8, addend: 0x0, symName: __ZNK10robin_hood6detail5TableILb1ELm80EPKN3tns13InterfaceMetaENSt3__16vectorIPKNS2_10MethodMetaENS6_9allocatorISA_EEEENS_4hashIS5_vEENS6_8equal_toIS5_EEE7findIdxIS5_EEmRKT_, symObjAddr: 0x9AA0, symBinAddr: 0x179A0, symSize: 0xD8 }
  - { offsetInCU: 0x3342E, offset: 0x15AC7B, size: 0x8, addend: 0x0, symName: __ZNK10robin_hood6detail5TableILb1ELm80EPKN3tns13InterfaceMetaENSt3__16vectorIPKNS2_10MethodMetaENS6_9allocatorISA_EEEENS_4hashIS5_vEENS6_8equal_toIS5_EEE7findIdxIS5_EEmRKT_, symObjAddr: 0x9AA0, symBinAddr: 0x179A0, symSize: 0xD8 }
  - { offsetInCU: 0x3356B, offset: 0x15ADB8, size: 0x8, addend: 0x0, symName: __ZNSt3__16vectorIPKN3tns10MethodMetaENS_9allocatorIS4_EEEC2ERKS7_, symObjAddr: 0x9B78, symBinAddr: 0x17A78, symSize: 0x80 }
  - { offsetInCU: 0x33896, offset: 0x15B0E3, size: 0x8, addend: 0x0, symName: __ZNK3tns13BaseClassMeta25initializersWithProtocolsENS_21KnownUnknownClassPairERKNSt3__16vectorIPKNS_12ProtocolMetaENS2_9allocatorIS6_EEEE, symObjAddr: 0x53C8, symBinAddr: 0x145C8, symSize: 0x68 }
  - { offsetInCU: 0x33BFE, offset: 0x15B44B, size: 0x8, addend: 0x0, symName: __ZN10robin_hood6detail5TableILb1ELm80EPKN3tns13InterfaceMetaENSt3__16vectorIPKNS2_10MethodMetaENS6_9allocatorISA_EEEENS_4hashIS5_vEENS6_8equal_toIS5_EEE7emplaceIJRS5_RSD_EEENS6_4pairINSI_4IterILb0EEEbEEDpOT_, symObjAddr: 0x5430, symBinAddr: 0x14630, symSize: 0x14C }
  - { offsetInCU: 0x34421, offset: 0x15BC6E, size: 0x8, addend: 0x0, symName: __ZN3tns12ArgConverter9CanInvokeEN2v85LocalINS1_7ContextEEEPKNS_12TypeEncodingENS2_INS1_5ValueEEE, symObjAddr: 0x41FC, symBinAddr: 0x134B0, symSize: 0x2D4 }
  - { offsetInCU: 0x34C8D, offset: 0x15C4DA, size: 0x8, addend: 0x0, symName: __ZNK3tns11GlobalTableILNS_15GlobalTableTypeE0EE17findInterfaceMetaEPKc, symObjAddr: 0x6E2C, symBinAddr: 0x154D0, symSize: 0x4C }
  - { offsetInCU: 0x34DA2, offset: 0x15C5EF, size: 0x8, addend: 0x0, symName: __ZN3tns12ArgConverter19CreateEmptyInstanceEN2v85LocalINS1_7ContextEEEPNS1_10PersistentINS1_8FunctionENS1_27NonCopyablePersistentTraitsIS6_EEEEb, symObjAddr: 0x4BCC, symBinAddr: 0x13E30, symSize: 0x184 }
  - { offsetInCU: 0x3540A, offset: 0x15CC57, size: 0x8, addend: 0x0, symName: __ZN3WTF12StringHasher26computeHashAndMaskTop8BitsIcXadL_ZNS0_16defaultConverterEcEEEEjPKT_, symObjAddr: 0x6F6C, symBinAddr: 0x15610, symSize: 0x4C }
  - { offsetInCU: 0x354CB, offset: 0x15CD18, size: 0x8, addend: 0x0, symName: __ZNK3tns11GlobalTableILNS_15GlobalTableTypeE0EE8findMetaEPKcmjb, symObjAddr: 0x706C, symBinAddr: 0x15710, symSize: 0x16C }
  - { offsetInCU: 0x35AC6, offset: 0x15D313, size: 0x8, addend: 0x0, symName: __ZNK3tns11GlobalTableILNS_15GlobalTableTypeE1EE8findMetaEPKcmjb, symObjAddr: 0x953C, symBinAddr: 0x174F0, symSize: 0x16C }
  - { offsetInCU: 0x3622D, offset: 0x15DA7A, size: 0x8, addend: 0x0, symName: __ZN3tns12ArgConverter16FindProtocolMetaEP8Protocol, symObjAddr: 0x4850, symBinAddr: 0x13AB4, symSize: 0x37C }
  - { offsetInCU: 0x37D3D, offset: 0x15F58A, size: 0x8, addend: 0x0, symName: __ZNSt3__115allocate_sharedB7v160006IN2v810PersistentINS1_5ValueENS1_27NonCopyablePersistentTraitsIS3_EEEENS_9allocatorIS6_EEJRPNS1_7IsolateERNS1_5LocalINS1_6ObjectEEEEvEENS_10shared_ptrIT_EERKT0_DpOT1_, symObjAddr: 0x9958, symBinAddr: 0x17898, symSize: 0x60 }
  - { offsetInCU: 0x37FAC, offset: 0x15F7F9, size: 0x8, addend: 0x0, symName: __ZN3tns12ArgConverter29IndexedPropertyGetterCallbackEjRKN2v820PropertyCallbackInfoINS1_5ValueEEE, symObjAddr: 0x4DB4, symBinAddr: 0x13FB4, symSize: 0x4EC }
  - { offsetInCU: 0x38F4B, offset: 0x160798, size: 0x8, addend: 0x0, symName: __ZN3tns12ArgConverter29IndexedPropertySetterCallbackEjN2v85LocalINS1_5ValueEEERKNS1_20PropertyCallbackInfoIS3_EE, symObjAddr: 0x52A0, symBinAddr: 0x144A0, symSize: 0xB0 }
  - { offsetInCU: 0x394A0, offset: 0x160CED, size: 0x8, addend: 0x0, symName: __ZN10robin_hood6detail5TableILb1ELm80EPKN3tns13InterfaceMetaENSt3__16vectorIPKNS2_10MethodMetaENS6_9allocatorISA_EEEENS_4hashIS5_vEENS6_8equal_toIS5_EEE25insertKeyPrepareEmptySpotIRKS5_EENS6_4pairImNSI_14InsertionStateEEEOT_, symObjAddr: 0x9C38, symBinAddr: 0x17B38, symSize: 0x194 }
  - { offsetInCU: 0x3965A, offset: 0x160EA7, size: 0x8, addend: 0x0, symName: __ZNK10robin_hood6detail5TableILb1ELm80EPKN3tns13InterfaceMetaENSt3__16vectorIPKNS2_10MethodMetaENS6_9allocatorISA_EEEENS_4hashIS5_vEENS6_8equal_toIS5_EEE18throwOverflowErrorEv, symObjAddr: 0x9DCC, symBinAddr: 0x17CCC, symSize: 0x50 }
  - { offsetInCU: 0x39C70, offset: 0x1614BD, size: 0x8, addend: 0x0, symName: __ZNK10robin_hood6detail5TableILb1ELm80EPKN3tns10MethodMetaEP13objc_selectorNS_4hashIS5_vEENSt3__18equal_toIS5_EEE7findIdxIS5_EEmRKT_, symObjAddr: 0x60D0, symBinAddr: 0x14C38, symSize: 0xD8 }
  - { offsetInCU: 0x39CCC, offset: 0x161519, size: 0x8, addend: 0x0, symName: __ZNK10robin_hood6detail5TableILb1ELm80EPKN3tns10MethodMetaEP13objc_selectorNS_4hashIS5_vEENSt3__18equal_toIS5_EEE7findIdxIS5_EEmRKT_, symObjAddr: 0x60D0, symBinAddr: 0x14C38, symSize: 0xD8 }
  - { offsetInCU: 0x39E1E, offset: 0x16166B, size: 0x8, addend: 0x0, symName: __ZN10robin_hood6detail5TableILb1ELm80EPKN3tns10MethodMetaEP13objc_selectorNS_4hashIS5_vEENSt3__18equal_toIS5_EEE7emplaceIJS5_RS7_EEENSA_4pairINSD_4IterILb0EEEbEEDpOT_, symObjAddr: 0x603C, symBinAddr: 0x14BA4, symSize: 0x94 }
  - { offsetInCU: 0x3A024, offset: 0x161871, size: 0x8, addend: 0x0, symName: __ZN10robin_hood6detail5TableILb1ELm80EPKN3tns10MethodMetaEP13objc_selectorNS_4hashIS5_vEENSt3__18equal_toIS5_EEED1Ev, symObjAddr: 0x5FFC, symBinAddr: 0x14B64, symSize: 0x40 }
  - { offsetInCU: 0x3A27E, offset: 0x161ACB, size: 0x8, addend: 0x0, symName: __ZN10robin_hood6detail5TableILb1ELm80EPKN3tns10MethodMetaEP13objc_selectorNS_4hashIS5_vEENSt3__18equal_toIS5_EEE25insertKeyPrepareEmptySpotIRKS5_EENSA_4pairImNSD_14InsertionStateEEEOT_, symObjAddr: 0x61A8, symBinAddr: 0x14D10, symSize: 0x194 }
  - { offsetInCU: 0x3A438, offset: 0x161C85, size: 0x8, addend: 0x0, symName: __ZNK10robin_hood6detail5TableILb1ELm80EPKN3tns10MethodMetaEP13objc_selectorNS_4hashIS5_vEENSt3__18equal_toIS5_EEE18throwOverflowErrorEv, symObjAddr: 0x633C, symBinAddr: 0x14EA4, symSize: 0x50 }
  - { offsetInCU: 0x3A57D, offset: 0x161DCA, size: 0x8, addend: 0x0, symName: __ZN10robin_hood6detail5TableILb1ELm80EPKN3tns10MethodMetaEP13objc_selectorNS_4hashIS5_vEENSt3__18equal_toIS5_EEE13increase_sizeEv, symObjAddr: 0x638C, symBinAddr: 0x14EF4, symSize: 0x12C }
  - { offsetInCU: 0x3A647, offset: 0x161E94, size: 0x8, addend: 0x0, symName: __ZN10robin_hood6detail5TableILb1ELm80EPKN3tns10MethodMetaEP13objc_selectorNS_4hashIS5_vEENSt3__18equal_toIS5_EEE7shiftUpEmm, symObjAddr: 0x64B8, symBinAddr: 0x15020, symSize: 0x98 }
  - { offsetInCU: 0x3A70C, offset: 0x161F59, size: 0x8, addend: 0x0, symName: __ZN10robin_hood6detail5TableILb1ELm80EPKN3tns10MethodMetaEP13objc_selectorNS_4hashIS5_vEENSt3__18equal_toIS5_EEE17try_increase_infoEv, symObjAddr: 0x661C, symBinAddr: 0x15184, symSize: 0x100 }
  - { offsetInCU: 0x3A816, offset: 0x162063, size: 0x8, addend: 0x0, symName: __ZN10robin_hood6detail5TableILb1ELm80EPKN3tns10MethodMetaEP13objc_selectorNS_4hashIS5_vEENSt3__18equal_toIS5_EEE8initDataEm, symObjAddr: 0x6550, symBinAddr: 0x150B8, symSize: 0xCC }
  - { offsetInCU: 0x3A929, offset: 0x162176, size: 0x8, addend: 0x0, symName: __ZN10robin_hood6detail5TableILb1ELm80EPKN3tns10MethodMetaEP13objc_selectorNS_4hashIS5_vEENSt3__18equal_toIS5_EEE17try_increase_infoEv, symObjAddr: 0x661C, symBinAddr: 0x15184, symSize: 0x100 }
  - { offsetInCU: 0x3A935, offset: 0x162182, size: 0x8, addend: 0x0, symName: __ZN10robin_hood6detail5TableILb1ELm80EPKN3tns10MethodMetaEP13objc_selectorNS_4hashIS5_vEENSt3__18equal_toIS5_EEE16rehashPowerOfTwoEmb, symObjAddr: 0x671C, symBinAddr: 0x15284, symSize: 0xF0 }
  - { offsetInCU: 0x3AAB0, offset: 0x1622FD, size: 0x8, addend: 0x0, symName: __ZN10robin_hood6detail5TableILb1ELm80EPKN3tns10MethodMetaEP13objc_selectorNS_4hashIS5_vEENSt3__18equal_toIS5_EEE11insert_moveEONSD_8DataNodeISD_Lb1EEE, symObjAddr: 0x6834, symBinAddr: 0x15374, symSize: 0x128 }
  - { offsetInCU: 0x3AC56, offset: 0x1624A3, size: 0x8, addend: 0x0, symName: __ZN3tns15ObjCDataWrapperD1Ev, symObjAddr: 0x6980, symBinAddr: 0x1549C, symSize: 0x4 }
  - { offsetInCU: 0x3AC81, offset: 0x1624CE, size: 0x8, addend: 0x0, symName: __ZN3tns15ObjCDataWrapperD0Ev, symObjAddr: 0x6984, symBinAddr: 0x154A0, symSize: 0x4 }
  - { offsetInCU: 0x3ACAC, offset: 0x1624F9, size: 0x8, addend: 0x0, symName: __ZN3tns15ObjCDataWrapper4TypeEv, symObjAddr: 0x6988, symBinAddr: 0x154A4, symSize: 0x8 }
  - { offsetInCU: 0x3B6CF, offset: 0x162F1C, size: 0x8, addend: 0x0, symName: __ZNK3tns12V8VectorArgsixEi, symObjAddr: 0x6E08, symBinAddr: 0x154AC, symSize: 0x10 }
  - { offsetInCU: 0x3B720, offset: 0x162F6D, size: 0x8, addend: 0x0, symName: __ZNK3tns12V8VectorArgs6LengthEv, symObjAddr: 0x6E18, symBinAddr: 0x154BC, symSize: 0x14 }
  - { offsetInCU: 0x3B766, offset: 0x162FB3, size: 0x8, addend: 0x0, symName: __ZNK3tns11GlobalTableILNS_15GlobalTableTypeE0EE17findInterfaceMetaEPKcmj, symObjAddr: 0x6E78, symBinAddr: 0x1551C, symSize: 0xF4 }
  - { offsetInCU: 0x3BBE7, offset: 0x163434, size: 0x8, addend: 0x0, symName: __ZN3WTF12StringHasher28addCharactersAssumingAlignedIcXadL_ZNS0_16defaultConverterEcEEEEvPKT_, symObjAddr: 0x6FB8, symBinAddr: 0x1565C, symSize: 0x80 }
  - { offsetInCU: 0x3BCDE, offset: 0x16352B, size: 0x8, addend: 0x0, symName: __ZNK3WTF12StringHasher13avalancheBitsEv, symObjAddr: 0x7038, symBinAddr: 0x156DC, symSize: 0x34 }
  - { offsetInCU: 0x3BE37, offset: 0x163684, size: 0x8, addend: 0x0, symName: __ZN3tns11GlobalTableILNS_15GlobalTableTypeE0EE11compareNameERKNS_4MetaEPKcm, symObjAddr: 0x71D8, symBinAddr: 0x1587C, symSize: 0x120 }
  - { offsetInCU: 0x3C208, offset: 0x163A55, size: 0x8, addend: 0x0, symName: __ZThn16_NSt3__118basic_stringstreamIcNS_11char_traitsIcEENS_9allocatorIcEEED1Ev, symObjAddr: 0x72F8, symBinAddr: 0x1599C, symSize: 0x8C }
  - { offsetInCU: 0x3C3BE, offset: 0x163C0B, size: 0x8, addend: 0x0, symName: __ZTv0_n24_NSt3__118basic_stringstreamIcNS_11char_traitsIcEENS_9allocatorIcEEED1Ev, symObjAddr: 0x7384, symBinAddr: 0x15A28, symSize: 0x94 }
  - { offsetInCU: 0x3C571, offset: 0x163DBE, size: 0x8, addend: 0x0, symName: __ZNSt3__118basic_stringstreamIcNS_11char_traitsIcEENS_9allocatorIcEEED0Ev, symObjAddr: 0x7418, symBinAddr: 0x15ABC, symSize: 0x94 }
  - { offsetInCU: 0x3C747, offset: 0x163F94, size: 0x8, addend: 0x0, symName: __ZThn16_NSt3__118basic_stringstreamIcNS_11char_traitsIcEENS_9allocatorIcEEED0Ev, symObjAddr: 0x74AC, symBinAddr: 0x15B50, symSize: 0x94 }
  - { offsetInCU: 0x3C91C, offset: 0x164169, size: 0x8, addend: 0x0, symName: __ZTv0_n24_NSt3__118basic_stringstreamIcNS_11char_traitsIcEENS_9allocatorIcEEED0Ev, symObjAddr: 0x7540, symBinAddr: 0x15BE4, symSize: 0x9C }
  - { offsetInCU: 0x3CAEB, offset: 0x164338, size: 0x8, addend: 0x0, symName: __ZN3tns16ObjCClassWrapperD1Ev, symObjAddr: 0x75DC, symBinAddr: 0x15C80, symSize: 0x4 }
  - { offsetInCU: 0x3CB16, offset: 0x164363, size: 0x8, addend: 0x0, symName: __ZN3tns16ObjCClassWrapperD0Ev, symObjAddr: 0x75E0, symBinAddr: 0x15C84, symSize: 0x4 }
  - { offsetInCU: 0x3CB41, offset: 0x16438E, size: 0x8, addend: 0x0, symName: __ZN3tns16ObjCClassWrapper4TypeEv, symObjAddr: 0x75E4, symBinAddr: 0x15C88, symSize: 0x8 }
  - { offsetInCU: 0x3CC06, offset: 0x164453, size: 0x8, addend: 0x0, symName: __ZNSt3__16vectorINS_12basic_stringIcNS_11char_traitsIcEENS_9allocatorIcEEEENS4_IS6_EEE16__destroy_vectorclB7v160006Ev, symObjAddr: 0x770C, symBinAddr: 0x15CC8, symSize: 0x40 }
  - { offsetInCU: 0x3CD4D, offset: 0x16459A, size: 0x8, addend: 0x0, symName: __ZNSt3__16vectorINS_12basic_stringIcNS_11char_traitsIcEENS_9allocatorIcEEEENS4_IS6_EEE7__clearB7v160006Ev, symObjAddr: 0x774C, symBinAddr: 0x15D08, symSize: 0x54 }
  - { offsetInCU: 0x3D012, offset: 0x16485F, size: 0x8, addend: 0x0, symName: __ZNK10robin_hood4hashINSt3__112basic_stringIcNS1_11char_traitsIcEENS1_9allocatorIcEEEEvEclERKS7_, symObjAddr: 0x79F4, symBinAddr: 0x15F14, symSize: 0xE0 }
  - { offsetInCU: 0x3D130, offset: 0x16497D, size: 0x8, addend: 0x0, symName: __ZNKSt3__18equal_toINS_12basic_stringIcNS_11char_traitsIcEENS_9allocatorIcEEEEEclB7v160006ERKS6_S9_, symObjAddr: 0x7944, symBinAddr: 0x15E64, symSize: 0xB0 }
  - { offsetInCU: 0x3D8F3, offset: 0x165140, size: 0x8, addend: 0x0, symName: __ZNKSt3__16vectorIN2v85LocalINS1_5ValueEEENS_9allocatorIS4_EEE20__throw_length_errorB7v160006Ev, symObjAddr: 0x7F0C, symBinAddr: 0x15FF4, symSize: 0x14 }
  - { offsetInCU: 0x3DA9E, offset: 0x1652EB, size: 0x8, addend: 0x0, symName: __ZN10robin_hood6detail5TableILb1ELm80EP11objc_objectNSt3__110shared_ptrIN2v810PersistentINS6_5ValueENS6_27NonCopyablePersistentTraitsIS8_EEEEEENS_4hashIS3_vEENS4_8equal_toIS3_EEE13increase_sizeEv, symObjAddr: 0x822C, symBinAddr: 0x1622C, symSize: 0x12C }
  - { offsetInCU: 0x3DB68, offset: 0x1653B5, size: 0x8, addend: 0x0, symName: __ZN10robin_hood6detail5TableILb1ELm80EP11objc_objectNSt3__110shared_ptrIN2v810PersistentINS6_5ValueENS6_27NonCopyablePersistentTraitsIS8_EEEEEENS_4hashIS3_vEENS4_8equal_toIS3_EEE7shiftUpEmm, symObjAddr: 0x8358, symBinAddr: 0x16358, symSize: 0xEC }
  - { offsetInCU: 0x3DD10, offset: 0x16555D, size: 0x8, addend: 0x0, symName: __ZN10robin_hood6detail5TableILb1ELm80EP11objc_objectNSt3__110shared_ptrIN2v810PersistentINS6_5ValueENS6_27NonCopyablePersistentTraitsIS8_EEEEEENS_4hashIS3_vEENS4_8equal_toIS3_EEE17try_increase_infoEv, symObjAddr: 0x8520, symBinAddr: 0x16520, symSize: 0x100 }
  - { offsetInCU: 0x3DE1A, offset: 0x165667, size: 0x8, addend: 0x0, symName: __ZN10robin_hood6detail5TableILb1ELm80EP11objc_objectNSt3__110shared_ptrIN2v810PersistentINS6_5ValueENS6_27NonCopyablePersistentTraitsIS8_EEEEEENS_4hashIS3_vEENS4_8equal_toIS3_EEE8initDataEm, symObjAddr: 0x8444, symBinAddr: 0x16444, symSize: 0xDC }
  - { offsetInCU: 0x3DF2D, offset: 0x16577A, size: 0x8, addend: 0x0, symName: __ZN10robin_hood6detail5TableILb1ELm80EP11objc_objectNSt3__110shared_ptrIN2v810PersistentINS6_5ValueENS6_27NonCopyablePersistentTraitsIS8_EEEEEENS_4hashIS3_vEENS4_8equal_toIS3_EEE17try_increase_infoEv, symObjAddr: 0x8520, symBinAddr: 0x16520, symSize: 0x100 }
  - { offsetInCU: 0x3DF39, offset: 0x165786, size: 0x8, addend: 0x0, symName: __ZN10robin_hood6detail5TableILb1ELm80EP11objc_objectNSt3__110shared_ptrIN2v810PersistentINS6_5ValueENS6_27NonCopyablePersistentTraitsIS8_EEEEEENS_4hashIS3_vEENS4_8equal_toIS3_EEE16rehashPowerOfTwoEmb, symObjAddr: 0x8620, symBinAddr: 0x16620, symSize: 0xF8 }
  - { offsetInCU: 0x3E195, offset: 0x1659E2, size: 0x8, addend: 0x0, symName: __ZN10robin_hood6detail5TableILb1ELm80EP11objc_objectNSt3__110shared_ptrIN2v810PersistentINS6_5ValueENS6_27NonCopyablePersistentTraitsIS8_EEEEEENS_4hashIS3_vEENS4_8equal_toIS3_EEE11insert_moveEONSH_8DataNodeISH_Lb1EEE, symObjAddr: 0x8718, symBinAddr: 0x16718, symSize: 0x150 }
  - { offsetInCU: 0x3E620, offset: 0x165E6D, size: 0x8, addend: 0x0, symName: __ZNSt3__16vectorIN2v85LocalINS1_5ValueEEENS_9allocatorIS4_EEE11__vallocateB7v160006Em, symObjAddr: 0x89B8, symBinAddr: 0x169B8, symSize: 0x40 }
  - { offsetInCU: 0x3EAB7, offset: 0x166304, size: 0x8, addend: 0x0, symName: __ZN10robin_hood6detail5TableILb1ELm80ENSt3__112basic_stringIcNS2_11char_traitsIcEENS2_9allocatorIcEEEEPKN3tns4MetaENS_4hashIS8_vEENS2_8equal_toIS8_EEE25insertKeyPrepareEmptySpotIRKS8_EENS2_4pairImNSH_14InsertionStateEEEOT_, symObjAddr: 0x8BF0, symBinAddr: 0x16BA4, symSize: 0x188 }
  - { offsetInCU: 0x3EC1C, offset: 0x166469, size: 0x8, addend: 0x0, symName: __ZNK10robin_hood6detail5TableILb1ELm80ENSt3__112basic_stringIcNS2_11char_traitsIcEENS2_9allocatorIcEEEEPKN3tns4MetaENS_4hashIS8_vEENS2_8equal_toIS8_EEE18throwOverflowErrorEv, symObjAddr: 0x8D78, symBinAddr: 0x16D2C, symSize: 0x50 }
  - { offsetInCU: 0x3ED06, offset: 0x166553, size: 0x8, addend: 0x0, symName: __ZN10robin_hood6detail5TableILb1ELm80ENSt3__112basic_stringIcNS2_11char_traitsIcEENS2_9allocatorIcEEEEPKN3tns4MetaENS_4hashIS8_vEENS2_8equal_toIS8_EEE13increase_sizeEv, symObjAddr: 0x8DC8, symBinAddr: 0x16D7C, symSize: 0x12C }
  - { offsetInCU: 0x3EDD0, offset: 0x16661D, size: 0x8, addend: 0x0, symName: __ZN10robin_hood6detail5TableILb1ELm80ENSt3__112basic_stringIcNS2_11char_traitsIcEENS2_9allocatorIcEEEEPKN3tns4MetaENS_4hashIS8_vEENS2_8equal_toIS8_EEE7shiftUpEmm, symObjAddr: 0x8EF4, symBinAddr: 0x16EA8, symSize: 0x118 }
  - { offsetInCU: 0x3F052, offset: 0x16689F, size: 0x8, addend: 0x0, symName: __ZN10robin_hood6detail5TableILb1ELm80ENSt3__112basic_stringIcNS2_11char_traitsIcEENS2_9allocatorIcEEEEPKN3tns4MetaENS_4hashIS8_vEENS2_8equal_toIS8_EEE17try_increase_infoEv, symObjAddr: 0x90D8, symBinAddr: 0x1708C, symSize: 0x100 }
  - { offsetInCU: 0x3F15C, offset: 0x1669A9, size: 0x8, addend: 0x0, symName: __ZN10robin_hood6detail5TableILb1ELm80ENSt3__112basic_stringIcNS2_11char_traitsIcEENS2_9allocatorIcEEEEPKN3tns4MetaENS_4hashIS8_vEENS2_8equal_toIS8_EEE8initDataEm, symObjAddr: 0x900C, symBinAddr: 0x16FC0, symSize: 0xCC }
  - { offsetInCU: 0x3F26F, offset: 0x166ABC, size: 0x8, addend: 0x0, symName: __ZN10robin_hood6detail5TableILb1ELm80ENSt3__112basic_stringIcNS2_11char_traitsIcEENS2_9allocatorIcEEEEPKN3tns4MetaENS_4hashIS8_vEENS2_8equal_toIS8_EEE17try_increase_infoEv, symObjAddr: 0x90D8, symBinAddr: 0x1708C, symSize: 0x100 }
  - { offsetInCU: 0x3F27B, offset: 0x166AC8, size: 0x8, addend: 0x0, symName: __ZN10robin_hood6detail5TableILb1ELm80ENSt3__112basic_stringIcNS2_11char_traitsIcEENS2_9allocatorIcEEEEPKN3tns4MetaENS_4hashIS8_vEENS2_8equal_toIS8_EEE16rehashPowerOfTwoEmb, symObjAddr: 0x91D8, symBinAddr: 0x1718C, symSize: 0x100 }
  - { offsetInCU: 0x3F609, offset: 0x166E56, size: 0x8, addend: 0x0, symName: __ZN10robin_hood6detail5TableILb1ELm80ENSt3__112basic_stringIcNS2_11char_traitsIcEENS2_9allocatorIcEEEEPKN3tns4MetaENS_4hashIS8_vEENS2_8equal_toIS8_EEE11insert_moveEONSH_8DataNodeISH_Lb1EEE, symObjAddr: 0x92D8, symBinAddr: 0x1728C, symSize: 0x15C }
  - { offsetInCU: 0x3FA07, offset: 0x167254, size: 0x8, addend: 0x0, symName: __ZN3tns11GlobalTableILNS_15GlobalTableTypeE1EE11compareNameERKNS_4MetaEPKcm, symObjAddr: 0x96A8, symBinAddr: 0x1765C, symSize: 0x23C }
  - { offsetInCU: 0x4039B, offset: 0x167BE8, size: 0x8, addend: 0x0, symName: __ZNSt3__120__shared_ptr_emplaceIN2v810PersistentINS1_5ValueENS1_27NonCopyablePersistentTraitsIS3_EEEENS_9allocatorIS6_EEEC2B7v160006IJRPNS1_7IsolateERNS1_5LocalINS1_6ObjectEEEEEES8_DpOT_, symObjAddr: 0x99B8, symBinAddr: 0x178F8, symSize: 0x68 }
  - { offsetInCU: 0x40887, offset: 0x1680D4, size: 0x8, addend: 0x0, symName: __ZNSt3__16vectorIPKN3tns10MethodMetaENS_9allocatorIS4_EEE11__vallocateB7v160006Em, symObjAddr: 0x9BF8, symBinAddr: 0x17AF8, symSize: 0x40 }
  - { offsetInCU: 0x408FE, offset: 0x16814B, size: 0x8, addend: 0x0, symName: __ZN10robin_hood6detail5TableILb1ELm80EPKN3tns13InterfaceMetaENSt3__16vectorIPKNS2_10MethodMetaENS6_9allocatorISA_EEEENS_4hashIS5_vEENS6_8equal_toIS5_EEE25insertKeyPrepareEmptySpotIRKS5_EENS6_4pairImNSI_14InsertionStateEEEOT_, symObjAddr: 0x9C38, symBinAddr: 0x17B38, symSize: 0x194 }
  - { offsetInCU: 0x4094E, offset: 0x16819B, size: 0x8, addend: 0x0, symName: __ZN10robin_hood6detail5TableILb1ELm80EPKN3tns13InterfaceMetaENSt3__16vectorIPKNS2_10MethodMetaENS6_9allocatorISA_EEEENS_4hashIS5_vEENS6_8equal_toIS5_EEE13increase_sizeEv, symObjAddr: 0x9E1C, symBinAddr: 0x17D1C, symSize: 0x12C }
  - { offsetInCU: 0x40A18, offset: 0x168265, size: 0x8, addend: 0x0, symName: __ZN10robin_hood6detail5TableILb1ELm80EPKN3tns13InterfaceMetaENSt3__16vectorIPKNS2_10MethodMetaENS6_9allocatorISA_EEEENS_4hashIS5_vEENS6_8equal_toIS5_EEE7shiftUpEmm, symObjAddr: 0x9F48, symBinAddr: 0x17E48, symSize: 0xF4 }
  - { offsetInCU: 0x40BE1, offset: 0x16842E, size: 0x8, addend: 0x0, symName: __ZN10robin_hood6detail5TableILb1ELm80EPKN3tns13InterfaceMetaENSt3__16vectorIPKNS2_10MethodMetaENS6_9allocatorISA_EEEENS_4hashIS5_vEENS6_8equal_toIS5_EEE17try_increase_infoEv, symObjAddr: 0xA108, symBinAddr: 0x18008, symSize: 0x100 }
  - { offsetInCU: 0x40CEB, offset: 0x168538, size: 0x8, addend: 0x0, symName: __ZN10robin_hood6detail5TableILb1ELm80EPKN3tns13InterfaceMetaENSt3__16vectorIPKNS2_10MethodMetaENS6_9allocatorISA_EEEENS_4hashIS5_vEENS6_8equal_toIS5_EEE8initDataEm, symObjAddr: 0xA03C, symBinAddr: 0x17F3C, symSize: 0xCC }
  - { offsetInCU: 0x40DFE, offset: 0x16864B, size: 0x8, addend: 0x0, symName: __ZN10robin_hood6detail5TableILb1ELm80EPKN3tns13InterfaceMetaENSt3__16vectorIPKNS2_10MethodMetaENS6_9allocatorISA_EEEENS_4hashIS5_vEENS6_8equal_toIS5_EEE17try_increase_infoEv, symObjAddr: 0xA108, symBinAddr: 0x18008, symSize: 0x100 }
  - { offsetInCU: 0x40E0A, offset: 0x168657, size: 0x8, addend: 0x0, symName: __ZN10robin_hood6detail5TableILb1ELm80EPKN3tns13InterfaceMetaENSt3__16vectorIPKNS2_10MethodMetaENS6_9allocatorISA_EEEENS_4hashIS5_vEENS6_8equal_toIS5_EEE16rehashPowerOfTwoEmb, symObjAddr: 0xA208, symBinAddr: 0x18108, symSize: 0x100 }
  - { offsetInCU: 0x41119, offset: 0x168966, size: 0x8, addend: 0x0, symName: __ZNSt3__16vectorIPKN3tns10MethodMetaENS_9allocatorIS4_EEE13__move_assignERS7_NS_17integral_constantIbLb1EEE, symObjAddr: 0xA464, symBinAddr: 0x18364, symSize: 0x50 }
  - { offsetInCU: 0x41309, offset: 0x168B56, size: 0x8, addend: 0x0, symName: __ZN10robin_hood6detail5TableILb1ELm80EPKN3tns13InterfaceMetaENSt3__16vectorIPKNS2_10MethodMetaENS6_9allocatorISA_EEEENS_4hashIS5_vEENS6_8equal_toIS5_EEE11insert_moveEONSI_8DataNodeISI_Lb1EEE, symObjAddr: 0xA308, symBinAddr: 0x18208, symSize: 0x15C }
  - { offsetInCU: 0x53, offset: 0x168F03, size: 0x8, addend: 0x0, symName: __ZN3tns6Worker15GlobalFunctionsE, symObjAddr: 0x26ED58, symBinAddr: 0x1593C98, symSize: 0x0 }
  - { offsetInCU: 0xCDC5, offset: 0x175C75, size: 0x8, addend: 0x0, symName: __ZNSt3__115allocate_sharedB7v160006IN3tns6Caches11WorkerStateENS_9allocatorIS3_EEJRPN2v87IsolateERNS_10shared_ptrINS6_10PersistentINS6_5ValueENS6_27NonCopyablePersistentTraitsISC_EEEEEERPNS1_13WorkerWrapperEEvEENSA_IT_EERKT0_DpOT1_, symObjAddr: 0x2880, symBinAddr: 0x1A738, symSize: 0x70 }
  - { offsetInCU: 0xD364, offset: 0x176214, size: 0x8, addend: 0x0, symName: __ZNSt3__130__uninitialized_allocator_copyB7v160006INS_9allocatorINS_12basic_stringIcNS_11char_traitsIcEENS1_IcEEEEEEPKS6_S9_PS6_EET2_RT_T0_T1_SB_, symObjAddr: 0x22B0, symBinAddr: 0x1A168, symSize: 0xA0 }
  - { offsetInCU: 0x152E6, offset: 0x17E196, size: 0x8, addend: 0x0, symName: __ZN3tns6Worker19ConstructorCallbackERKN2v820FunctionCallbackInfoINS1_5ValueEEE, symObjAddr: 0xBFC, symBinAddr: 0x18FB0, symSize: 0x764 }
  - { offsetInCU: 0x16DB0, offset: 0x17FC60, size: 0x8, addend: 0x0, symName: __ZN3tns6Worker25PostMessageToMainCallbackERKN2v820FunctionCallbackInfoINS1_5ValueEEE, symObjAddr: 0x494, symBinAddr: 0x18848, symSize: 0x4AC }
  - { offsetInCU: 0x19DF2, offset: 0x182CA2, size: 0x8, addend: 0x0, symName: __ZNSt3__16vectorINS_12basic_stringIcNS_11char_traitsIcEENS_9allocatorIcEEEENS4_IS6_EEED1B7v160006Ev, symObjAddr: 0x0, symBinAddr: 0x183B4, symSize: 0x4 }
  - { offsetInCU: 0x19E1D, offset: 0x182CCD, size: 0x8, addend: 0x0, symName: __ZNSt3__16vectorINS_12basic_stringIcNS_11char_traitsIcEENS_9allocatorIcEEEENS4_IS6_EEED1B7v160006Ev, symObjAddr: 0x0, symBinAddr: 0x183B4, symSize: 0x4 }
  - { offsetInCU: 0x19FE5, offset: 0x182E95, size: 0x8, addend: 0x0, symName: __ZN3tns6Worker4InitEPN2v87IsolateENS1_5LocalINS1_14ObjectTemplateEEE, symObjAddr: 0x4, symBinAddr: 0x183B8, symSize: 0xC8 }
  - { offsetInCU: 0x1A257, offset: 0x183107, size: 0x8, addend: 0x0, symName: __ZN3tns6Worker4InitEPN2v87IsolateENS1_5LocalINS1_14ObjectTemplateEEEb, symObjAddr: 0xCC, symBinAddr: 0x18480, symSize: 0x3C8 }
  - { offsetInCU: 0x1B145, offset: 0x183FF5, size: 0x8, addend: 0x0, symName: __ZNSt3__130__uninitialized_allocator_copyB7v160006INS_9allocatorINS_12basic_stringIcNS_11char_traitsIcEENS1_IcEEEEEEPKS6_S9_PS6_EET2_RT_T0_T1_SB_, symObjAddr: 0x22B0, symBinAddr: 0x1A168, symSize: 0xA0 }
  - { offsetInCU: 0x1BAC0, offset: 0x184970, size: 0x8, addend: 0x0, symName: __ZN3tns6Worker11GetWorkerIdEPN2v87IsolateENS1_5LocalINS1_6ObjectEEE, symObjAddr: 0x19E4, symBinAddr: 0x19CD0, symSize: 0x11C }
  - { offsetInCU: 0x1BEE8, offset: 0x184D98, size: 0x8, addend: 0x0, symName: __ZNK10robin_hood6detail5TableILb1ELm80EiNSt3__110shared_ptrIN3tns6Caches11WorkerStateEEENS_4hashIivEENS2_8equal_toIiEEE7findIdxIiEEmRKT_, symObjAddr: 0x3474, symBinAddr: 0x1B2E0, symSize: 0xE8 }
  - { offsetInCU: 0x1BF44, offset: 0x184DF4, size: 0x8, addend: 0x0, symName: __ZNK10robin_hood6detail5TableILb1ELm80EiNSt3__110shared_ptrIN3tns6Caches11WorkerStateEEENS_4hashIivEENS2_8equal_toIiEEE7findIdxIiEEmRKT_, symObjAddr: 0x3474, symBinAddr: 0x1B2E0, symSize: 0xE8 }
  - { offsetInCU: 0x1BF72, offset: 0x184E22, size: 0x8, addend: 0x0, symName: __ZNK10robin_hood6detail5TableILb1ELm80EiNSt3__110shared_ptrIN3tns6Caches11WorkerStateEEENS_4hashIivEENS2_8equal_toIiEEE7findIdxIiEEmRKT_, symObjAddr: 0x3474, symBinAddr: 0x1B2E0, symSize: 0xE8 }
  - { offsetInCU: 0x1C080, offset: 0x184F30, size: 0x8, addend: 0x0, symName: __ZN3tns6Worker9SerializeEPN2v87IsolateENS1_5LocalINS1_5ValueEEERS6_, symObjAddr: 0x1B00, symBinAddr: 0x19DEC, symSize: 0x200 }
  - { offsetInCU: 0x1C9C2, offset: 0x185872, size: 0x8, addend: 0x0, symName: '__ZZN3tns6Worker25PostMessageToMainCallbackERKN2v820FunctionCallbackInfoINS1_5ValueEEEEN3$_1D1Ev', symObjAddr: 0x1D00, symBinAddr: 0x19FEC, symSize: 0x30 }
  - { offsetInCU: 0x1CB5C, offset: 0x185A0C, size: 0x8, addend: 0x0, symName: __ZNSt3__110shared_ptrIN3tns6Caches11WorkerStateEED2B7v160006Ev, symObjAddr: 0x29E4, symBinAddr: 0x1A89C, symSize: 0x58 }
  - { offsetInCU: 0x1CC26, offset: 0x185AD6, size: 0x8, addend: 0x0, symName: __ZN3tns6Worker19CloseWorkerCallbackERKN2v820FunctionCallbackInfoINS1_5ValueEEE, symObjAddr: 0x940, symBinAddr: 0x18CF4, symSize: 0x2BC }
  - { offsetInCU: 0x1E191, offset: 0x187041, size: 0x8, addend: 0x0, symName: __ZN10robin_hood6detail5TableILb1ELm80EiNSt3__110shared_ptrIN3tns6Caches11WorkerStateEEENS_4hashIivEENS2_8equal_toIiEEEixIS7_EENS2_9enable_ifIXntsr3std7is_voidIT_EE5valueERSF_E4typeERKi, symObjAddr: 0x2A3C, symBinAddr: 0x1A8F4, symSize: 0xE4 }
  - { offsetInCU: 0x1E554, offset: 0x187404, size: 0x8, addend: 0x0, symName: __ZNSt3__110shared_ptrIN3tns6Caches11WorkerStateEEaSB7v160006ERKS4_, symObjAddr: 0x2B20, symBinAddr: 0x1A9D8, symSize: 0x78 }
  - { offsetInCU: 0x1E7AE, offset: 0x18765E, size: 0x8, addend: 0x0, symName: __ZN3tns6Worker19PostMessageCallbackERKN2v820FunctionCallbackInfoINS1_5ValueEEE, symObjAddr: 0x1360, symBinAddr: 0x19714, symSize: 0x2C0 }
  - { offsetInCU: 0x1EFBD, offset: 0x187E6D, size: 0x8, addend: 0x0, symName: __ZN3tns6Worker17TerminateCallbackERKN2v820FunctionCallbackInfoINS1_5ValueEEE, symObjAddr: 0x1620, symBinAddr: 0x199D4, symSize: 0xA4 }
  - { offsetInCU: 0x1F615, offset: 0x1884C5, size: 0x8, addend: 0x0, symName: __ZN3tns6Worker17OnMessageCallbackEPN2v87IsolateENS1_5LocalINS1_5ValueEEENSt3__112basic_stringIcNS7_11char_traitsIcEENS7_9allocatorIcEEEE, symObjAddr: 0x1780, symBinAddr: 0x19A78, symSize: 0x258 }
  - { offsetInCU: 0x20012, offset: 0x188EC2, size: 0x8, addend: 0x0, symName: __ZN3tns6Worker11SetWorkerIdEPN2v87IsolateEi, symObjAddr: 0x1D30, symBinAddr: 0x1A01C, symSize: 0x120 }
  - { offsetInCU: 0x203AA, offset: 0x18925A, size: 0x8, addend: 0x0, symName: __Z24_register_isolate_workerPN2v87IsolateENS_5LocalINS_16FunctionTemplateEEE, symObjAddr: 0x1E50, symBinAddr: 0x1A13C, symSize: 0x2C }
  - { offsetInCU: 0x20C81, offset: 0x189B31, size: 0x8, addend: 0x0, symName: __ZNSt3__128__exception_guard_exceptionsINS_29_AllocatorDestroyRangeReverseINS_9allocatorINS_12basic_stringIcNS_11char_traitsIcEENS2_IcEEEEEEPS7_EEED2B7v160006Ev, symObjAddr: 0x2350, symBinAddr: 0x1A208, symSize: 0x34 }
  - { offsetInCU: 0x20CBA, offset: 0x189B6A, size: 0x8, addend: 0x0, symName: __ZNKSt3__129_AllocatorDestroyRangeReverseINS_9allocatorINS_12basic_stringIcNS_11char_traitsIcEENS1_IcEEEEEEPS6_EclB7v160006Ev, symObjAddr: 0x2384, symBinAddr: 0x1A23C, symSize: 0x4C }
  - { offsetInCU: 0x20F1A, offset: 0x189DCA, size: 0x8, addend: 0x0, symName: __ZNSt3__128__exception_guard_exceptionsINS_6vectorINS_12basic_stringIcNS_11char_traitsIcEENS_9allocatorIcEEEENS5_IS7_EEE16__destroy_vectorEED2B7v160006Ev, symObjAddr: 0x23D0, symBinAddr: 0x1A288, symSize: 0x34 }
  - { offsetInCU: 0x20F53, offset: 0x189E03, size: 0x8, addend: 0x0, symName: __ZNSt3__110__function6__funcIPFvPN2v87IsolateENS2_5LocalINS2_5ValueEEENS_12basic_stringIcNS_11char_traitsIcEENS_9allocatorIcEEEEENSB_ISF_EEFvS4_NS5_INS2_6ObjectEEESD_EED1Ev, symObjAddr: 0x2404, symBinAddr: 0x1A2BC, symSize: 0x4 }
  - { offsetInCU: 0x20F7E, offset: 0x189E2E, size: 0x8, addend: 0x0, symName: __ZNSt3__110__function6__funcIPFvPN2v87IsolateENS2_5LocalINS2_5ValueEEENS_12basic_stringIcNS_11char_traitsIcEENS_9allocatorIcEEEEENSB_ISF_EEFvS4_NS5_INS2_6ObjectEEESD_EED0Ev, symObjAddr: 0x2408, symBinAddr: 0x1A2C0, symSize: 0x4 }
  - { offsetInCU: 0x21182, offset: 0x18A032, size: 0x8, addend: 0x0, symName: __ZNKSt3__110__function6__funcIPFvPN2v87IsolateENS2_5LocalINS2_5ValueEEENS_12basic_stringIcNS_11char_traitsIcEENS_9allocatorIcEEEEENSB_ISF_EEFvS4_NS5_INS2_6ObjectEEESD_EE7__cloneEv, symObjAddr: 0x240C, symBinAddr: 0x1A2C4, symSize: 0x38 }
  - { offsetInCU: 0x21480, offset: 0x18A330, size: 0x8, addend: 0x0, symName: __ZNKSt3__110__function6__funcIPFvPN2v87IsolateENS2_5LocalINS2_5ValueEEENS_12basic_stringIcNS_11char_traitsIcEENS_9allocatorIcEEEEENSB_ISF_EEFvS4_NS5_INS2_6ObjectEEESD_EE7__cloneEPNS0_6__baseISJ_EE, symObjAddr: 0x2444, symBinAddr: 0x1A2FC, symSize: 0x18 }
  - { offsetInCU: 0x214B7, offset: 0x18A367, size: 0x8, addend: 0x0, symName: __ZNKSt3__110__function6__funcIPFvPN2v87IsolateENS2_5LocalINS2_5ValueEEENS_12basic_stringIcNS_11char_traitsIcEENS_9allocatorIcEEEEENSB_ISF_EEFvS4_NS5_INS2_6ObjectEEESD_EE7__cloneEPNS0_6__baseISJ_EE, symObjAddr: 0x2444, symBinAddr: 0x1A2FC, symSize: 0x18 }
  - { offsetInCU: 0x214E6, offset: 0x18A396, size: 0x8, addend: 0x0, symName: __ZNKSt3__110__function6__funcIPFvPN2v87IsolateENS2_5LocalINS2_5ValueEEENS_12basic_stringIcNS_11char_traitsIcEENS_9allocatorIcEEEEENSB_ISF_EEFvS4_NS5_INS2_6ObjectEEESD_EE7__cloneEPNS0_6__baseISJ_EE, symObjAddr: 0x2444, symBinAddr: 0x1A2FC, symSize: 0x18 }
  - { offsetInCU: 0x21580, offset: 0x18A430, size: 0x8, addend: 0x0, symName: __ZNSt3__110__function6__funcIPFvPN2v87IsolateENS2_5LocalINS2_5ValueEEENS_12basic_stringIcNS_11char_traitsIcEENS_9allocatorIcEEEEENSB_ISF_EEFvS4_NS5_INS2_6ObjectEEESD_EE7destroyEv, symObjAddr: 0x245C, symBinAddr: 0x1A314, symSize: 0x4 }
  - { offsetInCU: 0x215D1, offset: 0x18A481, size: 0x8, addend: 0x0, symName: __ZNSt3__110__function6__funcIPFvPN2v87IsolateENS2_5LocalINS2_5ValueEEENS_12basic_stringIcNS_11char_traitsIcEENS_9allocatorIcEEEEENSB_ISF_EEFvS4_NS5_INS2_6ObjectEEESD_EE18destroy_deallocateEv, symObjAddr: 0x2460, symBinAddr: 0x1A318, symSize: 0x4 }
  - { offsetInCU: 0x21606, offset: 0x18A4B6, size: 0x8, addend: 0x0, symName: __ZNSt3__110__function6__funcIPFvPN2v87IsolateENS2_5LocalINS2_5ValueEEENS_12basic_stringIcNS_11char_traitsIcEENS_9allocatorIcEEEEENSB_ISF_EEFvS4_NS5_INS2_6ObjectEEESD_EE18destroy_deallocateEv, symObjAddr: 0x2460, symBinAddr: 0x1A318, symSize: 0x4 }
  - { offsetInCU: 0x2162A, offset: 0x18A4DA, size: 0x8, addend: 0x0, symName: __ZNSt3__110__function6__funcIPFvPN2v87IsolateENS2_5LocalINS2_5ValueEEENS_12basic_stringIcNS_11char_traitsIcEENS_9allocatorIcEEEEENSB_ISF_EEFvS4_NS5_INS2_6ObjectEEESD_EE18destroy_deallocateEv, symObjAddr: 0x2460, symBinAddr: 0x1A318, symSize: 0x4 }
  - { offsetInCU: 0x21656, offset: 0x18A506, size: 0x8, addend: 0x0, symName: __ZNSt3__110__function6__funcIPFvPN2v87IsolateENS2_5LocalINS2_5ValueEEENS_12basic_stringIcNS_11char_traitsIcEENS_9allocatorIcEEEEENSB_ISF_EEFvS4_NS5_INS2_6ObjectEEESD_EE18destroy_deallocateEv, symObjAddr: 0x2460, symBinAddr: 0x1A318, symSize: 0x4 }
  - { offsetInCU: 0x2167D, offset: 0x18A52D, size: 0x8, addend: 0x0, symName: __ZNSt3__110__function6__funcIPFvPN2v87IsolateENS2_5LocalINS2_5ValueEEENS_12basic_stringIcNS_11char_traitsIcEENS_9allocatorIcEEEEENSB_ISF_EEFvS4_NS5_INS2_6ObjectEEESD_EE18destroy_deallocateEv, symObjAddr: 0x2460, symBinAddr: 0x1A318, symSize: 0x4 }
  - { offsetInCU: 0x216DE, offset: 0x18A58E, size: 0x8, addend: 0x0, symName: __ZNSt3__110__function6__funcIPFvPN2v87IsolateENS2_5LocalINS2_5ValueEEENS_12basic_stringIcNS_11char_traitsIcEENS_9allocatorIcEEEEENSB_ISF_EEFvS4_NS5_INS2_6ObjectEEESD_EEclEOS4_OSI_OSD_, symObjAddr: 0x2464, symBinAddr: 0x1A31C, symSize: 0x8 }
  - { offsetInCU: 0x21775, offset: 0x18A625, size: 0x8, addend: 0x0, symName: __ZNSt3__128__invoke_void_return_wrapperIvLb1EE6__callIJRPFvPN2v87IsolateENS3_5LocalINS3_5ValueEEENS_12basic_stringIcNS_11char_traitsIcEENS_9allocatorIcEEEEES5_NS6_INS3_6ObjectEEESE_EEEvDpOT_, symObjAddr: 0x246C, symBinAddr: 0x1A324, symSize: 0x78 }
  - { offsetInCU: 0x21B78, offset: 0x18AA28, size: 0x8, addend: 0x0, symName: '__ZNSt3__110__function6__funcIZN3tns6Worker19ConstructorCallbackERKN2v820FunctionCallbackInfoINS4_5ValueEEEE3$_0NS_9allocatorISA_EEFPNS4_7IsolateEvEED1Ev', symObjAddr: 0x24E4, symBinAddr: 0x1A39C, symSize: 0x3C }
  - { offsetInCU: 0x21DDE, offset: 0x18AC8E, size: 0x8, addend: 0x0, symName: '__ZNSt3__110__function6__funcIZN3tns6Worker19ConstructorCallbackERKN2v820FunctionCallbackInfoINS4_5ValueEEEE3$_0NS_9allocatorISA_EEFPNS4_7IsolateEvEED0Ev', symObjAddr: 0x2520, symBinAddr: 0x1A3D8, symSize: 0x3C }
  - { offsetInCU: 0x2234E, offset: 0x18B1FE, size: 0x8, addend: 0x0, symName: '__ZNKSt3__110__function6__funcIZN3tns6Worker19ConstructorCallbackERKN2v820FunctionCallbackInfoINS4_5ValueEEEE3$_0NS_9allocatorISA_EEFPNS4_7IsolateEvEE7__cloneEv', symObjAddr: 0x255C, symBinAddr: 0x1A414, symSize: 0x58 }
  - { offsetInCU: 0x227A7, offset: 0x18B657, size: 0x8, addend: 0x0, symName: '__ZNKSt3__110__function6__funcIZN3tns6Worker19ConstructorCallbackERKN2v820FunctionCallbackInfoINS4_5ValueEEEE3$_0NS_9allocatorISA_EEFPNS4_7IsolateEvEE7__cloneEPNS0_6__baseISF_EE', symObjAddr: 0x25B4, symBinAddr: 0x1A46C, symSize: 0x20 }
  - { offsetInCU: 0x227E3, offset: 0x18B693, size: 0x8, addend: 0x0, symName: '__ZNKSt3__110__function6__funcIZN3tns6Worker19ConstructorCallbackERKN2v820FunctionCallbackInfoINS4_5ValueEEEE3$_0NS_9allocatorISA_EEFPNS4_7IsolateEvEE7__cloneEPNS0_6__baseISF_EE', symObjAddr: 0x25B4, symBinAddr: 0x1A46C, symSize: 0x20 }
  - { offsetInCU: 0x22817, offset: 0x18B6C7, size: 0x8, addend: 0x0, symName: '__ZNKSt3__110__function6__funcIZN3tns6Worker19ConstructorCallbackERKN2v820FunctionCallbackInfoINS4_5ValueEEEE3$_0NS_9allocatorISA_EEFPNS4_7IsolateEvEE7__cloneEPNS0_6__baseISF_EE', symObjAddr: 0x25B4, symBinAddr: 0x1A46C, symSize: 0x20 }
  - { offsetInCU: 0x22977, offset: 0x18B827, size: 0x8, addend: 0x0, symName: '__ZNSt3__110__function6__funcIZN3tns6Worker19ConstructorCallbackERKN2v820FunctionCallbackInfoINS4_5ValueEEEE3$_0NS_9allocatorISA_EEFPNS4_7IsolateEvEE7destroyEv', symObjAddr: 0x25D4, symBinAddr: 0x1A48C, symSize: 0x14 }
  - { offsetInCU: 0x22A5C, offset: 0x18B90C, size: 0x8, addend: 0x0, symName: '__ZNSt3__110__function6__funcIZN3tns6Worker19ConstructorCallbackERKN2v820FunctionCallbackInfoINS4_5ValueEEEE3$_0NS_9allocatorISA_EEFPNS4_7IsolateEvEE7destroyEv', symObjAddr: 0x25D4, symBinAddr: 0x1A48C, symSize: 0x14 }
  - { offsetInCU: 0x22B41, offset: 0x18B9F1, size: 0x8, addend: 0x0, symName: '__ZNSt3__110__function6__funcIZN3tns6Worker19ConstructorCallbackERKN2v820FunctionCallbackInfoINS4_5ValueEEEE3$_0NS_9allocatorISA_EEFPNS4_7IsolateEvEE18destroy_deallocateEv', symObjAddr: 0x25E8, symBinAddr: 0x1A4A0, symSize: 0x30 }
  - { offsetInCU: 0x22FB8, offset: 0x18BE68, size: 0x8, addend: 0x0, symName: '__ZNSt3__110__function6__funcIZN3tns6Worker19ConstructorCallbackERKN2v820FunctionCallbackInfoINS4_5ValueEEEE3$_0NS_9allocatorISA_EEFPNS4_7IsolateEvEEclEv', symObjAddr: 0x2618, symBinAddr: 0x1A4D0, symSize: 0x268 }
  - { offsetInCU: 0x2387A, offset: 0x18C72A, size: 0x8, addend: 0x0, symName: __ZNSt3__120__shared_ptr_emplaceIN3tns6Caches11WorkerStateENS_9allocatorIS3_EEEC2B7v160006IJRPN2v87IsolateERNS_10shared_ptrINS8_10PersistentINS8_5ValueENS8_27NonCopyablePersistentTraitsISE_EEEEEERPNS1_13WorkerWrapperEEEES5_DpOT_, symObjAddr: 0x28F0, symBinAddr: 0x1A7A8, symSize: 0xB0 }
  - { offsetInCU: 0x23BC7, offset: 0x18CA77, size: 0x8, addend: 0x0, symName: __ZNSt3__120__shared_ptr_emplaceIN3tns6Caches11WorkerStateENS_9allocatorIS3_EEED1Ev, symObjAddr: 0x29A0, symBinAddr: 0x1A858, symSize: 0x14 }
  - { offsetInCU: 0x23BE8, offset: 0x18CA98, size: 0x8, addend: 0x0, symName: __ZNSt3__120__shared_ptr_emplaceIN3tns6Caches11WorkerStateENS_9allocatorIS3_EEED1Ev, symObjAddr: 0x29A0, symBinAddr: 0x1A858, symSize: 0x14 }
  - { offsetInCU: 0x23C20, offset: 0x18CAD0, size: 0x8, addend: 0x0, symName: __ZNSt3__120__shared_ptr_emplaceIN3tns6Caches11WorkerStateENS_9allocatorIS3_EEED0Ev, symObjAddr: 0x29B4, symBinAddr: 0x1A86C, symSize: 0x24 }
  - { offsetInCU: 0x23CBB, offset: 0x18CB6B, size: 0x8, addend: 0x0, symName: __ZNSt3__120__shared_ptr_emplaceIN3tns6Caches11WorkerStateENS_9allocatorIS3_EEE16__on_zero_sharedEv, symObjAddr: 0x29D8, symBinAddr: 0x1A890, symSize: 0x8 }
  - { offsetInCU: 0x23CE4, offset: 0x18CB94, size: 0x8, addend: 0x0, symName: __ZNSt3__120__shared_ptr_emplaceIN3tns6Caches11WorkerStateENS_9allocatorIS3_EEE16__on_zero_sharedEv, symObjAddr: 0x29D8, symBinAddr: 0x1A890, symSize: 0x8 }
  - { offsetInCU: 0x23D04, offset: 0x18CBB4, size: 0x8, addend: 0x0, symName: __ZNSt3__120__shared_ptr_emplaceIN3tns6Caches11WorkerStateENS_9allocatorIS3_EEE16__on_zero_sharedEv, symObjAddr: 0x29D8, symBinAddr: 0x1A890, symSize: 0x8 }
  - { offsetInCU: 0x23D4C, offset: 0x18CBFC, size: 0x8, addend: 0x0, symName: __ZNSt3__120__shared_ptr_emplaceIN3tns6Caches11WorkerStateENS_9allocatorIS3_EEE21__on_zero_shared_weakEv, symObjAddr: 0x29E0, symBinAddr: 0x1A898, symSize: 0x4 }
  - { offsetInCU: 0x23D7F, offset: 0x18CC2F, size: 0x8, addend: 0x0, symName: __ZNSt3__120__shared_ptr_emplaceIN3tns6Caches11WorkerStateENS_9allocatorIS3_EEE21__on_zero_shared_weakEv, symObjAddr: 0x29E0, symBinAddr: 0x1A898, symSize: 0x4 }
  - { offsetInCU: 0x23DA3, offset: 0x18CC53, size: 0x8, addend: 0x0, symName: __ZNSt3__120__shared_ptr_emplaceIN3tns6Caches11WorkerStateENS_9allocatorIS3_EEE21__on_zero_shared_weakEv, symObjAddr: 0x29E0, symBinAddr: 0x1A898, symSize: 0x4 }
  - { offsetInCU: 0x23DC7, offset: 0x18CC77, size: 0x8, addend: 0x0, symName: __ZNSt3__120__shared_ptr_emplaceIN3tns6Caches11WorkerStateENS_9allocatorIS3_EEE21__on_zero_shared_weakEv, symObjAddr: 0x29E0, symBinAddr: 0x1A898, symSize: 0x4 }
  - { offsetInCU: 0x23DF4, offset: 0x18CCA4, size: 0x8, addend: 0x0, symName: __ZNSt3__120__shared_ptr_emplaceIN3tns6Caches11WorkerStateENS_9allocatorIS3_EEE21__on_zero_shared_weakEv, symObjAddr: 0x29E0, symBinAddr: 0x1A898, symSize: 0x4 }
  - { offsetInCU: 0x23E1C, offset: 0x18CCCC, size: 0x8, addend: 0x0, symName: __ZNSt3__120__shared_ptr_emplaceIN3tns6Caches11WorkerStateENS_9allocatorIS3_EEE21__on_zero_shared_weakEv, symObjAddr: 0x29E0, symBinAddr: 0x1A898, symSize: 0x4 }
  - { offsetInCU: 0x24153, offset: 0x18D003, size: 0x8, addend: 0x0, symName: __ZN10robin_hood6detail5TableILb1ELm80EiNSt3__110shared_ptrIN3tns6Caches11WorkerStateEEENS_4hashIivEENS2_8equal_toIiEEE25insertKeyPrepareEmptySpotIRKiEENS2_4pairImNSC_14InsertionStateEEEOT_, symObjAddr: 0x2B98, symBinAddr: 0x1AA50, symSize: 0x1A0 }
  - { offsetInCU: 0x2430D, offset: 0x18D1BD, size: 0x8, addend: 0x0, symName: __ZNK10robin_hood6detail5TableILb1ELm80EiNSt3__110shared_ptrIN3tns6Caches11WorkerStateEEENS_4hashIivEENS2_8equal_toIiEEE18throwOverflowErrorEv, symObjAddr: 0x2D38, symBinAddr: 0x1ABF0, symSize: 0x50 }
  - { offsetInCU: 0x24342, offset: 0x18D1F2, size: 0x8, addend: 0x0, symName: __ZNSt3__110shared_ptrIN3tns6Caches11WorkerStateEEaSB7v160006EOS4_, symObjAddr: 0x33EC, symBinAddr: 0x1B27C, symSize: 0x64 }
  - { offsetInCU: 0x245DC, offset: 0x18D48C, size: 0x8, addend: 0x0, symName: __ZN10robin_hood6detail5TableILb1ELm80EiNSt3__110shared_ptrIN3tns6Caches11WorkerStateEEENS_4hashIivEENS2_8equal_toIiEEE13increase_sizeEv, symObjAddr: 0x2D88, symBinAddr: 0x1AC40, symSize: 0x12C }
  - { offsetInCU: 0x246A6, offset: 0x18D556, size: 0x8, addend: 0x0, symName: __ZN10robin_hood6detail5TableILb1ELm80EiNSt3__110shared_ptrIN3tns6Caches11WorkerStateEEENS_4hashIivEENS2_8equal_toIiEEE7shiftUpEmm, symObjAddr: 0x2EB4, symBinAddr: 0x1AD6C, symSize: 0xEC }
  - { offsetInCU: 0x24899, offset: 0x18D749, size: 0x8, addend: 0x0, symName: __ZN10robin_hood6detail5TableILb1ELm80EiNSt3__110shared_ptrIN3tns6Caches11WorkerStateEEENS_4hashIivEENS2_8equal_toIiEEE17try_increase_infoEv, symObjAddr: 0x307C, symBinAddr: 0x1AF34, symSize: 0x100 }
  - { offsetInCU: 0x249A3, offset: 0x18D853, size: 0x8, addend: 0x0, symName: __ZN10robin_hood6detail5TableILb1ELm80EiNSt3__110shared_ptrIN3tns6Caches11WorkerStateEEENS_4hashIivEENS2_8equal_toIiEEE8initDataEm, symObjAddr: 0x2FA0, symBinAddr: 0x1AE58, symSize: 0xDC }
  - { offsetInCU: 0x24AB6, offset: 0x18D966, size: 0x8, addend: 0x0, symName: __ZN10robin_hood6detail5TableILb1ELm80EiNSt3__110shared_ptrIN3tns6Caches11WorkerStateEEENS_4hashIivEENS2_8equal_toIiEEE17try_increase_infoEv, symObjAddr: 0x307C, symBinAddr: 0x1AF34, symSize: 0x100 }
  - { offsetInCU: 0x24AC2, offset: 0x18D972, size: 0x8, addend: 0x0, symName: __ZN10robin_hood6detail5TableILb1ELm80EiNSt3__110shared_ptrIN3tns6Caches11WorkerStateEEENS_4hashIivEENS2_8equal_toIiEEE16rehashPowerOfTwoEmb, symObjAddr: 0x317C, symBinAddr: 0x1B034, symSize: 0xF8 }
  - { offsetInCU: 0x24D60, offset: 0x18DC10, size: 0x8, addend: 0x0, symName: __ZN10robin_hood6detail5TableILb1ELm80EiNSt3__110shared_ptrIN3tns6Caches11WorkerStateEEENS_4hashIivEENS2_8equal_toIiEEE11insert_moveEONSC_8DataNodeISC_Lb1EEE, symObjAddr: 0x329C, symBinAddr: 0x1B12C, symSize: 0x150 }
  - { offsetInCU: 0x250EE, offset: 0x18DF9E, size: 0x8, addend: 0x0, symName: '__ZNSt3__110__function6__funcIZN3tns6Worker25PostMessageToMainCallbackERKN2v820FunctionCallbackInfoINS4_5ValueEEEE3$_1NS_9allocatorISA_EEFvvEED1Ev', symObjAddr: 0x355C, symBinAddr: 0x1B3C8, symSize: 0x44 }
  - { offsetInCU: 0x25355, offset: 0x18E205, size: 0x8, addend: 0x0, symName: '__ZNSt3__110__function6__funcIZN3tns6Worker25PostMessageToMainCallbackERKN2v820FunctionCallbackInfoINS4_5ValueEEEE3$_1NS_9allocatorISA_EEFvvEED0Ev', symObjAddr: 0x35A0, symBinAddr: 0x1B40C, symSize: 0x44 }
  - { offsetInCU: 0x2583A, offset: 0x18E6EA, size: 0x8, addend: 0x0, symName: '__ZNKSt3__110__function6__funcIZN3tns6Worker25PostMessageToMainCallbackERKN2v820FunctionCallbackInfoINS4_5ValueEEEE3$_1NS_9allocatorISA_EEFvvEE7__cloneEv', symObjAddr: 0x35E4, symBinAddr: 0x1B450, symSize: 0x54 }
  - { offsetInCU: 0x25ADD, offset: 0x18E98D, size: 0x8, addend: 0x0, symName: '__ZNSt3__122__compressed_pair_elemIZN3tns6Worker25PostMessageToMainCallbackERKN2v820FunctionCallbackInfoINS3_5ValueEEEE3$_1Li0ELb0EEC2B7v160006IJRKS9_EJLm0EEEENS_21piecewise_construct_tENS_5tupleIJDpT_EEENS_15__tuple_indicesIJXspT0_EEEE', symObjAddr: 0x3864, symBinAddr: 0x1B6D0, symSize: 0x60 }
  - { offsetInCU: 0x25DBB, offset: 0x18EC6B, size: 0x8, addend: 0x0, symName: '__ZNKSt3__110__function6__funcIZN3tns6Worker25PostMessageToMainCallbackERKN2v820FunctionCallbackInfoINS4_5ValueEEEE3$_1NS_9allocatorISA_EEFvvEE7__cloneEPNS0_6__baseISD_EE', symObjAddr: 0x3638, symBinAddr: 0x1B4A4, symSize: 0x1C }
  - { offsetInCU: 0x25F0B, offset: 0x18EDBB, size: 0x8, addend: 0x0, symName: '__ZNSt3__110__function6__funcIZN3tns6Worker25PostMessageToMainCallbackERKN2v820FunctionCallbackInfoINS4_5ValueEEEE3$_1NS_9allocatorISA_EEFvvEE7destroyEv', symObjAddr: 0x3654, symBinAddr: 0x1B4C0, symSize: 0x8 }
  - { offsetInCU: 0x25F42, offset: 0x18EDF2, size: 0x8, addend: 0x0, symName: '__ZNSt3__110__function12__alloc_funcIZN3tns6Worker25PostMessageToMainCallbackERKN2v820FunctionCallbackInfoINS4_5ValueEEEE3$_1NS_9allocatorISA_EEFvvEE7destroyB7v160006Ev', symObjAddr: 0x38C4, symBinAddr: 0x1B730, symSize: 0x30 }
  - { offsetInCU: 0x2615C, offset: 0x18F00C, size: 0x8, addend: 0x0, symName: '__ZNSt3__110__function6__funcIZN3tns6Worker25PostMessageToMainCallbackERKN2v820FunctionCallbackInfoINS4_5ValueEEEE3$_1NS_9allocatorISA_EEFvvEE18destroy_deallocateEv', symObjAddr: 0x365C, symBinAddr: 0x1B4C8, symSize: 0x28 }
  - { offsetInCU: 0x2638F, offset: 0x18F23F, size: 0x8, addend: 0x0, symName: '__ZNSt3__110__function6__funcIZN3tns6Worker25PostMessageToMainCallbackERKN2v820FunctionCallbackInfoINS4_5ValueEEEE3$_1NS_9allocatorISA_EEFvvEEclEv', symObjAddr: 0x3684, symBinAddr: 0x1B4F0, symSize: 0x1E0 }
  - { offsetInCU: 0x26, offset: 0x18FA43, size: 0x8, addend: 0x0, symName: __ZN3tns15SimpleAllocatorC2Ev, symObjAddr: 0x0, symBinAddr: 0x1B8DC, symSize: 0x10 }
  - { offsetInCU: 0x29AA, offset: 0x1923C7, size: 0x8, addend: 0x0, symName: __ZN3tns15SimpleAllocatorC2Ev, symObjAddr: 0x0, symBinAddr: 0x1B8DC, symSize: 0x10 }
  - { offsetInCU: 0x29E8, offset: 0x192405, size: 0x8, addend: 0x0, symName: __ZN3tns15SimpleAllocatorC1Ev, symObjAddr: 0x10, symBinAddr: 0x1B8EC, symSize: 0x10 }
  - { offsetInCU: 0x2A14, offset: 0x192431, size: 0x8, addend: 0x0, symName: __ZN3tns15SimpleAllocatorC1Ev, symObjAddr: 0x10, symBinAddr: 0x1B8EC, symSize: 0x10 }
  - { offsetInCU: 0x2A2D, offset: 0x19244A, size: 0x8, addend: 0x0, symName: __ZN3tns15SimpleAllocatorD2Ev, symObjAddr: 0x20, symBinAddr: 0x1B8FC, symSize: 0x4 }
  - { offsetInCU: 0x2A56, offset: 0x192473, size: 0x8, addend: 0x0, symName: __ZN3tns15SimpleAllocatorD1Ev, symObjAddr: 0x24, symBinAddr: 0x1B900, symSize: 0x4 }
  - { offsetInCU: 0x2A7F, offset: 0x19249C, size: 0x8, addend: 0x0, symName: __ZN3tns15SimpleAllocatorD0Ev, symObjAddr: 0x28, symBinAddr: 0x1B904, symSize: 0x4 }
  - { offsetInCU: 0x2AA8, offset: 0x1924C5, size: 0x8, addend: 0x0, symName: __ZN3tns15SimpleAllocator8AllocateEm, symObjAddr: 0x2C, symBinAddr: 0x1B908, symSize: 0xC }
  - { offsetInCU: 0x2AE8, offset: 0x192505, size: 0x8, addend: 0x0, symName: __ZN3tns15SimpleAllocator21AllocateUninitializedEm, symObjAddr: 0x38, symBinAddr: 0x1B914, symSize: 0x8 }
  - { offsetInCU: 0x2B27, offset: 0x192544, size: 0x8, addend: 0x0, symName: __ZN3tns15SimpleAllocator4FreeEPvm, symObjAddr: 0x40, symBinAddr: 0x1B91C, symSize: 0x8 }
  - { offsetInCU: 0x52, offset: 0x1925D5, size: 0x8, addend: 0x0, symName: __ZN3tns7Console9inspectorE, symObjAddr: 0x2894E8, symBinAddr: 0x1593CB0, symSize: 0x0 }
  - { offsetInCU: 0xB266, offset: 0x19D7E9, size: 0x8, addend: 0x0, symName: __ZN3tns7Console26VerbosityToInspectorMethodENSt3__112basic_stringIcNS1_11char_traitsIcEENS1_9allocatorIcEEEE.cold.1, symObjAddr: 0x4608, symBinAddr: 0xB9863C, symSize: 0x28 }
  - { offsetInCU: 0x14994, offset: 0x1A6F17, size: 0x8, addend: 0x0, symName: __ZN3tns7Console4InitEN2v85LocalINS1_7ContextEEE, symObjAddr: 0x0, symBinAddr: 0x1B924, symSize: 0x468 }
  - { offsetInCU: 0x163BA, offset: 0x1A893D, size: 0x8, addend: 0x0, symName: __ZN3tns7Console17AttachLogFunctionEN2v85LocalINS1_7ContextEEENS2_INS1_6ObjectEEENSt3__112basic_stringIcNS7_11char_traitsIcEENS7_9allocatorIcEEEEPFvRKNS1_20FunctionCallbackInfoINS1_5ValueEEEE, symObjAddr: 0x468, symBinAddr: 0x1BD8C, symSize: 0x178 }
  - { offsetInCU: 0x16C68, offset: 0x1A91EB, size: 0x8, addend: 0x0, symName: __ZN3tns7Console11LogCallbackERKN2v820FunctionCallbackInfoINS1_5ValueEEE, symObjAddr: 0x5E0, symBinAddr: 0x1BF04, symSize: 0x4DC }
  - { offsetInCU: 0x187AB, offset: 0x1AAD2E, size: 0x8, addend: 0x0, symName: __ZN3tns7Console19BuildStringFromArgsERKN2v820FunctionCallbackInfoINS1_5ValueEEEi, symObjAddr: 0x1A50, symBinAddr: 0x1D374, symSize: 0x25C }
  - { offsetInCU: 0x19091, offset: 0x1AB614, size: 0x8, addend: 0x0, symName: __ZN3tns7Console26VerbosityToInspectorMethodENSt3__112basic_stringIcNS1_11char_traitsIcEENS1_9allocatorIcEEEE, symObjAddr: 0x1E50, symBinAddr: 0x1D5D0, symSize: 0x1C0 }
  - { offsetInCU: 0x19668, offset: 0x1ABBEB, size: 0x8, addend: 0x0, symName: __ZN3tns7Console22SendToDevToolsFrontEndEN12v8_inspector14ConsoleAPITypeERKN2v820FunctionCallbackInfoINS3_5ValueEEE, symObjAddr: 0x2010, symBinAddr: 0x1D790, symSize: 0x1B0 }
  - { offsetInCU: 0x19674, offset: 0x1ABBF7, size: 0x8, addend: 0x0, symName: __ZN3tns7Console22SendToDevToolsFrontEndEN12v8_inspector14ConsoleAPITypeERKN2v820FunctionCallbackInfoINS3_5ValueEEE, symObjAddr: 0x2010, symBinAddr: 0x1D790, symSize: 0x1B0 }
  - { offsetInCU: 0x19FF0, offset: 0x1AC573, size: 0x8, addend: 0x0, symName: __ZN3tns7Console14AssertCallbackERKN2v820FunctionCallbackInfoINS1_5ValueEEE, symObjAddr: 0xABC, symBinAddr: 0x1C3E0, symSize: 0x1D8 }
  - { offsetInCU: 0x1A948, offset: 0x1ACECB, size: 0x8, addend: 0x0, symName: __ZN3tns7Console11DirCallbackERKN2v820FunctionCallbackInfoINS1_5ValueEEE, symObjAddr: 0xC94, symBinAddr: 0x1C5B8, symSize: 0x818 }
  - { offsetInCU: 0x1C4F2, offset: 0x1AEA75, size: 0x8, addend: 0x0, symName: __ZN3tns7Console18BuildStringFromArgEN2v85LocalINS1_7ContextEEERKNS2_INS1_5ValueEEE, symObjAddr: 0x2254, symBinAddr: 0x1D940, symSize: 0x3BC }
  - { offsetInCU: 0x1CD19, offset: 0x1AF29C, size: 0x8, addend: 0x0, symName: __ZN3tns7Console17TransformJSObjectEN2v85LocalINS1_6ObjectEEE, symObjAddr: 0x2610, symBinAddr: 0x1DCFC, symSize: 0x23C }
  - { offsetInCU: 0x1D901, offset: 0x1AFE84, size: 0x8, addend: 0x0, symName: __ZN3tns7Console12TimeCallbackERKN2v820FunctionCallbackInfoINS1_5ValueEEE, symObjAddr: 0x14AC, symBinAddr: 0x1CDD0, symSize: 0x190 }
  - { offsetInCU: 0x1E067, offset: 0x1B05EA, size: 0x8, addend: 0x0, symName: __ZN10robin_hood6detail5TableILb1ELm80ENSt3__112basic_stringIcNS2_11char_traitsIcEENS2_9allocatorIcEEEEdNS_4hashIS8_vEENS2_8equal_toIS8_EEE7emplaceIJRS8_RdEEENS2_4pairINSD_4IterILb0EEEbEEDpOT_, symObjAddr: 0x284C, symBinAddr: 0x1DF38, symSize: 0x12C }
  - { offsetInCU: 0x1E96C, offset: 0x1B0EEF, size: 0x8, addend: 0x0, symName: __ZN3tns7Console15TimeEndCallbackERKN2v820FunctionCallbackInfoINS1_5ValueEEE, symObjAddr: 0x163C, symBinAddr: 0x1CF60, symSize: 0x408 }
  - { offsetInCU: 0x1FD59, offset: 0x1B22DC, size: 0x8, addend: 0x0, symName: __ZNK10robin_hood6detail5TableILb1ELm80ENSt3__112basic_stringIcNS2_11char_traitsIcEENS2_9allocatorIcEEEEdNS_4hashIS8_vEENS2_8equal_toIS8_EEE7findIdxIS8_EEmRKT_, symObjAddr: 0x43D4, symBinAddr: 0x1EA38, symSize: 0x108 }
  - { offsetInCU: 0x1FE95, offset: 0x1B2418, size: 0x8, addend: 0x0, symName: __ZN10robin_hood6detail5TableILb1ELm80ENSt3__112basic_stringIcNS2_11char_traitsIcEENS2_9allocatorIcEEEEdNS_4hashIS8_vEENS2_8equal_toIS8_EEE5eraseERKS8_, symObjAddr: 0x2978, symBinAddr: 0x1E064, symSize: 0xCC }
  - { offsetInCU: 0x1FF61, offset: 0x1B24E4, size: 0x8, addend: 0x0, symName: __ZN3tns7Console22SendToDevToolsFrontEndEPN2v87IsolateEN12v8_inspector14ConsoleAPITypeERKNSt3__112basic_stringIcNS6_11char_traitsIcEENS6_9allocatorIcEEEE, symObjAddr: 0x2A44, symBinAddr: 0x1E130, symSize: 0xBC }
  - { offsetInCU: 0x20555, offset: 0x1B2AD8, size: 0x8, addend: 0x0, symName: __ZN3tns7Console21AttachInspectorClientEPN12v8_inspector19JsV8InspectorClientE, symObjAddr: 0x1A44, symBinAddr: 0x1D368, symSize: 0xC }
  - { offsetInCU: 0x208F2, offset: 0x1B2E75, size: 0x8, addend: 0x0, symName: __ZN3tns7Console26VerbosityToInspectorMethodENSt3__112basic_stringIcNS1_11char_traitsIcEENS1_9allocatorIcEEEE.cold.1, symObjAddr: 0x4608, symBinAddr: 0xB9863C, symSize: 0x28 }
  - { offsetInCU: 0x21362, offset: 0x1B38E5, size: 0x8, addend: 0x0, symName: __ZN10robin_hood6detail5TableILb1ELm80ENSt3__112basic_stringIcNS2_11char_traitsIcEENS2_9allocatorIcEEEEdNS_4hashIS8_vEENS2_8equal_toIS8_EEE25insertKeyPrepareEmptySpotIRKS8_EENS2_4pairImNSD_14InsertionStateEEEOT_, symObjAddr: 0x39AC, symBinAddr: 0x1E1EC, symSize: 0x188 }
  - { offsetInCU: 0x214C7, offset: 0x1B3A4A, size: 0x8, addend: 0x0, symName: __ZNK10robin_hood6detail5TableILb1ELm80ENSt3__112basic_stringIcNS2_11char_traitsIcEENS2_9allocatorIcEEEEdNS_4hashIS8_vEENS2_8equal_toIS8_EEE18throwOverflowErrorEv, symObjAddr: 0x3B34, symBinAddr: 0x1E374, symSize: 0x50 }
  - { offsetInCU: 0x21734, offset: 0x1B3CB7, size: 0x8, addend: 0x0, symName: __ZN10robin_hood6detail5TableILb1ELm80ENSt3__112basic_stringIcNS2_11char_traitsIcEENS2_9allocatorIcEEEEdNS_4hashIS8_vEENS2_8equal_toIS8_EEE9shiftDownEm, symObjAddr: 0x44DC, symBinAddr: 0x1EB40, symSize: 0xE4 }
  - { offsetInCU: 0x2262E, offset: 0x1B4BB1, size: 0x8, addend: 0x0, symName: __ZN10robin_hood6detail5TableILb1ELm80ENSt3__112basic_stringIcNS2_11char_traitsIcEENS2_9allocatorIcEEEEdNS_4hashIS8_vEENS2_8equal_toIS8_EEE25insertKeyPrepareEmptySpotIRKS8_EENS2_4pairImNSD_14InsertionStateEEEOT_, symObjAddr: 0x39AC, symBinAddr: 0x1E1EC, symSize: 0x188 }
  - { offsetInCU: 0x226D8, offset: 0x1B4C5B, size: 0x8, addend: 0x0, symName: __ZN10robin_hood6detail5TableILb1ELm80ENSt3__112basic_stringIcNS2_11char_traitsIcEENS2_9allocatorIcEEEEdNS_4hashIS8_vEENS2_8equal_toIS8_EEE13increase_sizeEv, symObjAddr: 0x3C34, symBinAddr: 0x1E3C4, symSize: 0x12C }
  - { offsetInCU: 0x227A2, offset: 0x1B4D25, size: 0x8, addend: 0x0, symName: __ZN10robin_hood6detail5TableILb1ELm80ENSt3__112basic_stringIcNS2_11char_traitsIcEENS2_9allocatorIcEEEEdNS_4hashIS8_vEENS2_8equal_toIS8_EEE7shiftUpEmm, symObjAddr: 0x3D60, symBinAddr: 0x1E4F0, symSize: 0x120 }
  - { offsetInCU: 0x22ABF, offset: 0x1B5042, size: 0x8, addend: 0x0, symName: __ZN10robin_hood6detail5TableILb1ELm80ENSt3__112basic_stringIcNS2_11char_traitsIcEENS2_9allocatorIcEEEEdNS_4hashIS8_vEENS2_8equal_toIS8_EEE17try_increase_infoEv, symObjAddr: 0x402C, symBinAddr: 0x1E6DC, symSize: 0x100 }
  - { offsetInCU: 0x22BC9, offset: 0x1B514C, size: 0x8, addend: 0x0, symName: __ZN10robin_hood6detail5TableILb1ELm80ENSt3__112basic_stringIcNS2_11char_traitsIcEENS2_9allocatorIcEEEEdNS_4hashIS8_vEENS2_8equal_toIS8_EEE8initDataEm, symObjAddr: 0x3F60, symBinAddr: 0x1E610, symSize: 0xCC }
  - { offsetInCU: 0x22CDC, offset: 0x1B525F, size: 0x8, addend: 0x0, symName: __ZN10robin_hood6detail5TableILb1ELm80ENSt3__112basic_stringIcNS2_11char_traitsIcEENS2_9allocatorIcEEEEdNS_4hashIS8_vEENS2_8equal_toIS8_EEE17try_increase_infoEv, symObjAddr: 0x402C, symBinAddr: 0x1E6DC, symSize: 0x100 }
  - { offsetInCU: 0x22CE8, offset: 0x1B526B, size: 0x8, addend: 0x0, symName: __ZN10robin_hood6detail5TableILb1ELm80ENSt3__112basic_stringIcNS2_11char_traitsIcEENS2_9allocatorIcEEEEdNS_4hashIS8_vEENS2_8equal_toIS8_EEE16rehashPowerOfTwoEmb, symObjAddr: 0x412C, symBinAddr: 0x1E7DC, symSize: 0x100 }
  - { offsetInCU: 0x2303E, offset: 0x1B55C1, size: 0x8, addend: 0x0, symName: __ZN10robin_hood6detail5TableILb1ELm80ENSt3__112basic_stringIcNS2_11char_traitsIcEENS2_9allocatorIcEEEEdNS_4hashIS8_vEENS2_8equal_toIS8_EEE11insert_moveEONSD_8DataNodeISD_Lb1EEE, symObjAddr: 0x4254, symBinAddr: 0x1E8DC, symSize: 0x15C }
  - { offsetInCU: 0x4A, offset: 0x1B5A67, size: 0x8, addend: 0x0, symName: __ZN3tns9Constants14SwizzledPrefixE, symObjAddr: 0x2AD40, symBinAddr: 0x1593CB8, symSize: 0x0 }
  - { offsetInCU: 0x33A9, offset: 0x1BD554, size: 0x8, addend: 0x0, symName: __ZN3tns12SymbolLoader8instanceEv, symObjAddr: 0x0, symBinAddr: 0x1EC68, symSize: 0x94 }
  - { offsetInCU: 0x33CB, offset: 0x1BD576, size: 0x8, addend: 0x0, symName: __ZZN3tns12SymbolLoader8instanceEvE6loader, symObjAddr: 0x9DE70, symBinAddr: 0x157ECA8, symSize: 0x0 }
  - { offsetInCU: 0x54BC, offset: 0x1BF667, size: 0x8, addend: 0x0, symName: __ZN3tns12SymbolLoaderD1Ev, symObjAddr: 0x94, symBinAddr: 0x1ECFC, symSize: 0x28 }
  - { offsetInCU: 0x5540, offset: 0x1BF6EB, size: 0x8, addend: 0x0, symName: __ZN10robin_hood6detail5TableILb1ELm80EPKN3tns10ModuleMetaENSt3__110unique_ptrINS2_14SymbolResolverENS6_14default_deleteIS8_EEEENS_4hashIS5_vEENS6_8equal_toIS5_EEE7destroyEv, symObjAddr: 0x6E8, symBinAddr: 0x1F350, symSize: 0x4C }
  - { offsetInCU: 0x599A, offset: 0x1BFB45, size: 0x8, addend: 0x0, symName: __ZN3tns12SymbolLoader13resolveModuleEPKNS_10ModuleMetaE, symObjAddr: 0xBC, symBinAddr: 0x1ED24, symSize: 0x358 }
  - { offsetInCU: 0x65C9, offset: 0x1C0774, size: 0x8, addend: 0x0, symName: __ZNK10robin_hood6detail5TableILb1ELm80EPKN3tns10ModuleMetaENSt3__110unique_ptrINS2_14SymbolResolverENS6_14default_deleteIS8_EEEENS_4hashIS5_vEENS6_8equal_toIS5_EEE7findIdxIS5_EEmRKT_, symObjAddr: 0x814, symBinAddr: 0x1F470, symSize: 0xD8 }
  - { offsetInCU: 0x6625, offset: 0x1C07D0, size: 0x8, addend: 0x0, symName: __ZNK10robin_hood6detail5TableILb1ELm80EPKN3tns10ModuleMetaENSt3__110unique_ptrINS2_14SymbolResolverENS6_14default_deleteIS8_EEEENS_4hashIS5_vEENS6_8equal_toIS5_EEE7findIdxIS5_EEmRKT_, symObjAddr: 0x814, symBinAddr: 0x1F470, symSize: 0xD8 }
  - { offsetInCU: 0x6761, offset: 0x1C090C, size: 0x8, addend: 0x0, symName: __ZNK3tns10ModuleMeta7getNameEv, symObjAddr: 0x414, symBinAddr: 0x1F07C, symSize: 0x78 }
  - { offsetInCU: 0x6A34, offset: 0x1C0BDF, size: 0x8, addend: 0x0, symName: __ZNK3tns11LibraryMeta7getNameEv, symObjAddr: 0x48C, symBinAddr: 0x1F0F4, symSize: 0x78 }
  - { offsetInCU: 0x6CE2, offset: 0x1C0E8D, size: 0x8, addend: 0x0, symName: __ZN10robin_hood6detail5TableILb1ELm80EPKN3tns10ModuleMetaENSt3__110unique_ptrINS2_14SymbolResolverENS6_14default_deleteIS8_EEEENS_4hashIS5_vEENS6_8equal_toIS5_EEE7emplaceIJRS5_SB_EEENS6_4pairINSG_4IterILb0EEEbEEDpOT_, symObjAddr: 0x504, symBinAddr: 0x1F16C, symSize: 0x118 }
  - { offsetInCU: 0x7808, offset: 0x1C19B3, size: 0x8, addend: 0x0, symName: __ZN10robin_hood6detail5TableILb1ELm80EPKN3tns10ModuleMetaENSt3__110unique_ptrINS2_14SymbolResolverENS6_14default_deleteIS8_EEEENS_4hashIS5_vEENS6_8equal_toIS5_EEE25insertKeyPrepareEmptySpotIRKS5_EENS6_4pairImNSG_14InsertionStateEEEOT_, symObjAddr: 0xA38, symBinAddr: 0x1F694, symSize: 0x194 }
  - { offsetInCU: 0x79C2, offset: 0x1C1B6D, size: 0x8, addend: 0x0, symName: __ZNK10robin_hood6detail5TableILb1ELm80EPKN3tns10ModuleMetaENSt3__110unique_ptrINS2_14SymbolResolverENS6_14default_deleteIS8_EEEENS_4hashIS5_vEENS6_8equal_toIS5_EEE18throwOverflowErrorEv, symObjAddr: 0xBCC, symBinAddr: 0x1F828, symSize: 0x50 }
  - { offsetInCU: 0x79F7, offset: 0x1C1BA2, size: 0x8, addend: 0x0, symName: __ZN3tns12SymbolLoader18loadFunctionSymbolEPKNS_10ModuleMetaEPKc, symObjAddr: 0x61C, symBinAddr: 0x1F284, symSize: 0x44 }
  - { offsetInCU: 0x7A95, offset: 0x1C1C40, size: 0x8, addend: 0x0, symName: __ZN3tns12SymbolLoader14loadDataSymbolEPKNS_10ModuleMetaEPKc, symObjAddr: 0x660, symBinAddr: 0x1F2C8, symSize: 0x44 }
  - { offsetInCU: 0x7B1D, offset: 0x1C1CC8, size: 0x8, addend: 0x0, symName: __ZN3tns12SymbolLoader12ensureModuleEPKNS_10ModuleMetaE, symObjAddr: 0x6A4, symBinAddr: 0x1F30C, symSize: 0x44 }
  - { offsetInCU: 0x7B91, offset: 0x1C1D3C, size: 0x8, addend: 0x0, symName: __ZNK10robin_hood6detail5TableILb1ELm80EPKN3tns10ModuleMetaENSt3__110unique_ptrINS2_14SymbolResolverENS6_14default_deleteIS8_EEEENS_4hashIS5_vEENS6_8equal_toIS5_EEE9DestroyerISG_Lb0EE20nodesDoNotDeallocateERSG_, symObjAddr: 0x740, symBinAddr: 0x1F39C, symSize: 0xD4 }
  - { offsetInCU: 0x7EC8, offset: 0x1C2073, size: 0x8, addend: 0x0, symName: __ZN3tns22CFBundleSymbolResolver18loadFunctionSymbolEPKc, symObjAddr: 0x8EC, symBinAddr: 0x1F548, symSize: 0x60 }
  - { offsetInCU: 0x7F8E, offset: 0x1C2139, size: 0x8, addend: 0x0, symName: __ZN3tns22CFBundleSymbolResolver14loadDataSymbolEPKc, symObjAddr: 0x94C, symBinAddr: 0x1F5A8, symSize: 0x60 }
  - { offsetInCU: 0x8026, offset: 0x1C21D1, size: 0x8, addend: 0x0, symName: __ZN3tns22CFBundleSymbolResolver4loadEv, symObjAddr: 0x9AC, symBinAddr: 0x1F608, symSize: 0x5C }
  - { offsetInCU: 0x80BA, offset: 0x1C2265, size: 0x8, addend: 0x0, symName: __ZN3tns22CFBundleSymbolResolverD1Ev, symObjAddr: 0xA08, symBinAddr: 0x1F664, symSize: 0x4 }
  - { offsetInCU: 0x80E3, offset: 0x1C228E, size: 0x8, addend: 0x0, symName: __ZN3tns22CFBundleSymbolResolverD0Ev, symObjAddr: 0xA0C, symBinAddr: 0x1F668, symSize: 0x4 }
  - { offsetInCU: 0x810C, offset: 0x1C22B7, size: 0x8, addend: 0x0, symName: __ZN3tns16DlSymbolResolver18loadFunctionSymbolEPKc, symObjAddr: 0xA10, symBinAddr: 0x1F66C, symSize: 0x8 }
  - { offsetInCU: 0x814F, offset: 0x1C22FA, size: 0x8, addend: 0x0, symName: __ZN3tns16DlSymbolResolver14loadDataSymbolEPKc, symObjAddr: 0xA18, symBinAddr: 0x1F674, symSize: 0x8 }
  - { offsetInCU: 0x8192, offset: 0x1C233D, size: 0x8, addend: 0x0, symName: __ZN3tns16DlSymbolResolver4loadEv, symObjAddr: 0xA20, symBinAddr: 0x1F67C, symSize: 0x10 }
  - { offsetInCU: 0x81B9, offset: 0x1C2364, size: 0x8, addend: 0x0, symName: __ZN3tns16DlSymbolResolverD1Ev, symObjAddr: 0xA30, symBinAddr: 0x1F68C, symSize: 0x4 }
  - { offsetInCU: 0x81E2, offset: 0x1C238D, size: 0x8, addend: 0x0, symName: __ZN3tns16DlSymbolResolverD0Ev, symObjAddr: 0xA34, symBinAddr: 0x1F690, symSize: 0x4 }
  - { offsetInCU: 0x823A, offset: 0x1C23E5, size: 0x8, addend: 0x0, symName: __ZN10robin_hood6detail5TableILb1ELm80EPKN3tns10ModuleMetaENSt3__110unique_ptrINS2_14SymbolResolverENS6_14default_deleteIS8_EEEENS_4hashIS5_vEENS6_8equal_toIS5_EEE13increase_sizeEv, symObjAddr: 0xC1C, symBinAddr: 0x1F878, symSize: 0x12C }
  - { offsetInCU: 0x8304, offset: 0x1C24AF, size: 0x8, addend: 0x0, symName: __ZN10robin_hood6detail5TableILb1ELm80EPKN3tns10ModuleMetaENSt3__110unique_ptrINS2_14SymbolResolverENS6_14default_deleteIS8_EEEENS_4hashIS5_vEENS6_8equal_toIS5_EEE7shiftUpEmm, symObjAddr: 0xD48, symBinAddr: 0x1F9A4, symSize: 0xEC }
  - { offsetInCU: 0x84E2, offset: 0x1C268D, size: 0x8, addend: 0x0, symName: __ZN10robin_hood6detail5TableILb1ELm80EPKN3tns10ModuleMetaENSt3__110unique_ptrINS2_14SymbolResolverENS6_14default_deleteIS8_EEEENS_4hashIS5_vEENS6_8equal_toIS5_EEE17try_increase_infoEv, symObjAddr: 0xF00, symBinAddr: 0x1FB5C, symSize: 0x100 }
  - { offsetInCU: 0x85EC, offset: 0x1C2797, size: 0x8, addend: 0x0, symName: __ZN10robin_hood6detail5TableILb1ELm80EPKN3tns10ModuleMetaENSt3__110unique_ptrINS2_14SymbolResolverENS6_14default_deleteIS8_EEEENS_4hashIS5_vEENS6_8equal_toIS5_EEE8initDataEm, symObjAddr: 0xE34, symBinAddr: 0x1FA90, symSize: 0xCC }
  - { offsetInCU: 0x8700, offset: 0x1C28AB, size: 0x8, addend: 0x0, symName: __ZN10robin_hood6detail5TableILb1ELm80EPKN3tns10ModuleMetaENSt3__110unique_ptrINS2_14SymbolResolverENS6_14default_deleteIS8_EEEENS_4hashIS5_vEENS6_8equal_toIS5_EEE17try_increase_infoEv, symObjAddr: 0xF00, symBinAddr: 0x1FB5C, symSize: 0x100 }
  - { offsetInCU: 0x870B, offset: 0x1C28B6, size: 0x8, addend: 0x0, symName: __ZN10robin_hood6detail5TableILb1ELm80EPKN3tns10ModuleMetaENSt3__110unique_ptrINS2_14SymbolResolverENS6_14default_deleteIS8_EEEENS_4hashIS5_vEENS6_8equal_toIS5_EEE16rehashPowerOfTwoEmb, symObjAddr: 0x1000, symBinAddr: 0x1FC5C, symSize: 0x108 }
  - { offsetInCU: 0x89A5, offset: 0x1C2B50, size: 0x8, addend: 0x0, symName: __ZN10robin_hood6detail5TableILb1ELm80EPKN3tns10ModuleMetaENSt3__110unique_ptrINS2_14SymbolResolverENS6_14default_deleteIS8_EEEENS_4hashIS5_vEENS6_8equal_toIS5_EEE11insert_moveEONSG_8DataNodeISG_Lb1EEE, symObjAddr: 0x1130, symBinAddr: 0x1FD64, symSize: 0x160 }
  - { offsetInCU: 0x30DF, offset: 0x1C6305, size: 0x8, addend: 0x0, symName: __ZN3tns22FastEnumerationAdapterEPN2v87IsolateEP11objc_objectP22NSFastEnumerationStatePS4_mPNS0_10PersistentINS0_8FunctionENS0_27NonCopyablePersistentTraitsIS9_EEEE, symObjAddr: 0x0, symBinAddr: 0x1FEC4, symSize: 0x618 }
  - { offsetInCU: 0xDA, offset: 0x1CA0DB, size: 0x8, addend: 0x0, symName: __ZN3tns30collectInheritanceChainMembersEPKcmNS_10MemberTypeEbPKNS_13BaseClassMetaENSt3__18functionIFvPKNS_10MemberMetaEEEE, symObjAddr: 0x111C, symBinAddr: 0x21390, symSize: 0x6B4 }
  - { offsetInCU: 0x10C, offset: 0x1CA10D, size: 0x8, addend: 0x0, symName: __ZZN3tns30collectInheritanceChainMembersEPKcmNS_10MemberTypeEbPKNS_13BaseClassMetaENSt3__18functionIFvPKNS_10MemberMetaEEEEE11nsObjectLen, symObjAddr: 0x1DE550, symBinAddr: 0x157ED28, symSize: 0x0 }
  - { offsetInCU: 0x1D3B, offset: 0x1CBD3C, size: 0x8, addend: 0x0, symName: __ZN3tnsL16metaFileInstanceE, symObjAddr: 0x1DE560, symBinAddr: 0x157ED38, symSize: 0x0 }
  - { offsetInCU: 0x28DB, offset: 0x1CC8DC, size: 0x8, addend: 0x0, symName: __ZN3tns22LogMetadataUnavailableEPKchhS1_, symObjAddr: 0x0, symBinAddr: 0x204DC, symSize: 0x34 }
  - { offsetInCU: 0x294E, offset: 0x1CC94F, size: 0x8, addend: 0x0, symName: __ZN3tns17getMetasByJSNamesENSt3__13setIPKNS_10MemberMetaENS0_4lessIS4_EENS0_9allocatorIS4_EEEE, symObjAddr: 0x34, symBinAddr: 0x20510, symSize: 0x1C0 }
  - { offsetInCU: 0x13127, offset: 0x1DD128, size: 0x8, addend: 0x0, symName: __ZNSt3__119__allocate_at_leastB7v160006INS_9allocatorIPKN3tns12PropertyMetaEEEEENS_19__allocation_resultINS_16allocator_traitsIT_E7pointerEEERS9_m, symObjAddr: 0x36A4, symBinAddr: 0x229E4, symSize: 0x34 }
  - { offsetInCU: 0x131CC, offset: 0x1DD1CD, size: 0x8, addend: 0x0, symName: __ZNSt3__16vectorIPKN3tns12PropertyMetaENS_9allocatorIS4_EEEC2ERKS7_, symObjAddr: 0x36D8, symBinAddr: 0x22A18, symSize: 0x80 }
  - { offsetInCU: 0x14DE4, offset: 0x1DEDE5, size: 0x8, addend: 0x0, symName: __ZNK3tns10MethodMeta20isImplementedInClassEP10objc_classb, symObjAddr: 0x3F0, symBinAddr: 0x208CC, symSize: 0x200 }
  - { offsetInCU: 0x14E09, offset: 0x1DEE0A, size: 0x8, addend: 0x0, symName: __ZZNK3tns10MethodMeta20isImplementedInClassEP10objc_classbE15sampleInstances, symObjAddr: 0x1DE510, symBinAddr: 0x157ECE8, symSize: 0x0 }
  - { offsetInCU: 0x1904E, offset: 0x1E304F, size: 0x8, addend: 0x0, symName: __ZNK3tns13BaseClassMeta7membersEPKcmNS_10MemberTypeEbbRKNSt3__16vectorIPKNS_12ProtocolMetaENS4_9allocatorIS8_EEEE, symObjAddr: 0xCAC, symBinAddr: 0x20F20, symSize: 0x470 }
  - { offsetInCU: 0x1CD25, offset: 0x1E6D26, size: 0x8, addend: 0x0, symName: __ZN10robin_hood6detail5TableILb1ELm80ENSt3__112basic_stringIcNS2_11char_traitsIcEENS2_9allocatorIcEEEENS2_3setIPKN3tns10MemberMetaENS2_4lessISD_EENS6_ISD_EEEENS_4hashIS8_vEENS2_8equal_toIS8_EEE25insertKeyPrepareEmptySpotIRS8_EENS2_4pairImNSM_14InsertionStateEEEOT_, symObjAddr: 0x3964, symBinAddr: 0x22C08, symSize: 0x18C }
  - { offsetInCU: 0x1CD3C, offset: 0x1E6D3D, size: 0x8, addend: 0x0, symName: __ZN10robin_hood6detail5TableILb1ELm80ENSt3__112basic_stringIcNS2_11char_traitsIcEENS2_9allocatorIcEEEENS2_3setIPKN3tns10MemberMetaENS2_4lessISD_EENS6_ISD_EEEENS_4hashIS8_vEENS2_8equal_toIS8_EEEixISH_EENS2_9enable_ifIXntsr3std7is_voidIT_EE5valueERSP_E4typeEOS8_, symObjAddr: 0x1F4, symBinAddr: 0x206D0, symSize: 0x15C }
  - { offsetInCU: 0x1D5F5, offset: 0x1E75F6, size: 0x8, addend: 0x0, symName: __ZNSt3__16__treeIPKN3tns10MemberMetaENS_4lessIS4_EENS_9allocatorIS4_EEE25__emplace_unique_key_argsIS4_JRKS4_EEENS_4pairINS_15__tree_iteratorIS4_PNS_11__tree_nodeIS4_PvEElEEbEERKT_DpOT0_, symObjAddr: 0x447C, symBinAddr: 0x23550, symSize: 0xB8 }
  - { offsetInCU: 0x1D864, offset: 0x1E7865, size: 0x8, addend: 0x0, symName: __ZN10robin_hood6detail5TableILb1ELm80ENSt3__112basic_stringIcNS2_11char_traitsIcEENS2_9allocatorIcEEEENS2_3setIPKN3tns10MemberMetaENS2_4lessISD_EENS6_ISD_EEEENS_4hashIS8_vEENS2_8equal_toIS8_EEE7destroyEv, symObjAddr: 0x3798, symBinAddr: 0x22AD8, symSize: 0x4C }
  - { offsetInCU: 0x1DE8D, offset: 0x1E7E8E, size: 0x8, addend: 0x0, symName: __ZN10robin_hood6detail5TableILb1ELm80ENSt3__112basic_stringIcNS2_11char_traitsIcEENS2_9allocatorIcEEEENS2_3setIPKN3tns10MemberMetaENS2_4lessISD_EENS6_ISD_EEEENS_4hashIS8_vEENS2_8equal_toIS8_EEE25insertKeyPrepareEmptySpotIRS8_EENS2_4pairImNSM_14InsertionStateEEEOT_, symObjAddr: 0x3964, symBinAddr: 0x22C08, symSize: 0x18C }
  - { offsetInCU: 0x1DFF2, offset: 0x1E7FF3, size: 0x8, addend: 0x0, symName: __ZNK10robin_hood6detail5TableILb1ELm80ENSt3__112basic_stringIcNS2_11char_traitsIcEENS2_9allocatorIcEEEENS2_3setIPKN3tns10MemberMetaENS2_4lessISD_EENS6_ISD_EEEENS_4hashIS8_vEENS2_8equal_toIS8_EEE18throwOverflowErrorEv, symObjAddr: 0x3AF0, symBinAddr: 0x22D94, symSize: 0x50 }
  - { offsetInCU: 0x1E105, offset: 0x1E8106, size: 0x8, addend: 0x0, symName: __ZNK3tns4Meta11isAvailableEv, symObjAddr: 0x350, symBinAddr: 0x2082C, symSize: 0xA0 }
  - { offsetInCU: 0x1E269, offset: 0x1E826A, size: 0x8, addend: 0x0, symName: __ZNK10robin_hood6detail5TableILb1ELm80EP10objc_classP11objc_objectNS_4hashIS3_vEENSt3__18equal_toIS3_EEE7findIdxIS3_EEmRKT_, symObjAddr: 0x4720, symBinAddr: 0x2365C, symSize: 0xD8 }
  - { offsetInCU: 0x1E2C5, offset: 0x1E82C6, size: 0x8, addend: 0x0, symName: __ZNK10robin_hood6detail5TableILb1ELm80EP10objc_classP11objc_objectNS_4hashIS3_vEENSt3__18equal_toIS3_EEE7findIdxIS3_EEmRKT_, symObjAddr: 0x4720, symBinAddr: 0x2365C, symSize: 0xD8 }
  - { offsetInCU: 0x1E406, offset: 0x1E8407, size: 0x8, addend: 0x0, symName: __ZN10robin_hood6detail5TableILb1ELm80EP10objc_classP11objc_objectNS_4hashIS3_vEENSt3__18equal_toIS3_EEE7emplaceIJRS3_S5_EEENS8_4pairINSB_4IterILb0EEEbEEDpOT_, symObjAddr: 0x850, symBinAddr: 0x20B0C, symSize: 0x94 }
  - { offsetInCU: 0x1EA25, offset: 0x1E8A26, size: 0x8, addend: 0x0, symName: __ZN10robin_hood6detail5TableILb1ELm80EP10objc_classP11objc_objectNS_4hashIS3_vEENSt3__18equal_toIS3_EEED1Ev, symObjAddr: 0x810, symBinAddr: 0x20ACC, symSize: 0x40 }
  - { offsetInCU: 0x1EC84, offset: 0x1E8C85, size: 0x8, addend: 0x0, symName: __ZN10robin_hood6detail5TableILb1ELm80EP10objc_classP11objc_objectNS_4hashIS3_vEENSt3__18equal_toIS3_EEE25insertKeyPrepareEmptySpotIRKS3_EENS8_4pairImNSB_14InsertionStateEEEOT_, symObjAddr: 0x47F8, symBinAddr: 0x23734, symSize: 0x194 }
  - { offsetInCU: 0x1EE3E, offset: 0x1E8E3F, size: 0x8, addend: 0x0, symName: __ZNK10robin_hood6detail5TableILb1ELm80EP10objc_classP11objc_objectNS_4hashIS3_vEENSt3__18equal_toIS3_EEE18throwOverflowErrorEv, symObjAddr: 0x498C, symBinAddr: 0x238C8, symSize: 0x50 }
  - { offsetInCU: 0x1EFC1, offset: 0x1E8FC2, size: 0x8, addend: 0x0, symName: __ZNK3tns13BaseClassMeta12protocolsSetEv, symObjAddr: 0x8E4, symBinAddr: 0x20BA0, symSize: 0x14C }
  - { offsetInCU: 0x1FA34, offset: 0x1E9A35, size: 0x8, addend: 0x0, symName: __ZNK3tns11GlobalTableILNS_15GlobalTableTypeE0EE12findProtocolEPKc, symObjAddr: 0x25D0, symBinAddr: 0x22844, symSize: 0x50 }
  - { offsetInCU: 0x1FAF0, offset: 0x1E9AF1, size: 0x8, addend: 0x0, symName: __ZNSt3__16__treeIPKN3tns12ProtocolMetaENS_4lessIS4_EENS_9allocatorIS4_EEE25__emplace_unique_key_argsIS4_JRKS4_EEENS_4pairINS_15__tree_iteratorIS4_PNS_11__tree_nodeIS4_PvEElEEbEERKT_DpOT0_, symObjAddr: 0x4FC4, symBinAddr: 0x23F00, symSize: 0xB8 }
  - { offsetInCU: 0x1FD5F, offset: 0x1E9D60, size: 0x8, addend: 0x0, symName: __ZNSt3__16__treeIPKN3tns12ProtocolMetaENS_4lessIS4_EENS_9allocatorIS4_EEE7destroyEPNS_11__tree_nodeIS4_PvEE, symObjAddr: 0x4F84, symBinAddr: 0x23EC0, symSize: 0x40 }
  - { offsetInCU: 0x1FE9F, offset: 0x1E9EA0, size: 0x8, addend: 0x0, symName: __ZNK3tns13BaseClassMeta16deepProtocolsSetEv, symObjAddr: 0xA30, symBinAddr: 0x20CEC, symSize: 0x48 }
  - { offsetInCU: 0x2005A, offset: 0x1EA05B, size: 0x8, addend: 0x0, symName: __ZNK3tns13BaseClassMeta16deepProtocolsSetERNSt3__13setIPKNS_12ProtocolMetaENS1_4lessIS5_EENS1_9allocatorIS5_EEEE, symObjAddr: 0xA78, symBinAddr: 0x20D34, symSize: 0x19C }
  - { offsetInCU: 0x20D59, offset: 0x1EAD5A, size: 0x8, addend: 0x0, symName: __ZNK3tns13BaseClassMeta6memberEPKcmNS_10MemberTypeEbbRKNSt3__16vectorIPKNS_12ProtocolMetaENS4_9allocatorIS8_EEEE, symObjAddr: 0xC5C, symBinAddr: 0x20ED0, symSize: 0x50 }
  - { offsetInCU: 0x21670, offset: 0x1EB671, size: 0x8, addend: 0x0, symName: __ZNSt3__16__treeINS_12__value_typeIiPKN3tns10MemberMetaEEENS_19__map_value_compareIiS6_NS_4lessIiEELb1EEENS_9allocatorIS6_EEE7destroyEPNS_11__tree_nodeIS6_PvEE, symObjAddr: 0x5394, symBinAddr: 0x24284, symSize: 0x40 }
  - { offsetInCU: 0x217B0, offset: 0x1EB7B1, size: 0x8, addend: 0x0, symName: __ZNSt3__13setIPKN3tns10MemberMetaENS_4lessIS4_EENS_9allocatorIS4_EEE6insertB7v160006INS_21__tree_const_iteratorIS4_PNS_11__tree_nodeIS4_PvEElEEEEvT_SH_, symObjAddr: 0x5654, symBinAddr: 0x24544, symSize: 0x84 }
  - { offsetInCU: 0x21E17, offset: 0x1EBE18, size: 0x8, addend: 0x0, symName: __ZNK3tns5ArrayINS_5PtrToINS_10MemberMetaEEEE20binarySearchLeftmostENSt3__18functionIFiRKS3_EEE, symObjAddr: 0x17D0, symBinAddr: 0x21A44, symSize: 0x110 }
  - { offsetInCU: 0x2207C, offset: 0x1EC07D, size: 0x8, addend: 0x0, symName: __ZNSt3__110__function12__value_funcIFvPKN3tns10MemberMetaEEEC2B7v160006ERKS7_, symObjAddr: 0x5330, symBinAddr: 0x24220, symSize: 0x64 }
  - { offsetInCU: 0x22195, offset: 0x1EC196, size: 0x8, addend: 0x0, symName: __ZNSt3__110__function12__value_funcIFiRKN3tns5PtrToINS2_10MemberMetaEEEEEC2B7v160006ERKS9_, symObjAddr: 0x5168, symBinAddr: 0x240A4, symSize: 0x64 }
  - { offsetInCU: 0x221E9, offset: 0x1EC1EA, size: 0x8, addend: 0x0, symName: __ZNK3tns5ArrayINS_5PtrToINS_10MemberMetaEEEE12binarySearchENSt3__18functionIFiRKS3_EEE, symObjAddr: 0x50D0, symBinAddr: 0x2400C, symSize: 0x98 }
  - { offsetInCU: 0x222E6, offset: 0x1EC2E7, size: 0x8, addend: 0x0, symName: __ZNSt3__110__function12__value_funcIFiRKN3tns5PtrToINS2_10MemberMetaEEEEEC2B7v160006ERKS9_, symObjAddr: 0x5168, symBinAddr: 0x240A4, symSize: 0x64 }
  - { offsetInCU: 0x223E4, offset: 0x1EC3E5, size: 0x8, addend: 0x0, symName: __ZNK3tns13BaseClassMeta31instancePropertiesWithProtocolsERNSt3__16vectorIPKNS_12PropertyMetaENS1_9allocatorIS5_EEEENS_21KnownUnknownClassPairERKNS2_IPKNS_12ProtocolMetaENS6_ISD_EEEE, symObjAddr: 0x18E0, symBinAddr: 0x21B54, symSize: 0x218 }
  - { offsetInCU: 0x233A4, offset: 0x1ED3A5, size: 0x8, addend: 0x0, symName: __ZNK3tns13BaseClassMeta18instancePropertiesERNSt3__16vectorIPKNS_12PropertyMetaENS1_9allocatorIS5_EEEENS_21KnownUnknownClassPairE, symObjAddr: 0x1AF8, symBinAddr: 0x21D6C, symSize: 0x288 }
  - { offsetInCU: 0x241CA, offset: 0x1EE1CB, size: 0x8, addend: 0x0, symName: __ZNK3tns13BaseClassMeta29staticPropertiesWithProtocolsERNSt3__16vectorIPKNS_12PropertyMetaENS1_9allocatorIS5_EEEENS_21KnownUnknownClassPairERKNS2_IPKNS_12ProtocolMetaENS6_ISD_EEEE, symObjAddr: 0x1D80, symBinAddr: 0x21FF4, symSize: 0x218 }
  - { offsetInCU: 0x241D6, offset: 0x1EE1D7, size: 0x8, addend: 0x0, symName: __ZNSt3__16vectorIPKN3tns12PropertyMetaENS_9allocatorIS4_EEEC2ERKS7_, symObjAddr: 0x36D8, symBinAddr: 0x22A18, symSize: 0x80 }
  - { offsetInCU: 0x24974, offset: 0x1EE975, size: 0x8, addend: 0x0, symName: __ZNK3tns12PropertyMeta20isImplementedInClassEP10objc_classb, symObjAddr: 0x3560, symBinAddr: 0x228A0, symSize: 0x130 }
  - { offsetInCU: 0x24DAC, offset: 0x1EEDAD, size: 0x8, addend: 0x0, symName: __ZNKSt3__16vectorIPKN3tns12PropertyMetaENS_9allocatorIS4_EEE20__throw_length_errorB7v160006Ev, symObjAddr: 0x3690, symBinAddr: 0x229D0, symSize: 0x14 }
  - { offsetInCU: 0x24DD5, offset: 0x1EEDD6, size: 0x8, addend: 0x0, symName: __ZNSt3__119__allocate_at_leastB7v160006INS_9allocatorIPKN3tns12PropertyMetaEEEEENS_19__allocation_resultINS_16allocator_traitsIT_E7pointerEEERS9_m, symObjAddr: 0x36A4, symBinAddr: 0x229E4, symSize: 0x34 }
  - { offsetInCU: 0x24DE1, offset: 0x1EEDE2, size: 0x8, addend: 0x0, symName: __ZNK3tns13BaseClassMeta29staticPropertiesWithProtocolsERNSt3__16vectorIPKNS_12PropertyMetaENS1_9allocatorIS5_EEEENS_21KnownUnknownClassPairERKNS2_IPKNS_12ProtocolMetaENS6_ISD_EEEE, symObjAddr: 0x1D80, symBinAddr: 0x21FF4, symSize: 0x218 }
  - { offsetInCU: 0x25D79, offset: 0x1EFD7A, size: 0x8, addend: 0x0, symName: __ZNK3tns13BaseClassMeta16staticPropertiesERNSt3__16vectorIPKNS_12PropertyMetaENS1_9allocatorIS5_EEEENS_21KnownUnknownClassPairE, symObjAddr: 0x1F98, symBinAddr: 0x2220C, symSize: 0x288 }
  - { offsetInCU: 0x26B9F, offset: 0x1F0BA0, size: 0x8, addend: 0x0, symName: __ZNK3tns13BaseClassMeta12initializersERNSt3__16vectorIPKNS_10MethodMetaENS1_9allocatorIS5_EEEENS_21KnownUnknownClassPairE, symObjAddr: 0x2220, symBinAddr: 0x22494, symSize: 0x1D4 }
  - { offsetInCU: 0x2701B, offset: 0x1F101C, size: 0x8, addend: 0x0, symName: __ZNK3tns13BaseClassMeta12initializersERNSt3__16vectorIPKNS_10MethodMetaENS1_9allocatorIS5_EEEENS_21KnownUnknownClassPairE, symObjAddr: 0x2220, symBinAddr: 0x22494, symSize: 0x1D4 }
  - { offsetInCU: 0x27904, offset: 0x1F1905, size: 0x8, addend: 0x0, symName: __ZNK3tns13BaseClassMeta25initializersWithProtocolsERNSt3__16vectorIPKNS_10MethodMetaENS1_9allocatorIS5_EEEENS_21KnownUnknownClassPairERKNS2_IPKNS_12ProtocolMetaENS6_ISD_EEEE, symObjAddr: 0x23F4, symBinAddr: 0x22668, symSize: 0x1D0 }
  - { offsetInCU: 0x27BD5, offset: 0x1F1BD6, size: 0x8, addend: 0x0, symName: __ZNK3tns13BaseClassMeta25initializersWithProtocolsERNSt3__16vectorIPKNS_10MethodMetaENS1_9allocatorIS5_EEEENS_21KnownUnknownClassPairERKNS2_IPKNS_12ProtocolMetaENS6_ISD_EEEE, symObjAddr: 0x23F4, symBinAddr: 0x22668, symSize: 0x1D0 }
  - { offsetInCU: 0x2881E, offset: 0x1F281F, size: 0x8, addend: 0x0, symName: __ZN3tns8MetaFile8instanceEv, symObjAddr: 0x25C4, symBinAddr: 0x22838, symSize: 0xC }
  - { offsetInCU: 0x28E5C, offset: 0x1F2E5D, size: 0x8, addend: 0x0, symName: __ZN3tns8MetaFile11setInstanceEPv, symObjAddr: 0x2620, symBinAddr: 0x22894, symSize: 0xC }
  - { offsetInCU: 0x2A35E, offset: 0x1F435F, size: 0x8, addend: 0x0, symName: __ZNSt3__16vectorIPKN3tns12PropertyMetaENS_9allocatorIS4_EEE11__vallocateB7v160006Em, symObjAddr: 0x3758, symBinAddr: 0x22A98, symSize: 0x40 }
  - { offsetInCU: 0x2A3D5, offset: 0x1F43D6, size: 0x8, addend: 0x0, symName: __ZN10robin_hood6detail5TableILb1ELm80ENSt3__112basic_stringIcNS2_11char_traitsIcEENS2_9allocatorIcEEEENS2_3setIPKN3tns10MemberMetaENS2_4lessISD_EENS6_ISD_EEEENS_4hashIS8_vEENS2_8equal_toIS8_EEE7destroyEv, symObjAddr: 0x3798, symBinAddr: 0x22AD8, symSize: 0x4C }
  - { offsetInCU: 0x2A400, offset: 0x1F4401, size: 0x8, addend: 0x0, symName: __ZNK10robin_hood6detail5TableILb1ELm80ENSt3__112basic_stringIcNS2_11char_traitsIcEENS2_9allocatorIcEEEENS2_3setIPKN3tns10MemberMetaENS2_4lessISD_EENS6_ISD_EEEENS_4hashIS8_vEENS2_8equal_toIS8_EEE9DestroyerISM_Lb0EE20nodesDoNotDeallocateERSM_, symObjAddr: 0x37E4, symBinAddr: 0x22B24, symSize: 0xE4 }
  - { offsetInCU: 0x2AA18, offset: 0x1F4A19, size: 0x8, addend: 0x0, symName: __ZN10robin_hood6detail5TableILb1ELm80ENSt3__112basic_stringIcNS2_11char_traitsIcEENS2_9allocatorIcEEEENS2_3setIPKN3tns10MemberMetaENS2_4lessISD_EENS6_ISD_EEEENS_4hashIS8_vEENS2_8equal_toIS8_EEE13increase_sizeEv, symObjAddr: 0x3BF0, symBinAddr: 0x22DE4, symSize: 0x12C }
  - { offsetInCU: 0x2AAE2, offset: 0x1F4AE3, size: 0x8, addend: 0x0, symName: __ZN10robin_hood6detail5TableILb1ELm80ENSt3__112basic_stringIcNS2_11char_traitsIcEENS2_9allocatorIcEEEENS2_3setIPKN3tns10MemberMetaENS2_4lessISD_EENS6_ISD_EEEENS_4hashIS8_vEENS2_8equal_toIS8_EEE7shiftUpEmm, symObjAddr: 0x3D1C, symBinAddr: 0x22F10, symSize: 0x154 }
  - { offsetInCU: 0x2AE7B, offset: 0x1F4E7C, size: 0x8, addend: 0x0, symName: __ZN10robin_hood6detail5TableILb1ELm80ENSt3__112basic_stringIcNS2_11char_traitsIcEENS2_9allocatorIcEEEENS2_3setIPKN3tns10MemberMetaENS2_4lessISD_EENS6_ISD_EEEENS_4hashIS8_vEENS2_8equal_toIS8_EEE17try_increase_infoEv, symObjAddr: 0x402C, symBinAddr: 0x23140, symSize: 0x100 }
  - { offsetInCU: 0x2AF85, offset: 0x1F4F86, size: 0x8, addend: 0x0, symName: __ZN10robin_hood6detail5TableILb1ELm80ENSt3__112basic_stringIcNS2_11char_traitsIcEENS2_9allocatorIcEEEENS2_3setIPKN3tns10MemberMetaENS2_4lessISD_EENS6_ISD_EEEENS_4hashIS8_vEENS2_8equal_toIS8_EEE8initDataEm, symObjAddr: 0x3F50, symBinAddr: 0x23064, symSize: 0xDC }
  - { offsetInCU: 0x2B098, offset: 0x1F5099, size: 0x8, addend: 0x0, symName: __ZN10robin_hood6detail5TableILb1ELm80ENSt3__112basic_stringIcNS2_11char_traitsIcEENS2_9allocatorIcEEEENS2_3setIPKN3tns10MemberMetaENS2_4lessISD_EENS6_ISD_EEEENS_4hashIS8_vEENS2_8equal_toIS8_EEE17try_increase_infoEv, symObjAddr: 0x402C, symBinAddr: 0x23140, symSize: 0x100 }
  - { offsetInCU: 0x2B0A4, offset: 0x1F50A5, size: 0x8, addend: 0x0, symName: __ZN10robin_hood6detail5TableILb1ELm80ENSt3__112basic_stringIcNS2_11char_traitsIcEENS2_9allocatorIcEEEENS2_3setIPKN3tns10MemberMetaENS2_4lessISD_EENS6_ISD_EEEENS_4hashIS8_vEENS2_8equal_toIS8_EEE16rehashPowerOfTwoEmb, symObjAddr: 0x412C, symBinAddr: 0x23240, symSize: 0x10C }
  - { offsetInCU: 0x2B515, offset: 0x1F5516, size: 0x8, addend: 0x0, symName: __ZNSt3__16__treeIPKN3tns10MemberMetaENS_4lessIS4_EENS_9allocatorIS4_EEE13__move_assignERS9_NS_17integral_constantIbLb1EEE, symObjAddr: 0x43D4, symBinAddr: 0x234E8, symSize: 0x68 }
  - { offsetInCU: 0x2B5A4, offset: 0x1F55A5, size: 0x8, addend: 0x0, symName: __ZN10robin_hood6detail5TableILb1ELm80ENSt3__112basic_stringIcNS2_11char_traitsIcEENS2_9allocatorIcEEEENS2_3setIPKN3tns10MemberMetaENS2_4lessISD_EENS6_ISD_EEEENS_4hashIS8_vEENS2_8equal_toIS8_EEE11insert_moveEONSM_8DataNodeISM_Lb1EEE, symObjAddr: 0x4238, symBinAddr: 0x2334C, symSize: 0x19C }
  - { offsetInCU: 0x2BC34, offset: 0x1F5C35, size: 0x8, addend: 0x0, symName: __ZNSt3__16__treeIPKN3tns10MemberMetaENS_4lessIS4_EENS_9allocatorIS4_EEE16__insert_node_atEPNS_15__tree_end_nodeIPNS_16__tree_node_baseIPvEEEERSE_SE_, symObjAddr: 0x4534, symBinAddr: 0x23608, symSize: 0x54 }
  - { offsetInCU: 0x2BDEA, offset: 0x1F5DEB, size: 0x8, addend: 0x0, symName: __ZN10robin_hood6detail5TableILb1ELm80EP10objc_classP11objc_objectNS_4hashIS3_vEENSt3__18equal_toIS3_EEE13increase_sizeEv, symObjAddr: 0x49DC, symBinAddr: 0x23918, symSize: 0x12C }
  - { offsetInCU: 0x2BEB4, offset: 0x1F5EB5, size: 0x8, addend: 0x0, symName: __ZN10robin_hood6detail5TableILb1ELm80EP10objc_classP11objc_objectNS_4hashIS3_vEENSt3__18equal_toIS3_EEE7shiftUpEmm, symObjAddr: 0x4B08, symBinAddr: 0x23A44, symSize: 0x98 }
  - { offsetInCU: 0x2BF40, offset: 0x1F5F41, size: 0x8, addend: 0x0, symName: __ZN10robin_hood6detail5TableILb1ELm80EP10objc_classP11objc_objectNS_4hashIS3_vEENSt3__18equal_toIS3_EEE17try_increase_infoEv, symObjAddr: 0x4C6C, symBinAddr: 0x23BA8, symSize: 0x100 }
  - { offsetInCU: 0x2C04A, offset: 0x1F604B, size: 0x8, addend: 0x0, symName: __ZN10robin_hood6detail5TableILb1ELm80EP10objc_classP11objc_objectNS_4hashIS3_vEENSt3__18equal_toIS3_EEE8initDataEm, symObjAddr: 0x4BA0, symBinAddr: 0x23ADC, symSize: 0xCC }
  - { offsetInCU: 0x2C15D, offset: 0x1F615E, size: 0x8, addend: 0x0, symName: __ZN10robin_hood6detail5TableILb1ELm80EP10objc_classP11objc_objectNS_4hashIS3_vEENSt3__18equal_toIS3_EEE17try_increase_infoEv, symObjAddr: 0x4C6C, symBinAddr: 0x23BA8, symSize: 0x100 }
  - { offsetInCU: 0x2C169, offset: 0x1F616A, size: 0x8, addend: 0x0, symName: __ZN10robin_hood6detail5TableILb1ELm80EP10objc_classP11objc_objectNS_4hashIS3_vEENSt3__18equal_toIS3_EEE16rehashPowerOfTwoEmb, symObjAddr: 0x4D6C, symBinAddr: 0x23CA8, symSize: 0xF0 }
  - { offsetInCU: 0x2C2E4, offset: 0x1F62E5, size: 0x8, addend: 0x0, symName: __ZN10robin_hood6detail5TableILb1ELm80EP10objc_classP11objc_objectNS_4hashIS3_vEENSt3__18equal_toIS3_EEE11insert_moveEONSB_8DataNodeISB_Lb1EEE, symObjAddr: 0x4E5C, symBinAddr: 0x23D98, symSize: 0x128 }
  - { offsetInCU: 0x2C65E, offset: 0x1F665F, size: 0x8, addend: 0x0, symName: __ZNSt3__16__treeIPKN3tns12ProtocolMetaENS_4lessIS4_EENS_9allocatorIS4_EEE16__insert_node_atEPNS_15__tree_end_nodeIPNS_16__tree_node_baseIPvEEEERSE_SE_, symObjAddr: 0x507C, symBinAddr: 0x23FB8, symSize: 0x54 }
  - { offsetInCU: 0x2C706, offset: 0x1F6707, size: 0x8, addend: 0x0, symName: '__ZNSt3__110__function6__funcIZN3tns30collectInheritanceChainMembersEPKcmNS2_10MemberTypeEbPKNS2_13BaseClassMetaENS_8functionIFvPKNS2_10MemberMetaEEEEE3$_2NS_9allocatorISF_EEFiRKNS2_5PtrToISA_EEEED1Ev', symObjAddr: 0x5218, symBinAddr: 0x24108, symSize: 0x4 }
  - { offsetInCU: 0x2C731, offset: 0x1F6732, size: 0x8, addend: 0x0, symName: '__ZNSt3__110__function6__funcIZN3tns30collectInheritanceChainMembersEPKcmNS2_10MemberTypeEbPKNS2_13BaseClassMetaENS_8functionIFvPKNS2_10MemberMetaEEEEE3$_2NS_9allocatorISF_EEFiRKNS2_5PtrToISA_EEEED0Ev', symObjAddr: 0x521C, symBinAddr: 0x2410C, symSize: 0x4 }
  - { offsetInCU: 0x2C935, offset: 0x1F6936, size: 0x8, addend: 0x0, symName: '__ZNKSt3__110__function6__funcIZN3tns30collectInheritanceChainMembersEPKcmNS2_10MemberTypeEbPKNS2_13BaseClassMetaENS_8functionIFvPKNS2_10MemberMetaEEEEE3$_2NS_9allocatorISF_EEFiRKNS2_5PtrToISA_EEEE7__cloneEv', symObjAddr: 0x5220, symBinAddr: 0x24110, symSize: 0x38 }
  - { offsetInCU: 0x2CC60, offset: 0x1F6C61, size: 0x8, addend: 0x0, symName: '__ZNKSt3__110__function6__funcIZN3tns30collectInheritanceChainMembersEPKcmNS2_10MemberTypeEbPKNS2_13BaseClassMetaENS_8functionIFvPKNS2_10MemberMetaEEEEE3$_2NS_9allocatorISF_EEFiRKNS2_5PtrToISA_EEEE7__cloneEPNS0_6__baseISM_EE', symObjAddr: 0x5258, symBinAddr: 0x24148, symSize: 0x18 }
  - { offsetInCU: 0x2CC97, offset: 0x1F6C98, size: 0x8, addend: 0x0, symName: '__ZNKSt3__110__function6__funcIZN3tns30collectInheritanceChainMembersEPKcmNS2_10MemberTypeEbPKNS2_13BaseClassMetaENS_8functionIFvPKNS2_10MemberMetaEEEEE3$_2NS_9allocatorISF_EEFiRKNS2_5PtrToISA_EEEE7__cloneEPNS0_6__baseISM_EE', symObjAddr: 0x5258, symBinAddr: 0x24148, symSize: 0x18 }
  - { offsetInCU: 0x2CCC6, offset: 0x1F6CC7, size: 0x8, addend: 0x0, symName: '__ZNKSt3__110__function6__funcIZN3tns30collectInheritanceChainMembersEPKcmNS2_10MemberTypeEbPKNS2_13BaseClassMetaENS_8functionIFvPKNS2_10MemberMetaEEEEE3$_2NS_9allocatorISF_EEFiRKNS2_5PtrToISA_EEEE7__cloneEPNS0_6__baseISM_EE', symObjAddr: 0x5258, symBinAddr: 0x24148, symSize: 0x18 }
  - { offsetInCU: 0x2CDDE, offset: 0x1F6DDF, size: 0x8, addend: 0x0, symName: '__ZNSt3__110__function6__funcIZN3tns30collectInheritanceChainMembersEPKcmNS2_10MemberTypeEbPKNS2_13BaseClassMetaENS_8functionIFvPKNS2_10MemberMetaEEEEE3$_2NS_9allocatorISF_EEFiRKNS2_5PtrToISA_EEEE7destroyEv', symObjAddr: 0x5270, symBinAddr: 0x24160, symSize: 0x4 }
  - { offsetInCU: 0x2CE2D, offset: 0x1F6E2E, size: 0x8, addend: 0x0, symName: '__ZNSt3__110__function6__funcIZN3tns30collectInheritanceChainMembersEPKcmNS2_10MemberTypeEbPKNS2_13BaseClassMetaENS_8functionIFvPKNS2_10MemberMetaEEEEE3$_2NS_9allocatorISF_EEFiRKNS2_5PtrToISA_EEEE18destroy_deallocateEv', symObjAddr: 0x5274, symBinAddr: 0x24164, symSize: 0x4 }
  - { offsetInCU: 0x2CE62, offset: 0x1F6E63, size: 0x8, addend: 0x0, symName: '__ZNSt3__110__function6__funcIZN3tns30collectInheritanceChainMembersEPKcmNS2_10MemberTypeEbPKNS2_13BaseClassMetaENS_8functionIFvPKNS2_10MemberMetaEEEEE3$_2NS_9allocatorISF_EEFiRKNS2_5PtrToISA_EEEE18destroy_deallocateEv', symObjAddr: 0x5274, symBinAddr: 0x24164, symSize: 0x4 }
  - { offsetInCU: 0x2CE86, offset: 0x1F6E87, size: 0x8, addend: 0x0, symName: '__ZNSt3__110__function6__funcIZN3tns30collectInheritanceChainMembersEPKcmNS2_10MemberTypeEbPKNS2_13BaseClassMetaENS_8functionIFvPKNS2_10MemberMetaEEEEE3$_2NS_9allocatorISF_EEFiRKNS2_5PtrToISA_EEEE18destroy_deallocateEv', symObjAddr: 0x5274, symBinAddr: 0x24164, symSize: 0x4 }
  - { offsetInCU: 0x2CEB2, offset: 0x1F6EB3, size: 0x8, addend: 0x0, symName: '__ZNSt3__110__function6__funcIZN3tns30collectInheritanceChainMembersEPKcmNS2_10MemberTypeEbPKNS2_13BaseClassMetaENS_8functionIFvPKNS2_10MemberMetaEEEEE3$_2NS_9allocatorISF_EEFiRKNS2_5PtrToISA_EEEE18destroy_deallocateEv', symObjAddr: 0x5274, symBinAddr: 0x24164, symSize: 0x4 }
  - { offsetInCU: 0x2CED9, offset: 0x1F6EDA, size: 0x8, addend: 0x0, symName: '__ZNSt3__110__function6__funcIZN3tns30collectInheritanceChainMembersEPKcmNS2_10MemberTypeEbPKNS2_13BaseClassMetaENS_8functionIFvPKNS2_10MemberMetaEEEEE3$_2NS_9allocatorISF_EEFiRKNS2_5PtrToISA_EEEE18destroy_deallocateEv', symObjAddr: 0x5274, symBinAddr: 0x24164, symSize: 0x4 }
  - { offsetInCU: 0x2CF96, offset: 0x1F6F97, size: 0x8, addend: 0x0, symName: '__ZNSt3__110__function6__funcIZN3tns30collectInheritanceChainMembersEPKcmNS2_10MemberTypeEbPKNS2_13BaseClassMetaENS_8functionIFvPKNS2_10MemberMetaEEEEE3$_2NS_9allocatorISF_EEFiRKNS2_5PtrToISA_EEEEclESL_', symObjAddr: 0x5278, symBinAddr: 0x24168, symSize: 0xB8 }
  - { offsetInCU: 0x2D486, offset: 0x1F7487, size: 0x8, addend: 0x0, symName: '__ZNSt3__110__function6__funcIZNK3tns13BaseClassMeta7membersEPKcmNS2_10MemberTypeEbbRKNS_6vectorIPKNS2_12ProtocolMetaENS_9allocatorISA_EEEEE3$_3NSB_ISG_EEFvPKNS2_10MemberMetaEEED1Ev', symObjAddr: 0x53D4, symBinAddr: 0x242C4, symSize: 0x4 }
  - { offsetInCU: 0x2D4B1, offset: 0x1F74B2, size: 0x8, addend: 0x0, symName: '__ZNSt3__110__function6__funcIZNK3tns13BaseClassMeta7membersEPKcmNS2_10MemberTypeEbbRKNS_6vectorIPKNS2_12ProtocolMetaENS_9allocatorISA_EEEEE3$_3NSB_ISG_EEFvPKNS2_10MemberMetaEEED0Ev', symObjAddr: 0x53D8, symBinAddr: 0x242C8, symSize: 0x4 }
  - { offsetInCU: 0x2D6B5, offset: 0x1F76B6, size: 0x8, addend: 0x0, symName: '__ZNKSt3__110__function6__funcIZNK3tns13BaseClassMeta7membersEPKcmNS2_10MemberTypeEbbRKNS_6vectorIPKNS2_12ProtocolMetaENS_9allocatorISA_EEEEE3$_3NSB_ISG_EEFvPKNS2_10MemberMetaEEE7__cloneEv', symObjAddr: 0x53DC, symBinAddr: 0x242CC, symSize: 0x34 }
  - { offsetInCU: 0x2D9B3, offset: 0x1F79B4, size: 0x8, addend: 0x0, symName: '__ZNKSt3__110__function6__funcIZNK3tns13BaseClassMeta7membersEPKcmNS2_10MemberTypeEbbRKNS_6vectorIPKNS2_12ProtocolMetaENS_9allocatorISA_EEEEE3$_3NSB_ISG_EEFvPKNS2_10MemberMetaEEE7__cloneEPNS0_6__baseISL_EE', symObjAddr: 0x5410, symBinAddr: 0x24300, symSize: 0x14 }
  - { offsetInCU: 0x2D9EA, offset: 0x1F79EB, size: 0x8, addend: 0x0, symName: '__ZNKSt3__110__function6__funcIZNK3tns13BaseClassMeta7membersEPKcmNS2_10MemberTypeEbbRKNS_6vectorIPKNS2_12ProtocolMetaENS_9allocatorISA_EEEEE3$_3NSB_ISG_EEFvPKNS2_10MemberMetaEEE7__cloneEPNS0_6__baseISL_EE', symObjAddr: 0x5410, symBinAddr: 0x24300, symSize: 0x14 }
  - { offsetInCU: 0x2DA19, offset: 0x1F7A1A, size: 0x8, addend: 0x0, symName: '__ZNKSt3__110__function6__funcIZNK3tns13BaseClassMeta7membersEPKcmNS2_10MemberTypeEbbRKNS_6vectorIPKNS2_12ProtocolMetaENS_9allocatorISA_EEEEE3$_3NSB_ISG_EEFvPKNS2_10MemberMetaEEE7__cloneEPNS0_6__baseISL_EE', symObjAddr: 0x5410, symBinAddr: 0x24300, symSize: 0x14 }
  - { offsetInCU: 0x2DA48, offset: 0x1F7A49, size: 0x8, addend: 0x0, symName: '__ZNKSt3__110__function6__funcIZNK3tns13BaseClassMeta7membersEPKcmNS2_10MemberTypeEbbRKNS_6vectorIPKNS2_12ProtocolMetaENS_9allocatorISA_EEEEE3$_3NSB_ISG_EEFvPKNS2_10MemberMetaEEE7__cloneEPNS0_6__baseISL_EE', symObjAddr: 0x5410, symBinAddr: 0x24300, symSize: 0x14 }
  - { offsetInCU: 0x2DA5E, offset: 0x1F7A5F, size: 0x8, addend: 0x0, symName: '__ZNKSt3__110__function6__funcIZNK3tns13BaseClassMeta7membersEPKcmNS2_10MemberTypeEbbRKNS_6vectorIPKNS2_12ProtocolMetaENS_9allocatorISA_EEEEE3$_3NSB_ISG_EEFvPKNS2_10MemberMetaEEE7__cloneEPNS0_6__baseISL_EE', symObjAddr: 0x5410, symBinAddr: 0x24300, symSize: 0x14 }
  - { offsetInCU: 0x2DA72, offset: 0x1F7A73, size: 0x8, addend: 0x0, symName: '__ZNKSt3__110__function6__funcIZNK3tns13BaseClassMeta7membersEPKcmNS2_10MemberTypeEbbRKNS_6vectorIPKNS2_12ProtocolMetaENS_9allocatorISA_EEEEE3$_3NSB_ISG_EEFvPKNS2_10MemberMetaEEE7__cloneEPNS0_6__baseISL_EE', symObjAddr: 0x5410, symBinAddr: 0x24300, symSize: 0x14 }
  - { offsetInCU: 0x2DA86, offset: 0x1F7A87, size: 0x8, addend: 0x0, symName: '__ZNKSt3__110__function6__funcIZNK3tns13BaseClassMeta7membersEPKcmNS2_10MemberTypeEbbRKNS_6vectorIPKNS2_12ProtocolMetaENS_9allocatorISA_EEEEE3$_3NSB_ISG_EEFvPKNS2_10MemberMetaEEE7__cloneEPNS0_6__baseISL_EE', symObjAddr: 0x5410, symBinAddr: 0x24300, symSize: 0x14 }
  - { offsetInCU: 0x2DA9B, offset: 0x1F7A9C, size: 0x8, addend: 0x0, symName: '__ZNKSt3__110__function6__funcIZNK3tns13BaseClassMeta7membersEPKcmNS2_10MemberTypeEbbRKNS_6vectorIPKNS2_12ProtocolMetaENS_9allocatorISA_EEEEE3$_3NSB_ISG_EEFvPKNS2_10MemberMetaEEE7__cloneEPNS0_6__baseISL_EE', symObjAddr: 0x5410, symBinAddr: 0x24300, symSize: 0x14 }
  - { offsetInCU: 0x2DAB3, offset: 0x1F7AB4, size: 0x8, addend: 0x0, symName: '__ZNSt3__110__function6__funcIZNK3tns13BaseClassMeta7membersEPKcmNS2_10MemberTypeEbbRKNS_6vectorIPKNS2_12ProtocolMetaENS_9allocatorISA_EEEEE3$_3NSB_ISG_EEFvPKNS2_10MemberMetaEEE7destroyEv', symObjAddr: 0x5424, symBinAddr: 0x24314, symSize: 0x4 }
  - { offsetInCU: 0x2DB02, offset: 0x1F7B03, size: 0x8, addend: 0x0, symName: '__ZNSt3__110__function6__funcIZNK3tns13BaseClassMeta7membersEPKcmNS2_10MemberTypeEbbRKNS_6vectorIPKNS2_12ProtocolMetaENS_9allocatorISA_EEEEE3$_3NSB_ISG_EEFvPKNS2_10MemberMetaEEE18destroy_deallocateEv', symObjAddr: 0x5428, symBinAddr: 0x24318, symSize: 0x4 }
  - { offsetInCU: 0x2DB37, offset: 0x1F7B38, size: 0x8, addend: 0x0, symName: '__ZNSt3__110__function6__funcIZNK3tns13BaseClassMeta7membersEPKcmNS2_10MemberTypeEbbRKNS_6vectorIPKNS2_12ProtocolMetaENS_9allocatorISA_EEEEE3$_3NSB_ISG_EEFvPKNS2_10MemberMetaEEE18destroy_deallocateEv', symObjAddr: 0x5428, symBinAddr: 0x24318, symSize: 0x4 }
  - { offsetInCU: 0x2DB5B, offset: 0x1F7B5C, size: 0x8, addend: 0x0, symName: '__ZNSt3__110__function6__funcIZNK3tns13BaseClassMeta7membersEPKcmNS2_10MemberTypeEbbRKNS_6vectorIPKNS2_12ProtocolMetaENS_9allocatorISA_EEEEE3$_3NSB_ISG_EEFvPKNS2_10MemberMetaEEE18destroy_deallocateEv', symObjAddr: 0x5428, symBinAddr: 0x24318, symSize: 0x4 }
  - { offsetInCU: 0x2DB87, offset: 0x1F7B88, size: 0x8, addend: 0x0, symName: '__ZNSt3__110__function6__funcIZNK3tns13BaseClassMeta7membersEPKcmNS2_10MemberTypeEbbRKNS_6vectorIPKNS2_12ProtocolMetaENS_9allocatorISA_EEEEE3$_3NSB_ISG_EEFvPKNS2_10MemberMetaEEE18destroy_deallocateEv', symObjAddr: 0x5428, symBinAddr: 0x24318, symSize: 0x4 }
  - { offsetInCU: 0x2DBAE, offset: 0x1F7BAF, size: 0x8, addend: 0x0, symName: '__ZNSt3__110__function6__funcIZNK3tns13BaseClassMeta7membersEPKcmNS2_10MemberTypeEbbRKNS_6vectorIPKNS2_12ProtocolMetaENS_9allocatorISA_EEEEE3$_3NSB_ISG_EEFvPKNS2_10MemberMetaEEE18destroy_deallocateEv', symObjAddr: 0x5428, symBinAddr: 0x24318, symSize: 0x4 }
  - { offsetInCU: 0x2DD3A, offset: 0x1F7D3B, size: 0x8, addend: 0x0, symName: '__ZNSt3__110__function6__funcIZNK3tns13BaseClassMeta7membersEPKcmNS2_10MemberTypeEbbRKNS_6vectorIPKNS2_12ProtocolMetaENS_9allocatorISA_EEEEE3$_3NSB_ISG_EEFvPKNS2_10MemberMetaEEEclEOSK_', symObjAddr: 0x542C, symBinAddr: 0x2431C, symSize: 0x88 }
  - { offsetInCU: 0x2E123, offset: 0x1F8124, size: 0x8, addend: 0x0, symName: __ZNSt3__16__treeINS_12__value_typeIiPKN3tns10MemberMetaEEENS_19__map_value_compareIiS6_NS_4lessIiEELb1EEENS_9allocatorIS6_EEE25__emplace_unique_key_argsIiJRiRS5_EEENS_4pairINS_15__tree_iteratorIS6_PNS_11__tree_nodeIS6_PvEElEEbEERKT_DpOT0_, symObjAddr: 0x54B4, symBinAddr: 0x243A4, symSize: 0xC4 }
  - { offsetInCU: 0x2E6D7, offset: 0x1F86D8, size: 0x8, addend: 0x0, symName: __ZNSt3__16__treeINS_12__value_typeIiPKN3tns10MemberMetaEEENS_19__map_value_compareIiS6_NS_4lessIiEELb1EEENS_9allocatorIS6_EEE16__insert_node_atEPNS_15__tree_end_nodeIPNS_16__tree_node_baseIPvEEEERSI_SI_, symObjAddr: 0x5578, symBinAddr: 0x24468, symSize: 0x54 }
  - { offsetInCU: 0x2E741, offset: 0x1F8742, size: 0x8, addend: 0x0, symName: '__ZNSt3__110__function6__funcIZNK3tns13BaseClassMeta7membersEPKcmNS2_10MemberTypeEbbRKNS_6vectorIPKNS2_12ProtocolMetaENS_9allocatorISA_EEEEE3$_4NSB_ISG_EEFvPKNS2_10MemberMetaEEED1Ev', symObjAddr: 0x55CC, symBinAddr: 0x244BC, symSize: 0x4 }
  - { offsetInCU: 0x2E76C, offset: 0x1F876D, size: 0x8, addend: 0x0, symName: '__ZNSt3__110__function6__funcIZNK3tns13BaseClassMeta7membersEPKcmNS2_10MemberTypeEbbRKNS_6vectorIPKNS2_12ProtocolMetaENS_9allocatorISA_EEEEE3$_4NSB_ISG_EEFvPKNS2_10MemberMetaEEED0Ev', symObjAddr: 0x55D0, symBinAddr: 0x244C0, symSize: 0x4 }
  - { offsetInCU: 0x2E970, offset: 0x1F8971, size: 0x8, addend: 0x0, symName: '__ZNKSt3__110__function6__funcIZNK3tns13BaseClassMeta7membersEPKcmNS2_10MemberTypeEbbRKNS_6vectorIPKNS2_12ProtocolMetaENS_9allocatorISA_EEEEE3$_4NSB_ISG_EEFvPKNS2_10MemberMetaEEE7__cloneEv', symObjAddr: 0x55D4, symBinAddr: 0x244C4, symSize: 0x34 }
  - { offsetInCU: 0x2EC6E, offset: 0x1F8C6F, size: 0x8, addend: 0x0, symName: '__ZNKSt3__110__function6__funcIZNK3tns13BaseClassMeta7membersEPKcmNS2_10MemberTypeEbbRKNS_6vectorIPKNS2_12ProtocolMetaENS_9allocatorISA_EEEEE3$_4NSB_ISG_EEFvPKNS2_10MemberMetaEEE7__cloneEPNS0_6__baseISL_EE', symObjAddr: 0x5608, symBinAddr: 0x244F8, symSize: 0x14 }
  - { offsetInCU: 0x2ECA5, offset: 0x1F8CA6, size: 0x8, addend: 0x0, symName: '__ZNKSt3__110__function6__funcIZNK3tns13BaseClassMeta7membersEPKcmNS2_10MemberTypeEbbRKNS_6vectorIPKNS2_12ProtocolMetaENS_9allocatorISA_EEEEE3$_4NSB_ISG_EEFvPKNS2_10MemberMetaEEE7__cloneEPNS0_6__baseISL_EE', symObjAddr: 0x5608, symBinAddr: 0x244F8, symSize: 0x14 }
  - { offsetInCU: 0x2ECD4, offset: 0x1F8CD5, size: 0x8, addend: 0x0, symName: '__ZNKSt3__110__function6__funcIZNK3tns13BaseClassMeta7membersEPKcmNS2_10MemberTypeEbbRKNS_6vectorIPKNS2_12ProtocolMetaENS_9allocatorISA_EEEEE3$_4NSB_ISG_EEFvPKNS2_10MemberMetaEEE7__cloneEPNS0_6__baseISL_EE', symObjAddr: 0x5608, symBinAddr: 0x244F8, symSize: 0x14 }
  - { offsetInCU: 0x2ED03, offset: 0x1F8D04, size: 0x8, addend: 0x0, symName: '__ZNKSt3__110__function6__funcIZNK3tns13BaseClassMeta7membersEPKcmNS2_10MemberTypeEbbRKNS_6vectorIPKNS2_12ProtocolMetaENS_9allocatorISA_EEEEE3$_4NSB_ISG_EEFvPKNS2_10MemberMetaEEE7__cloneEPNS0_6__baseISL_EE', symObjAddr: 0x5608, symBinAddr: 0x244F8, symSize: 0x14 }
  - { offsetInCU: 0x2ED19, offset: 0x1F8D1A, size: 0x8, addend: 0x0, symName: '__ZNKSt3__110__function6__funcIZNK3tns13BaseClassMeta7membersEPKcmNS2_10MemberTypeEbbRKNS_6vectorIPKNS2_12ProtocolMetaENS_9allocatorISA_EEEEE3$_4NSB_ISG_EEFvPKNS2_10MemberMetaEEE7__cloneEPNS0_6__baseISL_EE', symObjAddr: 0x5608, symBinAddr: 0x244F8, symSize: 0x14 }
  - { offsetInCU: 0x2ED2D, offset: 0x1F8D2E, size: 0x8, addend: 0x0, symName: '__ZNKSt3__110__function6__funcIZNK3tns13BaseClassMeta7membersEPKcmNS2_10MemberTypeEbbRKNS_6vectorIPKNS2_12ProtocolMetaENS_9allocatorISA_EEEEE3$_4NSB_ISG_EEFvPKNS2_10MemberMetaEEE7__cloneEPNS0_6__baseISL_EE', symObjAddr: 0x5608, symBinAddr: 0x244F8, symSize: 0x14 }
  - { offsetInCU: 0x2ED41, offset: 0x1F8D42, size: 0x8, addend: 0x0, symName: '__ZNKSt3__110__function6__funcIZNK3tns13BaseClassMeta7membersEPKcmNS2_10MemberTypeEbbRKNS_6vectorIPKNS2_12ProtocolMetaENS_9allocatorISA_EEEEE3$_4NSB_ISG_EEFvPKNS2_10MemberMetaEEE7__cloneEPNS0_6__baseISL_EE', symObjAddr: 0x5608, symBinAddr: 0x244F8, symSize: 0x14 }
  - { offsetInCU: 0x2ED56, offset: 0x1F8D57, size: 0x8, addend: 0x0, symName: '__ZNKSt3__110__function6__funcIZNK3tns13BaseClassMeta7membersEPKcmNS2_10MemberTypeEbbRKNS_6vectorIPKNS2_12ProtocolMetaENS_9allocatorISA_EEEEE3$_4NSB_ISG_EEFvPKNS2_10MemberMetaEEE7__cloneEPNS0_6__baseISL_EE', symObjAddr: 0x5608, symBinAddr: 0x244F8, symSize: 0x14 }
  - { offsetInCU: 0x2ED6E, offset: 0x1F8D6F, size: 0x8, addend: 0x0, symName: '__ZNSt3__110__function6__funcIZNK3tns13BaseClassMeta7membersEPKcmNS2_10MemberTypeEbbRKNS_6vectorIPKNS2_12ProtocolMetaENS_9allocatorISA_EEEEE3$_4NSB_ISG_EEFvPKNS2_10MemberMetaEEE7destroyEv', symObjAddr: 0x561C, symBinAddr: 0x2450C, symSize: 0x4 }
  - { offsetInCU: 0x2EDBD, offset: 0x1F8DBE, size: 0x8, addend: 0x0, symName: '__ZNSt3__110__function6__funcIZNK3tns13BaseClassMeta7membersEPKcmNS2_10MemberTypeEbbRKNS_6vectorIPKNS2_12ProtocolMetaENS_9allocatorISA_EEEEE3$_4NSB_ISG_EEFvPKNS2_10MemberMetaEEE18destroy_deallocateEv', symObjAddr: 0x5620, symBinAddr: 0x24510, symSize: 0x4 }
  - { offsetInCU: 0x2EDF2, offset: 0x1F8DF3, size: 0x8, addend: 0x0, symName: '__ZNSt3__110__function6__funcIZNK3tns13BaseClassMeta7membersEPKcmNS2_10MemberTypeEbbRKNS_6vectorIPKNS2_12ProtocolMetaENS_9allocatorISA_EEEEE3$_4NSB_ISG_EEFvPKNS2_10MemberMetaEEE18destroy_deallocateEv', symObjAddr: 0x5620, symBinAddr: 0x24510, symSize: 0x4 }
  - { offsetInCU: 0x2EE16, offset: 0x1F8E17, size: 0x8, addend: 0x0, symName: '__ZNSt3__110__function6__funcIZNK3tns13BaseClassMeta7membersEPKcmNS2_10MemberTypeEbbRKNS_6vectorIPKNS2_12ProtocolMetaENS_9allocatorISA_EEEEE3$_4NSB_ISG_EEFvPKNS2_10MemberMetaEEE18destroy_deallocateEv', symObjAddr: 0x5620, symBinAddr: 0x24510, symSize: 0x4 }
  - { offsetInCU: 0x2EE42, offset: 0x1F8E43, size: 0x8, addend: 0x0, symName: '__ZNSt3__110__function6__funcIZNK3tns13BaseClassMeta7membersEPKcmNS2_10MemberTypeEbbRKNS_6vectorIPKNS2_12ProtocolMetaENS_9allocatorISA_EEEEE3$_4NSB_ISG_EEFvPKNS2_10MemberMetaEEE18destroy_deallocateEv', symObjAddr: 0x5620, symBinAddr: 0x24510, symSize: 0x4 }
  - { offsetInCU: 0x2EE69, offset: 0x1F8E6A, size: 0x8, addend: 0x0, symName: '__ZNSt3__110__function6__funcIZNK3tns13BaseClassMeta7membersEPKcmNS2_10MemberTypeEbbRKNS_6vectorIPKNS2_12ProtocolMetaENS_9allocatorISA_EEEEE3$_4NSB_ISG_EEFvPKNS2_10MemberMetaEEE18destroy_deallocateEv', symObjAddr: 0x5620, symBinAddr: 0x24510, symSize: 0x4 }
  - { offsetInCU: 0x2EF11, offset: 0x1F8F12, size: 0x8, addend: 0x0, symName: '__ZNSt3__110__function6__funcIZNK3tns13BaseClassMeta7membersEPKcmNS2_10MemberTypeEbbRKNS_6vectorIPKNS2_12ProtocolMetaENS_9allocatorISA_EEEEE3$_4NSB_ISG_EEFvPKNS2_10MemberMetaEEEclEOSK_', symObjAddr: 0x5624, symBinAddr: 0x24514, symSize: 0x30 }
  - { offsetInCU: 0x2F098, offset: 0x1F9099, size: 0x8, addend: 0x0, symName: __ZNSt3__16__treeIPKN3tns10MemberMetaENS_4lessIS4_EENS_9allocatorIS4_EEE30__emplace_hint_unique_key_argsIS4_JRKS4_EEENS_4pairINS_15__tree_iteratorIS4_PNS_11__tree_nodeIS4_PvEElEEbEENS_21__tree_const_iteratorIS4_SI_lEERKT_DpOT0_, symObjAddr: 0x56D8, symBinAddr: 0x245C8, symSize: 0x84 }
  - { offsetInCU: 0x2F2B9, offset: 0x1F92BA, size: 0x8, addend: 0x0, symName: __ZNSt3__16__treeIPKN3tns10MemberMetaENS_4lessIS4_EENS_9allocatorIS4_EEE12__find_equalIS4_EERPNS_16__tree_node_baseIPvEENS_21__tree_const_iteratorIS4_PNS_11__tree_nodeIS4_SC_EElEERPNS_15__tree_end_nodeISE_EESF_RKT_, symObjAddr: 0x575C, symBinAddr: 0x2464C, symSize: 0x1AC }
  - { offsetInCU: 0x2F322, offset: 0x1F9323, size: 0x8, addend: 0x0, symName: __ZNSt3__16__treeIPKN3tns10MemberMetaENS_4lessIS4_EENS_9allocatorIS4_EEE12__find_equalIS4_EERPNS_16__tree_node_baseIPvEENS_21__tree_const_iteratorIS4_PNS_11__tree_nodeIS4_SC_EElEERPNS_15__tree_end_nodeISE_EESF_RKT_, symObjAddr: 0x575C, symBinAddr: 0x2464C, symSize: 0x1AC }
  - { offsetInCU: 0x2F33F, offset: 0x1F9340, size: 0x8, addend: 0x0, symName: __ZNSt3__16__treeIPKN3tns10MemberMetaENS_4lessIS4_EENS_9allocatorIS4_EEE12__find_equalIS4_EERPNS_16__tree_node_baseIPvEENS_21__tree_const_iteratorIS4_PNS_11__tree_nodeIS4_SC_EElEERPNS_15__tree_end_nodeISE_EESF_RKT_, symObjAddr: 0x575C, symBinAddr: 0x2464C, symSize: 0x1AC }
  - { offsetInCU: 0x26, offset: 0x1F9A70, size: 0x8, addend: 0x0, symName: __ZN4rnv815createV8RuntimeEv, symObjAddr: 0x0, symBinAddr: 0x247F8, symSize: 0x44 }
  - { offsetInCU: 0x4809, offset: 0x1FE253, size: 0x8, addend: 0x0, symName: __ZN4rnv815createV8RuntimeEv, symObjAddr: 0x0, symBinAddr: 0x247F8, symSize: 0x44 }
  - { offsetInCU: 0x11951, offset: 0x211C4C, size: 0x8, addend: 0x0, symName: '-[DictionaryAdapterMapKeysEnumerator initWithMap:isolate:cache:]', symObjAddr: 0x0, symBinAddr: 0x2483C, symSize: 0x110 }
  - { offsetInCU: 0x11C2B, offset: 0x211F26, size: 0x8, addend: 0x0, symName: __ZNSt3__110shared_ptrIN2v810PersistentINS1_5ValueENS1_27NonCopyablePersistentTraitsIS3_EEEEEaSB7v160006ERKS7_, symObjAddr: 0x110, symBinAddr: 0x2494C, symSize: 0x78 }
  - { offsetInCU: 0x12182, offset: 0x21247D, size: 0x8, addend: 0x0, symName: '-[DictionaryAdapterMapKeysEnumerator nextObject]', symObjAddr: 0x188, symBinAddr: 0x249C4, symSize: 0x244 }
  - { offsetInCU: 0x12A56, offset: 0x212D51, size: 0x8, addend: 0x0, symName: '-[DictionaryAdapterMapKeysEnumerator dealloc]', symObjAddr: 0x498, symBinAddr: 0x24C08, symSize: 0xA4 }
  - { offsetInCU: 0x12C94, offset: 0x212F8F, size: 0x8, addend: 0x0, symName: '-[DictionaryAdapterMapKeysEnumerator .cxx_destruct]', symObjAddr: 0x5A0, symBinAddr: 0x24CAC, symSize: 0x10 }
  - { offsetInCU: 0x12D6E, offset: 0x213069, size: 0x8, addend: 0x0, symName: '-[DictionaryAdapterMapKeysEnumerator .cxx_construct]', symObjAddr: 0x5B0, symBinAddr: 0x24CBC, symSize: 0x14 }
  - { offsetInCU: 0x12DDB, offset: 0x2130D6, size: 0x8, addend: 0x0, symName: '-[DictionaryAdapterObjectKeysEnumerator initWithProperties:isolate:cache:]', symObjAddr: 0x5C4, symBinAddr: 0x24CD0, symSize: 0x110 }
  - { offsetInCU: 0x13180, offset: 0x21347B, size: 0x8, addend: 0x0, symName: '-[DictionaryAdapterObjectKeysEnumerator getProperties]', symObjAddr: 0x6D4, symBinAddr: 0x24DE0, symSize: 0x1E4 }
  - { offsetInCU: 0x139CE, offset: 0x213CC9, size: 0x8, addend: 0x0, symName: '-[DictionaryAdapterObjectKeysEnumerator nextObject]', symObjAddr: 0x8B8, symBinAddr: 0x24FC4, symSize: 0x250 }
  - { offsetInCU: 0x14392, offset: 0x21468D, size: 0x8, addend: 0x0, symName: '-[DictionaryAdapterObjectKeysEnumerator allObjects]', symObjAddr: 0xBC4, symBinAddr: 0x25214, symSize: 0x26C }
  - { offsetInCU: 0x14B43, offset: 0x214E3E, size: 0x8, addend: 0x0, symName: '-[DictionaryAdapterObjectKeysEnumerator dealloc]', symObjAddr: 0xE30, symBinAddr: 0x25480, symSize: 0xA4 }
  - { offsetInCU: 0x14C6F, offset: 0x214F6A, size: 0x8, addend: 0x0, symName: '-[DictionaryAdapterObjectKeysEnumerator .cxx_destruct]', symObjAddr: 0xED4, symBinAddr: 0x25524, symSize: 0x10 }
  - { offsetInCU: 0x14CCB, offset: 0x214FC6, size: 0x8, addend: 0x0, symName: '-[DictionaryAdapterObjectKeysEnumerator .cxx_construct]', symObjAddr: 0xEE4, symBinAddr: 0x25534, symSize: 0x14 }
  - { offsetInCU: 0x14DBE, offset: 0x2150B9, size: 0x8, addend: 0x0, symName: '-[DictionaryAdapter initWithJSObject:isolate:]', symObjAddr: 0xEF8, symBinAddr: 0x25548, symSize: 0x248 }
  - { offsetInCU: 0x15459, offset: 0x215754, size: 0x8, addend: 0x0, symName: __ZN10robin_hood6detail5TableILb1ELm80EP11objc_objectNSt3__110shared_ptrIN2v810PersistentINS6_5ValueENS6_27NonCopyablePersistentTraitsIS8_EEEEEENS_4hashIS3_vEENS4_8equal_toIS3_EEE7emplaceIJRP17DictionaryAdapterRSC_EEENS4_4pairINSH_4IterILb0EEEbEEDpOT_, symObjAddr: 0x1140, symBinAddr: 0x25790, symSize: 0x148 }
  - { offsetInCU: 0x15DDE, offset: 0x2160D9, size: 0x8, addend: 0x0, symName: '-[DictionaryAdapter count]', symObjAddr: 0x1288, symBinAddr: 0x258D8, symSize: 0x220 }
  - { offsetInCU: 0x16578, offset: 0x216873, size: 0x8, addend: 0x0, symName: '-[DictionaryAdapter objectForKey:]', symObjAddr: 0x14A8, symBinAddr: 0x25AF8, symSize: 0x37C }
  - { offsetInCU: 0x171F3, offset: 0x2174EE, size: 0x8, addend: 0x0, symName: '-[DictionaryAdapter keyEnumerator]', symObjAddr: 0x1824, symBinAddr: 0x25E74, symSize: 0x330 }
  - { offsetInCU: 0x17B2B, offset: 0x217E26, size: 0x8, addend: 0x0, symName: '-[DictionaryAdapter dealloc]', symObjAddr: 0x1B54, symBinAddr: 0x261A4, symSize: 0x260 }
  - { offsetInCU: 0x18305, offset: 0x218600, size: 0x8, addend: 0x0, symName: '-[DictionaryAdapter .cxx_destruct]', symObjAddr: 0x1E78, symBinAddr: 0x26404, symSize: 0x10 }
  - { offsetInCU: 0x18361, offset: 0x21865C, size: 0x8, addend: 0x0, symName: '-[DictionaryAdapter .cxx_construct]', symObjAddr: 0x1E88, symBinAddr: 0x26414, symSize: 0x14 }
  - { offsetInCU: 0x7E58, offset: 0x221508, size: 0x8, addend: 0x0, symName: __ZNSt3__119__allocate_at_leastB7v160006INS_9allocatorINS_10unique_ptrIvPFvPKvEEEEEEENS_19__allocation_resultINS_16allocator_traitsIT_E7pointerEEERSB_m, symObjAddr: 0x1F64, symBinAddr: 0x28084, symSize: 0x34 }
  - { offsetInCU: 0x7EFD, offset: 0x2215AD, size: 0x8, addend: 0x0, symName: __ZNSt3__142__uninitialized_allocator_move_if_noexceptB7v160006INS_9allocatorINS_10unique_ptrIvPFvPKvEEEEENS_16reverse_iteratorIPS7_EESB_SB_EET2_RT_T0_T1_SC_, symObjAddr: 0x1F98, symBinAddr: 0x280B8, symSize: 0x94 }
  - { offsetInCU: 0x80C9, offset: 0x221779, size: 0x8, addend: 0x0, symName: __ZNSt3__115allocate_sharedB7v160006INS_6vectorINS_10shared_ptrIN2v810PersistentINS3_5ValueENS3_27NonCopyablePersistentTraitsIS5_EEEEEENS_9allocatorIS9_EEEENSA_ISC_EEJRiEvEENS2_IT_EERKT0_DpOT1_, symObjAddr: 0x2398, symBinAddr: 0x284B8, symSize: 0x58 }
  - { offsetInCU: 0x8347, offset: 0x2219F7, size: 0x8, addend: 0x0, symName: __ZNSt3__115allocate_sharedB7v160006IN2v810PersistentINS1_5ValueENS1_27NonCopyablePersistentTraitsIS3_EEEENS_9allocatorIS6_EEJRPNS1_7IsolateENS1_5LocalIS3_EEEvEENS_10shared_ptrIT_EERKT0_DpOT1_, symObjAddr: 0x2674, symBinAddr: 0x28794, symSize: 0x60 }
  - { offsetInCU: 0x85E3, offset: 0x221C93, size: 0x8, addend: 0x0, symName: __ZNSt3__115allocate_sharedB7v160006IN3tns9TimerTaskENS_9allocatorIS2_EEJRPN2v87IsolateERNS5_5LocalINS5_8FunctionEEERlRbRNS_10shared_ptrINS_6vectorINSF_INS5_10PersistentINS5_5ValueENS5_27NonCopyablePersistentTraitsISI_EEEEEENS3_ISM_EEEEEERidEvEENSF_IT_EERKT0_DpOT1_, symObjAddr: 0x277C, symBinAddr: 0x2885C, symSize: 0xA0 }
  - { offsetInCU: 0x8CDA, offset: 0x22238A, size: 0x8, addend: 0x0, symName: __ZNSt3__142__uninitialized_allocator_move_if_noexceptB7v160006INS_9allocatorINS_10unique_ptrIvPFvPKvEEEEENS_16reverse_iteratorIPS7_EESB_SB_EET2_RT_T0_T1_SC_, symObjAddr: 0x1F98, symBinAddr: 0x280B8, symSize: 0x94 }
  - { offsetInCU: 0x8FAD, offset: 0x22265D, size: 0x8, addend: 0x0, symName: __ZNSt3__119__allocator_destroyB7v160006INS_9allocatorINS_10unique_ptrIvPFvPKvEEEEENS_16reverse_iteratorINS9_IPS7_EEEESC_EEvRT_T0_T1_, symObjAddr: 0x20D4, symBinAddr: 0x281F4, symSize: 0x60 }
  - { offsetInCU: 0x9180, offset: 0x222830, size: 0x8, addend: 0x0, symName: __ZNSt3__120__throw_out_of_rangeB7v160006EPKc, symObjAddr: 0x2324, symBinAddr: 0x28444, symSize: 0x50 }
  - { offsetInCU: 0x943A, offset: 0x222AEA, size: 0x8, addend: 0x0, symName: __ZNSt3__119__allocate_at_leastB7v160006INS_9allocatorINS_10shared_ptrIN2v810PersistentINS3_5ValueENS3_27NonCopyablePersistentTraitsIS5_EEEEEEEEEENS_19__allocation_resultINS_16allocator_traitsIT_E7pointerEEERSD_m, symObjAddr: 0x2564, symBinAddr: 0x28684, symSize: 0x34 }
  - { offsetInCU: 0x94DF, offset: 0x222B8F, size: 0x8, addend: 0x0, symName: __ZNSt3__128__exception_guard_exceptionsINS_6vectorINS_10shared_ptrIN2v810PersistentINS3_5ValueENS3_27NonCopyablePersistentTraitsIS5_EEEEEENS_9allocatorIS9_EEE16__destroy_vectorEED2B7v160006Ev, symObjAddr: 0x2598, symBinAddr: 0x286B8, symSize: 0x34 }
  - { offsetInCU: 0xA2C6, offset: 0x223976, size: 0x8, addend: 0x0, symName: __ZN3tns13TimerCallbackEP16__CFRunLoopTimerPv, symObjAddr: 0x4F8, symBinAddr: 0x26920, symSize: 0x2D0 }
  - { offsetInCU: 0x10E98, offset: 0x22A548, size: 0x8, addend: 0x0, symName: __ZNSt3__16vectorINS_10unique_ptrIvPFvPKvEEENS_9allocatorIS6_EEE26__swap_out_circular_bufferERNS_14__split_bufferIS6_RS8_EE, symObjAddr: 0x1E68, symBinAddr: 0x27FFC, symSize: 0x74 }
  - { offsetInCU: 0x13224, offset: 0x22C8D4, size: 0x8, addend: 0x0, symName: __ZN3tns6Timers4InitEPN2v87IsolateENS1_5LocalINS1_14ObjectTemplateEEE, symObjAddr: 0x0, symBinAddr: 0x26428, symSize: 0x2F8 }
  - { offsetInCU: 0x13A7E, offset: 0x22D12E, size: 0x8, addend: 0x0, symName: __ZN3tns6Caches24registerCacheBoundObjectINS_10TimerStateEEEvPT_, symObjAddr: 0x2F8, symBinAddr: 0x26720, symSize: 0x114 }
  - { offsetInCU: 0x14497, offset: 0x22DB47, size: 0x8, addend: 0x0, symName: __ZNSt3__114__split_bufferINS_10unique_ptrIvPFvPKvEEERNS_9allocatorIS6_EEED2Ev, symObjAddr: 0x2134, symBinAddr: 0x28254, symSize: 0x34 }
  - { offsetInCU: 0x145A3, offset: 0x22DC53, size: 0x8, addend: 0x0, symName: __ZNKSt3__16vectorINS_10unique_ptrIvPFvPKvEEENS_9allocatorIS6_EEE20__throw_length_errorB7v160006Ev, symObjAddr: 0x1EDC, symBinAddr: 0x28070, symSize: 0x14 }
  - { offsetInCU: 0x14601, offset: 0x22DCB1, size: 0x8, addend: 0x0, symName: __ZZN3tns6Caches11unique_voidINS_10TimerStateEEENSt3__110unique_ptrIvPFvPKvEEEPT_ENUlS6_E_8__invokeES6_, symObjAddr: 0x21C0, symBinAddr: 0x282E0, symSize: 0x40 }
  - { offsetInCU: 0x146BB, offset: 0x22DD6B, size: 0x8, addend: 0x0, symName: __ZN3tns6Timers18SetTimeoutCallbackERKN2v820FunctionCallbackInfoINS1_5ValueEEE, symObjAddr: 0x40C, symBinAddr: 0x26834, symSize: 0x8 }
  - { offsetInCU: 0x146EE, offset: 0x22DD9E, size: 0x8, addend: 0x0, symName: __ZN3tns6Timers8SetTimerERKN2v820FunctionCallbackInfoINS1_5ValueEEEb, symObjAddr: 0x7C8, symBinAddr: 0x26BF0, symSize: 0x4E8 }
  - { offsetInCU: 0x155F7, offset: 0x22ECA7, size: 0x8, addend: 0x0, symName: __ZN3tns6Timers19SetIntervalCallbackERKN2v820FunctionCallbackInfoINS1_5ValueEEE, symObjAddr: 0x414, symBinAddr: 0x2683C, symSize: 0x8 }
  - { offsetInCU: 0x158B3, offset: 0x22EF63, size: 0x8, addend: 0x0, symName: __ZN3tns6Timers20ClearTimeoutCallbackERKN2v820FunctionCallbackInfoINS1_5ValueEEE, symObjAddr: 0x41C, symBinAddr: 0x26844, symSize: 0xDC }
  - { offsetInCU: 0x15BFA, offset: 0x22F2AA, size: 0x8, addend: 0x0, symName: __ZN3tns10TimerState10removeTaskERKi, symObjAddr: 0xDD8, symBinAddr: 0x2719C, symSize: 0xAC }
  - { offsetInCU: 0x160F8, offset: 0x22F7A8, size: 0x8, addend: 0x0, symName: __ZNKSt3__16vectorINS_10shared_ptrIN2v810PersistentINS2_5ValueENS2_27NonCopyablePersistentTraitsIS4_EEEEEENS_9allocatorIS8_EEE20__throw_out_of_rangeB7v160006Ev, symObjAddr: 0x2310, symBinAddr: 0x28430, symSize: 0x14 }
  - { offsetInCU: 0x16122, offset: 0x22F7D2, size: 0x8, addend: 0x0, symName: __ZNSt3__120__throw_out_of_rangeB7v160006EPKc, symObjAddr: 0x2324, symBinAddr: 0x28444, symSize: 0x50 }
  - { offsetInCU: 0x1612D, offset: 0x22F7DD, size: 0x8, addend: 0x0, symName: __ZNSt3__110shared_ptrIN3tns9TimerTaskEED2B7v160006Ev, symObjAddr: 0x1E10, symBinAddr: 0x27FA4, symSize: 0x58 }
  - { offsetInCU: 0x16566, offset: 0x22FC16, size: 0x8, addend: 0x0, symName: __ZNSt3__110shared_ptrIN3tns9TimerTaskEEaSB7v160006ERKS3_, symObjAddr: 0xD14, symBinAddr: 0x270D8, symSize: 0x78 }
  - { offsetInCU: 0x167F9, offset: 0x22FEA9, size: 0x8, addend: 0x0, symName: __ZN10robin_hood6detail5TableILb1ELm80EiNSt3__110shared_ptrIN3tns9TimerTaskEEENS_4hashIivEENS2_8equal_toIiEEE7emplaceIJRiRS6_EEENS2_4pairINSB_4IterILb0EEEbEEDpOT_, symObjAddr: 0x10B4, symBinAddr: 0x27344, symSize: 0x150 }
  - { offsetInCU: 0x16D60, offset: 0x230410, size: 0x8, addend: 0x0, symName: __ZN3tns12TimerContext12TimerReleaseEPKv, symObjAddr: 0xDA0, symBinAddr: 0x27164, symSize: 0x38 }
  - { offsetInCU: 0x16E2F, offset: 0x2304DF, size: 0x8, addend: 0x0, symName: __ZNSt3__110shared_ptrINS_6vectorINS0_IN2v810PersistentINS2_5ValueENS2_27NonCopyablePersistentTraitsIS4_EEEEEENS_9allocatorIS8_EEEEED2B7v160006Ev, symObjAddr: 0x1DB8, symBinAddr: 0x27F4C, symSize: 0x58 }
  - { offsetInCU: 0x16F4C, offset: 0x2305FC, size: 0x8, addend: 0x0, symName: __ZN3tns12TimerContext11TimerRetainEPKv, symObjAddr: 0xD8C, symBinAddr: 0x27150, symSize: 0x14 }
  - { offsetInCU: 0x16F73, offset: 0x230623, size: 0x8, addend: 0x0, symName: __ZN3tns12TimerContext11TimerRetainEPKv, symObjAddr: 0xD8C, symBinAddr: 0x27150, symSize: 0x14 }
  - { offsetInCU: 0x16F95, offset: 0x230645, size: 0x8, addend: 0x0, symName: __ZN3tns12TimerContext11TimerRetainEPKv, symObjAddr: 0xD8C, symBinAddr: 0x27150, symSize: 0x14 }
  - { offsetInCU: 0x16FC0, offset: 0x230670, size: 0x8, addend: 0x0, symName: __ZN3tns12TimerContext11TimerRetainEPKv, symObjAddr: 0xD8C, symBinAddr: 0x27150, symSize: 0x14 }
  - { offsetInCU: 0x17047, offset: 0x2306F7, size: 0x8, addend: 0x0, symName: __ZN3tns12TimerContextD2Ev, symObjAddr: 0xFE4, symBinAddr: 0x27274, symSize: 0x74 }
  - { offsetInCU: 0x171C6, offset: 0x230876, size: 0x8, addend: 0x0, symName: __ZNK10robin_hood6detail5TableILb1ELm80EiNSt3__110shared_ptrIN3tns9TimerTaskEEENS_4hashIivEENS2_8equal_toIiEEE7findIdxIiEEmRKT_, symObjAddr: 0x1B80, symBinAddr: 0x27DC4, symSize: 0xE8 }
  - { offsetInCU: 0x17223, offset: 0x2308D3, size: 0x8, addend: 0x0, symName: __ZNK10robin_hood6detail5TableILb1ELm80EiNSt3__110shared_ptrIN3tns9TimerTaskEEENS_4hashIivEENS2_8equal_toIiEEE7findIdxIiEEmRKT_, symObjAddr: 0x1B80, symBinAddr: 0x27DC4, symSize: 0xE8 }
  - { offsetInCU: 0x17251, offset: 0x230901, size: 0x8, addend: 0x0, symName: __ZNK10robin_hood6detail5TableILb1ELm80EiNSt3__110shared_ptrIN3tns9TimerTaskEEENS_4hashIivEENS2_8equal_toIiEEE7findIdxIiEEmRKT_, symObjAddr: 0x1B80, symBinAddr: 0x27DC4, symSize: 0xE8 }
  - { offsetInCU: 0x1735E, offset: 0x230A0E, size: 0x8, addend: 0x0, symName: __ZNSt3__110shared_ptrINS_6vectorINS0_IN2v810PersistentINS2_5ValueENS2_27NonCopyablePersistentTraitsIS4_EEEEEENS_9allocatorIS8_EEEEE5resetB7v160006Ev, symObjAddr: 0x1058, symBinAddr: 0x272E8, symSize: 0x5C }
  - { offsetInCU: 0x17455, offset: 0x230B05, size: 0x8, addend: 0x0, symName: __ZN10robin_hood6detail5TableILb1ELm80EiNSt3__110shared_ptrIN3tns9TimerTaskEEENS_4hashIivEENS2_8equal_toIiEEE5eraseENSB_4IterILb0EEE, symObjAddr: 0x1AE0, symBinAddr: 0x27D24, symSize: 0xA0 }
  - { offsetInCU: 0x1750C, offset: 0x230BBC, size: 0x8, addend: 0x0, symName: __Z24_register_isolate_timersPN2v87IsolateENS_5LocalINS_16FunctionTemplateEEE, symObjAddr: 0xE84, symBinAddr: 0x27248, symSize: 0x2C }
  - { offsetInCU: 0x17B6E, offset: 0x23121E, size: 0x8, addend: 0x0, symName: __ZN10robin_hood6detail5TableILb1ELm80EiNSt3__110shared_ptrIN3tns9TimerTaskEEENS_4hashIivEENS2_8equal_toIiEEE25insertKeyPrepareEmptySpotIRKiEENS2_4pairImNSB_14InsertionStateEEEOT_, symObjAddr: 0x1204, symBinAddr: 0x27494, symSize: 0x1A0 }
  - { offsetInCU: 0x17D28, offset: 0x2313D8, size: 0x8, addend: 0x0, symName: __ZNSt3__110shared_ptrIN3tns9TimerTaskEEaSB7v160006EOS3_, symObjAddr: 0x1A58, symBinAddr: 0x27CC0, symSize: 0x64 }
  - { offsetInCU: 0x17E86, offset: 0x231536, size: 0x8, addend: 0x0, symName: __ZNK10robin_hood6detail5TableILb1ELm80EiNSt3__110shared_ptrIN3tns9TimerTaskEEENS_4hashIivEENS2_8equal_toIiEEE18throwOverflowErrorEv, symObjAddr: 0x13A4, symBinAddr: 0x27634, symSize: 0x50 }
  - { offsetInCU: 0x17FCB, offset: 0x23167B, size: 0x8, addend: 0x0, symName: __ZN10robin_hood6detail5TableILb1ELm80EiNSt3__110shared_ptrIN3tns9TimerTaskEEENS_4hashIivEENS2_8equal_toIiEEE13increase_sizeEv, symObjAddr: 0x13F4, symBinAddr: 0x27684, symSize: 0x12C }
  - { offsetInCU: 0x18095, offset: 0x231745, size: 0x8, addend: 0x0, symName: __ZN10robin_hood6detail5TableILb1ELm80EiNSt3__110shared_ptrIN3tns9TimerTaskEEENS_4hashIivEENS2_8equal_toIiEEE7shiftUpEmm, symObjAddr: 0x1520, symBinAddr: 0x277B0, symSize: 0xEC }
  - { offsetInCU: 0x18288, offset: 0x231938, size: 0x8, addend: 0x0, symName: __ZN10robin_hood6detail5TableILb1ELm80EiNSt3__110shared_ptrIN3tns9TimerTaskEEENS_4hashIivEENS2_8equal_toIiEEE17try_increase_infoEv, symObjAddr: 0x16E8, symBinAddr: 0x27978, symSize: 0x100 }
  - { offsetInCU: 0x18392, offset: 0x231A42, size: 0x8, addend: 0x0, symName: __ZN10robin_hood6detail5TableILb1ELm80EiNSt3__110shared_ptrIN3tns9TimerTaskEEENS_4hashIivEENS2_8equal_toIiEEE8initDataEm, symObjAddr: 0x160C, symBinAddr: 0x2789C, symSize: 0xDC }
  - { offsetInCU: 0x184A6, offset: 0x231B56, size: 0x8, addend: 0x0, symName: __ZN10robin_hood6detail5TableILb1ELm80EiNSt3__110shared_ptrIN3tns9TimerTaskEEENS_4hashIivEENS2_8equal_toIiEEE17try_increase_infoEv, symObjAddr: 0x16E8, symBinAddr: 0x27978, symSize: 0x100 }
  - { offsetInCU: 0x184B1, offset: 0x231B61, size: 0x8, addend: 0x0, symName: __ZN10robin_hood6detail5TableILb1ELm80EiNSt3__110shared_ptrIN3tns9TimerTaskEEENS_4hashIivEENS2_8equal_toIiEEE16rehashPowerOfTwoEmb, symObjAddr: 0x17E8, symBinAddr: 0x27A78, symSize: 0xF8 }
  - { offsetInCU: 0x1870D, offset: 0x231DBD, size: 0x8, addend: 0x0, symName: __ZN10robin_hood6detail5TableILb1ELm80EiNSt3__110shared_ptrIN3tns9TimerTaskEEENS_4hashIivEENS2_8equal_toIiEEE11insert_moveEONSB_8DataNodeISB_Lb1EEE, symObjAddr: 0x1908, symBinAddr: 0x27B70, symSize: 0x150 }
  - { offsetInCU: 0x18A46, offset: 0x2320F6, size: 0x8, addend: 0x0, symName: __ZN10robin_hood6detail5TableILb1ELm80EiNSt3__110shared_ptrIN3tns9TimerTaskEEENS_4hashIivEENS2_8equal_toIiEEE9shiftDownEm, symObjAddr: 0x1C68, symBinAddr: 0x27EAC, symSize: 0xA0 }
  - { offsetInCU: 0x18CBB, offset: 0x23236B, size: 0x8, addend: 0x0, symName: __ZNSt3__128__exception_guard_exceptionsINS_29_AllocatorDestroyRangeReverseINS_9allocatorINS_10unique_ptrIvPFvPKvEEEEENS_16reverse_iteratorIPS8_EEEEED2B7v160006Ev, symObjAddr: 0x202C, symBinAddr: 0x2814C, symSize: 0x34 }
  - { offsetInCU: 0x18CF4, offset: 0x2323A4, size: 0x8, addend: 0x0, symName: __ZNKSt3__129_AllocatorDestroyRangeReverseINS_9allocatorINS_10unique_ptrIvPFvPKvEEEEENS_16reverse_iteratorIPS7_EEEclB7v160006Ev, symObjAddr: 0x2060, symBinAddr: 0x28180, symSize: 0x74 }
  - { offsetInCU: 0x18F09, offset: 0x2325B9, size: 0x8, addend: 0x0, symName: __ZNSt3__114__split_bufferINS_10unique_ptrIvPFvPKvEEERNS_9allocatorIS6_EEE17__destruct_at_endB7v160006EPS6_, symObjAddr: 0x2168, symBinAddr: 0x28288, symSize: 0x58 }
  - { offsetInCU: 0x19098, offset: 0x232748, size: 0x8, addend: 0x0, symName: __ZN10robin_hood6detail5TableILb1ELm80EiNSt3__110shared_ptrIN3tns9TimerTaskEEENS_4hashIivEENS2_8equal_toIiEEE7destroyEv, symObjAddr: 0x2200, symBinAddr: 0x28320, symSize: 0x4C }
  - { offsetInCU: 0x190D7, offset: 0x232787, size: 0x8, addend: 0x0, symName: __ZNK10robin_hood6detail5TableILb1ELm80EiNSt3__110shared_ptrIN3tns9TimerTaskEEENS_4hashIivEENS2_8equal_toIiEEE9DestroyerISB_Lb0EE20nodesDoNotDeallocateERSB_, symObjAddr: 0x224C, symBinAddr: 0x2836C, symSize: 0xC4 }
  - { offsetInCU: 0x1927D, offset: 0x23292D, size: 0x8, addend: 0x0, symName: __ZNSt12out_of_rangeC1B7v160006EPKc, symObjAddr: 0x2374, symBinAddr: 0x28494, symSize: 0x24 }
  - { offsetInCU: 0x19518, offset: 0x232BC8, size: 0x8, addend: 0x0, symName: __ZNSt3__120__shared_ptr_emplaceINS_6vectorINS_10shared_ptrIN2v810PersistentINS3_5ValueENS3_27NonCopyablePersistentTraitsIS5_EEEEEENS_9allocatorIS9_EEEENSA_ISC_EEEC2B7v160006IJRiEEESD_DpOT_, symObjAddr: 0x23F0, symBinAddr: 0x28510, symSize: 0x50 }
  - { offsetInCU: 0x19611, offset: 0x232CC1, size: 0x8, addend: 0x0, symName: __ZNSt3__16vectorINS_10shared_ptrIN2v810PersistentINS2_5ValueENS2_27NonCopyablePersistentTraitsIS4_EEEEEENS_9allocatorIS8_EEEC2Em, symObjAddr: 0x2484, symBinAddr: 0x285A4, symSize: 0x8C }
  - { offsetInCU: 0x19894, offset: 0x232F44, size: 0x8, addend: 0x0, symName: __ZNSt3__120__shared_ptr_emplaceINS_6vectorINS_10shared_ptrIN2v810PersistentINS3_5ValueENS3_27NonCopyablePersistentTraitsIS5_EEEEEENS_9allocatorIS9_EEEENSA_ISC_EEED1Ev, symObjAddr: 0x2440, symBinAddr: 0x28560, symSize: 0x14 }
  - { offsetInCU: 0x198B6, offset: 0x232F66, size: 0x8, addend: 0x0, symName: __ZNSt3__120__shared_ptr_emplaceINS_6vectorINS_10shared_ptrIN2v810PersistentINS3_5ValueENS3_27NonCopyablePersistentTraitsIS5_EEEEEENS_9allocatorIS9_EEEENSA_ISC_EEED1Ev, symObjAddr: 0x2440, symBinAddr: 0x28560, symSize: 0x14 }
  - { offsetInCU: 0x198ED, offset: 0x232F9D, size: 0x8, addend: 0x0, symName: __ZNSt3__120__shared_ptr_emplaceINS_6vectorINS_10shared_ptrIN2v810PersistentINS3_5ValueENS3_27NonCopyablePersistentTraitsIS5_EEEEEENS_9allocatorIS9_EEEENSA_ISC_EEED0Ev, symObjAddr: 0x2454, symBinAddr: 0x28574, symSize: 0x24 }
  - { offsetInCU: 0x1996C, offset: 0x23301C, size: 0x8, addend: 0x0, symName: __ZNSt3__120__shared_ptr_emplaceINS_6vectorINS_10shared_ptrIN2v810PersistentINS3_5ValueENS3_27NonCopyablePersistentTraitsIS5_EEEEEENS_9allocatorIS9_EEEENSA_ISC_EEE16__on_zero_sharedEv, symObjAddr: 0x2478, symBinAddr: 0x28598, symSize: 0x8 }
  - { offsetInCU: 0x19996, offset: 0x233046, size: 0x8, addend: 0x0, symName: __ZNSt3__120__shared_ptr_emplaceINS_6vectorINS_10shared_ptrIN2v810PersistentINS3_5ValueENS3_27NonCopyablePersistentTraitsIS5_EEEEEENS_9allocatorIS9_EEEENSA_ISC_EEE16__on_zero_sharedEv, symObjAddr: 0x2478, symBinAddr: 0x28598, symSize: 0x8 }
  - { offsetInCU: 0x199DD, offset: 0x23308D, size: 0x8, addend: 0x0, symName: __ZNSt3__16vectorINS_10shared_ptrIN2v810PersistentINS2_5ValueENS2_27NonCopyablePersistentTraitsIS4_EEEEEENS_9allocatorIS8_EEED2B7v160006Ev, symObjAddr: 0x263C, symBinAddr: 0x2875C, symSize: 0x38 }
  - { offsetInCU: 0x19A64, offset: 0x233114, size: 0x8, addend: 0x0, symName: __ZNSt3__120__shared_ptr_emplaceINS_6vectorINS_10shared_ptrIN2v810PersistentINS3_5ValueENS3_27NonCopyablePersistentTraitsIS5_EEEEEENS_9allocatorIS9_EEEENSA_ISC_EEE21__on_zero_shared_weakEv, symObjAddr: 0x2480, symBinAddr: 0x285A0, symSize: 0x4 }
  - { offsetInCU: 0x19A98, offset: 0x233148, size: 0x8, addend: 0x0, symName: __ZNSt3__120__shared_ptr_emplaceINS_6vectorINS_10shared_ptrIN2v810PersistentINS3_5ValueENS3_27NonCopyablePersistentTraitsIS5_EEEEEENS_9allocatorIS9_EEEENSA_ISC_EEE21__on_zero_shared_weakEv, symObjAddr: 0x2480, symBinAddr: 0x285A0, symSize: 0x4 }
  - { offsetInCU: 0x19ABC, offset: 0x23316C, size: 0x8, addend: 0x0, symName: __ZNSt3__120__shared_ptr_emplaceINS_6vectorINS_10shared_ptrIN2v810PersistentINS3_5ValueENS3_27NonCopyablePersistentTraitsIS5_EEEEEENS_9allocatorIS9_EEEENSA_ISC_EEE21__on_zero_shared_weakEv, symObjAddr: 0x2480, symBinAddr: 0x285A0, symSize: 0x4 }
  - { offsetInCU: 0x19AE0, offset: 0x233190, size: 0x8, addend: 0x0, symName: __ZNSt3__120__shared_ptr_emplaceINS_6vectorINS_10shared_ptrIN2v810PersistentINS3_5ValueENS3_27NonCopyablePersistentTraitsIS5_EEEEEENS_9allocatorIS9_EEEENSA_ISC_EEE21__on_zero_shared_weakEv, symObjAddr: 0x2480, symBinAddr: 0x285A0, symSize: 0x4 }
  - { offsetInCU: 0x19B0D, offset: 0x2331BD, size: 0x8, addend: 0x0, symName: __ZNSt3__120__shared_ptr_emplaceINS_6vectorINS_10shared_ptrIN2v810PersistentINS3_5ValueENS3_27NonCopyablePersistentTraitsIS5_EEEEEENS_9allocatorIS9_EEEENSA_ISC_EEE21__on_zero_shared_weakEv, symObjAddr: 0x2480, symBinAddr: 0x285A0, symSize: 0x4 }
  - { offsetInCU: 0x19B35, offset: 0x2331E5, size: 0x8, addend: 0x0, symName: __ZNSt3__120__shared_ptr_emplaceINS_6vectorINS_10shared_ptrIN2v810PersistentINS3_5ValueENS3_27NonCopyablePersistentTraitsIS5_EEEEEENS_9allocatorIS9_EEEENSA_ISC_EEE21__on_zero_shared_weakEv, symObjAddr: 0x2480, symBinAddr: 0x285A0, symSize: 0x4 }
  - { offsetInCU: 0x19D6F, offset: 0x23341F, size: 0x8, addend: 0x0, symName: __ZNSt3__16vectorINS_10shared_ptrIN2v810PersistentINS2_5ValueENS2_27NonCopyablePersistentTraitsIS4_EEEEEENS_9allocatorIS8_EEE11__vallocateB7v160006Em, symObjAddr: 0x2510, symBinAddr: 0x28630, symSize: 0x40 }
  - { offsetInCU: 0x19DE7, offset: 0x233497, size: 0x8, addend: 0x0, symName: __ZNKSt3__16vectorINS_10shared_ptrIN2v810PersistentINS2_5ValueENS2_27NonCopyablePersistentTraitsIS4_EEEEEENS_9allocatorIS8_EEE20__throw_length_errorB7v160006Ev, symObjAddr: 0x2550, symBinAddr: 0x28670, symSize: 0x14 }
  - { offsetInCU: 0x19DF2, offset: 0x2334A2, size: 0x8, addend: 0x0, symName: __ZNSt3__128__exception_guard_exceptionsINS_6vectorINS_10shared_ptrIN2v810PersistentINS3_5ValueENS3_27NonCopyablePersistentTraitsIS5_EEEEEENS_9allocatorIS9_EEE16__destroy_vectorEED2B7v160006Ev, symObjAddr: 0x2598, symBinAddr: 0x286B8, symSize: 0x34 }
  - { offsetInCU: 0x19E40, offset: 0x2334F0, size: 0x8, addend: 0x0, symName: __ZNKSt3__16vectorINS_10shared_ptrIN2v810PersistentINS2_5ValueENS2_27NonCopyablePersistentTraitsIS4_EEEEEENS_9allocatorIS8_EEE20__throw_length_errorB7v160006Ev, symObjAddr: 0x2550, symBinAddr: 0x28670, symSize: 0x14 }
  - { offsetInCU: 0x19E6A, offset: 0x23351A, size: 0x8, addend: 0x0, symName: __ZNSt3__119__allocate_at_leastB7v160006INS_9allocatorINS_10shared_ptrIN2v810PersistentINS3_5ValueENS3_27NonCopyablePersistentTraitsIS5_EEEEEEEEEENS_19__allocation_resultINS_16allocator_traitsIT_E7pointerEEERSD_m, symObjAddr: 0x2564, symBinAddr: 0x28684, symSize: 0x34 }
  - { offsetInCU: 0x19E95, offset: 0x233545, size: 0x8, addend: 0x0, symName: __ZNSt3__16vectorINS_10shared_ptrIN2v810PersistentINS2_5ValueENS2_27NonCopyablePersistentTraitsIS4_EEEEEENS_9allocatorIS8_EEE16__destroy_vectorclB7v160006Ev, symObjAddr: 0x25CC, symBinAddr: 0x286EC, symSize: 0x70 }
  - { offsetInCU: 0x1A358, offset: 0x233A08, size: 0x8, addend: 0x0, symName: __ZNSt3__120__shared_ptr_emplaceIN2v810PersistentINS1_5ValueENS1_27NonCopyablePersistentTraitsIS3_EEEENS_9allocatorIS6_EEEC2B7v160006IJRPNS1_7IsolateENS1_5LocalIS3_EEEEES8_DpOT_, symObjAddr: 0x26D4, symBinAddr: 0x287F4, symSize: 0x68 }
  - { offsetInCU: 0x1A80A, offset: 0x233EBA, size: 0x8, addend: 0x0, symName: __ZNSt3__120__shared_ptr_emplaceIN3tns9TimerTaskENS_9allocatorIS2_EEEC2B7v160006IJRPN2v87IsolateERNS7_5LocalINS7_8FunctionEEERlRbRNS_10shared_ptrINS_6vectorINSH_INS7_10PersistentINS7_5ValueENS7_27NonCopyablePersistentTraitsISK_EEEEEENS3_ISO_EEEEEERidEEES4_DpOT_, symObjAddr: 0x281C, symBinAddr: 0x288FC, symSize: 0x6C }
  - { offsetInCU: 0x1A9E0, offset: 0x234090, size: 0x8, addend: 0x0, symName: __ZN3tns9TimerTaskC2EPN2v87IsolateERKNS1_5LocalINS1_8FunctionEEEdbRKNSt3__110shared_ptrINS9_6vectorINSA_INS1_10PersistentINS1_5ValueENS1_27NonCopyablePersistentTraitsISD_EEEEEENS9_9allocatorISH_EEEEEEid, symObjAddr: 0x28CC, symBinAddr: 0x289AC, symSize: 0x164 }
  - { offsetInCU: 0x1AE82, offset: 0x234532, size: 0x8, addend: 0x0, symName: __ZNSt3__120__shared_ptr_emplaceIN3tns9TimerTaskENS_9allocatorIS2_EEED1Ev, symObjAddr: 0x2888, symBinAddr: 0x28968, symSize: 0x14 }
  - { offsetInCU: 0x1AEA4, offset: 0x234554, size: 0x8, addend: 0x0, symName: __ZNSt3__120__shared_ptr_emplaceIN3tns9TimerTaskENS_9allocatorIS2_EEED1Ev, symObjAddr: 0x2888, symBinAddr: 0x28968, symSize: 0x14 }
  - { offsetInCU: 0x1AEDB, offset: 0x23458B, size: 0x8, addend: 0x0, symName: __ZNSt3__120__shared_ptr_emplaceIN3tns9TimerTaskENS_9allocatorIS2_EEED0Ev, symObjAddr: 0x289C, symBinAddr: 0x2897C, symSize: 0x24 }
  - { offsetInCU: 0x1AF76, offset: 0x234626, size: 0x8, addend: 0x0, symName: __ZNSt3__120__shared_ptr_emplaceIN3tns9TimerTaskENS_9allocatorIS2_EEE16__on_zero_sharedEv, symObjAddr: 0x28C0, symBinAddr: 0x289A0, symSize: 0x8 }
  - { offsetInCU: 0x1AFA0, offset: 0x234650, size: 0x8, addend: 0x0, symName: __ZNSt3__120__shared_ptr_emplaceIN3tns9TimerTaskENS_9allocatorIS2_EEE16__on_zero_sharedEv, symObjAddr: 0x28C0, symBinAddr: 0x289A0, symSize: 0x8 }
  - { offsetInCU: 0x1AFC0, offset: 0x234670, size: 0x8, addend: 0x0, symName: __ZNSt3__120__shared_ptr_emplaceIN3tns9TimerTaskENS_9allocatorIS2_EEE16__on_zero_sharedEv, symObjAddr: 0x28C0, symBinAddr: 0x289A0, symSize: 0x8 }
  - { offsetInCU: 0x1B007, offset: 0x2346B7, size: 0x8, addend: 0x0, symName: __ZNSt3__120__shared_ptr_emplaceIN3tns9TimerTaskENS_9allocatorIS2_EEE21__on_zero_shared_weakEv, symObjAddr: 0x28C8, symBinAddr: 0x289A8, symSize: 0x4 }
  - { offsetInCU: 0x1B03B, offset: 0x2346EB, size: 0x8, addend: 0x0, symName: __ZNSt3__120__shared_ptr_emplaceIN3tns9TimerTaskENS_9allocatorIS2_EEE21__on_zero_shared_weakEv, symObjAddr: 0x28C8, symBinAddr: 0x289A8, symSize: 0x4 }
  - { offsetInCU: 0x1B05F, offset: 0x23470F, size: 0x8, addend: 0x0, symName: __ZNSt3__120__shared_ptr_emplaceIN3tns9TimerTaskENS_9allocatorIS2_EEE21__on_zero_shared_weakEv, symObjAddr: 0x28C8, symBinAddr: 0x289A8, symSize: 0x4 }
  - { offsetInCU: 0x1B083, offset: 0x234733, size: 0x8, addend: 0x0, symName: __ZNSt3__120__shared_ptr_emplaceIN3tns9TimerTaskENS_9allocatorIS2_EEE21__on_zero_shared_weakEv, symObjAddr: 0x28C8, symBinAddr: 0x289A8, symSize: 0x4 }
  - { offsetInCU: 0x1B0AF, offset: 0x23475F, size: 0x8, addend: 0x0, symName: __ZNSt3__120__shared_ptr_emplaceIN3tns9TimerTaskENS_9allocatorIS2_EEE21__on_zero_shared_weakEv, symObjAddr: 0x28C8, symBinAddr: 0x289A8, symSize: 0x4 }
  - { offsetInCU: 0x1B0D6, offset: 0x234786, size: 0x8, addend: 0x0, symName: __ZNSt3__120__shared_ptr_emplaceIN3tns9TimerTaskENS_9allocatorIS2_EEE21__on_zero_shared_weakEv, symObjAddr: 0x28C8, symBinAddr: 0x289A8, symSize: 0x4 }
  - { offsetInCU: 0x26, offset: 0x234988, size: 0x8, addend: 0x0, symName: __ZN3tns9TSHelpers4InitEN2v85LocalINS1_7ContextEEE, symObjAddr: 0x0, symBinAddr: 0x28B10, symSize: 0x214 }
  - { offsetInCU: 0xCEFC, offset: 0x24185E, size: 0x8, addend: 0x0, symName: __ZN3tns9TSHelpers4InitEN2v85LocalINS1_7ContextEEE, symObjAddr: 0x0, symBinAddr: 0x28B10, symSize: 0x214 }
  - { offsetInCU: 0x9F72, offset: 0x24C563, size: 0x8, addend: 0x0, symName: __ZNSt3__1eqB7v160006IcNS_11char_traitsIcEENS_9allocatorIcEEEEbRKNS_12basic_stringIT_T0_T1_EEPKS6_, symObjAddr: 0x4F4, symBinAddr: 0x29218, symSize: 0xA0 }
  - { offsetInCU: 0xCF37, offset: 0x24F528, size: 0x8, addend: 0x0, symName: __ZN3tns15InlineFunctions4InitEN2v85LocalINS1_7ContextEEE, symObjAddr: 0x0, symBinAddr: 0x28D24, symSize: 0x174 }
  - { offsetInCU: 0xDA92, offset: 0x250083, size: 0x8, addend: 0x0, symName: __ZN3tns15InlineFunctions16IsGlobalFunctionENSt3__112basic_stringIcNS1_11char_traitsIcEENS1_9allocatorIcEEEE, symObjAddr: 0x174, symBinAddr: 0x28E98, symSize: 0x380 }
  - { offsetInCU: 0xE1F4, offset: 0x2507E5, size: 0x8, addend: 0x0, symName: __ZNKSt3__112basic_stringIcNS_11char_traitsIcEENS_9allocatorIcEEE20__throw_out_of_rangeB7v160006Ev, symObjAddr: 0x6C4, symBinAddr: 0x292B8, symSize: 0x14 }
  - { offsetInCU: 0x11C7D, offset: 0x262710, size: 0x8, addend: 0x0, symName: __ZNSt3__111make_uniqueB7v160006IN2v810PersistentINS1_8FunctionENS1_27NonCopyablePersistentTraitsIS3_EEEEJRPNS1_7IsolateERNS1_5LocalIS3_EEEEENS_11__unique_ifIT_E15__unique_singleEDpOT0_, symObjAddr: 0x17FC, symBinAddr: 0x2AA0C, symSize: 0x6C }
  - { offsetInCU: 0x128E6, offset: 0x263379, size: 0x8, addend: 0x0, symName: __ZNSt3__114__split_bufferINS_10shared_ptrIN2v810PersistentINS2_5ValueENS2_27NonCopyablePersistentTraitsIS4_EEEEEERNS_9allocatorIS8_EEED2Ev, symObjAddr: 0x10C88, symBinAddr: 0x3752C, symSize: 0x4C }
  - { offsetInCU: 0x13213, offset: 0x263CA6, size: 0x8, addend: 0x0, symName: __ZNSt3__115allocate_sharedB7v160006IN2v810PersistentINS1_5ValueENS1_27NonCopyablePersistentTraitsIS3_EEEENS_9allocatorIS6_EEJRPNS1_7IsolateERNS1_5LocalIS3_EEEvEENS_10shared_ptrIT_EERKT0_DpOT1_, symObjAddr: 0x11644, symBinAddr: 0x37D28, symSize: 0x60 }
  - { offsetInCU: 0x134AF, offset: 0x263F42, size: 0x8, addend: 0x0, symName: __ZNSt3__1plB7v160006IcNS_11char_traitsIcEENS_9allocatorIcEEEENS_12basic_stringIT_T0_T1_EERKS9_SB_, symObjAddr: 0xA4FC, symBinAddr: 0x332AC, symSize: 0xB4 }
  - { offsetInCU: 0x140FF, offset: 0x264B92, size: 0x8, addend: 0x0, symName: __ZNSt3__115allocate_sharedB7v160006IN2v810PersistentINS1_8FunctionENS1_27NonCopyablePersistentTraitsIS3_EEEENS_9allocatorIS6_EEJRPNS1_7IsolateENS1_5LocalIS3_EEEvEENS_10shared_ptrIT_EERKT0_DpOT1_, symObjAddr: 0x119EC, symBinAddr: 0x3805C, symSize: 0x60 }
  - { offsetInCU: 0x14671, offset: 0x265104, size: 0x8, addend: 0x0, symName: __ZNSt3__119__allocate_at_leastB7v160006INS_9allocatorINS_12basic_stringIcNS_11char_traitsIcEENS1_IcEEEEEEEENS_19__allocation_resultINS_16allocator_traitsIT_E7pointerEEERSA_m, symObjAddr: 0x1040C, symBinAddr: 0x37234, symSize: 0x44 }
  - { offsetInCU: 0x14716, offset: 0x2651A9, size: 0x8, addend: 0x0, symName: __ZNSt3__142__uninitialized_allocator_move_if_noexceptB7v160006INS_9allocatorINS_12basic_stringIcNS_11char_traitsIcEENS1_IcEEEEEENS_16reverse_iteratorIPS6_EESA_SA_EET2_RT_T0_T1_SB_, symObjAddr: 0x10450, symBinAddr: 0x37278, symSize: 0x9C }
  - { offsetInCU: 0x1564C, offset: 0x2660DF, size: 0x8, addend: 0x0, symName: __ZNSt3__142__uninitialized_allocator_move_if_noexceptB7v160006INS_9allocatorINS_12basic_stringIcNS_11char_traitsIcEENS1_IcEEEEEENS_16reverse_iteratorIPS6_EESA_SA_EET2_RT_T0_T1_SB_, symObjAddr: 0x10450, symBinAddr: 0x37278, symSize: 0x9C }
  - { offsetInCU: 0x1F90D, offset: 0x2703A0, size: 0x8, addend: 0x0, symName: __ZNSt3__16vectorINS_12basic_stringIcNS_11char_traitsIcEENS_9allocatorIcEEEENS4_IS6_EEE26__swap_out_circular_bufferERNS_14__split_bufferIS6_RS7_EE, symObjAddr: 0x10384, symBinAddr: 0x371AC, symSize: 0x74 }
  - { offsetInCU: 0x1FC03, offset: 0x270696, size: 0x8, addend: 0x0, symName: __ZN3tns15MetadataBuilder17CFunctionCallbackERKN2v820FunctionCallbackInfoINS1_5ValueEEE, symObjAddr: 0x1184, symBinAddr: 0x2A394, symSize: 0x4D0 }
  - { offsetInCU: 0x211A0, offset: 0x271C33, size: 0x8, addend: 0x0, symName: __ZN3tns15MetadataBuilder30SwizzledInstanceMethodCallbackEN2v85LocalINS1_4NameEEENS2_INS1_5ValueEEERKNS1_20PropertyCallbackInfoIS5_EE, symObjAddr: 0x5CF4, symBinAddr: 0x2ED9C, symSize: 0x764 }
  - { offsetInCU: 0x23BEC, offset: 0x27467F, size: 0x8, addend: 0x0, symName: __ZN3tns15MetadataBuilder24SwizzledPropertyCallbackEN2v85LocalINS1_4NameEEERKNS1_18PropertyDescriptorERKNS1_20PropertyCallbackInfoINS1_5ValueEEE, symObjAddr: 0x6458, symBinAddr: 0x2F500, symSize: 0xC58 }
  - { offsetInCU: 0x299B7, offset: 0x27A44A, size: 0x8, addend: 0x0, symName: __ZN3tns15MetadataBuilder31RegisterConstantsOnGlobalObjectEPN2v87IsolateENS1_5LocalINS1_14ObjectTemplateEEEb, symObjAddr: 0x0, symBinAddr: 0x292CC, symSize: 0x118 }
  - { offsetInCU: 0x29D50, offset: 0x27A7E3, size: 0x8, addend: 0x0, symName: __ZN3tns6Caches24registerCacheBoundObjectINS_15MetadataBuilder20GlobalHandlerContextEEEvPT_, symObjAddr: 0x16C, symBinAddr: 0x29438, symSize: 0x110 }
  - { offsetInCU: 0x2A298, offset: 0x27AD2B, size: 0x8, addend: 0x0, symName: __ZN3tns6Caches3GetEPN2v87IsolateE, symObjAddr: 0x118, symBinAddr: 0x293E4, symSize: 0x54 }
  - { offsetInCU: 0x2B3B7, offset: 0x27BE4A, size: 0x8, addend: 0x0, symName: __ZN3tns15MetadataBuilder20GlobalPropertyGetterEN2v85LocalINS1_4NameEEERKNS1_20PropertyCallbackInfoINS1_5ValueEEE, symObjAddr: 0x27C, symBinAddr: 0x29548, symSize: 0xB1C }
  - { offsetInCU: 0x2E49A, offset: 0x27EF2D, size: 0x8, addend: 0x0, symName: __ZNK10robin_hood6detail5TableILb1ELm80ENSt3__112basic_stringIcNS2_11char_traitsIcEENS2_9allocatorIcEEEENS2_10unique_ptrIN2v810PersistentINSA_8FunctionENSA_27NonCopyablePersistentTraitsISC_EEEENS2_14default_deleteISF_EEEENS_4hashIS8_vEENS2_8equal_toIS8_EEE7findIdxIS8_EEmRKT_, symObjAddr: 0xCC40, symBinAddr: 0x3427C, symSize: 0x108 }
  - { offsetInCU: 0x2E4B1, offset: 0x27EF44, size: 0x8, addend: 0x0, symName: __ZN3tns10StructInfoC1ERKS0_, symObjAddr: 0x1F08, symBinAddr: 0x2B0C8, symSize: 0x58 }
  - { offsetInCU: 0x2E642, offset: 0x27F0D5, size: 0x8, addend: 0x0, symName: __ZN3tns15MetadataBuilder29GetOrCreateStructCtorFunctionEN2v85LocalINS1_7ContextEEENS_10StructInfoE, symObjAddr: 0x1AF0, symBinAddr: 0x2ACB0, symSize: 0x418 }
  - { offsetInCU: 0x2FBC4, offset: 0x280657, size: 0x8, addend: 0x0, symName: __ZNK3tns4Meta4nameEv, symObjAddr: 0xE54, symBinAddr: 0x2A064, symSize: 0xE8 }
  - { offsetInCU: 0x2FEE4, offset: 0x280977, size: 0x8, addend: 0x0, symName: __ZNK10robin_hood6detail5TableILb1ELm80ENSt3__112basic_stringIcNS2_11char_traitsIcEENS2_9allocatorIcEEEENS2_10unique_ptrIN2v810PersistentINSA_8FunctionENSA_27NonCopyablePersistentTraitsISC_EEEENS2_14default_deleteISF_EEEENS_4hashIS8_vEENS2_8equal_toIS8_EEE7findIdxIS8_EEmRKT_, symObjAddr: 0xCC40, symBinAddr: 0x3427C, symSize: 0x108 }
  - { offsetInCU: 0x30020, offset: 0x280AB3, size: 0x8, addend: 0x0, symName: __ZNK3tns10JsCodeMeta6jsCodeEv, symObjAddr: 0x1A28, symBinAddr: 0x2AC38, symSize: 0x78 }
  - { offsetInCU: 0x302B3, offset: 0x280D46, size: 0x8, addend: 0x0, symName: __ZNK3tns4Meta14topLevelModuleEv, symObjAddr: 0xFF8, symBinAddr: 0x2A208, symSize: 0x78 }
  - { offsetInCU: 0x30542, offset: 0x280FD5, size: 0x8, addend: 0x0, symName: __ZNK3tns7VarMeta8encodingEv, symObjAddr: 0x19B0, symBinAddr: 0x2ABC0, symSize: 0x78 }
  - { offsetInCU: 0x30837, offset: 0x2812CA, size: 0x8, addend: 0x0, symName: __ZN3tns6Caches24registerCacheBoundObjectINS_15MetadataBuilder9CacheItemINS_12FunctionMetaEEEEEvPT_, symObjAddr: 0x1070, symBinAddr: 0x2A280, symSize: 0x114 }
  - { offsetInCU: 0x30D05, offset: 0x281798, size: 0x8, addend: 0x0, symName: __ZNK3tns12FunctionMeta9encodingsEv, symObjAddr: 0x1784, symBinAddr: 0x2A994, symSize: 0x78 }
  - { offsetInCU: 0x30F98, offset: 0x281A2B, size: 0x8, addend: 0x0, symName: __ZN3tns15MetadataBuilder28DefineFunctionLengthPropertyEN2v85LocalINS1_7ContextEEEPKNS_17TypeEncodingsListIiEENS2_INS1_8FunctionEEE, symObjAddr: 0x1654, symBinAddr: 0x2A864, symSize: 0x130 }
  - { offsetInCU: 0x313F9, offset: 0x281E8C, size: 0x8, addend: 0x0, symName: __ZN10robin_hood6detail5TableILb1ELm80ENSt3__112basic_stringIcNS2_11char_traitsIcEENS2_9allocatorIcEEEENS2_10unique_ptrIN2v810PersistentINSA_8FunctionENSA_27NonCopyablePersistentTraitsISC_EEEENS2_14default_deleteISF_EEEENS_4hashIS8_vEENS2_8equal_toIS8_EEE7emplaceIJRS8_SI_EEENS2_4pairINSN_4IterILb0EEEbEEDpOT_, symObjAddr: 0x1868, symBinAddr: 0x2AA78, symSize: 0x148 }
  - { offsetInCU: 0x31C93, offset: 0x282726, size: 0x8, addend: 0x0, symName: __ZN3tns15MetadataBuilder38GetOrCreateConstructorFunctionTemplateEN2v85LocalINS1_7ContextEEEPKNS_13BaseClassMetaENS_21KnownUnknownClassPairERKNSt3__16vectorINS9_12basic_stringIcNS9_11char_traitsIcEENS9_9allocatorIcEEEENSE_ISG_EEEE, symObjAddr: 0xF3C, symBinAddr: 0x2A14C, symSize: 0xBC }
  - { offsetInCU: 0x32290, offset: 0x282D23, size: 0x8, addend: 0x0, symName: __ZN3tns15MetadataBuilder46GetOrCreateConstructorFunctionTemplateInternalEN2v85LocalINS1_7ContextEEEPKNS_13BaseClassMetaENS_21KnownUnknownClassPairERN10robin_hood6detail5TableILb1ELm80ENSt3__112basic_stringIcNSC_11char_traitsIcEENSC_9allocatorIcEEEEhNS9_4hashISI_vEENSC_8equal_toISI_EEEESO_RKNSC_6vectorISI_NSG_ISI_EEEE, symObjAddr: 0x2C08, symBinAddr: 0x2BD28, symSize: 0x16E0 }
  - { offsetInCU: 0x38466, offset: 0x288EF9, size: 0x8, addend: 0x0, symName: __ZN10robin_hood6detail5TableILb1ELm80ENSt3__112basic_stringIcNS2_11char_traitsIcEENS2_9allocatorIcEEEEhNS_4hashIS8_vEENS2_8equal_toIS8_EEE7destroyEv, symObjAddr: 0xE72C, symBinAddr: 0x35554, symSize: 0x4C }
  - { offsetInCU: 0x384EE, offset: 0x288F81, size: 0x8, addend: 0x0, symName: __ZZN3tns6Caches11unique_voidINS_15MetadataBuilder9CacheItemINS_12FunctionMetaEEEEENSt3__110unique_ptrIvPFvPKvEEEPT_ENUlS9_E_8__invokeES9_, symObjAddr: 0xCED8, symBinAddr: 0x34384, symSize: 0x38 }
  - { offsetInCU: 0x38519, offset: 0x288FAC, size: 0x8, addend: 0x0, symName: __ZZN3tns6Caches11unique_voidINS_15MetadataBuilder9CacheItemINS_12FunctionMetaEEEEENSt3__110unique_ptrIvPFvPKvEEEPT_ENUlS9_E_8__invokeES9_, symObjAddr: 0xCED8, symBinAddr: 0x34384, symSize: 0x38 }
  - { offsetInCU: 0x392D2, offset: 0x289D65, size: 0x8, addend: 0x0, symName: __ZNSt3__114__split_bufferINS_10shared_ptrIN2v810PersistentINS2_5ValueENS2_27NonCopyablePersistentTraitsIS4_EEEEEERNS_9allocatorIS8_EEED2Ev, symObjAddr: 0x10C88, symBinAddr: 0x3752C, symSize: 0x4C }
  - { offsetInCU: 0x3947C, offset: 0x289F0F, size: 0x8, addend: 0x0, symName: __ZNSt3__16vectorINS_10shared_ptrIN2v810PersistentINS2_5ValueENS2_27NonCopyablePersistentTraitsIS4_EEEEEENS_9allocatorIS8_EEEC2ERKSB_, symObjAddr: 0x10CD4, symBinAddr: 0x37578, symSize: 0xC0 }
  - { offsetInCU: 0x39FEE, offset: 0x28AA81, size: 0x8, addend: 0x0, symName: __ZN10robin_hood6detail5TableILb1ELm80ENSt3__112basic_stringIcNS2_11char_traitsIcEENS2_9allocatorIcEEEENS2_10unique_ptrIN2v810PersistentINSA_8FunctionENSA_27NonCopyablePersistentTraitsISC_EEEENS2_14default_deleteISF_EEEENS_4hashIS8_vEENS2_8equal_toIS8_EEE25insertKeyPrepareEmptySpotIRKS8_EENS2_4pairImNSN_14InsertionStateEEEOT_, symObjAddr: 0xCF10, symBinAddr: 0x343BC, symSize: 0x188 }
  - { offsetInCU: 0x3A153, offset: 0x28ABE6, size: 0x8, addend: 0x0, symName: __ZNK10robin_hood6detail5TableILb1ELm80ENSt3__112basic_stringIcNS2_11char_traitsIcEENS2_9allocatorIcEEEENS2_10unique_ptrIN2v810PersistentINSA_8FunctionENSA_27NonCopyablePersistentTraitsISC_EEEENS2_14default_deleteISF_EEEENS_4hashIS8_vEENS2_8equal_toIS8_EEE18throwOverflowErrorEv, symObjAddr: 0xD098, symBinAddr: 0x34544, symSize: 0x50 }
  - { offsetInCU: 0x3A188, offset: 0x28AC1B, size: 0x8, addend: 0x0, symName: __ZN10robin_hood6detail5TableILb1ELm80ENSt3__112basic_stringIcNS2_11char_traitsIcEENS2_9allocatorIcEEEENS2_10unique_ptrIN2v810PersistentINSA_8FunctionENSA_27NonCopyablePersistentTraitsISC_EEEENS2_14default_deleteISF_EEEENS_4hashIS8_vEENS2_8equal_toIS8_EEE8DataNodeISN_Lb1EED1Ev, symObjAddr: 0xD0E8, symBinAddr: 0x34594, symSize: 0x40 }
  - { offsetInCU: 0x3A668, offset: 0x28B0FB, size: 0x8, addend: 0x0, symName: __ZN3tns17StructTypeWrapperC2ENS_10StructInfoE, symObjAddr: 0xABF8, symBinAddr: 0x33408, symSize: 0x7C }
  - { offsetInCU: 0x3A89D, offset: 0x28B330, size: 0x8, addend: 0x0, symName: __ZN10robin_hood6detail5TableILb1ELm80ENSt3__112basic_stringIcNS2_11char_traitsIcEENS2_9allocatorIcEEEENS2_10unique_ptrIN2v810PersistentINSA_8FunctionENSA_27NonCopyablePersistentTraitsISC_EEEENS2_14default_deleteISF_EEEENS_4hashIS8_vEENS2_8equal_toIS8_EEE7emplaceIJS8_SI_EEENS2_4pairINSN_4IterILb0EEEbEEDpOT_, symObjAddr: 0x2760, symBinAddr: 0x2B8E8, symSize: 0x14C }
  - { offsetInCU: 0x3B40B, offset: 0x28BE9E, size: 0x8, addend: 0x0, symName: __ZN3tns15MetadataBuilder25StructConstructorCallbackERKN2v820FunctionCallbackInfoINS1_5ValueEEE, symObjAddr: 0x1F98, symBinAddr: 0x2B120, symSize: 0x4F4 }
  - { offsetInCU: 0x3C930, offset: 0x28D3C3, size: 0x8, addend: 0x0, symName: __ZN3tns13StructWrapperC2ENS_10StructInfoEPvNSt3__110shared_ptrIN2v810PersistentINS5_5ValueENS5_27NonCopyablePersistentTraitsIS7_EEEEEE, symObjAddr: 0xAD04, symBinAddr: 0x33514, symSize: 0xF0 }
  - { offsetInCU: 0x3CD8A, offset: 0x28D81D, size: 0x8, addend: 0x0, symName: __ZN10robin_hood6detail5TableILb1ELm80ENSt3__14pairIPvNS2_12basic_stringIcNS2_11char_traitsIcEENS2_9allocatorIcEEEEEENS2_10shared_ptrIN2v810PersistentINSD_5ValueENSD_27NonCopyablePersistentTraitsISF_EEEEEEN3tns9pair_hashENS2_8equal_toISB_EEE7emplaceIJRSB_RSJ_EEENS3_INSO_4IterILb0EEEbEEDpOT_, symObjAddr: 0x2908, symBinAddr: 0x2BA34, symSize: 0x1C0 }
  - { offsetInCU: 0x3D764, offset: 0x28E1F7, size: 0x8, addend: 0x0, symName: __ZN3tns15MetadataBuilder20StructEqualsCallbackERKN2v820FunctionCallbackInfoINS1_5ValueEEE, symObjAddr: 0x248C, symBinAddr: 0x2B614, symSize: 0x2D4 }
  - { offsetInCU: 0x3E143, offset: 0x28EBD6, size: 0x8, addend: 0x0, symName: __ZN3tns15MetadataBuilder13GetStructDataEN2v85LocalINS1_7ContextEEENS2_INS1_6ObjectEEENS_10StructInfoE, symObjAddr: 0x2AD4, symBinAddr: 0x2BBF4, symSize: 0x134 }
  - { offsetInCU: 0x3EB0C, offset: 0x28F59F, size: 0x8, addend: 0x0, symName: __ZN10robin_hood6detail5TableILb1ELm80ENSt3__14pairIPvNS2_12basic_stringIcNS2_11char_traitsIcEENS2_9allocatorIcEEEEEENS2_10shared_ptrIN2v810PersistentINSD_5ValueENSD_27NonCopyablePersistentTraitsISF_EEEEEEN3tns9pair_hashENS2_8equal_toISB_EEE25insertKeyPrepareEmptySpotIRKSB_EENS3_ImNSO_14InsertionStateEEEOT_, symObjAddr: 0xD7CC, symBinAddr: 0x34C78, symSize: 0x18C }
  - { offsetInCU: 0x3ED39, offset: 0x28F7CC, size: 0x8, addend: 0x0, symName: __ZNK10robin_hood6detail5TableILb1ELm80ENSt3__14pairIPvNS2_12basic_stringIcNS2_11char_traitsIcEENS2_9allocatorIcEEEEEENS2_10shared_ptrIN2v810PersistentINSD_5ValueENSD_27NonCopyablePersistentTraitsISF_EEEEEEN3tns9pair_hashENS2_8equal_toISB_EEE18throwOverflowErrorEv, symObjAddr: 0xD958, symBinAddr: 0x34E04, symSize: 0x50 }
  - { offsetInCU: 0x3ED6E, offset: 0x28F801, size: 0x8, addend: 0x0, symName: __ZN10robin_hood6detail5TableILb1ELm80ENSt3__14pairIPvNS2_12basic_stringIcNS2_11char_traitsIcEENS2_9allocatorIcEEEEEENS2_10shared_ptrIN2v810PersistentINSD_5ValueENSD_27NonCopyablePersistentTraitsISF_EEEEEEN3tns9pair_hashENS2_8equal_toISB_EEE8DataNodeISO_Lb1EED1Ev, symObjAddr: 0xD9A8, symBinAddr: 0x34E54, symSize: 0x38 }
  - { offsetInCU: 0x3F6B5, offset: 0x290148, size: 0x8, addend: 0x0, symName: __ZNK10robin_hood6detail5TableILb1ELm80EPKN3tns13BaseClassMetaENSt3__110unique_ptrIN2v810PersistentINS8_16FunctionTemplateENS8_27NonCopyablePersistentTraitsISA_EEEENS6_14default_deleteISD_EEEENS_4hashIS5_vEENS6_8equal_toIS5_EEE7findIdxIS5_EEmRKT_, symObjAddr: 0xE848, symBinAddr: 0x35670, symSize: 0xD8 }
  - { offsetInCU: 0x3F711, offset: 0x2901A4, size: 0x8, addend: 0x0, symName: __ZNK10robin_hood6detail5TableILb1ELm80EPKN3tns13BaseClassMetaENSt3__110unique_ptrIN2v810PersistentINS8_16FunctionTemplateENS8_27NonCopyablePersistentTraitsISA_EEEENS6_14default_deleteISD_EEEENS_4hashIS5_vEENS6_8equal_toIS5_EEE7findIdxIS5_EEmRKT_, symObjAddr: 0xE848, symBinAddr: 0x35670, symSize: 0xD8 }
  - { offsetInCU: 0x3F84D, offset: 0x2902E0, size: 0x8, addend: 0x0, symName: __ZN3tns6Caches24registerCacheBoundObjectINS_15MetadataBuilder9CacheItemINS_13BaseClassMetaEEEEEvPT_, symObjAddr: 0x42E8, symBinAddr: 0x2D408, symSize: 0x114 }
  - { offsetInCU: 0x3FE8B, offset: 0x29091E, size: 0x8, addend: 0x0, symName: __ZN3tns15MetadataBuilder26RegisterInstancePropertiesEN2v85LocalINS1_7ContextEEENS2_INS1_16FunctionTemplateEEEPKNS_13BaseClassMetaENSt3__112basic_stringIcNSA_11char_traitsIcEENSA_9allocatorIcEEEENS_21KnownUnknownClassPairERN10robin_hood6detail5TableILb1ELm80ESG_hNSI_4hashISG_vEENSA_8equal_toISG_EEEE, symObjAddr: 0x4668, symBinAddr: 0x2D710, symSize: 0x60C }
  - { offsetInCU: 0x41A01, offset: 0x292494, size: 0x8, addend: 0x0, symName: __ZN3tns15MetadataBuilder23RegisterInstanceMethodsEN2v85LocalINS1_7ContextEEENS2_INS1_16FunctionTemplateEEEPKNS_13BaseClassMetaENS_21KnownUnknownClassPairERN10robin_hood6detail5TableILb1ELm80ENSt3__112basic_stringIcNSE_11char_traitsIcEENSE_9allocatorIcEEEEhNSB_4hashISK_vEENSE_8equal_toISK_EEEE, symObjAddr: 0x4C74, symBinAddr: 0x2DD1C, symSize: 0x678 }
  - { offsetInCU: 0x438CA, offset: 0x29435D, size: 0x8, addend: 0x0, symName: __ZN3tns15MetadataBuilder25RegisterInstanceProtocolsEN2v85LocalINS1_7ContextEEENS2_INS1_16FunctionTemplateEEEPKNS_13BaseClassMetaENSt3__112basic_stringIcNSA_11char_traitsIcEENSA_9allocatorIcEEEENS_21KnownUnknownClassPairERN10robin_hood6detail5TableILb1ELm80ESG_hNSI_4hashISG_vEENSA_8equal_toISG_EEEE, symObjAddr: 0x52EC, symBinAddr: 0x2E394, symSize: 0x2E0 }
  - { offsetInCU: 0x4496C, offset: 0x2953FF, size: 0x8, addend: 0x0, symName: __ZN3tns15MetadataBuilder27RegisterAdditionalProtocolsEN2v85LocalINS1_7ContextEEENS2_INS1_16FunctionTemplateEEENS_21KnownUnknownClassPairERKNSt3__16vectorINS8_12basic_stringIcNS8_11char_traitsIcEENS8_9allocatorIcEEEENSD_ISF_EEEERN10robin_hood6detail5TableILb1ELm80ESF_hNSK_4hashISF_vEENS8_8equal_toISF_EEEE, symObjAddr: 0x55CC, symBinAddr: 0x2E674, symSize: 0x3EC }
  - { offsetInCU: 0x4606A, offset: 0x296AFD, size: 0x8, addend: 0x0, symName: __ZN3tns15MetadataBuilder19RegisterAllocMethodEPN2v87IsolateENS1_5LocalINS1_16FunctionTemplateEEEPKNS_13InterfaceMetaE, symObjAddr: 0x5AC0, symBinAddr: 0x2EB68, symSize: 0x234 }
  - { offsetInCU: 0x46B73, offset: 0x297606, size: 0x8, addend: 0x0, symName: __ZN10robin_hood6detail5TableILb1ELm80EPKN3tns13BaseClassMetaENSt3__110unique_ptrIN2v810PersistentINS8_16FunctionTemplateENS8_27NonCopyablePersistentTraitsISA_EEEENS6_14default_deleteISD_EEEENS_4hashIS5_vEENS6_8equal_toIS5_EEE7emplaceIJRS5_SG_EEENS6_4pairINSL_4IterILb0EEEbEEDpOT_, symObjAddr: 0x70B0, symBinAddr: 0x30158, symSize: 0x100 }
  - { offsetInCU: 0x471F0, offset: 0x297C83, size: 0x8, addend: 0x0, symName: __ZN10robin_hood6detail5TableILb1ELm80ENSt3__112basic_stringIcNS2_11char_traitsIcEENS2_9allocatorIcEEEENS2_10unique_ptrIN2v810PersistentINSA_8FunctionENSA_27NonCopyablePersistentTraitsISC_EEEENS2_14default_deleteISF_EEEENS_4hashIS8_vEENS2_8equal_toIS8_EEE7emplaceIJPKcPSF_EEENS2_4pairINSN_4IterILb0EEEbEEDpOT_, symObjAddr: 0x71B0, symBinAddr: 0x30258, symSize: 0x148 }
  - { offsetInCU: 0x47A85, offset: 0x298518, size: 0x8, addend: 0x0, symName: __ZN10robin_hood6detail5TableILb1ELm80ENSt3__112basic_stringIcNS2_11char_traitsIcEENS2_9allocatorIcEEEENS2_10unique_ptrIN2v810PersistentINSA_8FunctionENSA_27NonCopyablePersistentTraitsISC_EEEENS2_14default_deleteISF_EEEENS_4hashIS8_vEENS2_8equal_toIS8_EEE7emplaceIJPKcSI_EEENS2_4pairINSN_4IterILb0EEEbEEDpOT_, symObjAddr: 0x72F8, symBinAddr: 0x303A0, symSize: 0x14C }
  - { offsetInCU: 0x48340, offset: 0x298DD3, size: 0x8, addend: 0x0, symName: __ZN3tns15MetadataBuilder21RegisterStaticMethodsEN2v85LocalINS1_7ContextEEENS2_INS1_8FunctionEEEPKNS_13BaseClassMetaENS_21KnownUnknownClassPairERN10robin_hood6detail5TableILb1ELm80ENSt3__112basic_stringIcNSE_11char_traitsIcEENSE_9allocatorIcEEEEhNSB_4hashISK_vEENSE_8equal_toISK_EEEE, symObjAddr: 0x7444, symBinAddr: 0x304EC, symSize: 0x8B0 }
  - { offsetInCU: 0x4AD21, offset: 0x29B7B4, size: 0x8, addend: 0x0, symName: __ZN3tns15MetadataBuilder24RegisterStaticPropertiesEN2v85LocalINS1_7ContextEEENS2_INS1_8FunctionEEEPKNS_13BaseClassMetaENSt3__112basic_stringIcNSA_11char_traitsIcEENSA_9allocatorIcEEEENS_21KnownUnknownClassPairERN10robin_hood6detail5TableILb1ELm80ESG_hNSI_4hashISG_vEENSA_8equal_toISG_EEEE, symObjAddr: 0x7CF4, symBinAddr: 0x30D9C, symSize: 0x5E8 }
  - { offsetInCU: 0x4C9C8, offset: 0x29D45B, size: 0x8, addend: 0x0, symName: __ZN3tns15MetadataBuilder23RegisterStaticProtocolsEN2v85LocalINS1_7ContextEEENS2_INS1_8FunctionEEEPKNS_13BaseClassMetaENSt3__112basic_stringIcNSA_11char_traitsIcEENSA_9allocatorIcEEEENS_21KnownUnknownClassPairERN10robin_hood6detail5TableILb1ELm80ESG_hNSI_4hashISG_vEENSA_8equal_toISG_EEEE, symObjAddr: 0x82DC, symBinAddr: 0x31384, symSize: 0x2B0 }
  - { offsetInCU: 0x4D963, offset: 0x29E3F6, size: 0x8, addend: 0x0, symName: __ZN10robin_hood6detail5TableILb1ELm80EPKN3tns4MetaENSt3__110unique_ptrIN2v810PersistentINS8_5ValueENS8_27NonCopyablePersistentTraitsISA_EEEENS6_14default_deleteISD_EEEENS_4hashIS5_vEENS6_8equal_toIS5_EEE7emplaceIJRPKNS2_13BaseClassMetaERPSD_EEENS6_4pairINSL_4IterILb0EEEbEEDpOT_, symObjAddr: 0x858C, symBinAddr: 0x31634, symSize: 0xFC }
  - { offsetInCU: 0x4DFA7, offset: 0x29EA3A, size: 0x8, addend: 0x0, symName: __ZZN3tns6Caches11unique_voidINS_15MetadataBuilder9CacheItemINS_13BaseClassMetaEEEEENSt3__110unique_ptrIvPFvPKvEEEPT_ENUlS9_E_8__invokeES9_, symObjAddr: 0xE920, symBinAddr: 0x35748, symSize: 0x38 }
  - { offsetInCU: 0x4DFD2, offset: 0x29EA65, size: 0x8, addend: 0x0, symName: __ZZN3tns6Caches11unique_voidINS_15MetadataBuilder9CacheItemINS_13BaseClassMetaEEEEENSt3__110unique_ptrIvPFvPKvEEEPT_ENUlS9_E_8__invokeES9_, symObjAddr: 0xE920, symBinAddr: 0x35748, symSize: 0x38 }
  - { offsetInCU: 0x4E15C, offset: 0x29EBEF, size: 0x8, addend: 0x0, symName: __ZN3tns15MetadataBuilder24ClassConstructorCallbackERKN2v820FunctionCallbackInfoINS1_5ValueEEE, symObjAddr: 0x43FC, symBinAddr: 0x2D51C, symSize: 0x1F4 }
  - { offsetInCU: 0x4EE12, offset: 0x29F8A5, size: 0x8, addend: 0x0, symName: __ZNK10robin_hood6detail5TableILb1ELm80ENSt3__112basic_stringIcNS2_11char_traitsIcEENS2_9allocatorIcEEEEhNS_4hashIS8_vEENS2_8equal_toIS8_EEE7findIdxIS8_EEmRKT_, symObjAddr: 0xF9C0, symBinAddr: 0x367E8, symSize: 0x108 }
  - { offsetInCU: 0x4EF4E, offset: 0x29F9E1, size: 0x8, addend: 0x0, symName: __ZN3tns6Caches24registerCacheBoundObjectINS_15MetadataBuilder9CacheItemINS_12PropertyMetaEEEEEvPT_, symObjAddr: 0x8E14, symBinAddr: 0x31EBC, symSize: 0x114 }
  - { offsetInCU: 0x4F41C, offset: 0x29FEAF, size: 0x8, addend: 0x0, symName: __ZN10robin_hood6detail5TableILb1ELm80ENSt3__112basic_stringIcNS2_11char_traitsIcEENS2_9allocatorIcEEEEhNS_4hashIS8_vEENS2_8equal_toIS8_EEE7emplaceIJRS8_RhEEENS2_4pairINSD_4IterILb0EEEbEEDpOT_, symObjAddr: 0x92F4, symBinAddr: 0x3239C, symSize: 0x12C }
  - { offsetInCU: 0x4FD88, offset: 0x2A081B, size: 0x8, addend: 0x0, symName: __ZN3tns6Caches24registerCacheBoundObjectINS_15MetadataBuilder9CacheItemINS_10MethodMetaEEEEEvPT_, symObjAddr: 0x8A10, symBinAddr: 0x31AB8, symSize: 0x114 }
  - { offsetInCU: 0x50256, offset: 0x2A0CE9, size: 0x8, addend: 0x0, symName: __ZN10robin_hood6detail5TableILb1ELm80ENSt3__112basic_stringIcNS2_11char_traitsIcEENS2_9allocatorIcEEEEhNS_4hashIS8_vEENS2_8equal_toIS8_EEE7emplaceIJRS8_iEEENS2_4pairINSD_4IterILb0EEEbEEDpOT_, symObjAddr: 0x8CE8, symBinAddr: 0x31D90, symSize: 0x12C }
  - { offsetInCU: 0x50AF9, offset: 0x2A158C, size: 0x8, addend: 0x0, symName: __ZNSt3__16vectorINS_12basic_stringIcNS_11char_traitsIcEENS_9allocatorIcEEEENS4_IS6_EEE9push_backB7v160006ERKS6_, symObjAddr: 0x9420, symBinAddr: 0x324C8, symSize: 0x118 }
  - { offsetInCU: 0x50EAC, offset: 0x2A193F, size: 0x8, addend: 0x0, symName: __ZN3tns15MetadataBuilder24ToStringFunctionCallbackERKN2v820FunctionCallbackInfoINS1_5ValueEEE, symObjAddr: 0x59B8, symBinAddr: 0x2EA60, symSize: 0x108 }
  - { offsetInCU: 0x51433, offset: 0x2A1EC6, size: 0x8, addend: 0x0, symName: __ZN3tns6Caches24registerCacheBoundObjectINS_15MetadataBuilder9CacheItemINS_13InterfaceMetaEEEEEvPT_, symObjAddr: 0x8688, symBinAddr: 0x31730, symSize: 0x114 }
  - { offsetInCU: 0x51E6D, offset: 0x2A2900, size: 0x8, addend: 0x0, symName: __ZNK3tns5ArrayINS_5PtrToINS_10MethodMetaEEEE12binarySearchENSt3__18functionIFiRKS3_EEE, symObjAddr: 0xA234, symBinAddr: 0x33214, symSize: 0x98 }
  - { offsetInCU: 0x51F76, offset: 0x2A2A09, size: 0x8, addend: 0x0, symName: __ZN3tns21MethodCallbackWrapperC2EPN2v87IsolateENSt3__110shared_ptrINS1_10PersistentINS1_5ValueENS1_27NonCopyablePersistentTraitsIS7_EEEEEEhhPKNS_12TypeEncodingE, symObjAddr: 0xB074, symBinAddr: 0x33744, symSize: 0x104 }
  - { offsetInCU: 0x529E5, offset: 0x2A3478, size: 0x8, addend: 0x0, symName: __ZNK3tns5ArrayINS_5PtrToINS_12PropertyMetaEEEE12binarySearchENSt3__18functionIFiRKS3_EEE, symObjAddr: 0xA5B0, symBinAddr: 0x33360, symSize: 0x98 }
  - { offsetInCU: 0x52AEE, offset: 0x2A3581, size: 0x8, addend: 0x0, symName: __ZNSt3__110shared_ptrIN2v810PersistentINS1_8FunctionENS1_27NonCopyablePersistentTraitsIS3_EEEEED2B7v160006Ev, symObjAddr: 0xC6A8, symBinAddr: 0x34218, symSize: 0x58 }
  - { offsetInCU: 0x52FD5, offset: 0x2A3A68, size: 0x8, addend: 0x0, symName: __ZN10robin_hood6detail5TableILb1ELm80EPKN3tns13BaseClassMetaENSt3__110unique_ptrIN2v810PersistentINS8_16FunctionTemplateENS8_27NonCopyablePersistentTraitsISA_EEEENS6_14default_deleteISD_EEEENS_4hashIS5_vEENS6_8equal_toIS5_EEE25insertKeyPrepareEmptySpotIRKS5_EENS6_4pairImNSL_14InsertionStateEEEOT_, symObjAddr: 0xE958, symBinAddr: 0x35780, symSize: 0x194 }
  - { offsetInCU: 0x5318F, offset: 0x2A3C22, size: 0x8, addend: 0x0, symName: __ZNK10robin_hood6detail5TableILb1ELm80EPKN3tns13BaseClassMetaENSt3__110unique_ptrIN2v810PersistentINS8_16FunctionTemplateENS8_27NonCopyablePersistentTraitsISA_EEEENS6_14default_deleteISD_EEEENS_4hashIS5_vEENS6_8equal_toIS5_EEE18throwOverflowErrorEv, symObjAddr: 0xEAEC, symBinAddr: 0x35914, symSize: 0x50 }
  - { offsetInCU: 0x539A9, offset: 0x2A443C, size: 0x8, addend: 0x0, symName: __ZN10robin_hood6detail5TableILb1ELm80EPKN3tns4MetaENSt3__110unique_ptrIN2v810PersistentINS8_5ValueENS8_27NonCopyablePersistentTraitsISA_EEEENS6_14default_deleteISD_EEEENS_4hashIS5_vEENS6_8equal_toIS5_EEE25insertKeyPrepareEmptySpotIRKS5_EENS6_4pairImNSL_14InsertionStateEEEOT_, symObjAddr: 0xF170, symBinAddr: 0x35F98, symSize: 0x194 }
  - { offsetInCU: 0x53B63, offset: 0x2A45F6, size: 0x8, addend: 0x0, symName: __ZNK10robin_hood6detail5TableILb1ELm80EPKN3tns4MetaENSt3__110unique_ptrIN2v810PersistentINS8_5ValueENS8_27NonCopyablePersistentTraitsISA_EEEENS6_14default_deleteISD_EEEENS_4hashIS5_vEENS6_8equal_toIS5_EEE18throwOverflowErrorEv, symObjAddr: 0xF304, symBinAddr: 0x3612C, symSize: 0x50 }
  - { offsetInCU: 0x53BC1, offset: 0x2A4654, size: 0x8, addend: 0x0, symName: __ZZN3tns6Caches11unique_voidINS_15MetadataBuilder9CacheItemINS_13InterfaceMetaEEEEENSt3__110unique_ptrIvPFvPKvEEEPT_ENUlS9_E_8__invokeES9_, symObjAddr: 0xF988, symBinAddr: 0x367B0, symSize: 0x38 }
  - { offsetInCU: 0x53BEC, offset: 0x2A467F, size: 0x8, addend: 0x0, symName: __ZZN3tns6Caches11unique_voidINS_15MetadataBuilder9CacheItemINS_13InterfaceMetaEEEEENSt3__110unique_ptrIvPFvPKvEEEPT_ENUlS9_E_8__invokeES9_, symObjAddr: 0xF988, symBinAddr: 0x367B0, symSize: 0x38 }
  - { offsetInCU: 0x53DDF, offset: 0x2A4872, size: 0x8, addend: 0x0, symName: __ZN3tns15MetadataBuilder13AllocCallbackERKN2v820FunctionCallbackInfoINS1_5ValueEEE, symObjAddr: 0x879C, symBinAddr: 0x31844, symSize: 0x274 }
  - { offsetInCU: 0x54749, offset: 0x2A51DC, size: 0x8, addend: 0x0, symName: __ZZN3tns6Caches11unique_voidINS_15MetadataBuilder9CacheItemINS_10MethodMetaEEEEENSt3__110unique_ptrIvPFvPKvEEEPT_ENUlS9_E_8__invokeES9_, symObjAddr: 0xFAC8, symBinAddr: 0x368F0, symSize: 0x38 }
  - { offsetInCU: 0x54774, offset: 0x2A5207, size: 0x8, addend: 0x0, symName: __ZZN3tns6Caches11unique_voidINS_15MetadataBuilder9CacheItemINS_10MethodMetaEEEEENSt3__110unique_ptrIvPFvPKvEEEPT_ENUlS9_E_8__invokeES9_, symObjAddr: 0xFAC8, symBinAddr: 0x368F0, symSize: 0x38 }
  - { offsetInCU: 0x54920, offset: 0x2A53B3, size: 0x8, addend: 0x0, symName: __ZN3tns15MetadataBuilder14MethodCallbackERKN2v820FunctionCallbackInfoINS1_5ValueEEE, symObjAddr: 0x8B24, symBinAddr: 0x31BCC, symSize: 0x1C4 }
  - { offsetInCU: 0x55000, offset: 0x2A5A93, size: 0x8, addend: 0x0, symName: __ZN3tns15MetadataBuilder12InvokeMethodEN2v85LocalINS1_7ContextEEEPKNS_10MethodMetaENS2_INS1_6ObjectEEERNS_6V8ArgsENSt3__112basic_stringIcNSC_11char_traitsIcEENSC_9allocatorIcEEEEb, symObjAddr: 0x9910, symBinAddr: 0x32968, symSize: 0xB8 }
  - { offsetInCU: 0x55486, offset: 0x2A5F19, size: 0x8, addend: 0x0, symName: __ZN10robin_hood6detail5TableILb1ELm80ENSt3__112basic_stringIcNS2_11char_traitsIcEENS2_9allocatorIcEEEEhNS_4hashIS8_vEENS2_8equal_toIS8_EEE25insertKeyPrepareEmptySpotIRKS8_EENS2_4pairImNSD_14InsertionStateEEEOT_, symObjAddr: 0xFB00, symBinAddr: 0x36928, symSize: 0x188 }
  - { offsetInCU: 0x555EB, offset: 0x2A607E, size: 0x8, addend: 0x0, symName: __ZNK10robin_hood6detail5TableILb1ELm80ENSt3__112basic_stringIcNS2_11char_traitsIcEENS2_9allocatorIcEEEEhNS_4hashIS8_vEENS2_8equal_toIS8_EEE18throwOverflowErrorEv, symObjAddr: 0xFC88, symBinAddr: 0x36AB0, symSize: 0x50 }
  - { offsetInCU: 0x55649, offset: 0x2A60DC, size: 0x8, addend: 0x0, symName: __ZZN3tns6Caches11unique_voidINS_15MetadataBuilder9CacheItemINS_12PropertyMetaEEEEENSt3__110unique_ptrIvPFvPKvEEEPT_ENUlS9_E_8__invokeES9_, symObjAddr: 0x1034C, symBinAddr: 0x37174, symSize: 0x38 }
  - { offsetInCU: 0x55674, offset: 0x2A6107, size: 0x8, addend: 0x0, symName: __ZZN3tns6Caches11unique_voidINS_15MetadataBuilder9CacheItemINS_12PropertyMetaEEEEENSt3__110unique_ptrIvPFvPKvEEEPT_ENUlS9_E_8__invokeES9_, symObjAddr: 0x1034C, symBinAddr: 0x37174, symSize: 0x38 }
  - { offsetInCU: 0x55846, offset: 0x2A62D9, size: 0x8, addend: 0x0, symName: __ZN3tns15MetadataBuilder22PropertyGetterCallbackERKN2v820FunctionCallbackInfoINS1_5ValueEEE, symObjAddr: 0x8F28, symBinAddr: 0x31FD0, symSize: 0x1E4 }
  - { offsetInCU: 0x56175, offset: 0x2A6C08, size: 0x8, addend: 0x0, symName: __ZN3tns15MetadataBuilder22PropertySetterCallbackERKN2v820FunctionCallbackInfoINS1_5ValueEEE, symObjAddr: 0x910C, symBinAddr: 0x321B4, symSize: 0x1E8 }
  - { offsetInCU: 0x56CFC, offset: 0x2A778F, size: 0x8, addend: 0x0, symName: __ZNSt3__114__split_bufferINS_12basic_stringIcNS_11char_traitsIcEENS_9allocatorIcEEEERNS4_IS6_EEED2Ev, symObjAddr: 0x10564, symBinAddr: 0x3738C, symSize: 0x34 }
  - { offsetInCU: 0x56E08, offset: 0x2A789B, size: 0x8, addend: 0x0, symName: __ZNKSt3__16vectorINS_12basic_stringIcNS_11char_traitsIcEENS_9allocatorIcEEEENS4_IS6_EEE20__throw_length_errorB7v160006Ev, symObjAddr: 0x103F8, symBinAddr: 0x37220, symSize: 0x14 }
  - { offsetInCU: 0x56E31, offset: 0x2A78C4, size: 0x8, addend: 0x0, symName: __ZNSt3__119__allocate_at_leastB7v160006INS_9allocatorINS_12basic_stringIcNS_11char_traitsIcEENS1_IcEEEEEEEENS_19__allocation_resultINS_16allocator_traitsIT_E7pointerEEERSA_m, symObjAddr: 0x1040C, symBinAddr: 0x37234, symSize: 0x44 }
  - { offsetInCU: 0x56E3D, offset: 0x2A78D0, size: 0x8, addend: 0x0, symName: __ZN3tns15MetadataBuilder26PropertyNameGetterCallbackEN2v85LocalINS1_4NameEEERKNS1_20PropertyCallbackInfoINS1_5ValueEEE, symObjAddr: 0x9538, symBinAddr: 0x325E0, symSize: 0x1C4 }
  - { offsetInCU: 0x57723, offset: 0x2A81B6, size: 0x8, addend: 0x0, symName: __ZN3tns15MetadataBuilder26PropertyNameSetterCallbackEN2v85LocalINS1_4NameEEENS2_INS1_5ValueEEERKNS1_20PropertyCallbackInfoIvEE, symObjAddr: 0x96FC, symBinAddr: 0x327A4, symSize: 0x1C4 }
  - { offsetInCU: 0x58304, offset: 0x2A8D97, size: 0x8, addend: 0x0, symName: __ZN3tns15MetadataBuilder28StructPropertyGetterCallbackEN2v85LocalINS1_4NameEEERKNS1_20PropertyCallbackInfoINS1_5ValueEEE, symObjAddr: 0x99C8, symBinAddr: 0x32A20, symSize: 0x4EC }
  - { offsetInCU: 0x5A063, offset: 0x2AAAF6, size: 0x8, addend: 0x0, symName: __ZNK10robin_hood6detail5TableILb1ELm80ENSt3__14pairIPvNS2_12basic_stringIcNS2_11char_traitsIcEENS2_9allocatorIcEEEEEENS2_10shared_ptrIN2v810PersistentINSD_5ValueENSD_27NonCopyablePersistentTraitsISF_EEEEEEN3tns9pair_hashENS2_8equal_toISB_EEE7findIdxISB_EEmRKT_, symObjAddr: 0x10978, symBinAddr: 0x37414, symSize: 0x118 }
  - { offsetInCU: 0x5A2C5, offset: 0x2AAD58, size: 0x8, addend: 0x0, symName: __ZN3tns15MetadataBuilder28StructPropertySetterCallbackEN2v85LocalINS1_4NameEEENS2_INS1_5ValueEEERKNS1_20PropertyCallbackInfoIS5_EE, symObjAddr: 0x9F2C, symBinAddr: 0x32F0C, symSize: 0x308 }
  - { offsetInCU: 0x5BB52, offset: 0x2AC5E5, size: 0x8, addend: 0x0, symName: '__ZNSt3__110__function6__funcIZN3tns15MetadataBuilder24SwizzledPropertyCallbackEN2v85LocalINS4_4NameEEERKNS4_18PropertyDescriptorERKNS4_20PropertyCallbackInfoINS4_5ValueEEEE3$_4NS_9allocatorISG_EEFiRKNS2_5PtrToINS2_12PropertyMetaEEEEED1Ev', symObjAddr: 0x11780, symBinAddr: 0x37DF0, symSize: 0x3C }
  - { offsetInCU: 0x5BF97, offset: 0x2ACA2A, size: 0x8, addend: 0x0, symName: __ZN3tns15FunctionWrapperD1Ev, symObjAddr: 0xA88C, symBinAddr: 0x333F8, symSize: 0x4 }
  - { offsetInCU: 0x5BFC2, offset: 0x2ACA55, size: 0x8, addend: 0x0, symName: __ZN3tns15FunctionWrapperD0Ev, symObjAddr: 0xA890, symBinAddr: 0x333FC, symSize: 0x4 }
  - { offsetInCU: 0x5BFED, offset: 0x2ACA80, size: 0x8, addend: 0x0, symName: __ZN3tns15FunctionWrapper4TypeEv, symObjAddr: 0xA894, symBinAddr: 0x33400, symSize: 0x8 }
  - { offsetInCU: 0x5C7FF, offset: 0x2AD292, size: 0x8, addend: 0x0, symName: __ZN3tns17StructTypeWrapperD1Ev, symObjAddr: 0xAC74, symBinAddr: 0x33484, symSize: 0x44 }
  - { offsetInCU: 0x5C9EF, offset: 0x2AD482, size: 0x8, addend: 0x0, symName: __ZN3tns17StructTypeWrapperD0Ev, symObjAddr: 0xACB8, symBinAddr: 0x334C8, symSize: 0x44 }
  - { offsetInCU: 0x5CBEC, offset: 0x2AD67F, size: 0x8, addend: 0x0, symName: __ZN3tns17StructTypeWrapper4TypeEv, symObjAddr: 0xACFC, symBinAddr: 0x3350C, symSize: 0x8 }
  - { offsetInCU: 0x5CC2F, offset: 0x2AD6C2, size: 0x8, addend: 0x0, symName: __ZN3tns13StructWrapperD1Ev, symObjAddr: 0xADF4, symBinAddr: 0x33604, symSize: 0x5C }
  - { offsetInCU: 0x5CE69, offset: 0x2AD8FC, size: 0x8, addend: 0x0, symName: __ZN3tns13StructWrapperD0Ev, symObjAddr: 0xAE50, symBinAddr: 0x33660, symSize: 0x5C }
  - { offsetInCU: 0x5D0B0, offset: 0x2ADB43, size: 0x8, addend: 0x0, symName: __ZN3tns13StructWrapper4TypeEv, symObjAddr: 0xAEAC, symBinAddr: 0x336BC, symSize: 0x8 }
  - { offsetInCU: 0x5D0D7, offset: 0x2ADB6A, size: 0x8, addend: 0x0, symName: __ZN3tns19ObjCProtocolWrapperD1Ev, symObjAddr: 0xAEB4, symBinAddr: 0x336C4, symSize: 0x4 }
  - { offsetInCU: 0x5D102, offset: 0x2ADB95, size: 0x8, addend: 0x0, symName: __ZN3tns19ObjCProtocolWrapperD0Ev, symObjAddr: 0xAEB8, symBinAddr: 0x336C8, symSize: 0x4 }
  - { offsetInCU: 0x5D12D, offset: 0x2ADBC0, size: 0x8, addend: 0x0, symName: __ZN3tns19ObjCProtocolWrapper4TypeEv, symObjAddr: 0xAEBC, symBinAddr: 0x336CC, symSize: 0x8 }
  - { offsetInCU: 0x5D154, offset: 0x2ADBE7, size: 0x8, addend: 0x0, symName: __ZN3tns20ObjCAllocDataWrapperD1Ev, symObjAddr: 0xB004, symBinAddr: 0x336D4, symSize: 0x4 }
  - { offsetInCU: 0x5D17F, offset: 0x2ADC12, size: 0x8, addend: 0x0, symName: __ZN3tns20ObjCAllocDataWrapperD0Ev, symObjAddr: 0xB008, symBinAddr: 0x336D8, symSize: 0x4 }
  - { offsetInCU: 0x5D1AA, offset: 0x2ADC3D, size: 0x8, addend: 0x0, symName: __ZN3tns20ObjCAllocDataWrapper4TypeEv, symObjAddr: 0xB00C, symBinAddr: 0x336DC, symSize: 0x8 }
  - { offsetInCU: 0x5D1D1, offset: 0x2ADC64, size: 0x8, addend: 0x0, symName: __ZNK3tns22V8FunctionCallbackArgsixEi, symObjAddr: 0xB014, symBinAddr: 0x336E4, symSize: 0x30 }
  - { offsetInCU: 0x5D289, offset: 0x2ADD1C, size: 0x8, addend: 0x0, symName: __ZNK3tns22V8FunctionCallbackArgs6LengthEv, symObjAddr: 0xB044, symBinAddr: 0x33714, symSize: 0xC }
  - { offsetInCU: 0x5D2CC, offset: 0x2ADD5F, size: 0x8, addend: 0x0, symName: __ZNK3tns16V8EmptyValueArgsixEi, symObjAddr: 0xB050, symBinAddr: 0x33720, symSize: 0x8 }
  - { offsetInCU: 0x5D301, offset: 0x2ADD94, size: 0x8, addend: 0x0, symName: __ZNK3tns16V8EmptyValueArgs6LengthEv, symObjAddr: 0xB058, symBinAddr: 0x33728, symSize: 0x8 }
  - { offsetInCU: 0x5D328, offset: 0x2ADDBB, size: 0x8, addend: 0x0, symName: __ZNK3tns17V8SimpleValueArgsixEi, symObjAddr: 0xB060, symBinAddr: 0x33730, symSize: 0xC }
  - { offsetInCU: 0x5D35D, offset: 0x2ADDF0, size: 0x8, addend: 0x0, symName: __ZNK3tns17V8SimpleValueArgs6LengthEv, symObjAddr: 0xB06C, symBinAddr: 0x3373C, symSize: 0x8 }
  - { offsetInCU: 0x5E062, offset: 0x2AEAF5, size: 0x8, addend: 0x0, symName: '__ZZN3tns15MetadataBuilder24SwizzledPropertyCallbackEN2v85LocalINS1_4NameEEERKNS1_18PropertyDescriptorERKNS1_20PropertyCallbackInfoINS1_5ValueEEEEN3$_58__invokeEP7ffi_cifPvPSG_SG_', symObjAddr: 0xBAFC, symBinAddr: 0x33848, symSize: 0x494 }
  - { offsetInCU: 0x5F600, offset: 0x2B0093, size: 0x8, addend: 0x0, symName: '__ZZN3tns15MetadataBuilder24SwizzledPropertyCallbackEN2v85LocalINS1_4NameEEERKNS1_18PropertyDescriptorERKNS1_20PropertyCallbackInfoINS1_5ValueEEEEN3$_68__invokeEP7ffi_cifPvPSG_SG_', symObjAddr: 0xC088, symBinAddr: 0x33CDC, symSize: 0x53C }
  - { offsetInCU: 0x61007, offset: 0x2B1A9A, size: 0x8, addend: 0x0, symName: __ZZN3tns6Caches11unique_voidINS_15MetadataBuilder20GlobalHandlerContextEEENSt3__110unique_ptrIvPFvPKvEEEPT_ENUlS7_E_8__invokeES7_, symObjAddr: 0xCB98, symBinAddr: 0x34270, symSize: 0xC }
  - { offsetInCU: 0x61025, offset: 0x2B1AB8, size: 0x8, addend: 0x0, symName: __ZZN3tns6Caches11unique_voidINS_15MetadataBuilder20GlobalHandlerContextEEENSt3__110unique_ptrIvPFvPKvEEEPT_ENUlS7_E_8__invokeES7_, symObjAddr: 0xCB98, symBinAddr: 0x34270, symSize: 0xC }
  - { offsetInCU: 0x6133D, offset: 0x2B1DD0, size: 0x8, addend: 0x0, symName: __ZN10robin_hood6detail5TableILb1ELm80ENSt3__112basic_stringIcNS2_11char_traitsIcEENS2_9allocatorIcEEEENS2_10unique_ptrIN2v810PersistentINSA_8FunctionENSA_27NonCopyablePersistentTraitsISC_EEEENS2_14default_deleteISF_EEEENS_4hashIS8_vEENS2_8equal_toIS8_EEE13increase_sizeEv, symObjAddr: 0xD128, symBinAddr: 0x345D4, symSize: 0x12C }
  - { offsetInCU: 0x61407, offset: 0x2B1E9A, size: 0x8, addend: 0x0, symName: __ZN10robin_hood6detail5TableILb1ELm80ENSt3__112basic_stringIcNS2_11char_traitsIcEENS2_9allocatorIcEEEENS2_10unique_ptrIN2v810PersistentINSA_8FunctionENSA_27NonCopyablePersistentTraitsISC_EEEENS2_14default_deleteISF_EEEENS_4hashIS8_vEENS2_8equal_toIS8_EEE7shiftUpEmm, symObjAddr: 0xD254, symBinAddr: 0x34700, symSize: 0x128 }
  - { offsetInCU: 0x616FB, offset: 0x2B218E, size: 0x8, addend: 0x0, symName: __ZN10robin_hood6detail5TableILb1ELm80ENSt3__112basic_stringIcNS2_11char_traitsIcEENS2_9allocatorIcEEEENS2_10unique_ptrIN2v810PersistentINSA_8FunctionENSA_27NonCopyablePersistentTraitsISC_EEEENS2_14default_deleteISF_EEEENS_4hashIS8_vEENS2_8equal_toIS8_EEE17try_increase_infoEv, symObjAddr: 0xD448, symBinAddr: 0x348F4, symSize: 0x100 }
  - { offsetInCU: 0x61805, offset: 0x2B2298, size: 0x8, addend: 0x0, symName: __ZN10robin_hood6detail5TableILb1ELm80ENSt3__112basic_stringIcNS2_11char_traitsIcEENS2_9allocatorIcEEEENS2_10unique_ptrIN2v810PersistentINSA_8FunctionENSA_27NonCopyablePersistentTraitsISC_EEEENS2_14default_deleteISF_EEEENS_4hashIS8_vEENS2_8equal_toIS8_EEE8initDataEm, symObjAddr: 0xD37C, symBinAddr: 0x34828, symSize: 0xCC }
  - { offsetInCU: 0x61918, offset: 0x2B23AB, size: 0x8, addend: 0x0, symName: __ZN10robin_hood6detail5TableILb1ELm80ENSt3__112basic_stringIcNS2_11char_traitsIcEENS2_9allocatorIcEEEENS2_10unique_ptrIN2v810PersistentINSA_8FunctionENSA_27NonCopyablePersistentTraitsISC_EEEENS2_14default_deleteISF_EEEENS_4hashIS8_vEENS2_8equal_toIS8_EEE17try_increase_infoEv, symObjAddr: 0xD448, symBinAddr: 0x348F4, symSize: 0x100 }
  - { offsetInCU: 0x61924, offset: 0x2B23B7, size: 0x8, addend: 0x0, symName: __ZN10robin_hood6detail5TableILb1ELm80ENSt3__112basic_stringIcNS2_11char_traitsIcEENS2_9allocatorIcEEEENS2_10unique_ptrIN2v810PersistentINSA_8FunctionENSA_27NonCopyablePersistentTraitsISC_EEEENS2_14default_deleteISF_EEEENS_4hashIS8_vEENS2_8equal_toIS8_EEE16rehashPowerOfTwoEmb, symObjAddr: 0xD548, symBinAddr: 0x349F4, symSize: 0x110 }
  - { offsetInCU: 0x61CFC, offset: 0x2B278F, size: 0x8, addend: 0x0, symName: __ZN10robin_hood6detail5TableILb1ELm80ENSt3__112basic_stringIcNS2_11char_traitsIcEENS2_9allocatorIcEEEENS2_10unique_ptrIN2v810PersistentINSA_8FunctionENSA_27NonCopyablePersistentTraitsISC_EEEENS2_14default_deleteISF_EEEENS_4hashIS8_vEENS2_8equal_toIS8_EEE11insert_moveEONSN_8DataNodeISN_Lb1EEE, symObjAddr: 0xD658, symBinAddr: 0x34B04, symSize: 0x174 }
  - { offsetInCU: 0x624C5, offset: 0x2B2F58, size: 0x8, addend: 0x0, symName: __ZN10robin_hood6detail5TableILb1ELm80ENSt3__14pairIPvNS2_12basic_stringIcNS2_11char_traitsIcEENS2_9allocatorIcEEEEEENS2_10shared_ptrIN2v810PersistentINSD_5ValueENSD_27NonCopyablePersistentTraitsISF_EEEEEEN3tns9pair_hashENS2_8equal_toISB_EEE13increase_sizeEv, symObjAddr: 0xDAA0, symBinAddr: 0x34E8C, symSize: 0x12C }
  - { offsetInCU: 0x6258F, offset: 0x2B3022, size: 0x8, addend: 0x0, symName: __ZN10robin_hood6detail5TableILb1ELm80ENSt3__14pairIPvNS2_12basic_stringIcNS2_11char_traitsIcEENS2_9allocatorIcEEEEEENS2_10shared_ptrIN2v810PersistentINSD_5ValueENSD_27NonCopyablePersistentTraitsISF_EEEEEEN3tns9pair_hashENS2_8equal_toISB_EEE7shiftUpEmm, symObjAddr: 0xDBCC, symBinAddr: 0x34FB8, symSize: 0x134 }
  - { offsetInCU: 0x628EE, offset: 0x2B3381, size: 0x8, addend: 0x0, symName: __ZN10robin_hood6detail5TableILb1ELm80ENSt3__14pairIPvNS2_12basic_stringIcNS2_11char_traitsIcEENS2_9allocatorIcEEEEEENS2_10shared_ptrIN2v810PersistentINSD_5ValueENSD_27NonCopyablePersistentTraitsISF_EEEEEEN3tns9pair_hashENS2_8equal_toISB_EEE17try_increase_infoEv, symObjAddr: 0xE33C, symBinAddr: 0x351C8, symSize: 0x100 }
  - { offsetInCU: 0x629F8, offset: 0x2B348B, size: 0x8, addend: 0x0, symName: __ZN10robin_hood6detail5TableILb1ELm80ENSt3__14pairIPvNS2_12basic_stringIcNS2_11char_traitsIcEENS2_9allocatorIcEEEEEENS2_10shared_ptrIN2v810PersistentINSD_5ValueENSD_27NonCopyablePersistentTraitsISF_EEEEEEN3tns9pair_hashENS2_8equal_toISB_EEE8initDataEm, symObjAddr: 0xE260, symBinAddr: 0x350EC, symSize: 0xDC }
  - { offsetInCU: 0x62B0B, offset: 0x2B359E, size: 0x8, addend: 0x0, symName: __ZN10robin_hood6detail5TableILb1ELm80ENSt3__14pairIPvNS2_12basic_stringIcNS2_11char_traitsIcEENS2_9allocatorIcEEEEEENS2_10shared_ptrIN2v810PersistentINSD_5ValueENSD_27NonCopyablePersistentTraitsISF_EEEEEEN3tns9pair_hashENS2_8equal_toISB_EEE17try_increase_infoEv, symObjAddr: 0xE33C, symBinAddr: 0x351C8, symSize: 0x100 }
  - { offsetInCU: 0x62B17, offset: 0x2B35AA, size: 0x8, addend: 0x0, symName: __ZN10robin_hood6detail5TableILb1ELm80ENSt3__14pairIPvNS2_12basic_stringIcNS2_11char_traitsIcEENS2_9allocatorIcEEEEEENS2_10shared_ptrIN2v810PersistentINSD_5ValueENSD_27NonCopyablePersistentTraitsISF_EEEEEEN3tns9pair_hashENS2_8equal_toISB_EEE16rehashPowerOfTwoEmb, symObjAddr: 0xE43C, symBinAddr: 0x352C8, symSize: 0x108 }
  - { offsetInCU: 0x6385B, offset: 0x2B42EE, size: 0x8, addend: 0x0, symName: __ZN10robin_hood6detail5TableILb1ELm80ENSt3__14pairIPvNS2_12basic_stringIcNS2_11char_traitsIcEENS2_9allocatorIcEEEEEENS2_10shared_ptrIN2v810PersistentINSD_5ValueENSD_27NonCopyablePersistentTraitsISF_EEEEEEN3tns9pair_hashENS2_8equal_toISB_EEE11insert_moveEONSO_8DataNodeISO_Lb1EEE, symObjAddr: 0xE544, symBinAddr: 0x353D0, symSize: 0x184 }
  - { offsetInCU: 0x63D40, offset: 0x2B47D3, size: 0x8, addend: 0x0, symName: __ZNK10robin_hood6detail5TableILb1ELm80ENSt3__112basic_stringIcNS2_11char_traitsIcEENS2_9allocatorIcEEEEhNS_4hashIS8_vEENS2_8equal_toIS8_EEE9DestroyerISD_Lb0EE20nodesDoNotDeallocateERSD_, symObjAddr: 0xE778, symBinAddr: 0x355A0, symSize: 0xD0 }
  - { offsetInCU: 0x641A0, offset: 0x2B4C33, size: 0x8, addend: 0x0, symName: __ZN10robin_hood6detail5TableILb1ELm80EPKN3tns13BaseClassMetaENSt3__110unique_ptrIN2v810PersistentINS8_16FunctionTemplateENS8_27NonCopyablePersistentTraitsISA_EEEENS6_14default_deleteISD_EEEENS_4hashIS5_vEENS6_8equal_toIS5_EEE13increase_sizeEv, symObjAddr: 0xEB3C, symBinAddr: 0x35964, symSize: 0x12C }
  - { offsetInCU: 0x6426A, offset: 0x2B4CFD, size: 0x8, addend: 0x0, symName: __ZN10robin_hood6detail5TableILb1ELm80EPKN3tns13BaseClassMetaENSt3__110unique_ptrIN2v810PersistentINS8_16FunctionTemplateENS8_27NonCopyablePersistentTraitsISA_EEEENS6_14default_deleteISD_EEEENS_4hashIS5_vEENS6_8equal_toIS5_EEE7shiftUpEmm, symObjAddr: 0xEC68, symBinAddr: 0x35A90, symSize: 0xE4 }
  - { offsetInCU: 0x64425, offset: 0x2B4EB8, size: 0x8, addend: 0x0, symName: __ZN10robin_hood6detail5TableILb1ELm80EPKN3tns13BaseClassMetaENSt3__110unique_ptrIN2v810PersistentINS8_16FunctionTemplateENS8_27NonCopyablePersistentTraitsISA_EEEENS6_14default_deleteISD_EEEENS_4hashIS5_vEENS6_8equal_toIS5_EEE17try_increase_infoEv, symObjAddr: 0xEE18, symBinAddr: 0x35C40, symSize: 0x100 }
  - { offsetInCU: 0x6452F, offset: 0x2B4FC2, size: 0x8, addend: 0x0, symName: __ZN10robin_hood6detail5TableILb1ELm80EPKN3tns13BaseClassMetaENSt3__110unique_ptrIN2v810PersistentINS8_16FunctionTemplateENS8_27NonCopyablePersistentTraitsISA_EEEENS6_14default_deleteISD_EEEENS_4hashIS5_vEENS6_8equal_toIS5_EEE8initDataEm, symObjAddr: 0xED4C, symBinAddr: 0x35B74, symSize: 0xCC }
  - { offsetInCU: 0x64642, offset: 0x2B50D5, size: 0x8, addend: 0x0, symName: __ZN10robin_hood6detail5TableILb1ELm80EPKN3tns13BaseClassMetaENSt3__110unique_ptrIN2v810PersistentINS8_16FunctionTemplateENS8_27NonCopyablePersistentTraitsISA_EEEENS6_14default_deleteISD_EEEENS_4hashIS5_vEENS6_8equal_toIS5_EEE17try_increase_infoEv, symObjAddr: 0xEE18, symBinAddr: 0x35C40, symSize: 0x100 }
  - { offsetInCU: 0x6464E, offset: 0x2B50E1, size: 0x8, addend: 0x0, symName: __ZN10robin_hood6detail5TableILb1ELm80EPKN3tns13BaseClassMetaENSt3__110unique_ptrIN2v810PersistentINS8_16FunctionTemplateENS8_27NonCopyablePersistentTraitsISA_EEEENS6_14default_deleteISD_EEEENS_4hashIS5_vEENS6_8equal_toIS5_EEE16rehashPowerOfTwoEmb, symObjAddr: 0xEF18, symBinAddr: 0x35D40, symSize: 0x100 }
  - { offsetInCU: 0x6490B, offset: 0x2B539E, size: 0x8, addend: 0x0, symName: __ZN10robin_hood6detail5TableILb1ELm80EPKN3tns13BaseClassMetaENSt3__110unique_ptrIN2v810PersistentINS8_16FunctionTemplateENS8_27NonCopyablePersistentTraitsISA_EEEENS6_14default_deleteISD_EEEENS_4hashIS5_vEENS6_8equal_toIS5_EEE11insert_moveEONSL_8DataNodeISL_Lb1EEE, symObjAddr: 0xF018, symBinAddr: 0x35E40, symSize: 0x158 }
  - { offsetInCU: 0x64DE7, offset: 0x2B587A, size: 0x8, addend: 0x0, symName: __ZN10robin_hood6detail5TableILb1ELm80EPKN3tns4MetaENSt3__110unique_ptrIN2v810PersistentINS8_5ValueENS8_27NonCopyablePersistentTraitsISA_EEEENS6_14default_deleteISD_EEEENS_4hashIS5_vEENS6_8equal_toIS5_EEE13increase_sizeEv, symObjAddr: 0xF354, symBinAddr: 0x3617C, symSize: 0x12C }
  - { offsetInCU: 0x64EB1, offset: 0x2B5944, size: 0x8, addend: 0x0, symName: __ZN10robin_hood6detail5TableILb1ELm80EPKN3tns4MetaENSt3__110unique_ptrIN2v810PersistentINS8_5ValueENS8_27NonCopyablePersistentTraitsISA_EEEENS6_14default_deleteISD_EEEENS_4hashIS5_vEENS6_8equal_toIS5_EEE7shiftUpEmm, symObjAddr: 0xF480, symBinAddr: 0x362A8, symSize: 0xE4 }
  - { offsetInCU: 0x65071, offset: 0x2B5B04, size: 0x8, addend: 0x0, symName: __ZN10robin_hood6detail5TableILb1ELm80EPKN3tns4MetaENSt3__110unique_ptrIN2v810PersistentINS8_5ValueENS8_27NonCopyablePersistentTraitsISA_EEEENS6_14default_deleteISD_EEEENS_4hashIS5_vEENS6_8equal_toIS5_EEE17try_increase_infoEv, symObjAddr: 0xF630, symBinAddr: 0x36458, symSize: 0x100 }
  - { offsetInCU: 0x6517B, offset: 0x2B5C0E, size: 0x8, addend: 0x0, symName: __ZN10robin_hood6detail5TableILb1ELm80EPKN3tns4MetaENSt3__110unique_ptrIN2v810PersistentINS8_5ValueENS8_27NonCopyablePersistentTraitsISA_EEEENS6_14default_deleteISD_EEEENS_4hashIS5_vEENS6_8equal_toIS5_EEE8initDataEm, symObjAddr: 0xF564, symBinAddr: 0x3638C, symSize: 0xCC }
  - { offsetInCU: 0x6528E, offset: 0x2B5D21, size: 0x8, addend: 0x0, symName: __ZN10robin_hood6detail5TableILb1ELm80EPKN3tns4MetaENSt3__110unique_ptrIN2v810PersistentINS8_5ValueENS8_27NonCopyablePersistentTraitsISA_EEEENS6_14default_deleteISD_EEEENS_4hashIS5_vEENS6_8equal_toIS5_EEE17try_increase_infoEv, symObjAddr: 0xF630, symBinAddr: 0x36458, symSize: 0x100 }
  - { offsetInCU: 0x6529A, offset: 0x2B5D2D, size: 0x8, addend: 0x0, symName: __ZN10robin_hood6detail5TableILb1ELm80EPKN3tns4MetaENSt3__110unique_ptrIN2v810PersistentINS8_5ValueENS8_27NonCopyablePersistentTraitsISA_EEEENS6_14default_deleteISD_EEEENS_4hashIS5_vEENS6_8equal_toIS5_EEE16rehashPowerOfTwoEmb, symObjAddr: 0xF730, symBinAddr: 0x36558, symSize: 0x100 }
  - { offsetInCU: 0x65557, offset: 0x2B5FEA, size: 0x8, addend: 0x0, symName: __ZN10robin_hood6detail5TableILb1ELm80EPKN3tns4MetaENSt3__110unique_ptrIN2v810PersistentINS8_5ValueENS8_27NonCopyablePersistentTraitsISA_EEEENS6_14default_deleteISD_EEEENS_4hashIS5_vEENS6_8equal_toIS5_EEE11insert_moveEONSL_8DataNodeISL_Lb1EEE, symObjAddr: 0xF830, symBinAddr: 0x36658, symSize: 0x158 }
  - { offsetInCU: 0x65ABC, offset: 0x2B654F, size: 0x8, addend: 0x0, symName: __ZN10robin_hood6detail5TableILb1ELm80ENSt3__112basic_stringIcNS2_11char_traitsIcEENS2_9allocatorIcEEEEhNS_4hashIS8_vEENS2_8equal_toIS8_EEE13increase_sizeEv, symObjAddr: 0xFCD8, symBinAddr: 0x36B00, symSize: 0x12C }
  - { offsetInCU: 0x65B86, offset: 0x2B6619, size: 0x8, addend: 0x0, symName: __ZN10robin_hood6detail5TableILb1ELm80ENSt3__112basic_stringIcNS2_11char_traitsIcEENS2_9allocatorIcEEEEhNS_4hashIS8_vEENS2_8equal_toIS8_EEE7shiftUpEmm, symObjAddr: 0xFE04, symBinAddr: 0x36C2C, symSize: 0x120 }
  - { offsetInCU: 0x65E54, offset: 0x2B68E7, size: 0x8, addend: 0x0, symName: __ZN10robin_hood6detail5TableILb1ELm80ENSt3__112basic_stringIcNS2_11char_traitsIcEENS2_9allocatorIcEEEEhNS_4hashIS8_vEENS2_8equal_toIS8_EEE17try_increase_infoEv, symObjAddr: 0xFFF0, symBinAddr: 0x36E18, symSize: 0x100 }
  - { offsetInCU: 0x65F5E, offset: 0x2B69F1, size: 0x8, addend: 0x0, symName: __ZN10robin_hood6detail5TableILb1ELm80ENSt3__112basic_stringIcNS2_11char_traitsIcEENS2_9allocatorIcEEEEhNS_4hashIS8_vEENS2_8equal_toIS8_EEE8initDataEm, symObjAddr: 0xFF24, symBinAddr: 0x36D4C, symSize: 0xCC }
  - { offsetInCU: 0x66071, offset: 0x2B6B04, size: 0x8, addend: 0x0, symName: __ZN10robin_hood6detail5TableILb1ELm80ENSt3__112basic_stringIcNS2_11char_traitsIcEENS2_9allocatorIcEEEEhNS_4hashIS8_vEENS2_8equal_toIS8_EEE17try_increase_infoEv, symObjAddr: 0xFFF0, symBinAddr: 0x36E18, symSize: 0x100 }
  - { offsetInCU: 0x6607D, offset: 0x2B6B10, size: 0x8, addend: 0x0, symName: __ZN10robin_hood6detail5TableILb1ELm80ENSt3__112basic_stringIcNS2_11char_traitsIcEENS2_9allocatorIcEEEEhNS_4hashIS8_vEENS2_8equal_toIS8_EEE16rehashPowerOfTwoEmb, symObjAddr: 0x100F0, symBinAddr: 0x36F18, symSize: 0x100 }
  - { offsetInCU: 0x6639A, offset: 0x2B6E2D, size: 0x8, addend: 0x0, symName: __ZN10robin_hood6detail5TableILb1ELm80ENSt3__112basic_stringIcNS2_11char_traitsIcEENS2_9allocatorIcEEEEhNS_4hashIS8_vEENS2_8equal_toIS8_EEE11insert_moveEONSD_8DataNodeISD_Lb1EEE, symObjAddr: 0x101F0, symBinAddr: 0x37018, symSize: 0x15C }
  - { offsetInCU: 0x66951, offset: 0x2B73E4, size: 0x8, addend: 0x0, symName: __ZNSt3__128__exception_guard_exceptionsINS_29_AllocatorDestroyRangeReverseINS_9allocatorINS_12basic_stringIcNS_11char_traitsIcEENS2_IcEEEEEENS_16reverse_iteratorIPS7_EEEEED2B7v160006Ev, symObjAddr: 0x104EC, symBinAddr: 0x37314, symSize: 0x34 }
  - { offsetInCU: 0x6698A, offset: 0x2B741D, size: 0x8, addend: 0x0, symName: __ZNKSt3__129_AllocatorDestroyRangeReverseINS_9allocatorINS_12basic_stringIcNS_11char_traitsIcEENS1_IcEEEEEENS_16reverse_iteratorIPS6_EEEclB7v160006Ev, symObjAddr: 0x10520, symBinAddr: 0x37348, symSize: 0x44 }
  - { offsetInCU: 0x66B98, offset: 0x2B762B, size: 0x8, addend: 0x0, symName: __ZNSt3__114__split_bufferINS_12basic_stringIcNS_11char_traitsIcEENS_9allocatorIcEEEERNS4_IS6_EEE17__destruct_at_endB7v160006EPS6_, symObjAddr: 0x10598, symBinAddr: 0x373C0, symSize: 0x54 }
  - { offsetInCU: 0x67AD4, offset: 0x2B8567, size: 0x8, addend: 0x0, symName: '__ZNSt3__110__function6__funcIZN3tns15MetadataBuilder17CFunctionCallbackERKN2v820FunctionCallbackInfoINS4_5ValueEEEE3$_2NS_9allocatorISA_EEFvvEED1Ev', symObjAddr: 0x10E08, symBinAddr: 0x37638, symSize: 0x30 }
  - { offsetInCU: 0x67C33, offset: 0x2B86C6, size: 0x8, addend: 0x0, symName: '__ZNSt3__110__function6__funcIZN3tns15MetadataBuilder17CFunctionCallbackERKN2v820FunctionCallbackInfoINS4_5ValueEEEE3$_2NS_9allocatorISA_EEFvvEED0Ev', symObjAddr: 0x10E38, symBinAddr: 0x37668, symSize: 0x30 }
  - { offsetInCU: 0x680A0, offset: 0x2B8B33, size: 0x8, addend: 0x0, symName: '__ZNKSt3__110__function6__funcIZN3tns15MetadataBuilder17CFunctionCallbackERKN2v820FunctionCallbackInfoINS4_5ValueEEEE3$_2NS_9allocatorISA_EEFvvEE7__cloneEv', symObjAddr: 0x10E68, symBinAddr: 0x37698, symSize: 0x60 }
  - { offsetInCU: 0x68559, offset: 0x2B8FEC, size: 0x8, addend: 0x0, symName: '__ZNKSt3__110__function6__funcIZN3tns15MetadataBuilder17CFunctionCallbackERKN2v820FunctionCallbackInfoINS4_5ValueEEEE3$_2NS_9allocatorISA_EEFvvEE7__cloneEPNS0_6__baseISD_EE', symObjAddr: 0x10EC8, symBinAddr: 0x376F8, symSize: 0x24 }
  - { offsetInCU: 0x68595, offset: 0x2B9028, size: 0x8, addend: 0x0, symName: '__ZNKSt3__110__function6__funcIZN3tns15MetadataBuilder17CFunctionCallbackERKN2v820FunctionCallbackInfoINS4_5ValueEEEE3$_2NS_9allocatorISA_EEFvvEE7__cloneEPNS0_6__baseISD_EE', symObjAddr: 0x10EC8, symBinAddr: 0x376F8, symSize: 0x24 }
  - { offsetInCU: 0x685C9, offset: 0x2B905C, size: 0x8, addend: 0x0, symName: '__ZNKSt3__110__function6__funcIZN3tns15MetadataBuilder17CFunctionCallbackERKN2v820FunctionCallbackInfoINS4_5ValueEEEE3$_2NS_9allocatorISA_EEFvvEE7__cloneEPNS0_6__baseISD_EE', symObjAddr: 0x10EC8, symBinAddr: 0x376F8, symSize: 0x24 }
  - { offsetInCU: 0x68790, offset: 0x2B9223, size: 0x8, addend: 0x0, symName: '__ZNSt3__110__function6__funcIZN3tns15MetadataBuilder17CFunctionCallbackERKN2v820FunctionCallbackInfoINS4_5ValueEEEE3$_2NS_9allocatorISA_EEFvvEE7destroyEv', symObjAddr: 0x10EEC, symBinAddr: 0x3771C, symSize: 0x8 }
  - { offsetInCU: 0x687BB, offset: 0x2B924E, size: 0x8, addend: 0x0, symName: '__ZNSt3__110__function6__funcIZN3tns15MetadataBuilder17CFunctionCallbackERKN2v820FunctionCallbackInfoINS4_5ValueEEEE3$_2NS_9allocatorISA_EEFvvEE7destroyEv', symObjAddr: 0x10EEC, symBinAddr: 0x3771C, symSize: 0x8 }
  - { offsetInCU: 0x687DB, offset: 0x2B926E, size: 0x8, addend: 0x0, symName: '__ZNSt3__110__function6__funcIZN3tns15MetadataBuilder17CFunctionCallbackERKN2v820FunctionCallbackInfoINS4_5ValueEEEE3$_2NS_9allocatorISA_EEFvvEE7destroyEv', symObjAddr: 0x10EEC, symBinAddr: 0x3771C, symSize: 0x8 }
  - { offsetInCU: 0x687F9, offset: 0x2B928C, size: 0x8, addend: 0x0, symName: '__ZNSt3__110__function6__funcIZN3tns15MetadataBuilder17CFunctionCallbackERKN2v820FunctionCallbackInfoINS4_5ValueEEEE3$_2NS_9allocatorISA_EEFvvEE7destroyEv', symObjAddr: 0x10EEC, symBinAddr: 0x3771C, symSize: 0x8 }
  - { offsetInCU: 0x68817, offset: 0x2B92AA, size: 0x8, addend: 0x0, symName: '__ZNSt3__110__function6__funcIZN3tns15MetadataBuilder17CFunctionCallbackERKN2v820FunctionCallbackInfoINS4_5ValueEEEE3$_2NS_9allocatorISA_EEFvvEE7destroyEv', symObjAddr: 0x10EEC, symBinAddr: 0x3771C, symSize: 0x8 }
  - { offsetInCU: 0x68835, offset: 0x2B92C8, size: 0x8, addend: 0x0, symName: '__ZNSt3__110__function6__funcIZN3tns15MetadataBuilder17CFunctionCallbackERKN2v820FunctionCallbackInfoINS4_5ValueEEEE3$_2NS_9allocatorISA_EEFvvEE7destroyEv', symObjAddr: 0x10EEC, symBinAddr: 0x3771C, symSize: 0x8 }
  - { offsetInCU: 0x68853, offset: 0x2B92E6, size: 0x8, addend: 0x0, symName: '__ZNSt3__110__function6__funcIZN3tns15MetadataBuilder17CFunctionCallbackERKN2v820FunctionCallbackInfoINS4_5ValueEEEE3$_2NS_9allocatorISA_EEFvvEE7destroyEv', symObjAddr: 0x10EEC, symBinAddr: 0x3771C, symSize: 0x8 }
  - { offsetInCU: 0x688A3, offset: 0x2B9336, size: 0x8, addend: 0x0, symName: '__ZNSt3__110__function6__funcIZN3tns15MetadataBuilder17CFunctionCallbackERKN2v820FunctionCallbackInfoINS4_5ValueEEEE3$_2NS_9allocatorISA_EEFvvEE18destroy_deallocateEv', symObjAddr: 0x10EF4, symBinAddr: 0x37724, symSize: 0x28 }
  - { offsetInCU: 0x69055, offset: 0x2B9AE8, size: 0x8, addend: 0x0, symName: '__ZNSt3__110__function6__funcIZN3tns15MetadataBuilder17CFunctionCallbackERKN2v820FunctionCallbackInfoINS4_5ValueEEEE3$_2NS_9allocatorISA_EEFvvEEclEv', symObjAddr: 0x10F1C, symBinAddr: 0x3774C, symSize: 0x370 }
  - { offsetInCU: 0x6A1CC, offset: 0x2BAC5F, size: 0x8, addend: 0x0, symName: '__ZNSt3__110__function6__funcIZN3tns15MetadataBuilder30SwizzledInstanceMethodCallbackEN2v85LocalINS4_4NameEEENS5_INS4_5ValueEEERKNS4_20PropertyCallbackInfoIS8_EEE3$_3NS_9allocatorISE_EEFiRKNS2_5PtrToINS2_10MethodMetaEEEEED1Ev', symObjAddr: 0x113D8, symBinAddr: 0x37ABC, symSize: 0x3C }
  - { offsetInCU: 0x6A42C, offset: 0x2BAEBF, size: 0x8, addend: 0x0, symName: '__ZNSt3__110__function6__funcIZN3tns15MetadataBuilder30SwizzledInstanceMethodCallbackEN2v85LocalINS4_4NameEEENS5_INS4_5ValueEEERKNS4_20PropertyCallbackInfoIS8_EEE3$_3NS_9allocatorISE_EEFiRKNS2_5PtrToINS2_10MethodMetaEEEEED0Ev', symObjAddr: 0x11414, symBinAddr: 0x37AF8, symSize: 0x3C }
  - { offsetInCU: 0x6A99A, offset: 0x2BB42D, size: 0x8, addend: 0x0, symName: '__ZNKSt3__110__function6__funcIZN3tns15MetadataBuilder30SwizzledInstanceMethodCallbackEN2v85LocalINS4_4NameEEENS5_INS4_5ValueEEERKNS4_20PropertyCallbackInfoIS8_EEE3$_3NS_9allocatorISE_EEFiRKNS2_5PtrToINS2_10MethodMetaEEEEE7__cloneEv', symObjAddr: 0x11450, symBinAddr: 0x37B34, symSize: 0x54 }
  - { offsetInCU: 0x6AE00, offset: 0x2BB893, size: 0x8, addend: 0x0, symName: '__ZNKSt3__110__function6__funcIZN3tns15MetadataBuilder30SwizzledInstanceMethodCallbackEN2v85LocalINS4_4NameEEENS5_INS4_5ValueEEERKNS4_20PropertyCallbackInfoIS8_EEE3$_3NS_9allocatorISE_EEFiRKNS2_5PtrToINS2_10MethodMetaEEEEE7__cloneEPNS0_6__baseISM_EE', symObjAddr: 0x114A4, symBinAddr: 0x37B88, symSize: 0x1C }
  - { offsetInCU: 0x6AFC2, offset: 0x2BBA55, size: 0x8, addend: 0x0, symName: '__ZNSt3__110__function6__funcIZN3tns15MetadataBuilder30SwizzledInstanceMethodCallbackEN2v85LocalINS4_4NameEEENS5_INS4_5ValueEEERKNS4_20PropertyCallbackInfoIS8_EEE3$_3NS_9allocatorISE_EEFiRKNS2_5PtrToINS2_10MethodMetaEEEEE7destroyEv', symObjAddr: 0x114C0, symBinAddr: 0x37BA4, symSize: 0x14 }
  - { offsetInCU: 0x6B0A9, offset: 0x2BBB3C, size: 0x8, addend: 0x0, symName: '__ZNSt3__110__function6__funcIZN3tns15MetadataBuilder30SwizzledInstanceMethodCallbackEN2v85LocalINS4_4NameEEENS5_INS4_5ValueEEERKNS4_20PropertyCallbackInfoIS8_EEE3$_3NS_9allocatorISE_EEFiRKNS2_5PtrToINS2_10MethodMetaEEEEE7destroyEv', symObjAddr: 0x114C0, symBinAddr: 0x37BA4, symSize: 0x14 }
  - { offsetInCU: 0x6B18A, offset: 0x2BBC1D, size: 0x8, addend: 0x0, symName: '__ZNSt3__110__function6__funcIZN3tns15MetadataBuilder30SwizzledInstanceMethodCallbackEN2v85LocalINS4_4NameEEENS5_INS4_5ValueEEERKNS4_20PropertyCallbackInfoIS8_EEE3$_3NS_9allocatorISE_EEFiRKNS2_5PtrToINS2_10MethodMetaEEEEE18destroy_deallocateEv', symObjAddr: 0x114D4, symBinAddr: 0x37BB8, symSize: 0x30 }
  - { offsetInCU: 0x6B4E1, offset: 0x2BBF74, size: 0x8, addend: 0x0, symName: '__ZNSt3__110__function6__funcIZN3tns15MetadataBuilder30SwizzledInstanceMethodCallbackEN2v85LocalINS4_4NameEEENS5_INS4_5ValueEEERKNS4_20PropertyCallbackInfoIS8_EEE3$_3NS_9allocatorISE_EEFiRKNS2_5PtrToINS2_10MethodMetaEEEEEclESL_', symObjAddr: 0x11504, symBinAddr: 0x37BE8, symSize: 0x140 }
  - { offsetInCU: 0x6BBE6, offset: 0x2BC679, size: 0x8, addend: 0x0, symName: __ZNSt3__120__shared_ptr_emplaceIN2v810PersistentINS1_5ValueENS1_27NonCopyablePersistentTraitsIS3_EEEENS_9allocatorIS6_EEEC2B7v160006IJRPNS1_7IsolateERNS1_5LocalIS3_EEEEES8_DpOT_, symObjAddr: 0x116A4, symBinAddr: 0x37D88, symSize: 0x68 }
  - { offsetInCU: 0x6BE06, offset: 0x2BC899, size: 0x8, addend: 0x0, symName: '__ZNSt3__110__function6__funcIZN3tns15MetadataBuilder24SwizzledPropertyCallbackEN2v85LocalINS4_4NameEEERKNS4_18PropertyDescriptorERKNS4_20PropertyCallbackInfoINS4_5ValueEEEE3$_4NS_9allocatorISG_EEFiRKNS2_5PtrToINS2_12PropertyMetaEEEEED1Ev', symObjAddr: 0x11780, symBinAddr: 0x37DF0, symSize: 0x3C }
  - { offsetInCU: 0x6C066, offset: 0x2BCAF9, size: 0x8, addend: 0x0, symName: '__ZNSt3__110__function6__funcIZN3tns15MetadataBuilder24SwizzledPropertyCallbackEN2v85LocalINS4_4NameEEERKNS4_18PropertyDescriptorERKNS4_20PropertyCallbackInfoINS4_5ValueEEEE3$_4NS_9allocatorISG_EEFiRKNS2_5PtrToINS2_12PropertyMetaEEEEED0Ev', symObjAddr: 0x117BC, symBinAddr: 0x37E2C, symSize: 0x3C }
  - { offsetInCU: 0x6C5D4, offset: 0x2BD067, size: 0x8, addend: 0x0, symName: '__ZNKSt3__110__function6__funcIZN3tns15MetadataBuilder24SwizzledPropertyCallbackEN2v85LocalINS4_4NameEEERKNS4_18PropertyDescriptorERKNS4_20PropertyCallbackInfoINS4_5ValueEEEE3$_4NS_9allocatorISG_EEFiRKNS2_5PtrToINS2_12PropertyMetaEEEEE7__cloneEv', symObjAddr: 0x117F8, symBinAddr: 0x37E68, symSize: 0x54 }
  - { offsetInCU: 0x6CA3A, offset: 0x2BD4CD, size: 0x8, addend: 0x0, symName: '__ZNKSt3__110__function6__funcIZN3tns15MetadataBuilder24SwizzledPropertyCallbackEN2v85LocalINS4_4NameEEERKNS4_18PropertyDescriptorERKNS4_20PropertyCallbackInfoINS4_5ValueEEEE3$_4NS_9allocatorISG_EEFiRKNS2_5PtrToINS2_12PropertyMetaEEEEE7__cloneEPNS0_6__baseISO_EE', symObjAddr: 0x1184C, symBinAddr: 0x37EBC, symSize: 0x1C }
  - { offsetInCU: 0x6CBFC, offset: 0x2BD68F, size: 0x8, addend: 0x0, symName: '__ZNSt3__110__function6__funcIZN3tns15MetadataBuilder24SwizzledPropertyCallbackEN2v85LocalINS4_4NameEEERKNS4_18PropertyDescriptorERKNS4_20PropertyCallbackInfoINS4_5ValueEEEE3$_4NS_9allocatorISG_EEFiRKNS2_5PtrToINS2_12PropertyMetaEEEEE7destroyEv', symObjAddr: 0x11868, symBinAddr: 0x37ED8, symSize: 0x14 }
  - { offsetInCU: 0x6CCE3, offset: 0x2BD776, size: 0x8, addend: 0x0, symName: '__ZNSt3__110__function6__funcIZN3tns15MetadataBuilder24SwizzledPropertyCallbackEN2v85LocalINS4_4NameEEERKNS4_18PropertyDescriptorERKNS4_20PropertyCallbackInfoINS4_5ValueEEEE3$_4NS_9allocatorISG_EEFiRKNS2_5PtrToINS2_12PropertyMetaEEEEE7destroyEv', symObjAddr: 0x11868, symBinAddr: 0x37ED8, symSize: 0x14 }
  - { offsetInCU: 0x6CDC4, offset: 0x2BD857, size: 0x8, addend: 0x0, symName: '__ZNSt3__110__function6__funcIZN3tns15MetadataBuilder24SwizzledPropertyCallbackEN2v85LocalINS4_4NameEEERKNS4_18PropertyDescriptorERKNS4_20PropertyCallbackInfoINS4_5ValueEEEE3$_4NS_9allocatorISG_EEFiRKNS2_5PtrToINS2_12PropertyMetaEEEEE18destroy_deallocateEv', symObjAddr: 0x1187C, symBinAddr: 0x37EEC, symSize: 0x30 }
  - { offsetInCU: 0x6D11B, offset: 0x2BDBAE, size: 0x8, addend: 0x0, symName: '__ZNSt3__110__function6__funcIZN3tns15MetadataBuilder24SwizzledPropertyCallbackEN2v85LocalINS4_4NameEEERKNS4_18PropertyDescriptorERKNS4_20PropertyCallbackInfoINS4_5ValueEEEE3$_4NS_9allocatorISG_EEFiRKNS2_5PtrToINS2_12PropertyMetaEEEEEclESN_', symObjAddr: 0x118AC, symBinAddr: 0x37F1C, symSize: 0x140 }
  - { offsetInCU: 0x6D9F6, offset: 0x2BE489, size: 0x8, addend: 0x0, symName: __ZNSt3__120__shared_ptr_emplaceIN2v810PersistentINS1_8FunctionENS1_27NonCopyablePersistentTraitsIS3_EEEENS_9allocatorIS6_EEEC2B7v160006IJRPNS1_7IsolateENS1_5LocalIS3_EEEEES8_DpOT_, symObjAddr: 0x11A4C, symBinAddr: 0x380BC, symSize: 0x68 }
  - { offsetInCU: 0x6DB72, offset: 0x2BE605, size: 0x8, addend: 0x0, symName: __ZNSt3__120__shared_ptr_emplaceIN2v810PersistentINS1_8FunctionENS1_27NonCopyablePersistentTraitsIS3_EEEENS_9allocatorIS6_EEED1Ev, symObjAddr: 0x11AB4, symBinAddr: 0x38124, symSize: 0x14 }
  - { offsetInCU: 0x6DB93, offset: 0x2BE626, size: 0x8, addend: 0x0, symName: __ZNSt3__120__shared_ptr_emplaceIN2v810PersistentINS1_8FunctionENS1_27NonCopyablePersistentTraitsIS3_EEEENS_9allocatorIS6_EEED1Ev, symObjAddr: 0x11AB4, symBinAddr: 0x38124, symSize: 0x14 }
  - { offsetInCU: 0x6DBCB, offset: 0x2BE65E, size: 0x8, addend: 0x0, symName: __ZNSt3__120__shared_ptr_emplaceIN2v810PersistentINS1_8FunctionENS1_27NonCopyablePersistentTraitsIS3_EEEENS_9allocatorIS6_EEED0Ev, symObjAddr: 0x11AC8, symBinAddr: 0x38138, symSize: 0x24 }
  - { offsetInCU: 0x6DC32, offset: 0x2BE6C5, size: 0x8, addend: 0x0, symName: __ZNSt3__120__shared_ptr_emplaceIN2v810PersistentINS1_8FunctionENS1_27NonCopyablePersistentTraitsIS3_EEEENS_9allocatorIS6_EEE16__on_zero_sharedEv, symObjAddr: 0x11AEC, symBinAddr: 0x3815C, symSize: 0x4 }
  - { offsetInCU: 0x6DC56, offset: 0x2BE6E9, size: 0x8, addend: 0x0, symName: __ZNSt3__120__shared_ptr_emplaceIN2v810PersistentINS1_8FunctionENS1_27NonCopyablePersistentTraitsIS3_EEEENS_9allocatorIS6_EEE21__on_zero_shared_weakEv, symObjAddr: 0x11AF0, symBinAddr: 0x38160, symSize: 0x4 }
  - { offsetInCU: 0x6DC89, offset: 0x2BE71C, size: 0x8, addend: 0x0, symName: __ZNSt3__120__shared_ptr_emplaceIN2v810PersistentINS1_8FunctionENS1_27NonCopyablePersistentTraitsIS3_EEEENS_9allocatorIS6_EEE21__on_zero_shared_weakEv, symObjAddr: 0x11AF0, symBinAddr: 0x38160, symSize: 0x4 }
  - { offsetInCU: 0x6DCAD, offset: 0x2BE740, size: 0x8, addend: 0x0, symName: __ZNSt3__120__shared_ptr_emplaceIN2v810PersistentINS1_8FunctionENS1_27NonCopyablePersistentTraitsIS3_EEEENS_9allocatorIS6_EEE21__on_zero_shared_weakEv, symObjAddr: 0x11AF0, symBinAddr: 0x38160, symSize: 0x4 }
  - { offsetInCU: 0x6DCD1, offset: 0x2BE764, size: 0x8, addend: 0x0, symName: __ZNSt3__120__shared_ptr_emplaceIN2v810PersistentINS1_8FunctionENS1_27NonCopyablePersistentTraitsIS3_EEEENS_9allocatorIS6_EEE21__on_zero_shared_weakEv, symObjAddr: 0x11AF0, symBinAddr: 0x38160, symSize: 0x4 }
  - { offsetInCU: 0x6DCFD, offset: 0x2BE790, size: 0x8, addend: 0x0, symName: __ZNSt3__120__shared_ptr_emplaceIN2v810PersistentINS1_8FunctionENS1_27NonCopyablePersistentTraitsIS3_EEEENS_9allocatorIS6_EEE21__on_zero_shared_weakEv, symObjAddr: 0x11AF0, symBinAddr: 0x38160, symSize: 0x4 }
  - { offsetInCU: 0x6DD24, offset: 0x2BE7B7, size: 0x8, addend: 0x0, symName: __ZNSt3__120__shared_ptr_emplaceIN2v810PersistentINS1_8FunctionENS1_27NonCopyablePersistentTraitsIS3_EEEENS_9allocatorIS6_EEE21__on_zero_shared_weakEv, symObjAddr: 0x11AF0, symBinAddr: 0x38160, symSize: 0x4 }
  - { offsetInCU: 0xDFC4, offset: 0x2CC852, size: 0x8, addend: 0x0, symName: __ZN3tns9Reference8RegisterEN2v85LocalINS1_7ContextEEENS2_INS1_6ObjectEEE, symObjAddr: 0x0, symBinAddr: 0x38164, symSize: 0x118 }
  - { offsetInCU: 0xE401, offset: 0x2CCC8F, size: 0x8, addend: 0x0, symName: __ZN3tns9Reference27GetInteropReferenceCtorFuncEN2v85LocalINS1_7ContextEEE, symObjAddr: 0x118, symBinAddr: 0x3827C, symSize: 0x450 }
  - { offsetInCU: 0xFC08, offset: 0x2CE496, size: 0x8, addend: 0x0, symName: __ZN3tns9Reference22RegisterToStringMethodEN2v85LocalINS1_7ContextEEENS2_INS1_6ObjectEEE, symObjAddr: 0xC04, symBinAddr: 0x38D68, symSize: 0x174 }
  - { offsetInCU: 0x10311, offset: 0x2CEB9F, size: 0x8, addend: 0x0, symName: __ZN3tns9Reference11FromPointerEN2v85LocalINS1_7ContextEEENS2_INS1_5ValueEEEPv, symObjAddr: 0x568, symBinAddr: 0x386CC, symSize: 0x17C }
  - { offsetInCU: 0x10B05, offset: 0x2CF393, size: 0x8, addend: 0x0, symName: __ZN3tns9Reference28ReferenceConstructorCallbackERKN2v820FunctionCallbackInfoINS1_5ValueEEE, symObjAddr: 0x6E4, symBinAddr: 0x38848, symSize: 0x268 }
  - { offsetInCU: 0x116D5, offset: 0x2CFF63, size: 0x8, addend: 0x0, symName: __ZN3tns9Reference26IndexedPropertyGetCallbackEjRKN2v820PropertyCallbackInfoINS1_5ValueEEE, symObjAddr: 0x94C, symBinAddr: 0x38AB0, symSize: 0xF4 }
  - { offsetInCU: 0x119AE, offset: 0x2D023C, size: 0x8, addend: 0x0, symName: __ZN3tns9Reference23GetTypeEncodingDataPairEN2v85LocalINS1_6ObjectEEE, symObjAddr: 0xD78, symBinAddr: 0x38EDC, symSize: 0x210 }
  - { offsetInCU: 0x12656, offset: 0x2D0EE4, size: 0x8, addend: 0x0, symName: __ZN3tns9Reference26IndexedPropertySetCallbackEjN2v85LocalINS1_5ValueEEERKNS1_20PropertyCallbackInfoIS3_EE, symObjAddr: 0xA40, symBinAddr: 0x38BA4, symSize: 0x6C }
  - { offsetInCU: 0x12795, offset: 0x2D1023, size: 0x8, addend: 0x0, symName: __ZN3tns9Reference16GetValueCallbackEN2v85LocalINS1_4NameEEERKNS1_20PropertyCallbackInfoINS1_5ValueEEE, symObjAddr: 0xAAC, symBinAddr: 0x38C10, symSize: 0x4C }
  - { offsetInCU: 0x12893, offset: 0x2D1121, size: 0x8, addend: 0x0, symName: __ZN3tns9Reference16GetReferredValueEN2v85LocalINS1_7ContextEEENS2_INS1_5ValueEEE, symObjAddr: 0xF88, symBinAddr: 0x390EC, symSize: 0x2E4 }
  - { offsetInCU: 0x131A5, offset: 0x2D1A33, size: 0x8, addend: 0x0, symName: __ZN3tns9Reference16SetValueCallbackEN2v85LocalINS1_4NameEEENS2_INS1_5ValueEEERKNS1_20PropertyCallbackInfoIvEE, symObjAddr: 0xAF8, symBinAddr: 0x38C5C, symSize: 0x10C }
  - { offsetInCU: 0x13936, offset: 0x2D21C4, size: 0x8, addend: 0x0, symName: __ZN3tns9Reference17GetWrappedPointerEN2v85LocalINS1_7ContextEEENS2_INS1_5ValueEEEPKNS_12TypeEncodingE, symObjAddr: 0x126C, symBinAddr: 0x393D0, symSize: 0x2F0 }
  - { offsetInCU: 0x148C9, offset: 0x2D3157, size: 0x8, addend: 0x0, symName: __ZN3tns20ReferenceTypeWrapperD1Ev, symObjAddr: 0x1724, symBinAddr: 0x396C0, symSize: 0x4 }
  - { offsetInCU: 0x148F2, offset: 0x2D3180, size: 0x8, addend: 0x0, symName: __ZN3tns20ReferenceTypeWrapperD0Ev, symObjAddr: 0x1728, symBinAddr: 0x396C4, symSize: 0x4 }
  - { offsetInCU: 0x1491B, offset: 0x2D31A9, size: 0x8, addend: 0x0, symName: __ZN3tns20ReferenceTypeWrapper4TypeEv, symObjAddr: 0x172C, symBinAddr: 0x396C8, symSize: 0x8 }
  - { offsetInCU: 0x14942, offset: 0x2D31D0, size: 0x8, addend: 0x0, symName: __ZN3tns16ReferenceWrapperD1Ev, symObjAddr: 0x1734, symBinAddr: 0x396D0, symSize: 0x4 }
  - { offsetInCU: 0x14964, offset: 0x2D31F2, size: 0x8, addend: 0x0, symName: __ZN3tns16ReferenceWrapperD1Ev, symObjAddr: 0x1734, symBinAddr: 0x396D0, symSize: 0x4 }
  - { offsetInCU: 0x1496F, offset: 0x2D31FD, size: 0x8, addend: 0x0, symName: __ZN3tns16ReferenceWrapperD2Ev, symObjAddr: 0x1754, symBinAddr: 0x396F0, symSize: 0x68 }
  - { offsetInCU: 0x149FC, offset: 0x2D328A, size: 0x8, addend: 0x0, symName: __ZN3tns16ReferenceWrapperD0Ev, symObjAddr: 0x1738, symBinAddr: 0x396D4, symSize: 0x14 }
  - { offsetInCU: 0x14A50, offset: 0x2D32DE, size: 0x8, addend: 0x0, symName: __ZN3tns16ReferenceWrapper4TypeEv, symObjAddr: 0x174C, symBinAddr: 0x396E8, symSize: 0x8 }
  - { offsetInCU: 0x153E9, offset: 0x2D3C77, size: 0x8, addend: 0x0, symName: '__ZZN3tns9Reference22RegisterToStringMethodEN2v85LocalINS1_7ContextEEENS2_INS1_6ObjectEEEEN3$_08__invokeERKNS1_20FunctionCallbackInfoINS1_5ValueEEE', symObjAddr: 0x1B8C, symBinAddr: 0x39758, symSize: 0x180 }
  - { offsetInCU: 0x56, offset: 0x2D4542, size: 0x8, addend: 0x0, symName: __ZN3tns10SetTimeout6cache_E, symObjAddr: 0x16F1C0, symBinAddr: 0x1593CD8, symSize: 0x0 }
  - { offsetInCU: 0x120, offset: 0x2D460C, size: 0x8, addend: 0x0, symName: __ZN3tns10SetTimeout6count_E, symObjAddr: 0x16F1B8, symBinAddr: 0x1593CD0, symSize: 0x0 }
  - { offsetInCU: 0xDB99, offset: 0x2E2085, size: 0x8, addend: 0x0, symName: __ZN3tns10SetTimeout4InitEPN2v87IsolateENS1_5LocalINS1_14ObjectTemplateEEE, symObjAddr: 0x0, symBinAddr: 0x398D8, symSize: 0x194 }
  - { offsetInCU: 0xE58E, offset: 0x2E2A7A, size: 0x8, addend: 0x0, symName: __ZN3tns10SetTimeout18SetTimeoutCallbackERKN2v820FunctionCallbackInfoINS1_5ValueEEE, symObjAddr: 0x194, symBinAddr: 0x39A6C, symSize: 0x258 }
  - { offsetInCU: 0xED54, offset: 0x2E3240, size: 0x8, addend: 0x0, symName: __ZN10robin_hood6detail5TableILb1ELm80EjN3tns10SetTimeout10CacheEntryENS_4hashIjvEENSt3__18equal_toIjEEE7emplaceIJRjRS4_EEENS7_4pairINSA_4IterILb0EEEbEEDpOT_, symObjAddr: 0x714, symBinAddr: 0x39FEC, symSize: 0xAC }
  - { offsetInCU: 0xEF66, offset: 0x2E3452, size: 0x8, addend: 0x0, symName: __ZN3tns10SetTimeout20ClearTimeoutCallbackERKN2v820FunctionCallbackInfoINS1_5ValueEEE, symObjAddr: 0x3EC, symBinAddr: 0x39CC4, symSize: 0x12C }
  - { offsetInCU: 0xF44C, offset: 0x2E3938, size: 0x8, addend: 0x0, symName: __ZNK10robin_hood6detail5TableILb1ELm80EjN3tns10SetTimeout10CacheEntryENS_4hashIjvEENSt3__18equal_toIjEEE7findIdxIjEEmRKT_, symObjAddr: 0x13C4, symBinAddr: 0x3A9C8, symSize: 0xE4 }
  - { offsetInCU: 0xF4A9, offset: 0x2E3995, size: 0x8, addend: 0x0, symName: __ZNK10robin_hood6detail5TableILb1ELm80EjN3tns10SetTimeout10CacheEntryENS_4hashIjvEENSt3__18equal_toIjEEE7findIdxIjEEmRKT_, symObjAddr: 0x13C4, symBinAddr: 0x3A9C8, symSize: 0xE4 }
  - { offsetInCU: 0xF4D7, offset: 0x2E39C3, size: 0x8, addend: 0x0, symName: __ZNK10robin_hood6detail5TableILb1ELm80EjN3tns10SetTimeout10CacheEntryENS_4hashIjvEENSt3__18equal_toIjEEE7findIdxIjEEmRKT_, symObjAddr: 0x13C4, symBinAddr: 0x3A9C8, symSize: 0xE4 }
  - { offsetInCU: 0xF5E4, offset: 0x2E3AD0, size: 0x8, addend: 0x0, symName: __ZN3tns10SetTimeout9RemoveKeyEj, symObjAddr: 0x7C0, symBinAddr: 0x3A098, symSize: 0x84 }
  - { offsetInCU: 0xF6C1, offset: 0x2E3BAD, size: 0x8, addend: 0x0, symName: ____ZN3tns10SetTimeout18SetTimeoutCallbackERKN2v820FunctionCallbackInfoINS1_5ValueEEE_block_invoke, symObjAddr: 0x518, symBinAddr: 0x39DF0, symSize: 0x8 }
  - { offsetInCU: 0xF70A, offset: 0x2E3BF6, size: 0x8, addend: 0x0, symName: __ZN3tns10SetTimeout7ElapsedEj, symObjAddr: 0x520, symBinAddr: 0x39DF8, symSize: 0x1F4 }
  - { offsetInCU: 0x1033F, offset: 0x2E482B, size: 0x8, addend: 0x0, symName: __ZN10robin_hood6detail5TableILb1ELm80EjN3tns10SetTimeout10CacheEntryENS_4hashIjvEENSt3__18equal_toIjEEE25insertKeyPrepareEmptySpotIRKjEENS7_4pairImNSA_14InsertionStateEEEOT_, symObjAddr: 0xBAC, symBinAddr: 0x3A1FC, symSize: 0x19C }
  - { offsetInCU: 0x104F9, offset: 0x2E49E5, size: 0x8, addend: 0x0, symName: __ZNK10robin_hood6detail5TableILb1ELm80EjN3tns10SetTimeout10CacheEntryENS_4hashIjvEENSt3__18equal_toIjEEE18throwOverflowErrorEv, symObjAddr: 0xD48, symBinAddr: 0x3A398, symSize: 0x50 }
  - { offsetInCU: 0x1055A, offset: 0x2E4A46, size: 0x8, addend: 0x0, symName: __ZN10robin_hood6detail5TableILb1ELm80EjN3tns10SetTimeout10CacheEntryENS_4hashIjvEENSt3__18equal_toIjEEE5eraseENSA_4IterILb0EEE, symObjAddr: 0x844, symBinAddr: 0x3A11C, symSize: 0xA0 }
  - { offsetInCU: 0x1064D, offset: 0x2E4B39, size: 0x8, addend: 0x0, symName: __ZN10robin_hood6detail5TableILb1ELm80EjN3tns10SetTimeout10CacheEntryENS_4hashIjvEENSt3__18equal_toIjEEE9shiftDownEm, symObjAddr: 0x14A8, symBinAddr: 0x3AAAC, symSize: 0x68 }
  - { offsetInCU: 0x106E0, offset: 0x2E4BCC, size: 0x8, addend: 0x0, symName: __ZN10robin_hood6detail5TableILb1ELm80EjN3tns10SetTimeout10CacheEntryENS_4hashIjvEENSt3__18equal_toIjEEED1Ev, symObjAddr: 0x8E4, symBinAddr: 0x3A1BC, symSize: 0x40 }
  - { offsetInCU: 0x10D33, offset: 0x2E521F, size: 0x8, addend: 0x0, symName: __ZN10robin_hood6detail5TableILb1ELm80EjN3tns10SetTimeout10CacheEntryENS_4hashIjvEENSt3__18equal_toIjEEE13increase_sizeEv, symObjAddr: 0xD98, symBinAddr: 0x3A3E8, symSize: 0x12C }
  - { offsetInCU: 0x10DFD, offset: 0x2E52E9, size: 0x8, addend: 0x0, symName: __ZN10robin_hood6detail5TableILb1ELm80EjN3tns10SetTimeout10CacheEntryENS_4hashIjvEENSt3__18equal_toIjEEE7shiftUpEmm, symObjAddr: 0xEC4, symBinAddr: 0x3A514, symSize: 0xB4 }
  - { offsetInCU: 0x10EC2, offset: 0x2E53AE, size: 0x8, addend: 0x0, symName: __ZN10robin_hood6detail5TableILb1ELm80EjN3tns10SetTimeout10CacheEntryENS_4hashIjvEENSt3__18equal_toIjEEE17try_increase_infoEv, symObjAddr: 0x1054, symBinAddr: 0x3A6A4, symSize: 0x100 }
  - { offsetInCU: 0x10FCC, offset: 0x2E54B8, size: 0x8, addend: 0x0, symName: __ZN10robin_hood6detail5TableILb1ELm80EjN3tns10SetTimeout10CacheEntryENS_4hashIjvEENSt3__18equal_toIjEEE8initDataEm, symObjAddr: 0xF78, symBinAddr: 0x3A5C8, symSize: 0xDC }
  - { offsetInCU: 0x110E0, offset: 0x2E55CC, size: 0x8, addend: 0x0, symName: __ZN10robin_hood6detail5TableILb1ELm80EjN3tns10SetTimeout10CacheEntryENS_4hashIjvEENSt3__18equal_toIjEEE17try_increase_infoEv, symObjAddr: 0x1054, symBinAddr: 0x3A6A4, symSize: 0x100 }
  - { offsetInCU: 0x110EB, offset: 0x2E55D7, size: 0x8, addend: 0x0, symName: __ZN10robin_hood6detail5TableILb1ELm80EjN3tns10SetTimeout10CacheEntryENS_4hashIjvEENSt3__18equal_toIjEEE16rehashPowerOfTwoEmb, symObjAddr: 0x1154, symBinAddr: 0x3A7A4, symSize: 0xF0 }
  - { offsetInCU: 0x11266, offset: 0x2E5752, size: 0x8, addend: 0x0, symName: __ZN10robin_hood6detail5TableILb1ELm80EjN3tns10SetTimeout10CacheEntryENS_4hashIjvEENSt3__18equal_toIjEEE11insert_moveEONSA_8DataNodeISA_Lb1EEE, symObjAddr: 0x126C, symBinAddr: 0x3A894, symSize: 0x134 }
  - { offsetInCU: 0x41, offset: 0x2E59E3, size: 0x8, addend: 0x0, symName: __ZL2rt, symObjAddr: 0xAA620, symBinAddr: 0x157ED48, symSize: 0x0 }
  - { offsetInCU: 0x320D, offset: 0x2E8BAF, size: 0x8, addend: 0x0, symName: __ZNSt3__115allocate_sharedB7v160006IN4rnv89V8RuntimeENS_9allocatorIS2_EEJEvEENS_10shared_ptrIT_EERKT0_DpOT1_, symObjAddr: 0x174, symBinAddr: 0x3ACD4, symSize: 0x48 }
  - { offsetInCU: 0x6E3E, offset: 0x2EC7E0, size: 0x8, addend: 0x0, symName: __ZNSt3__110shared_ptrIN8facebook3jsi7RuntimeEED1B7v160006Ev, symObjAddr: 0x0, symBinAddr: 0x3AB60, symSize: 0x4 }
  - { offsetInCU: 0x6E60, offset: 0x2EC802, size: 0x8, addend: 0x0, symName: __ZNSt3__110shared_ptrIN8facebook3jsi7RuntimeEED1B7v160006Ev, symObjAddr: 0x0, symBinAddr: 0x3AB60, symSize: 0x4 }
  - { offsetInCU: 0x6E6B, offset: 0x2EC80D, size: 0x8, addend: 0x0, symName: __ZNSt3__110shared_ptrIN8facebook3jsi7RuntimeEED2B7v160006Ev, symObjAddr: 0x11C, symBinAddr: 0x3AC7C, symSize: 0x58 }
  - { offsetInCU: 0x7024, offset: 0x2EC9C6, size: 0x8, addend: 0x0, symName: '+[JSIRuntime runtime]', symObjAddr: 0x4, symBinAddr: 0x3AB64, symSize: 0xB4 }
  - { offsetInCU: 0x71ED, offset: 0x2ECB8F, size: 0x8, addend: 0x0, symName: __ZNSt3__110shared_ptrIN8facebook3jsi7RuntimeEEaSB7v160006IN4rnv89V8RuntimeEvEERS4_ONS0_IT_EE, symObjAddr: 0xB8, symBinAddr: 0x3AC18, symSize: 0x64 }
  - { offsetInCU: 0x761D, offset: 0x2ECFBF, size: 0x8, addend: 0x0, symName: __ZNSt3__120__shared_ptr_emplaceIN4rnv89V8RuntimeENS_9allocatorIS2_EEEC2B7v160006IJEEES4_DpOT_, symObjAddr: 0x1BC, symBinAddr: 0x3AD1C, symSize: 0x4C }
  - { offsetInCU: 0x76F6, offset: 0x2ED098, size: 0x8, addend: 0x0, symName: __ZNSt3__120__shared_ptr_emplaceIN4rnv89V8RuntimeENS_9allocatorIS2_EEED1Ev, symObjAddr: 0x208, symBinAddr: 0x3AD68, symSize: 0x14 }
  - { offsetInCU: 0x7717, offset: 0x2ED0B9, size: 0x8, addend: 0x0, symName: __ZNSt3__120__shared_ptr_emplaceIN4rnv89V8RuntimeENS_9allocatorIS2_EEED1Ev, symObjAddr: 0x208, symBinAddr: 0x3AD68, symSize: 0x14 }
  - { offsetInCU: 0x774F, offset: 0x2ED0F1, size: 0x8, addend: 0x0, symName: __ZNSt3__120__shared_ptr_emplaceIN4rnv89V8RuntimeENS_9allocatorIS2_EEED0Ev, symObjAddr: 0x21C, symBinAddr: 0x3AD7C, symSize: 0x24 }
  - { offsetInCU: 0x77B6, offset: 0x2ED158, size: 0x8, addend: 0x0, symName: __ZNSt3__120__shared_ptr_emplaceIN4rnv89V8RuntimeENS_9allocatorIS2_EEE16__on_zero_sharedEv, symObjAddr: 0x240, symBinAddr: 0x3ADA0, symSize: 0xC }
  - { offsetInCU: 0x77E9, offset: 0x2ED18B, size: 0x8, addend: 0x0, symName: __ZNSt3__120__shared_ptr_emplaceIN4rnv89V8RuntimeENS_9allocatorIS2_EEE21__on_zero_shared_weakEv, symObjAddr: 0x24C, symBinAddr: 0x3ADAC, symSize: 0x4 }
  - { offsetInCU: 0x781C, offset: 0x2ED1BE, size: 0x8, addend: 0x0, symName: __ZNSt3__120__shared_ptr_emplaceIN4rnv89V8RuntimeENS_9allocatorIS2_EEE21__on_zero_shared_weakEv, symObjAddr: 0x24C, symBinAddr: 0x3ADAC, symSize: 0x4 }
  - { offsetInCU: 0x7840, offset: 0x2ED1E2, size: 0x8, addend: 0x0, symName: __ZNSt3__120__shared_ptr_emplaceIN4rnv89V8RuntimeENS_9allocatorIS2_EEE21__on_zero_shared_weakEv, symObjAddr: 0x24C, symBinAddr: 0x3ADAC, symSize: 0x4 }
  - { offsetInCU: 0x7864, offset: 0x2ED206, size: 0x8, addend: 0x0, symName: __ZNSt3__120__shared_ptr_emplaceIN4rnv89V8RuntimeENS_9allocatorIS2_EEE21__on_zero_shared_weakEv, symObjAddr: 0x24C, symBinAddr: 0x3ADAC, symSize: 0x4 }
  - { offsetInCU: 0x7890, offset: 0x2ED232, size: 0x8, addend: 0x0, symName: __ZNSt3__120__shared_ptr_emplaceIN4rnv89V8RuntimeENS_9allocatorIS2_EEE21__on_zero_shared_weakEv, symObjAddr: 0x24C, symBinAddr: 0x3ADAC, symSize: 0x4 }
  - { offsetInCU: 0x78B7, offset: 0x2ED259, size: 0x8, addend: 0x0, symName: __ZNSt3__120__shared_ptr_emplaceIN4rnv89V8RuntimeENS_9allocatorIS2_EEE21__on_zero_shared_weakEv, symObjAddr: 0x24C, symBinAddr: 0x3ADAC, symSize: 0x4 }
  - { offsetInCU: 0x27, offset: 0x2ED2BE, size: 0x8, addend: 0x0, symName: __ZN12v8_inspector15InspectorServer4InitENSt3__18functionIFvNS2_IFvNS1_12basic_stringIcNS1_11char_traitsIcEENS1_9allocatorIcEEEEEEEEEESA_, symObjAddr: 0x0, symBinAddr: 0x3ADCC, symSize: 0x304 }
  - { offsetInCU: 0x47B3, offset: 0x2F1A4A, size: 0x8, addend: 0x0, symName: ____ZN12v8_inspector15InspectorServer4InitENSt3__18functionIFvNS2_IFvNS1_12basic_stringIcNS1_11char_traitsIcEENS1_9allocatorIcEEEEEEEEEESA__block_invoke, symObjAddr: 0x304, symBinAddr: 0x3B0D0, symSize: 0x2F8 }
  - { offsetInCU: 0x6F9C, offset: 0x2F4233, size: 0x8, addend: 0x0, symName: __ZN12v8_inspector15InspectorServer4InitENSt3__18functionIFvNS2_IFvNS1_12basic_stringIcNS1_11char_traitsIcEENS1_9allocatorIcEEEEEEEEEESA_, symObjAddr: 0x0, symBinAddr: 0x3ADCC, symSize: 0x304 }
  - { offsetInCU: 0x744C, offset: 0x2F46E3, size: 0x8, addend: 0x0, symName: __ZNSt3__110__function12__value_funcIFvNS_8functionIFvNS_12basic_stringIcNS_11char_traitsIcEENS_9allocatorIcEEEEEEEEEC2B7v160006ERKSC_, symObjAddr: 0x10DC, symBinAddr: 0x3BCD4, symSize: 0x64 }
  - { offsetInCU: 0x7524, offset: 0x2F47BB, size: 0x8, addend: 0x0, symName: __ZN12v8_inspector15InspectorServer4InitENSt3__18functionIFvNS2_IFvNS1_12basic_stringIcNS1_11char_traitsIcEENS1_9allocatorIcEEEEEEEEEESA_.cold.1, symObjAddr: 0x1140, symBinAddr: 0xB98664, symSize: 0x28 }
  - { offsetInCU: 0x753C, offset: 0x2F47D3, size: 0x8, addend: 0x0, symName: __ZN12v8_inspector15InspectorServer4InitENSt3__18functionIFvNS2_IFvNS1_12basic_stringIcNS1_11char_traitsIcEENS1_9allocatorIcEEEEEEEEEESA_.cold.2, symObjAddr: 0x1168, symBinAddr: 0xB9868C, symSize: 0x40 }
  - { offsetInCU: 0x7ADC, offset: 0x2F4D73, size: 0x8, addend: 0x0, symName: ____ZN12v8_inspector15InspectorServer4InitENSt3__18functionIFvNS2_IFvNS1_12basic_stringIcNS1_11char_traitsIcEENS1_9allocatorIcEEEEEEEEEESA__block_invoke_2, symObjAddr: 0x5FC, symBinAddr: 0x3B3C8, symSize: 0x44 }
  - { offsetInCU: 0x7B43, offset: 0x2F4DDA, size: 0x8, addend: 0x0, symName: ___Block_byref_object_copy_, symObjAddr: 0x640, symBinAddr: 0x3B40C, symSize: 0x28 }
  - { offsetInCU: 0x7B6C, offset: 0x2F4E03, size: 0x8, addend: 0x0, symName: ___Block_byref_object_dispose_, symObjAddr: 0x668, symBinAddr: 0x3B434, symSize: 0x8 }
  - { offsetInCU: 0x7B8B, offset: 0x2F4E22, size: 0x8, addend: 0x0, symName: ____ZN12v8_inspector15InspectorServer4InitENSt3__18functionIFvNS2_IFvNS1_12basic_stringIcNS1_11char_traitsIcEENS1_9allocatorIcEEEEEEEEEESA__block_invoke.5, symObjAddr: 0x670, symBinAddr: 0x3B43C, symSize: 0x194 }
  - { offsetInCU: 0x7EE4, offset: 0x2F517B, size: 0x8, addend: 0x0, symName: ____ZN12v8_inspector15InspectorServer4InitENSt3__18functionIFvNS2_IFvNS1_12basic_stringIcNS1_11char_traitsIcEENS1_9allocatorIcEEEEEEEEEESA__block_invoke_2.6, symObjAddr: 0x804, symBinAddr: 0x3B5D0, symSize: 0x148 }
  - { offsetInCU: 0x852E, offset: 0x2F57C5, size: 0x8, addend: 0x0, symName: ___copy_helper_block_ea8_32s40s48r56c84_ZTSNSt3__18functionIFvNS_12basic_stringIcNS_11char_traitsIcEENS_9allocatorIcEEEEEEE, symObjAddr: 0x94C, symBinAddr: 0x3B718, symSize: 0x74 }
  - { offsetInCU: 0x85D2, offset: 0x2F5869, size: 0x8, addend: 0x0, symName: ___destroy_helper_block_ea8_32s40s48r56c84_ZTSNSt3__18functionIFvNS_12basic_stringIcNS_11char_traitsIcEENS_9allocatorIcEEEEEEE, symObjAddr: 0x9C0, symBinAddr: 0x3B78C, symSize: 0x64 }
  - { offsetInCU: 0x867F, offset: 0x2F5916, size: 0x8, addend: 0x0, symName: ___copy_helper_block_ea8_32s40s48c94_ZTSNSt3__18functionIFvNS0_IFvNS_12basic_stringIcNS_11char_traitsIcEENS_9allocatorIcEEEEEEEEEE80c84_ZTSNSt3__18functionIFvNS_12basic_stringIcNS_11char_traitsIcEENS_9allocatorIcEEEEEEE, symObjAddr: 0xA24, symBinAddr: 0x3B7F0, symSize: 0xA8 }
  - { offsetInCU: 0x882C, offset: 0x2F5AC3, size: 0x8, addend: 0x0, symName: ___destroy_helper_block_ea8_32s40s48c94_ZTSNSt3__18functionIFvNS0_IFvNS_12basic_stringIcNS_11char_traitsIcEENS_9allocatorIcEEEEEEEEEE80c84_ZTSNSt3__18functionIFvNS_12basic_stringIcNS_11char_traitsIcEENS_9allocatorIcEEEEEEE, symObjAddr: 0xACC, symBinAddr: 0x3B898, symSize: 0x88 }
  - { offsetInCU: 0x89BB, offset: 0x2F5C52, size: 0x8, addend: 0x0, symName: __ZN12v8_inspector15InspectorServer4SendEPU25objcproto14OS_dispatch_io8NSObjectPU28objcproto17OS_dispatch_queueS1_NSt3__112basic_stringIcNS6_11char_traitsIcEENS6_9allocatorIcEEEE, symObjAddr: 0xB54, symBinAddr: 0x3B920, symSize: 0x180 }
  - { offsetInCU: 0x8B34, offset: 0x2F5DCB, size: 0x8, addend: 0x0, symName: ____ZN12v8_inspector15InspectorServer4SendEPU25objcproto14OS_dispatch_io8NSObjectPU28objcproto17OS_dispatch_queueS1_NSt3__112basic_stringIcNS6_11char_traitsIcEENS6_9allocatorIcEEEE_block_invoke, symObjAddr: 0xCD4, symBinAddr: 0x3BAA0, symSize: 0x8 }
  - { offsetInCU: 0x8B6F, offset: 0x2F5E06, size: 0x8, addend: 0x0, symName: ____ZN12v8_inspector15InspectorServer4SendEPU25objcproto14OS_dispatch_io8NSObjectPU28objcproto17OS_dispatch_queueS1_NSt3__112basic_stringIcNS6_11char_traitsIcEENS6_9allocatorIcEEEE_block_invoke_2, symObjAddr: 0xCDC, symBinAddr: 0x3BAA8, symSize: 0x34 }
  - { offsetInCU: 0x8CDA, offset: 0x2F5F71, size: 0x8, addend: 0x0, symName: '__ZNSt3__110__function6__funcIZZN12v8_inspector15InspectorServer4InitENS_8functionIFvNS4_IFvNS_12basic_stringIcNS_11char_traitsIcEENS_9allocatorIcEEEEEEEEEESC_EUb_E3$_0NS8_ISF_EESB_ED1Ev', symObjAddr: 0xD5C, symBinAddr: 0x3BADC, symSize: 0x30 }
  - { offsetInCU: 0x8E0B, offset: 0x2F60A2, size: 0x8, addend: 0x0, symName: '__ZNSt3__110__function6__funcIZZN12v8_inspector15InspectorServer4InitENS_8functionIFvNS4_IFvNS_12basic_stringIcNS_11char_traitsIcEENS_9allocatorIcEEEEEEEEEESC_EUb_E3$_0NS8_ISF_EESB_ED0Ev', symObjAddr: 0xD8C, symBinAddr: 0x3BB0C, symSize: 0x30 }
  - { offsetInCU: 0x9160, offset: 0x2F63F7, size: 0x8, addend: 0x0, symName: '__ZNKSt3__110__function6__funcIZZN12v8_inspector15InspectorServer4InitENS_8functionIFvNS4_IFvNS_12basic_stringIcNS_11char_traitsIcEENS_9allocatorIcEEEEEEEEEESC_EUb_E3$_0NS8_ISF_EESB_E7__cloneEv', symObjAddr: 0xDBC, symBinAddr: 0x3BB3C, symSize: 0x50 }
  - { offsetInCU: 0x94D9, offset: 0x2F6770, size: 0x8, addend: 0x0, symName: '__ZNKSt3__110__function6__funcIZZN12v8_inspector15InspectorServer4InitENS_8functionIFvNS4_IFvNS_12basic_stringIcNS_11char_traitsIcEENS_9allocatorIcEEEEEEEEEESC_EUb_E3$_0NS8_ISF_EESB_E7__cloneEPNS0_6__baseISB_EE', symObjAddr: 0xE0C, symBinAddr: 0x3BB8C, symSize: 0x44 }
  - { offsetInCU: 0x96BF, offset: 0x2F6956, size: 0x8, addend: 0x0, symName: '__ZNSt3__110__function6__funcIZZN12v8_inspector15InspectorServer4InitENS_8functionIFvNS4_IFvNS_12basic_stringIcNS_11char_traitsIcEENS_9allocatorIcEEEEEEEEEESC_EUb_E3$_0NS8_ISF_EESB_E7destroyEv', symObjAddr: 0xE50, symBinAddr: 0x3BBD0, symSize: 0x28 }
  - { offsetInCU: 0x97CF, offset: 0x2F6A66, size: 0x8, addend: 0x0, symName: '__ZNSt3__110__function6__funcIZZN12v8_inspector15InspectorServer4InitENS_8functionIFvNS4_IFvNS_12basic_stringIcNS_11char_traitsIcEENS_9allocatorIcEEEEEEEEEESC_EUb_E3$_0NS8_ISF_EESB_E18destroy_deallocateEv', symObjAddr: 0xE78, symBinAddr: 0x3BBF8, symSize: 0x30 }
  - { offsetInCU: 0x9A44, offset: 0x2F6CDB, size: 0x8, addend: 0x0, symName: '__ZNSt3__110__function6__funcIZZN12v8_inspector15InspectorServer4InitENS_8functionIFvNS4_IFvNS_12basic_stringIcNS_11char_traitsIcEENS_9allocatorIcEEEEEEEEEESC_EUb_E3$_0NS8_ISF_EESB_EclEOSA_', symObjAddr: 0xEA8, symBinAddr: 0x3BC28, symSize: 0xAC }
  - { offsetInCU: 0x967B, offset: 0x300FA1, size: 0x8, addend: 0x0, symName: __ZN4rnv815HostObjectProxyC2ERNS_9V8RuntimeEPN2v87IsolateENSt3__110shared_ptrIN8facebook3jsi10HostObjectEEE, symObjAddr: 0x0, symBinAddr: 0x3BD38, symSize: 0x2C }
  - { offsetInCU: 0x97F8, offset: 0x30111E, size: 0x8, addend: 0x0, symName: __ZN4rnv815HostObjectProxyC1ERNS_9V8RuntimeEPN2v87IsolateENSt3__110shared_ptrIN8facebook3jsi10HostObjectEEE, symObjAddr: 0x2C, symBinAddr: 0x3BD64, symSize: 0x2C }
  - { offsetInCU: 0x984F, offset: 0x301175, size: 0x8, addend: 0x0, symName: __ZN4rnv815HostObjectProxyC1ERNS_9V8RuntimeEPN2v87IsolateENSt3__110shared_ptrIN8facebook3jsi10HostObjectEEE, symObjAddr: 0x2C, symBinAddr: 0x3BD64, symSize: 0x2C }
  - { offsetInCU: 0x9A7A, offset: 0x3013A0, size: 0x8, addend: 0x0, symName: __ZN4rnv815HostObjectProxy13BindFinalizerERKN2v85LocalINS1_6ObjectEEE, symObjAddr: 0x58, symBinAddr: 0x3BD90, symSize: 0x9C }
  - { offsetInCU: 0x9C87, offset: 0x3015AD, size: 0x8, addend: 0x0, symName: __ZN4rnv815HostObjectProxy9FinalizerERKN2v816WeakCallbackInfoIS0_EE, symObjAddr: 0xF4, symBinAddr: 0x3BE2C, symSize: 0x54 }
  - { offsetInCU: 0x9E0A, offset: 0x301730, size: 0x8, addend: 0x0, symName: __ZNSt3__110shared_ptrIN8facebook3jsi10HostObjectEE5resetB7v160006Ev, symObjAddr: 0x1320, symBinAddr: 0x3D04C, symSize: 0x5C }
  - { offsetInCU: 0x9F01, offset: 0x301827, size: 0x8, addend: 0x0, symName: __ZNSt3__110shared_ptrIN8facebook3jsi10HostObjectEED2B7v160006Ev, symObjAddr: 0x1C58, symBinAddr: 0x3D984, symSize: 0x58 }
  - { offsetInCU: 0x9F86, offset: 0x3018AC, size: 0x8, addend: 0x0, symName: __ZN4rnv815HostObjectProxy13GetHostObjectEv, symObjAddr: 0x148, symBinAddr: 0x3BE80, symSize: 0x24 }
  - { offsetInCU: 0x9FAF, offset: 0x3018D5, size: 0x8, addend: 0x0, symName: __ZN4rnv815HostObjectProxy13GetHostObjectEv, symObjAddr: 0x148, symBinAddr: 0x3BE80, symSize: 0x24 }
  - { offsetInCU: 0x9FD6, offset: 0x3018FC, size: 0x8, addend: 0x0, symName: __ZN4rnv815HostObjectProxy13GetHostObjectEv, symObjAddr: 0x148, symBinAddr: 0x3BE80, symSize: 0x24 }
  - { offsetInCU: 0xA625, offset: 0x301F4B, size: 0x8, addend: 0x0, symName: __ZN4rnv815HostObjectProxy6GetterEN2v85LocalINS1_4NameEEERKNS1_20PropertyCallbackInfoINS1_5ValueEEE, symObjAddr: 0x16C, symBinAddr: 0x3BEA4, symSize: 0x790 }
  - { offsetInCU: 0xD1E6, offset: 0x304B0C, size: 0x8, addend: 0x0, symName: __ZNK8facebook3jsi8Function4callIJNSt3__112basic_stringIcNS3_11char_traitsIcEENS3_9allocatorIcEEEEEEENS0_5ValueERNS0_7RuntimeEDpOT_, symObjAddr: 0x8FC, symBinAddr: 0x3C634, symSize: 0xEC }
  - { offsetInCU: 0xD4FD, offset: 0x304E23, size: 0x8, addend: 0x0, symName: __ZN4rnv815HostObjectProxy6SetterEN2v85LocalINS1_4NameEEENS2_INS1_5ValueEEERKNS1_20PropertyCallbackInfoIS5_EE, symObjAddr: 0x9F4, symBinAddr: 0x3C720, symSize: 0x758 }
  - { offsetInCU: 0xFEDE, offset: 0x307804, size: 0x8, addend: 0x0, symName: __ZN4rnv815HostObjectProxy10EnumeratorERKN2v820PropertyCallbackInfoINS1_5ArrayEEE, symObjAddr: 0x114C, symBinAddr: 0x3CE78, symSize: 0x1D4 }
  - { offsetInCU: 0x1028D, offset: 0x307BB3, size: 0x8, addend: 0x0, symName: __ZNSt3__16vectorIN8facebook3jsi10PropNameIDENS_9allocatorIS3_EEED2B7v160006Ev, symObjAddr: 0x1E38, symBinAddr: 0x3DA40, symSize: 0x38 }
  - { offsetInCU: 0x10406, offset: 0x307D2C, size: 0x8, addend: 0x0, symName: __ZN4rnv817HostFunctionProxyC2ERNS_9V8RuntimeEPN2v87IsolateEONSt3__18functionIFN8facebook3jsi5ValueERNS9_7RuntimeERKSA_PSD_mEEE, symObjAddr: 0x137C, symBinAddr: 0x3D0A8, symSize: 0x30 }
  - { offsetInCU: 0x10527, offset: 0x307E4D, size: 0x8, addend: 0x0, symName: __ZNSt3__110__function12__value_funcIFN8facebook3jsi5ValueERNS3_7RuntimeERKS4_PS7_mEEC2B7v160006EOSB_, symObjAddr: 0x1DD4, symBinAddr: 0x3D9DC, symSize: 0x64 }
  - { offsetInCU: 0x105AA, offset: 0x307ED0, size: 0x8, addend: 0x0, symName: __ZN4rnv817HostFunctionProxyC1ERNS_9V8RuntimeEPN2v87IsolateEONSt3__18functionIFN8facebook3jsi5ValueERNS9_7RuntimeERKSA_PSD_mEEE, symObjAddr: 0x13AC, symBinAddr: 0x3D0D8, symSize: 0x30 }
  - { offsetInCU: 0x10762, offset: 0x308088, size: 0x8, addend: 0x0, symName: __ZN4rnv817HostFunctionProxy13BindFinalizerERKN2v85LocalINS1_6ObjectEEE, symObjAddr: 0x13DC, symBinAddr: 0x3D108, symSize: 0x9C }
  - { offsetInCU: 0x10965, offset: 0x30828B, size: 0x8, addend: 0x0, symName: __ZN4rnv817HostFunctionProxy9FinalizerERKN2v816WeakCallbackInfoIS0_EE, symObjAddr: 0x1478, symBinAddr: 0x3D1A4, symSize: 0x60 }
  - { offsetInCU: 0x10ACA, offset: 0x3083F0, size: 0x8, addend: 0x0, symName: __ZN4rnv817HostFunctionProxy15GetHostFunctionEv, symObjAddr: 0x14D8, symBinAddr: 0x3D204, symSize: 0x8 }
  - { offsetInCU: 0x10DAE, offset: 0x3086D4, size: 0x8, addend: 0x0, symName: __ZN4rnv817HostFunctionProxy16FunctionCallbackERKN2v820FunctionCallbackInfoINS1_5ValueEEE, symObjAddr: 0x14E0, symBinAddr: 0x3D20C, symSize: 0x650 }
  - { offsetInCU: 0x11D91, offset: 0x3096B7, size: 0x8, addend: 0x0, symName: __ZNKSt3__18functionIFN8facebook3jsi5ValueERNS2_7RuntimeERKS3_PS6_mEEclES5_S7_S8_m, symObjAddr: 0x1B30, symBinAddr: 0x3D85C, symSize: 0x3C }
  - { offsetInCU: 0x11E3A, offset: 0x309760, size: 0x8, addend: 0x0, symName: __ZNK8facebook3jsi8Function4callIJRNSt3__112basic_stringIcNS3_11char_traitsIcEENS3_9allocatorIcEEEEEEENS0_5ValueERNS0_7RuntimeEDpOT_, symObjAddr: 0x1B6C, symBinAddr: 0x3D898, symSize: 0xEC }
  - { offsetInCU: 0x11E4A, offset: 0x309770, size: 0x8, addend: 0x0, symName: __ZNKSt3__114default_deleteIA_N8facebook3jsi5ValueEEclB7v160006IS3_EENS5_20_EnableIfConvertibleIT_E4typeEPS8_, symObjAddr: 0x1F08, symBinAddr: 0x3DB10, symSize: 0x44 }
  - { offsetInCU: 0x11E8F, offset: 0x3097B5, size: 0x8, addend: 0x0, symName: __ZNK8facebook3jsi8Function4callIJRNSt3__112basic_stringIcNS3_11char_traitsIcEENS3_9allocatorIcEEEEEEENS0_5ValueERNS0_7RuntimeEDpOT_, symObjAddr: 0x1B6C, symBinAddr: 0x3D898, symSize: 0xEC }
  - { offsetInCU: 0x123AE, offset: 0x309CD4, size: 0x8, addend: 0x0, symName: __ZNSt3__16vectorIN8facebook3jsi10PropNameIDENS_9allocatorIS3_EEE16__destroy_vectorclB7v160006Ev, symObjAddr: 0x1E70, symBinAddr: 0x3DA78, symSize: 0x40 }
  - { offsetInCU: 0x12528, offset: 0x309E4E, size: 0x8, addend: 0x0, symName: __ZNSt3__16vectorIN8facebook3jsi10PropNameIDENS_9allocatorIS3_EEE22__base_destruct_at_endB7v160006EPS3_, symObjAddr: 0x1EB0, symBinAddr: 0x3DAB8, symSize: 0x58 }
  - { offsetInCU: 0x1CE5, offset: 0x30BCD1, size: 0x8, addend: 0x0, symName: __ZN8facebook3jsi12_GLOBAL__N_112kindToStringERKNS0_5ValueEPNS0_7RuntimeE, symObjAddr: 0xA4C, symBinAddr: 0x3E5A0, symSize: 0x168 }
  - { offsetInCU: 0x1F8B, offset: 0x30BF77, size: 0x8, addend: 0x0, symName: __ZN8facebook3jsi12_GLOBAL__N_118callGlobalFunctionERNS0_7RuntimeEPKcRKNS0_5ValueE, symObjAddr: 0x3BB4, symBinAddr: 0x41678, symSize: 0x624 }
  - { offsetInCU: 0x9FCB, offset: 0x313FB7, size: 0x8, addend: 0x0, symName: __ZNSt3__115allocate_sharedB7v160006IN8facebook3jsi5ValueENS_9allocatorIS3_EEJS3_EvEENS_10shared_ptrIT_EERKT0_DpOT1_, symObjAddr: 0x4CC8, symBinAddr: 0x4265C, symSize: 0x58 }
  - { offsetInCU: 0xAD2C, offset: 0x314D18, size: 0x8, addend: 0x0, symName: __ZN8facebook3jsi7Runtime15instrumentationEv, symObjAddr: 0x180, symBinAddr: 0x3DCD4, symSize: 0x48 }
  - { offsetInCU: 0xAD52, offset: 0x314D3E, size: 0x8, addend: 0x0, symName: __ZZN8facebook3jsi7Runtime15instrumentationEvE14sharedInstance, symObjAddr: 0x6208, symBinAddr: 0xD09160, symSize: 0x0 }
  - { offsetInCU: 0xCD16, offset: 0x316D02, size: 0x8, addend: 0x0, symName: __ZN8facebook3jsi6BufferD2Ev, symObjAddr: 0x0, symBinAddr: 0x3DB54, symSize: 0x4 }
  - { offsetInCU: 0xCD3F, offset: 0x316D2B, size: 0x8, addend: 0x0, symName: __ZN8facebook3jsi6BufferD1Ev, symObjAddr: 0x4, symBinAddr: 0x3DB58, symSize: 0x4 }
  - { offsetInCU: 0xCD66, offset: 0x316D52, size: 0x8, addend: 0x0, symName: __ZN8facebook3jsi6BufferD0Ev, symObjAddr: 0x8, symBinAddr: 0x3DB5C, symSize: 0x4 }
  - { offsetInCU: 0xCD92, offset: 0x316D7E, size: 0x8, addend: 0x0, symName: __ZN8facebook3jsi18PreparedJavaScriptD2Ev, symObjAddr: 0xC, symBinAddr: 0x3DB60, symSize: 0x4 }
  - { offsetInCU: 0xCDBB, offset: 0x316DA7, size: 0x8, addend: 0x0, symName: __ZN8facebook3jsi18PreparedJavaScriptD1Ev, symObjAddr: 0x10, symBinAddr: 0x3DB64, symSize: 0x4 }
  - { offsetInCU: 0xCDE4, offset: 0x316DD0, size: 0x8, addend: 0x0, symName: __ZN8facebook3jsi18PreparedJavaScriptD0Ev, symObjAddr: 0x14, symBinAddr: 0x3DB68, symSize: 0x4 }
  - { offsetInCU: 0xCE6F, offset: 0x316E5B, size: 0x8, addend: 0x0, symName: __ZN8facebook3jsi10HostObject3getERNS0_7RuntimeERKNS0_10PropNameIDE, symObjAddr: 0x18, symBinAddr: 0x3DB6C, symSize: 0x8 }
  - { offsetInCU: 0xCEA5, offset: 0x316E91, size: 0x8, addend: 0x0, symName: __ZN8facebook3jsi10HostObject3getERNS0_7RuntimeERKNS0_10PropNameIDE, symObjAddr: 0x18, symBinAddr: 0x3DB6C, symSize: 0x8 }
  - { offsetInCU: 0xCEC0, offset: 0x316EAC, size: 0x8, addend: 0x0, symName: __ZN8facebook3jsi10HostObject3getERNS0_7RuntimeERKNS0_10PropNameIDE, symObjAddr: 0x18, symBinAddr: 0x3DB6C, symSize: 0x8 }
  - { offsetInCU: 0xCEE4, offset: 0x316ED0, size: 0x8, addend: 0x0, symName: __ZN8facebook3jsi10HostObject3getERNS0_7RuntimeERKNS0_10PropNameIDE, symObjAddr: 0x18, symBinAddr: 0x3DB6C, symSize: 0x8 }
  - { offsetInCU: 0xD108, offset: 0x3170F4, size: 0x8, addend: 0x0, symName: __ZN8facebook3jsi10HostObject3setERNS0_7RuntimeERKNS0_10PropNameIDERKNS0_5ValueE, symObjAddr: 0x20, symBinAddr: 0x3DB74, symSize: 0x140 }
  - { offsetInCU: 0xD9AF, offset: 0x31799B, size: 0x8, addend: 0x0, symName: __ZN8facebook3jsi7JSErrorC2ERNS0_7RuntimeENSt3__112basic_stringIcNS4_11char_traitsIcEENS4_9allocatorIcEEEE, symObjAddr: 0x3768, symBinAddr: 0x4122C, symSize: 0x44C }
  - { offsetInCU: 0xEF98, offset: 0x318F84, size: 0x8, addend: 0x0, symName: __ZN8facebook3jsi7JSErrorC1ERNS0_7RuntimeENSt3__112basic_stringIcNS4_11char_traitsIcEENS4_9allocatorIcEEEE, symObjAddr: 0x160, symBinAddr: 0x3DCB4, symSize: 0x4 }
  - { offsetInCU: 0xEFC8, offset: 0x318FB4, size: 0x8, addend: 0x0, symName: __ZN8facebook3jsi7JSErrorC1ERNS0_7RuntimeENSt3__112basic_stringIcNS4_11char_traitsIcEENS4_9allocatorIcEEEE, symObjAddr: 0x160, symBinAddr: 0x3DCB4, symSize: 0x4 }
  - { offsetInCU: 0xEFD4, offset: 0x318FC0, size: 0x8, addend: 0x0, symName: __ZN8facebook3jsi7JSErrorD1Ev, symObjAddr: 0x164, symBinAddr: 0x3DCB8, symSize: 0x4 }
  - { offsetInCU: 0xEFF5, offset: 0x318FE1, size: 0x8, addend: 0x0, symName: __ZN8facebook3jsi7JSErrorD1Ev, symObjAddr: 0x164, symBinAddr: 0x3DCB8, symSize: 0x4 }
  - { offsetInCU: 0xF001, offset: 0x318FED, size: 0x8, addend: 0x0, symName: __ZN8facebook3jsi7JSErrorD2Ev, symObjAddr: 0x485C, symBinAddr: 0x42314, symSize: 0x54 }
  - { offsetInCU: 0xF2C9, offset: 0x3192B5, size: 0x8, addend: 0x0, symName: __ZN8facebook3jsi10HostObjectD2Ev, symObjAddr: 0x168, symBinAddr: 0x3DCBC, symSize: 0x4 }
  - { offsetInCU: 0xF2F2, offset: 0x3192DE, size: 0x8, addend: 0x0, symName: __ZN8facebook3jsi10HostObjectD1Ev, symObjAddr: 0x16C, symBinAddr: 0x3DCC0, symSize: 0x4 }
  - { offsetInCU: 0xF31B, offset: 0x319307, size: 0x8, addend: 0x0, symName: __ZN8facebook3jsi10HostObjectD0Ev, symObjAddr: 0x170, symBinAddr: 0x3DCC4, symSize: 0x4 }
  - { offsetInCU: 0xF344, offset: 0x319330, size: 0x8, addend: 0x0, symName: __ZN8facebook3jsi7RuntimeD2Ev, symObjAddr: 0x174, symBinAddr: 0x3DCC8, symSize: 0x4 }
  - { offsetInCU: 0xF36D, offset: 0x319359, size: 0x8, addend: 0x0, symName: __ZN8facebook3jsi7RuntimeD1Ev, symObjAddr: 0x178, symBinAddr: 0x3DCCC, symSize: 0x4 }
  - { offsetInCU: 0xF394, offset: 0x319380, size: 0x8, addend: 0x0, symName: __ZN8facebook3jsi7RuntimeD0Ev, symObjAddr: 0x17C, symBinAddr: 0x3DCD0, symSize: 0x4 }
  - { offsetInCU: 0xF3BB, offset: 0x3193A7, size: 0x8, addend: 0x0, symName: __ZZN8facebook3jsi7Runtime15instrumentationEvEN17NoInstrumentationD1Ev, symObjAddr: 0x1C8, symBinAddr: 0x3DD1C, symSize: 0x4 }
  - { offsetInCU: 0xF4E7, offset: 0x3194D3, size: 0x8, addend: 0x0, symName: __ZN8facebook3jsi7Runtime23createValueFromJsonUtf8EPKhm, symObjAddr: 0x1CC, symBinAddr: 0x3DD20, symSize: 0x18C }
  - { offsetInCU: 0xF8E7, offset: 0x3198D3, size: 0x8, addend: 0x0, symName: __ZNK8facebook3jsi6Object19getPropertyAsObjectERNS0_7RuntimeEPKc, symObjAddr: 0x358, symBinAddr: 0x3DEAC, symSize: 0x2E8 }
  - { offsetInCU: 0x10681, offset: 0x31A66D, size: 0x8, addend: 0x0, symName: __ZNK8facebook3jsi6Object21getPropertyAsFunctionERNS0_7RuntimeEPKc, symObjAddr: 0x640, symBinAddr: 0x3E194, symSize: 0x2B4 }
  - { offsetInCU: 0x113C2, offset: 0x31B3AE, size: 0x8, addend: 0x0, symName: __ZNK8facebook3jsi8Function4callIJNS0_6StringEEEENS0_5ValueERNS0_7RuntimeEDpOT_, symObjAddr: 0x8F4, symBinAddr: 0x3E448, symSize: 0x114 }
  - { offsetInCU: 0x11913, offset: 0x31B8FF, size: 0x8, addend: 0x0, symName: __ZN8facebook3jsi5ValueD2Ev, symObjAddr: 0x139C, symBinAddr: 0x3EEA8, symSize: 0x44 }
  - { offsetInCU: 0x11B8F, offset: 0x31BB7B, size: 0x8, addend: 0x0, symName: __ZN8facebook3jsi7PointeraSEOS1_, symObjAddr: 0xA08, symBinAddr: 0x3E55C, symSize: 0x44 }
  - { offsetInCU: 0x11C79, offset: 0x31BC65, size: 0x8, addend: 0x0, symName: __ZN8facebook3jsi5ValueD1Ev, symObjAddr: 0xBFC, symBinAddr: 0x3E708, symSize: 0x4 }
  - { offsetInCU: 0x11C85, offset: 0x31BC71, size: 0x8, addend: 0x0, symName: __ZN8facebook3jsi12_GLOBAL__N_112kindToStringERKNS0_5ValueEPNS0_7RuntimeE.cold.1, symObjAddr: 0x4E38, symBinAddr: 0xB986CC, symSize: 0x28 }
  - { offsetInCU: 0x11CA7, offset: 0x31BC93, size: 0x8, addend: 0x0, symName: __ZN8facebook3jsi5ValueD1Ev, symObjAddr: 0xBFC, symBinAddr: 0x3E708, symSize: 0x4 }
  - { offsetInCU: 0x11CC8, offset: 0x31BCB4, size: 0x8, addend: 0x0, symName: __ZN8facebook3jsi5ValueD1Ev, symObjAddr: 0xBFC, symBinAddr: 0x3E708, symSize: 0x4 }
  - { offsetInCU: 0x11D99, offset: 0x31BD85, size: 0x8, addend: 0x0, symName: __ZNKR8facebook3jsi6Object7asArrayERNS0_7RuntimeE, symObjAddr: 0xC00, symBinAddr: 0x3E70C, symSize: 0x1DC }
  - { offsetInCU: 0x124EE, offset: 0x31C4DA, size: 0x8, addend: 0x0, symName: __ZNKR8facebook3jsi6Object7asArrayERNS0_7RuntimeE.cold.1, symObjAddr: 0x4E88, symBinAddr: 0xB986F4, symSize: 0x28 }
  - { offsetInCU: 0x1254A, offset: 0x31C536, size: 0x8, addend: 0x0, symName: __ZNO8facebook3jsi6Object7asArrayERNS0_7RuntimeE, symObjAddr: 0xDDC, symBinAddr: 0x3E8E8, symSize: 0x1CC }
  - { offsetInCU: 0x12C9A, offset: 0x31CC86, size: 0x8, addend: 0x0, symName: __ZNO8facebook3jsi6Object7asArrayERNS0_7RuntimeE.cold.1, symObjAddr: 0x4EB0, symBinAddr: 0xB9871C, symSize: 0x28 }
  - { offsetInCU: 0x12CEA, offset: 0x31CCD6, size: 0x8, addend: 0x0, symName: __ZNKR8facebook3jsi6Object10asFunctionERNS0_7RuntimeE, symObjAddr: 0xFA8, symBinAddr: 0x3EAB4, symSize: 0x1DC }
  - { offsetInCU: 0x1343F, offset: 0x31D42B, size: 0x8, addend: 0x0, symName: __ZNKR8facebook3jsi6Object10asFunctionERNS0_7RuntimeE.cold.1, symObjAddr: 0x4ED8, symBinAddr: 0xB98744, symSize: 0x28 }
  - { offsetInCU: 0x1346D, offset: 0x31D459, size: 0x8, addend: 0x0, symName: __ZNO8facebook3jsi6Object10asFunctionERNS0_7RuntimeE, symObjAddr: 0x1184, symBinAddr: 0x3EC90, symSize: 0x1CC }
  - { offsetInCU: 0x13BBD, offset: 0x31DBA9, size: 0x8, addend: 0x0, symName: __ZNO8facebook3jsi6Object10asFunctionERNS0_7RuntimeE.cold.1, symObjAddr: 0x4F00, symBinAddr: 0xB9876C, symSize: 0x28 }
  - { offsetInCU: 0x13C10, offset: 0x31DBFC, size: 0x8, addend: 0x0, symName: __ZN8facebook3jsi5ValueC2EOS1_, symObjAddr: 0x1350, symBinAddr: 0x3EE5C, symSize: 0x4C }
  - { offsetInCU: 0x13CBA, offset: 0x31DCA6, size: 0x8, addend: 0x0, symName: __ZN8facebook3jsi5ValueC1EOS1_, symObjAddr: 0x13E0, symBinAddr: 0x3EEEC, symSize: 0x4C }
  - { offsetInCU: 0x13D78, offset: 0x31DD64, size: 0x8, addend: 0x0, symName: __ZN8facebook3jsi5ValueC2ERNS0_7RuntimeERKS1_, symObjAddr: 0x142C, symBinAddr: 0x3EF38, symSize: 0xF0 }
  - { offsetInCU: 0x13E26, offset: 0x31DE12, size: 0x8, addend: 0x0, symName: __ZN8facebook3jsi5ValueC1ERNS0_7RuntimeERKS1_, symObjAddr: 0x151C, symBinAddr: 0x3F028, symSize: 0xF0 }
  - { offsetInCU: 0x13F15, offset: 0x31DF01, size: 0x8, addend: 0x0, symName: __ZN8facebook3jsi5Value12strictEqualsERNS0_7RuntimeERKS1_S5_, symObjAddr: 0x160C, symBinAddr: 0x3F118, symSize: 0xB4 }
  - { offsetInCU: 0x1401A, offset: 0x31E006, size: 0x8, addend: 0x0, symName: __ZNK8facebook3jsi5Value6asBoolEv, symObjAddr: 0x16C0, symBinAddr: 0x3F1CC, symSize: 0x198 }
  - { offsetInCU: 0x144B6, offset: 0x31E4A2, size: 0x8, addend: 0x0, symName: __ZN8facebook3jsi18JSINativeExceptionD1Ev, symObjAddr: 0x1858, symBinAddr: 0x3F364, symSize: 0x4 }
  - { offsetInCU: 0x144D7, offset: 0x31E4C3, size: 0x8, addend: 0x0, symName: __ZN8facebook3jsi18JSINativeExceptionD1Ev, symObjAddr: 0x1858, symBinAddr: 0x3F364, symSize: 0x4 }
  - { offsetInCU: 0x144F5, offset: 0x31E4E1, size: 0x8, addend: 0x0, symName: __ZN8facebook3jsi18JSINativeExceptionD1Ev, symObjAddr: 0x1858, symBinAddr: 0x3F364, symSize: 0x4 }
  - { offsetInCU: 0x14501, offset: 0x31E4ED, size: 0x8, addend: 0x0, symName: __ZN8facebook3jsi12JSIExceptionD2Ev, symObjAddr: 0x3728, symBinAddr: 0x411EC, symSize: 0x3C }
  - { offsetInCU: 0x14686, offset: 0x31E672, size: 0x8, addend: 0x0, symName: __ZNK8facebook3jsi5Value8asNumberEv, symObjAddr: 0x185C, symBinAddr: 0x3F368, symSize: 0x198 }
  - { offsetInCU: 0x14B06, offset: 0x31EAF2, size: 0x8, addend: 0x0, symName: __ZNKR8facebook3jsi5Value8asObjectERNS0_7RuntimeE, symObjAddr: 0x19F4, symBinAddr: 0x3F500, symSize: 0x160 }
  - { offsetInCU: 0x15052, offset: 0x31F03E, size: 0x8, addend: 0x0, symName: __ZNO8facebook3jsi5Value8asObjectERNS0_7RuntimeE, symObjAddr: 0x1B54, symBinAddr: 0x3F660, symSize: 0x168 }
  - { offsetInCU: 0x15625, offset: 0x31F611, size: 0x8, addend: 0x0, symName: __ZNKR8facebook3jsi5Value8asSymbolERNS0_7RuntimeE, symObjAddr: 0x1CBC, symBinAddr: 0x3F7C8, symSize: 0x160 }
  - { offsetInCU: 0x15B71, offset: 0x31FB5D, size: 0x8, addend: 0x0, symName: __ZNKR8facebook3jsi5Value9getSymbolERNS0_7RuntimeE, symObjAddr: 0x1E1C, symBinAddr: 0x3F928, symSize: 0x48 }
  - { offsetInCU: 0x15C44, offset: 0x31FC30, size: 0x8, addend: 0x0, symName: __ZNO8facebook3jsi5Value8asSymbolERNS0_7RuntimeE, symObjAddr: 0x1E64, symBinAddr: 0x3F970, symSize: 0x168 }
  - { offsetInCU: 0x15C97, offset: 0x31FC83, size: 0x8, addend: 0x0, symName: __ZNKR8facebook3jsi5Value9getSymbolERNS0_7RuntimeE.cold.1, symObjAddr: 0x4F28, symBinAddr: 0xB98794, symSize: 0x28 }
  - { offsetInCU: 0x15CDA, offset: 0x31FCC6, size: 0x8, addend: 0x0, symName: __ZNO8facebook3jsi5Value8asSymbolERNS0_7RuntimeE, symObjAddr: 0x1E64, symBinAddr: 0x3F970, symSize: 0x168 }
  - { offsetInCU: 0x162C4, offset: 0x3202B0, size: 0x8, addend: 0x0, symName: __ZNKR8facebook3jsi5Value8asBigIntERNS0_7RuntimeE, symObjAddr: 0x1FCC, symBinAddr: 0x3FAD8, symSize: 0x160 }
  - { offsetInCU: 0x16810, offset: 0x3207FC, size: 0x8, addend: 0x0, symName: __ZNKR8facebook3jsi5Value9getBigIntERNS0_7RuntimeE, symObjAddr: 0x212C, symBinAddr: 0x3FC38, symSize: 0x48 }
  - { offsetInCU: 0x168E3, offset: 0x3208CF, size: 0x8, addend: 0x0, symName: __ZNO8facebook3jsi5Value8asBigIntERNS0_7RuntimeE, symObjAddr: 0x2174, symBinAddr: 0x3FC80, symSize: 0x168 }
  - { offsetInCU: 0x16936, offset: 0x320922, size: 0x8, addend: 0x0, symName: __ZNKR8facebook3jsi5Value9getBigIntERNS0_7RuntimeE.cold.1, symObjAddr: 0x4F50, symBinAddr: 0xB987BC, symSize: 0x28 }
  - { offsetInCU: 0x16979, offset: 0x320965, size: 0x8, addend: 0x0, symName: __ZNO8facebook3jsi5Value8asBigIntERNS0_7RuntimeE, symObjAddr: 0x2174, symBinAddr: 0x3FC80, symSize: 0x168 }
  - { offsetInCU: 0x16F63, offset: 0x320F4F, size: 0x8, addend: 0x0, symName: __ZNKR8facebook3jsi5Value8asStringERNS0_7RuntimeE, symObjAddr: 0x22DC, symBinAddr: 0x3FDE8, symSize: 0x160 }
  - { offsetInCU: 0x1752A, offset: 0x321516, size: 0x8, addend: 0x0, symName: __ZNO8facebook3jsi5Value8asStringERNS0_7RuntimeE, symObjAddr: 0x2484, symBinAddr: 0x3FF48, symSize: 0x168 }
  - { offsetInCU: 0x1756B, offset: 0x321557, size: 0x8, addend: 0x0, symName: __ZNO8facebook3jsi5Value8asStringERNS0_7RuntimeE, symObjAddr: 0x2484, symBinAddr: 0x3FF48, symSize: 0x168 }
  - { offsetInCU: 0x17B78, offset: 0x321B64, size: 0x8, addend: 0x0, symName: __ZNK8facebook3jsi5Value8toStringERNS0_7RuntimeE, symObjAddr: 0x25EC, symBinAddr: 0x400B0, symSize: 0x1F4 }
  - { offsetInCU: 0x1819D, offset: 0x322189, size: 0x8, addend: 0x0, symName: __ZN8facebook3jsi5Array18createWithElementsERNS0_7RuntimeESt16initializer_listINS0_5ValueEE, symObjAddr: 0x27E0, symBinAddr: 0x402A4, symSize: 0xB0 }
  - { offsetInCU: 0x183B0, offset: 0x32239C, size: 0x8, addend: 0x0, symName: __ZN8facebook3jsi5Array15setValueAtIndexIRKNS0_5ValueEEEvRNS0_7RuntimeEmOT_, symObjAddr: 0x2890, symBinAddr: 0x40354, symSize: 0x94 }
  - { offsetInCU: 0x18571, offset: 0x32255D, size: 0x8, addend: 0x0, symName: __ZN8facebook3jsi10HostObject16getPropertyNamesERNS0_7RuntimeE, symObjAddr: 0x2924, symBinAddr: 0x403E8, symSize: 0xC }
  - { offsetInCU: 0x185A1, offset: 0x32258D, size: 0x8, addend: 0x0, symName: __ZN8facebook3jsi10HostObject16getPropertyNamesERNS0_7RuntimeE, symObjAddr: 0x2924, symBinAddr: 0x403E8, symSize: 0xC }
  - { offsetInCU: 0x185BE, offset: 0x3225AA, size: 0x8, addend: 0x0, symName: __ZN8facebook3jsi10HostObject16getPropertyNamesERNS0_7RuntimeE, symObjAddr: 0x2924, symBinAddr: 0x403E8, symSize: 0xC }
  - { offsetInCU: 0x185DB, offset: 0x3225C7, size: 0x8, addend: 0x0, symName: __ZN8facebook3jsi7Runtime9pushScopeEv, symObjAddr: 0x2930, symBinAddr: 0x403F4, symSize: 0x8 }
  - { offsetInCU: 0x18600, offset: 0x3225EC, size: 0x8, addend: 0x0, symName: __ZN8facebook3jsi7Runtime8popScopeEPNS1_10ScopeStateE, symObjAddr: 0x2938, symBinAddr: 0x403FC, symSize: 0x4 }
  - { offsetInCU: 0x18693, offset: 0x32267F, size: 0x8, addend: 0x0, symName: __ZN8facebook3jsi7JSErrorC2ERNS0_7RuntimeEONS0_5ValueE, symObjAddr: 0x293C, symBinAddr: 0x40400, symSize: 0x8C }
  - { offsetInCU: 0x18A49, offset: 0x322A35, size: 0x8, addend: 0x0, symName: __ZN8facebook3jsi7JSError8setValueERNS0_7RuntimeEONS0_5ValueE, symObjAddr: 0x29C8, symBinAddr: 0x4048C, symSize: 0xD60 }
  - { offsetInCU: 0x1CEE5, offset: 0x326ED1, size: 0x8, addend: 0x0, symName: __ZNSt3__110shared_ptrIN8facebook3jsi5ValueEED2B7v160006Ev, symObjAddr: 0x4BC4, symBinAddr: 0x42558, symSize: 0x58 }
  - { offsetInCU: 0x1D21E, offset: 0x32720A, size: 0x8, addend: 0x0, symName: __ZNSt3__110shared_ptrIN8facebook3jsi5ValueEEaSB7v160006EOS4_, symObjAddr: 0x4760, symBinAddr: 0x42218, symSize: 0x64 }
  - { offsetInCU: 0x1D37C, offset: 0x327368, size: 0x8, addend: 0x0, symName: __ZN8facebook3jsi5ValueaSEOS1_, symObjAddr: 0x47C4, symBinAddr: 0x4227C, symSize: 0x68 }
  - { offsetInCU: 0x1D5A0, offset: 0x32758C, size: 0x8, addend: 0x0, symName: __ZN8facebook3jsi12_GLOBAL__N_112kindToStringERKNS0_5ValueEPNS0_7RuntimeE.cold.1, symObjAddr: 0x4E38, symBinAddr: 0xB986CC, symSize: 0x28 }
  - { offsetInCU: 0x1D5AC, offset: 0x327598, size: 0x8, addend: 0x0, symName: __ZN8facebook3jsi7JSErrorC1ERNS0_7RuntimeEONS0_5ValueE, symObjAddr: 0x3764, symBinAddr: 0x41228, symSize: 0x4 }
  - { offsetInCU: 0x1D5F7, offset: 0x3275E3, size: 0x8, addend: 0x0, symName: __ZN8facebook3jsi7JSErrorC1ERNS0_7RuntimeEONS0_5ValueE, symObjAddr: 0x3764, symBinAddr: 0x41228, symSize: 0x4 }
  - { offsetInCU: 0x1D6F2, offset: 0x3276DE, size: 0x8, addend: 0x0, symName: __ZN8facebook3jsi7JSErrorC2ERNS0_7RuntimeENSt3__112basic_stringIcNS4_11char_traitsIcEENS4_9allocatorIcEEEESA_, symObjAddr: 0x41E4, symBinAddr: 0x41C9C, symSize: 0x3D4 }
  - { offsetInCU: 0x1E70F, offset: 0x3286FB, size: 0x8, addend: 0x0, symName: __ZN8facebook3jsi6Object11setPropertyINS0_6StringEEEvRNS0_7RuntimeEPKcOT_, symObjAddr: 0x45B8, symBinAddr: 0x42070, symSize: 0xAC }
  - { offsetInCU: 0x1E898, offset: 0x328884, size: 0x8, addend: 0x0, symName: __ZN8facebook3jsi6Object11setPropertyINS0_6StringEEEvRNS0_7RuntimeERKS3_OT_, symObjAddr: 0x4C1C, symBinAddr: 0x425B0, symSize: 0xAC }
  - { offsetInCU: 0x1EAB8, offset: 0x328AA4, size: 0x8, addend: 0x0, symName: __ZN8facebook3jsi7JSErrorC1ERNS0_7RuntimeENSt3__112basic_stringIcNS4_11char_traitsIcEENS4_9allocatorIcEEEESA_, symObjAddr: 0x4664, symBinAddr: 0x4211C, symSize: 0x4 }
  - { offsetInCU: 0x1EB14, offset: 0x328B00, size: 0x8, addend: 0x0, symName: __ZN8facebook3jsi7JSErrorC1ERNS0_7RuntimeENSt3__112basic_stringIcNS4_11char_traitsIcEENS4_9allocatorIcEEEESA_, symObjAddr: 0x4664, symBinAddr: 0x4211C, symSize: 0x4 }
  - { offsetInCU: 0x1EB20, offset: 0x328B0C, size: 0x8, addend: 0x0, symName: __ZN8facebook3jsi7JSErrorC2ENSt3__112basic_stringIcNS2_11char_traitsIcEENS2_9allocatorIcEEEERNS0_7RuntimeEONS0_5ValueE, symObjAddr: 0x4668, symBinAddr: 0x42120, symSize: 0xF4 }
  - { offsetInCU: 0x1EF41, offset: 0x328F2D, size: 0x8, addend: 0x0, symName: __ZN8facebook3jsi7JSErrorC1ENSt3__112basic_stringIcNS2_11char_traitsIcEENS2_9allocatorIcEEEERNS0_7RuntimeEONS0_5ValueE, symObjAddr: 0x475C, symBinAddr: 0x42214, symSize: 0x4 }
  - { offsetInCU: 0x1EF9C, offset: 0x328F88, size: 0x8, addend: 0x0, symName: __ZN8facebook3jsi7JSErrorC1ENSt3__112basic_stringIcNS2_11char_traitsIcEENS2_9allocatorIcEEEERNS0_7RuntimeEONS0_5ValueE, symObjAddr: 0x475C, symBinAddr: 0x42214, symSize: 0x4 }
  - { offsetInCU: 0x1F043, offset: 0x32902F, size: 0x8, addend: 0x0, symName: __ZN8facebook3jsi12JSIExceptionD1Ev, symObjAddr: 0x482C, symBinAddr: 0x422E4, symSize: 0x4 }
  - { offsetInCU: 0x1F064, offset: 0x329050, size: 0x8, addend: 0x0, symName: __ZN8facebook3jsi12JSIExceptionD1Ev, symObjAddr: 0x482C, symBinAddr: 0x422E4, symSize: 0x4 }
  - { offsetInCU: 0x1F08C, offset: 0x329078, size: 0x8, addend: 0x0, symName: __ZN8facebook3jsi12JSIExceptionD0Ev, symObjAddr: 0x4830, symBinAddr: 0x422E8, symSize: 0x14 }
  - { offsetInCU: 0x1F0E3, offset: 0x3290CF, size: 0x8, addend: 0x0, symName: __ZN8facebook3jsi18JSINativeExceptionD2Ev, symObjAddr: 0x4844, symBinAddr: 0x422FC, symSize: 0x4 }
  - { offsetInCU: 0x1F104, offset: 0x3290F0, size: 0x8, addend: 0x0, symName: __ZN8facebook3jsi18JSINativeExceptionD2Ev, symObjAddr: 0x4844, symBinAddr: 0x422FC, symSize: 0x4 }
  - { offsetInCU: 0x1F12C, offset: 0x329118, size: 0x8, addend: 0x0, symName: __ZN8facebook3jsi18JSINativeExceptionD0Ev, symObjAddr: 0x4848, symBinAddr: 0x42300, symSize: 0x14 }
  - { offsetInCU: 0x1F1BD, offset: 0x3291A9, size: 0x8, addend: 0x0, symName: __ZN8facebook3jsi7JSErrorD0Ev, symObjAddr: 0x48B0, symBinAddr: 0x42368, symSize: 0x14 }
  - { offsetInCU: 0x1F23E, offset: 0x32922A, size: 0x8, addend: 0x0, symName: __ZNK8facebook3jsi12JSIException4whatEv, symObjAddr: 0x48C4, symBinAddr: 0x4237C, symSize: 0x1C }
  - { offsetInCU: 0x1F2EC, offset: 0x3292D8, size: 0x8, addend: 0x0, symName: __ZZN8facebook3jsi7Runtime15instrumentationEvEN17NoInstrumentationD0Ev, symObjAddr: 0x48E0, symBinAddr: 0x42398, symSize: 0x4 }
  - { offsetInCU: 0x1F315, offset: 0x329301, size: 0x8, addend: 0x0, symName: __ZZN8facebook3jsi7Runtime15instrumentationEvEN17NoInstrumentation18getRecordedGCStatsEv, symObjAddr: 0x48E4, symBinAddr: 0x4239C, symSize: 0x10 }
  - { offsetInCU: 0x1F52F, offset: 0x32951B, size: 0x8, addend: 0x0, symName: __ZZN8facebook3jsi7Runtime15instrumentationEvEN17NoInstrumentation11getHeapInfoEb, symObjAddr: 0x48F4, symBinAddr: 0x423AC, symSize: 0x14 }
  - { offsetInCU: 0x1F55F, offset: 0x32954B, size: 0x8, addend: 0x0, symName: __ZZN8facebook3jsi7Runtime15instrumentationEvEN17NoInstrumentation11getHeapInfoEb, symObjAddr: 0x48F4, symBinAddr: 0x423AC, symSize: 0x14 }
  - { offsetInCU: 0x1F57A, offset: 0x329566, size: 0x8, addend: 0x0, symName: __ZZN8facebook3jsi7Runtime15instrumentationEvEN17NoInstrumentation11getHeapInfoEb, symObjAddr: 0x48F4, symBinAddr: 0x423AC, symSize: 0x14 }
  - { offsetInCU: 0x1F597, offset: 0x329583, size: 0x8, addend: 0x0, symName: __ZZN8facebook3jsi7Runtime15instrumentationEvEN17NoInstrumentation11getHeapInfoEb, symObjAddr: 0x48F4, symBinAddr: 0x423AC, symSize: 0x14 }
  - { offsetInCU: 0x1F5B4, offset: 0x3295A0, size: 0x8, addend: 0x0, symName: __ZZN8facebook3jsi7Runtime15instrumentationEvEN17NoInstrumentation11getHeapInfoEb, symObjAddr: 0x48F4, symBinAddr: 0x423AC, symSize: 0x14 }
  - { offsetInCU: 0x1F5D1, offset: 0x3295BD, size: 0x8, addend: 0x0, symName: __ZZN8facebook3jsi7Runtime15instrumentationEvEN17NoInstrumentation11getHeapInfoEb, symObjAddr: 0x48F4, symBinAddr: 0x423AC, symSize: 0x14 }
  - { offsetInCU: 0x1F5F0, offset: 0x3295DC, size: 0x8, addend: 0x0, symName: __ZZN8facebook3jsi7Runtime15instrumentationEvEN17NoInstrumentation11getHeapInfoEb, symObjAddr: 0x48F4, symBinAddr: 0x423AC, symSize: 0x14 }
  - { offsetInCU: 0x1F60D, offset: 0x3295F9, size: 0x8, addend: 0x0, symName: __ZZN8facebook3jsi7Runtime15instrumentationEvEN17NoInstrumentation11getHeapInfoEb, symObjAddr: 0x48F4, symBinAddr: 0x423AC, symSize: 0x14 }
  - { offsetInCU: 0x1F62A, offset: 0x329616, size: 0x8, addend: 0x0, symName: __ZZN8facebook3jsi7Runtime15instrumentationEvEN17NoInstrumentation11getHeapInfoEb, symObjAddr: 0x48F4, symBinAddr: 0x423AC, symSize: 0x14 }
  - { offsetInCU: 0x1F647, offset: 0x329633, size: 0x8, addend: 0x0, symName: __ZZN8facebook3jsi7Runtime15instrumentationEvEN17NoInstrumentation11getHeapInfoEb, symObjAddr: 0x48F4, symBinAddr: 0x423AC, symSize: 0x14 }
  - { offsetInCU: 0x1F6C7, offset: 0x3296B3, size: 0x8, addend: 0x0, symName: __ZZN8facebook3jsi7Runtime15instrumentationEvEN17NoInstrumentation14collectGarbageENSt3__112basic_stringIcNS3_11char_traitsIcEENS3_9allocatorIcEEEE, symObjAddr: 0x4908, symBinAddr: 0x423C0, symSize: 0x4 }
  - { offsetInCU: 0x1F6F5, offset: 0x3296E1, size: 0x8, addend: 0x0, symName: __ZZN8facebook3jsi7Runtime15instrumentationEvEN17NoInstrumentation34startTrackingHeapObjectStackTracesENSt3__18functionIFvyNS3_6chrono8durationIxNS3_5ratioILl1ELl1000000EEEEENS3_6vectorINS3_5tupleIJyyyEEENS3_9allocatorISC_EEEEEEE, symObjAddr: 0x490C, symBinAddr: 0x423C4, symSize: 0x4 }
  - { offsetInCU: 0x1F723, offset: 0x32970F, size: 0x8, addend: 0x0, symName: __ZZN8facebook3jsi7Runtime15instrumentationEvEN17NoInstrumentation33stopTrackingHeapObjectStackTracesEv, symObjAddr: 0x4910, symBinAddr: 0x423C8, symSize: 0x4 }
  - { offsetInCU: 0x1F749, offset: 0x329735, size: 0x8, addend: 0x0, symName: __ZZN8facebook3jsi7Runtime15instrumentationEvEN17NoInstrumentation17startHeapSamplingEm, symObjAddr: 0x4914, symBinAddr: 0x423CC, symSize: 0x4 }
  - { offsetInCU: 0x1F777, offset: 0x329763, size: 0x8, addend: 0x0, symName: __ZZN8facebook3jsi7Runtime15instrumentationEvEN17NoInstrumentation16stopHeapSamplingERNSt3__113basic_ostreamIcNS3_11char_traitsIcEEEE, symObjAddr: 0x4918, symBinAddr: 0x423D0, symSize: 0x4 }
  - { offsetInCU: 0x1F7A5, offset: 0x329791, size: 0x8, addend: 0x0, symName: __ZZN8facebook3jsi7Runtime15instrumentationEvEN17NoInstrumentation20createSnapshotToFileERKNSt3__112basic_stringIcNS3_11char_traitsIcEENS3_9allocatorIcEEEE, symObjAddr: 0x491C, symBinAddr: 0x423D4, symSize: 0xB0 }
  - { offsetInCU: 0x1FA20, offset: 0x329A0C, size: 0x8, addend: 0x0, symName: __ZZN8facebook3jsi7Runtime15instrumentationEvEN17NoInstrumentation22createSnapshotToStreamERNSt3__113basic_ostreamIcNS3_11char_traitsIcEEEE, symObjAddr: 0x49CC, symBinAddr: 0x42484, symSize: 0xB0 }
  - { offsetInCU: 0x1FC9B, offset: 0x329C87, size: 0x8, addend: 0x0, symName: __ZZN8facebook3jsi7Runtime15instrumentationEvEN17NoInstrumentation33flushAndDisableBridgeTrafficTraceEv, symObjAddr: 0x4A7C, symBinAddr: 0x42534, symSize: 0xC }
  - { offsetInCU: 0x1FCC1, offset: 0x329CAD, size: 0x8, addend: 0x0, symName: __ZZN8facebook3jsi7Runtime15instrumentationEvENK17NoInstrumentation33writeBasicBlockProfileTraceToFileERKNSt3__112basic_stringIcNS3_11char_traitsIcEENS3_9allocatorIcEEEE, symObjAddr: 0x4A88, symBinAddr: 0x42540, symSize: 0xC }
  - { offsetInCU: 0x1FCEF, offset: 0x329CDB, size: 0x8, addend: 0x0, symName: __ZZN8facebook3jsi7Runtime15instrumentationEvENK17NoInstrumentation25dumpProfilerSymbolsToFileERKNSt3__112basic_stringIcNS3_11char_traitsIcEENS3_9allocatorIcEEEE, symObjAddr: 0x4A94, symBinAddr: 0x4254C, symSize: 0xC }
  - { offsetInCU: 0x200D8, offset: 0x32A0C4, size: 0x8, addend: 0x0, symName: __ZNSt3__120__shared_ptr_emplaceIN8facebook3jsi5ValueENS_9allocatorIS3_EEEC2B7v160006IJS3_EEES5_DpOT_, symObjAddr: 0x4D20, symBinAddr: 0x426B4, symSize: 0x60 }
  - { offsetInCU: 0x20287, offset: 0x32A273, size: 0x8, addend: 0x0, symName: __ZNSt3__120__shared_ptr_emplaceIN8facebook3jsi5ValueENS_9allocatorIS3_EEED1Ev, symObjAddr: 0x4D80, symBinAddr: 0x42714, symSize: 0x14 }
  - { offsetInCU: 0x202A8, offset: 0x32A294, size: 0x8, addend: 0x0, symName: __ZNSt3__120__shared_ptr_emplaceIN8facebook3jsi5ValueENS_9allocatorIS3_EEED1Ev, symObjAddr: 0x4D80, symBinAddr: 0x42714, symSize: 0x14 }
  - { offsetInCU: 0x202E0, offset: 0x32A2CC, size: 0x8, addend: 0x0, symName: __ZNSt3__120__shared_ptr_emplaceIN8facebook3jsi5ValueENS_9allocatorIS3_EEED0Ev, symObjAddr: 0x4D94, symBinAddr: 0x42728, symSize: 0x24 }
  - { offsetInCU: 0x20347, offset: 0x32A333, size: 0x8, addend: 0x0, symName: __ZNSt3__120__shared_ptr_emplaceIN8facebook3jsi5ValueENS_9allocatorIS3_EEE16__on_zero_sharedEv, symObjAddr: 0x4DB8, symBinAddr: 0x4274C, symSize: 0x8 }
  - { offsetInCU: 0x20370, offset: 0x32A35C, size: 0x8, addend: 0x0, symName: __ZNSt3__120__shared_ptr_emplaceIN8facebook3jsi5ValueENS_9allocatorIS3_EEE16__on_zero_sharedEv, symObjAddr: 0x4DB8, symBinAddr: 0x4274C, symSize: 0x8 }
  - { offsetInCU: 0x203B8, offset: 0x32A3A4, size: 0x8, addend: 0x0, symName: __ZNSt3__120__shared_ptr_emplaceIN8facebook3jsi5ValueENS_9allocatorIS3_EEE21__on_zero_shared_weakEv, symObjAddr: 0x4DC0, symBinAddr: 0x42754, symSize: 0x4 }
  - { offsetInCU: 0x203EB, offset: 0x32A3D7, size: 0x8, addend: 0x0, symName: __ZNSt3__120__shared_ptr_emplaceIN8facebook3jsi5ValueENS_9allocatorIS3_EEE21__on_zero_shared_weakEv, symObjAddr: 0x4DC0, symBinAddr: 0x42754, symSize: 0x4 }
  - { offsetInCU: 0x2040F, offset: 0x32A3FB, size: 0x8, addend: 0x0, symName: __ZNSt3__120__shared_ptr_emplaceIN8facebook3jsi5ValueENS_9allocatorIS3_EEE21__on_zero_shared_weakEv, symObjAddr: 0x4DC0, symBinAddr: 0x42754, symSize: 0x4 }
  - { offsetInCU: 0x20433, offset: 0x32A41F, size: 0x8, addend: 0x0, symName: __ZNSt3__120__shared_ptr_emplaceIN8facebook3jsi5ValueENS_9allocatorIS3_EEE21__on_zero_shared_weakEv, symObjAddr: 0x4DC0, symBinAddr: 0x42754, symSize: 0x4 }
  - { offsetInCU: 0x20460, offset: 0x32A44C, size: 0x8, addend: 0x0, symName: __ZNSt3__120__shared_ptr_emplaceIN8facebook3jsi5ValueENS_9allocatorIS3_EEE21__on_zero_shared_weakEv, symObjAddr: 0x4DC0, symBinAddr: 0x42754, symSize: 0x4 }
  - { offsetInCU: 0x20488, offset: 0x32A474, size: 0x8, addend: 0x0, symName: __ZNSt3__120__shared_ptr_emplaceIN8facebook3jsi5ValueENS_9allocatorIS3_EEE21__on_zero_shared_weakEv, symObjAddr: 0x4DC0, symBinAddr: 0x42754, symSize: 0x4 }
  - { offsetInCU: 0x53, offset: 0x32A53C, size: 0x8, addend: 0x0, symName: __ZN3tns12ClassBuilder17classNameCounter_E, symObjAddr: 0x31C398, symBinAddr: 0x1593D10, symSize: 0x0 }
  - { offsetInCU: 0xA5A9, offset: 0x334A92, size: 0x8, addend: 0x0, symName: __ZNSt3__119__allocate_at_leastB7v160006INS_9allocatorIPKN3tns12ProtocolMetaEEEEENS_19__allocation_resultINS_16allocator_traitsIT_E7pointerEEERS9_m, symObjAddr: 0xA580, symBinAddr: 0x496BC, symSize: 0x34 }
  - { offsetInCU: 0xAFA4, offset: 0x33548D, size: 0x8, addend: 0x0, symName: __ZNSt3__115allocate_sharedB7v160006IN2v810PersistentINS1_6ObjectENS1_27NonCopyablePersistentTraitsIS3_EEEENS_9allocatorIS6_EEJRPNS1_7IsolateERNS1_5LocalIS3_EEEvEENS_10shared_ptrIT_EERKT0_DpOT1_, symObjAddr: 0xA84C, symBinAddr: 0x497B0, symSize: 0x60 }
  - { offsetInCU: 0xB6BF, offset: 0x335BA8, size: 0x8, addend: 0x0, symName: __ZNSt3__115allocate_sharedB7v160006IN2v810PersistentINS1_6ObjectENS1_27NonCopyablePersistentTraitsIS3_EEEENS_9allocatorIS6_EEJRPNS1_7IsolateERNS1_5LocalIS3_EEEvEENS_10shared_ptrIT_EERKT0_DpOT1_, symObjAddr: 0xA84C, symBinAddr: 0x497B0, symSize: 0x60 }
  - { offsetInCU: 0x15D8E, offset: 0x340277, size: 0x8, addend: 0x0, symName: __ZN3tns12ClassBuilder17GetExtendFunctionEPN2v87IsolateEPKNS_13InterfaceMetaE, symObjAddr: 0x0, symBinAddr: 0x42758, symSize: 0x114 }
  - { offsetInCU: 0x1607E, offset: 0x340567, size: 0x8, addend: 0x0, symName: __ZN3tns6Caches24registerCacheBoundObjectINS_12ClassBuilder9CacheItemEEEvPT_, symObjAddr: 0x114, symBinAddr: 0x4286C, symSize: 0x110 }
  - { offsetInCU: 0x17A47, offset: 0x341F30, size: 0x8, addend: 0x0, symName: __ZN3tns12ClassBuilder14ExtendCallbackERKN2v820FunctionCallbackInfoINS1_5ValueEEE, symObjAddr: 0x224, symBinAddr: 0x4297C, symSize: 0xD50 }
  - { offsetInCU: 0x1BE19, offset: 0x346302, size: 0x8, addend: 0x0, symName: __ZN3tns12ClassBuilder20ExposeDynamicMembersEN2v85LocalINS1_7ContextEEEP10objc_classNS2_INS1_6ObjectEEES8_, symObjAddr: 0x1030, symBinAddr: 0x436CC, symSize: 0x1C8 }
  - { offsetInCU: 0x1C695, offset: 0x346B7E, size: 0x8, addend: 0x0, symName: __ZN3tns12ClassBuilder20ExposeDynamicMethodsEN2v85LocalINS1_7ContextEEEP10objc_classNS2_INS1_5ValueEEES8_NS2_INS1_6ObjectEEE, symObjAddr: 0x11F8, symBinAddr: 0x43894, symSize: 0x1240 }
  - { offsetInCU: 0x22E2F, offset: 0x34D318, size: 0x8, addend: 0x0, symName: __ZN10robin_hood6detail5TableILb1ELm80ENSt3__112basic_stringIcNS2_11char_traitsIcEENS2_9allocatorIcEEEENS2_10unique_ptrIN2v810PersistentINSA_6ObjectENSA_27NonCopyablePersistentTraitsISC_EEEENS2_14default_deleteISF_EEEENS_4hashIS8_vEENS2_8equal_toIS8_EEE7emplaceIJRS8_SI_EEENS2_4pairINSN_4IterILb0EEEbEEDpOT_, symObjAddr: 0x2808, symBinAddr: 0x44D5C, symSize: 0x148 }
  - { offsetInCU: 0x2429C, offset: 0x34E785, size: 0x8, addend: 0x0, symName: __ZN3tns12ClassBuilder19GetTypeEncodingTypeEPN2v87IsolateENS1_5LocalINS1_5ValueEEE, symObjAddr: 0x3788, symBinAddr: 0x45A70, symSize: 0x110 }
  - { offsetInCU: 0x2495F, offset: 0x34EE48, size: 0x8, addend: 0x0, symName: __ZN3tns12ClassBuilder15GetTypeEncodingEPKNS_12TypeEncodingEi, symObjAddr: 0x35D8, symBinAddr: 0x458C0, symSize: 0x1B0 }
  - { offsetInCU: 0x24FB7, offset: 0x34F4A0, size: 0x8, addend: 0x0, symName: __ZNSt3__16vectorIPKN3tns12ProtocolMetaENS_9allocatorIS4_EEEC2ERKS7_, symObjAddr: 0xA6BC, symBinAddr: 0x496F0, symSize: 0x80 }
  - { offsetInCU: 0x252E2, offset: 0x34F7CB, size: 0x8, addend: 0x0, symName: __ZN3tns12ClassBuilder12VisitMethodsEP10objc_classNSt3__112basic_stringIcNS3_11char_traitsIcEENS3_9allocatorIcEEEEPKNS_13BaseClassMetaERNS3_6vectorIPKNS_10MethodMetaENS7_ISG_EEEENSD_IPKNS_12ProtocolMetaENS7_ISM_EEEE, symObjAddr: 0x4728, symBinAddr: 0x46A10, symSize: 0x6B0 }
  - { offsetInCU: 0x27E54, offset: 0x35233D, size: 0x8, addend: 0x0, symName: __ZN3tns12ClassBuilder15VisitPropertiesENSt3__112basic_stringIcNS1_11char_traitsIcEENS1_9allocatorIcEEEEPKNS_13BaseClassMetaERNS1_6vectorIPKNS_12PropertyMetaENS5_ISE_EEEENSB_IPKNS_12ProtocolMetaENS5_ISK_EEEE, symObjAddr: 0x38A4, symBinAddr: 0x45B8C, symSize: 0x698 }
  - { offsetInCU: 0x2AB72, offset: 0x35505B, size: 0x8, addend: 0x0, symName: __ZN3tns12ClassBuilder16ExposePropertiesEPN2v87IsolateEP10objc_classNSt3__16vectorIPKNS_12PropertyMetaENS6_9allocatorISA_EEEENS1_5LocalINS1_6ObjectEEENSE_INS1_5ValueEEESI_, symObjAddr: 0x3F3C, symBinAddr: 0x46224, symSize: 0x7EC }
  - { offsetInCU: 0x2CC37, offset: 0x357120, size: 0x8, addend: 0x0, symName: __ZNKSt3__16vectorIPKN3tns12ProtocolMetaENS_9allocatorIS4_EEE20__throw_length_errorB7v160006Ev, symObjAddr: 0xA56C, symBinAddr: 0x496A8, symSize: 0x14 }
  - { offsetInCU: 0x2CC60, offset: 0x357149, size: 0x8, addend: 0x0, symName: __ZNSt3__119__allocate_at_leastB7v160006INS_9allocatorIPKN3tns12ProtocolMetaEEEEENS_19__allocation_resultINS_16allocator_traitsIT_E7pointerEEERS9_m, symObjAddr: 0xA580, symBinAddr: 0x496BC, symSize: 0x34 }
  - { offsetInCU: 0x2CCBA, offset: 0x3571A3, size: 0x8, addend: 0x0, symName: __ZN3tns12ClassBuilder32ExtendedClassConstructorCallbackERKN2v820FunctionCallbackInfoINS1_5ValueEEE, symObjAddr: 0x2438, symBinAddr: 0x44AD4, symSize: 0x9C }
  - { offsetInCU: 0x2CF21, offset: 0x35740A, size: 0x8, addend: 0x0, symName: __ZN3tns12ClassBuilder27SuperAccessorGetterCallbackEN2v85LocalINS1_4NameEEERKNS1_20PropertyCallbackInfoINS1_5ValueEEE, symObjAddr: 0x24D4, symBinAddr: 0x44B70, symSize: 0x1EC }
  - { offsetInCU: 0x2E214, offset: 0x3586FD, size: 0x8, addend: 0x0, symName: __ZN10robin_hood6detail5TableILb1ELm80ENSt3__112basic_stringIcNS2_11char_traitsIcEENS2_9allocatorIcEEEENS2_10unique_ptrIN2v810PersistentINSA_6ObjectENSA_27NonCopyablePersistentTraitsISC_EEEENS2_14default_deleteISF_EEEENS_4hashIS8_vEENS2_8equal_toIS8_EEE25insertKeyPrepareEmptySpotIRKS8_EENS2_4pairImNSN_14InsertionStateEEEOT_, symObjAddr: 0x9878, symBinAddr: 0x48DEC, symSize: 0x188 }
  - { offsetInCU: 0x2E379, offset: 0x358862, size: 0x8, addend: 0x0, symName: __ZNK10robin_hood6detail5TableILb1ELm80ENSt3__112basic_stringIcNS2_11char_traitsIcEENS2_9allocatorIcEEEENS2_10unique_ptrIN2v810PersistentINSA_6ObjectENSA_27NonCopyablePersistentTraitsISC_EEEENS2_14default_deleteISF_EEEENS_4hashIS8_vEENS2_8equal_toIS8_EEE18throwOverflowErrorEv, symObjAddr: 0x9A00, symBinAddr: 0x48F74, symSize: 0x50 }
  - { offsetInCU: 0x2E3AE, offset: 0x358897, size: 0x8, addend: 0x0, symName: __ZN10robin_hood6detail5TableILb1ELm80ENSt3__112basic_stringIcNS2_11char_traitsIcEENS2_9allocatorIcEEEENS2_10unique_ptrIN2v810PersistentINSA_6ObjectENSA_27NonCopyablePersistentTraitsISC_EEEENS2_14default_deleteISF_EEEENS_4hashIS8_vEENS2_8equal_toIS8_EEE8DataNodeISN_Lb1EED1Ev, symObjAddr: 0x9A50, symBinAddr: 0x48FC4, symSize: 0x40 }
  - { offsetInCU: 0x2E645, offset: 0x358B2E, size: 0x8, addend: 0x0, symName: __ZN3tns12ClassBuilder37RegisterBaseTypeScriptExtendsFunctionEN2v85LocalINS1_7ContextEEE, symObjAddr: 0x295C, symBinAddr: 0x44EA4, symSize: 0x278 }
  - { offsetInCU: 0x2F452, offset: 0x35993B, size: 0x8, addend: 0x0, symName: __ZN3tns12ClassBuilder39RegisterNativeTypeScriptExtendsFunctionEN2v85LocalINS1_7ContextEEE, symObjAddr: 0x2BD4, symBinAddr: 0x4511C, symSize: 0x148 }
  - { offsetInCU: 0x2FA01, offset: 0x359EEA, size: 0x8, addend: 0x0, symName: __ZN3tns12ClassBuilder15GetTypeEncodingEPKNS_12TypeEncodingE, symObjAddr: 0x2D1C, symBinAddr: 0x45264, symSize: 0x65C }
  - { offsetInCU: 0x318BA, offset: 0x35BDA3, size: 0x8, addend: 0x0, symName: ____ZN3tns12ClassBuilder20ExposeDynamicMethodsEN2v85LocalINS1_7ContextEEEP10objc_classNS2_INS1_5ValueEEES8_NS2_INS1_6ObjectEEE_block_invoke, symObjAddr: 0x3898, symBinAddr: 0x45B80, symSize: 0xC }
  - { offsetInCU: 0x32DCB, offset: 0x35D2B4, size: 0x8, addend: 0x0, symName: __ZN3tns12ClassBuilder22FindNotOverridenMethodEP10objc_classP13objc_selector, symObjAddr: 0x5050, symBinAddr: 0x470C0, symSize: 0x58 }
  - { offsetInCU: 0x335A2, offset: 0x35DA8B, size: 0x8, addend: 0x0, symName: '__ZZN3tns12ClassBuilder39RegisterNativeTypeScriptExtendsFunctionEN2v85LocalINS1_7ContextEEEEN3$_08__invokeERKNS1_20FunctionCallbackInfoINS1_5ValueEEE', symObjAddr: 0x52FC, symBinAddr: 0x47118, symSize: 0xA68 }
  - { offsetInCU: 0x3621B, offset: 0x360704, size: 0x8, addend: 0x0, symName: __ZN10robin_hood6detail5TableILb1ELm80ENSt3__112basic_stringIcNS2_11char_traitsIcEENS2_9allocatorIcEEEENS2_10unique_ptrIN2v810PersistentINSA_8FunctionENSA_27NonCopyablePersistentTraitsISC_EEEENS2_14default_deleteISF_EEEENS_4hashIS8_vEENS2_8equal_toIS8_EEE7emplaceIJRS8_RPSF_EEENS2_4pairINSN_4IterILb0EEEbEEDpOT_, symObjAddr: 0x5D80, symBinAddr: 0x47B9C, symSize: 0x144 }
  - { offsetInCU: 0x36A7D, offset: 0x360F66, size: 0x8, addend: 0x0, symName: ___Block_byref_object_copy_, symObjAddr: 0x5D64, symBinAddr: 0x47B80, symSize: 0x10 }
  - { offsetInCU: 0x36AA6, offset: 0x360F8F, size: 0x8, addend: 0x0, symName: ___Block_byref_object_dispose_, symObjAddr: 0x5D74, symBinAddr: 0x47B90, symSize: 0xC }
  - { offsetInCU: 0x36CC2, offset: 0x3611AB, size: 0x8, addend: 0x0, symName: '____ZZN3tns12ClassBuilder39RegisterNativeTypeScriptExtendsFunctionEN2v85LocalINS1_7ContextEEEENK3$_0clERKNS1_20FunctionCallbackInfoINS1_5ValueEEE_block_invoke', symObjAddr: 0x5EC4, symBinAddr: 0x47CE0, symSize: 0x3CC }
  - { offsetInCU: 0x37C9F, offset: 0x362188, size: 0x8, addend: 0x0, symName: '____ZZN3tns12ClassBuilder39RegisterNativeTypeScriptExtendsFunctionEN2v85LocalINS1_7ContextEEEENK3$_0clERKNS1_20FunctionCallbackInfoINS1_5ValueEEE_block_invoke.53', symObjAddr: 0x62AC, symBinAddr: 0x480AC, symSize: 0x220 }
  - { offsetInCU: 0x38368, offset: 0x362851, size: 0x8, addend: 0x0, symName: '____ZZN3tns12ClassBuilder39RegisterNativeTypeScriptExtendsFunctionEN2v85LocalINS1_7ContextEEEENK3$_0clERKNS1_20FunctionCallbackInfoINS1_5ValueEEE_block_invoke_2', symObjAddr: 0x64CC, symBinAddr: 0x482CC, symSize: 0x220 }
  - { offsetInCU: 0x3AC8D, offset: 0x365176, size: 0x8, addend: 0x0, symName: '__ZZN3tns12ClassBuilder16ExposePropertiesEPN2v87IsolateEP10objc_classNSt3__16vectorIPKNS_12PropertyMetaENS6_9allocatorISA_EEEENS1_5LocalINS1_6ObjectEEENSE_INS1_5ValueEEESI_EN3$_18__invokeEP7ffi_cifPvPSM_SM_', symObjAddr: 0x8888, symBinAddr: 0x484EC, symSize: 0x414 }
  - { offsetInCU: 0x3BF2A, offset: 0x366413, size: 0x8, addend: 0x0, symName: '__ZZN3tns12ClassBuilder16ExposePropertiesEPN2v87IsolateEP10objc_classNSt3__16vectorIPKNS_12PropertyMetaENS6_9allocatorISA_EEEENS1_5LocalINS1_6ObjectEEENSE_INS1_5ValueEEESI_EN3$_28__invokeEP7ffi_cifPvPSM_SM_', symObjAddr: 0x8C9C, symBinAddr: 0x48900, symSize: 0x4E0 }
  - { offsetInCU: 0x3D55E, offset: 0x367A47, size: 0x8, addend: 0x0, symName: __ZZN3tns6Caches11unique_voidINS_12ClassBuilder9CacheItemEEENSt3__110unique_ptrIvPFvPKvEEEPT_ENUlS7_E_8__invokeES7_, symObjAddr: 0x96C8, symBinAddr: 0x48DE0, symSize: 0xC }
  - { offsetInCU: 0x3D57C, offset: 0x367A65, size: 0x8, addend: 0x0, symName: __ZZN3tns6Caches11unique_voidINS_12ClassBuilder9CacheItemEEENSt3__110unique_ptrIvPFvPKvEEEPT_ENUlS7_E_8__invokeES7_, symObjAddr: 0x96C8, symBinAddr: 0x48DE0, symSize: 0xC }
  - { offsetInCU: 0x3D653, offset: 0x367B3C, size: 0x8, addend: 0x0, symName: __ZN10robin_hood6detail5TableILb1ELm80ENSt3__112basic_stringIcNS2_11char_traitsIcEENS2_9allocatorIcEEEENS2_10unique_ptrIN2v810PersistentINSA_6ObjectENSA_27NonCopyablePersistentTraitsISC_EEEENS2_14default_deleteISF_EEEENS_4hashIS8_vEENS2_8equal_toIS8_EEE13increase_sizeEv, symObjAddr: 0x9A90, symBinAddr: 0x49004, symSize: 0x12C }
  - { offsetInCU: 0x3D71D, offset: 0x367C06, size: 0x8, addend: 0x0, symName: __ZN10robin_hood6detail5TableILb1ELm80ENSt3__112basic_stringIcNS2_11char_traitsIcEENS2_9allocatorIcEEEENS2_10unique_ptrIN2v810PersistentINSA_6ObjectENSA_27NonCopyablePersistentTraitsISC_EEEENS2_14default_deleteISF_EEEENS_4hashIS8_vEENS2_8equal_toIS8_EEE7shiftUpEmm, symObjAddr: 0x9BBC, symBinAddr: 0x49130, symSize: 0x128 }
  - { offsetInCU: 0x3DA16, offset: 0x367EFF, size: 0x8, addend: 0x0, symName: __ZN10robin_hood6detail5TableILb1ELm80ENSt3__112basic_stringIcNS2_11char_traitsIcEENS2_9allocatorIcEEEENS2_10unique_ptrIN2v810PersistentINSA_6ObjectENSA_27NonCopyablePersistentTraitsISC_EEEENS2_14default_deleteISF_EEEENS_4hashIS8_vEENS2_8equal_toIS8_EEE17try_increase_infoEv, symObjAddr: 0x9DB0, symBinAddr: 0x49324, symSize: 0x100 }
  - { offsetInCU: 0x3DB20, offset: 0x368009, size: 0x8, addend: 0x0, symName: __ZN10robin_hood6detail5TableILb1ELm80ENSt3__112basic_stringIcNS2_11char_traitsIcEENS2_9allocatorIcEEEENS2_10unique_ptrIN2v810PersistentINSA_6ObjectENSA_27NonCopyablePersistentTraitsISC_EEEENS2_14default_deleteISF_EEEENS_4hashIS8_vEENS2_8equal_toIS8_EEE8initDataEm, symObjAddr: 0x9CE4, symBinAddr: 0x49258, symSize: 0xCC }
  - { offsetInCU: 0x3DC33, offset: 0x36811C, size: 0x8, addend: 0x0, symName: __ZN10robin_hood6detail5TableILb1ELm80ENSt3__112basic_stringIcNS2_11char_traitsIcEENS2_9allocatorIcEEEENS2_10unique_ptrIN2v810PersistentINSA_6ObjectENSA_27NonCopyablePersistentTraitsISC_EEEENS2_14default_deleteISF_EEEENS_4hashIS8_vEENS2_8equal_toIS8_EEE17try_increase_infoEv, symObjAddr: 0x9DB0, symBinAddr: 0x49324, symSize: 0x100 }
  - { offsetInCU: 0x3DC3F, offset: 0x368128, size: 0x8, addend: 0x0, symName: __ZN10robin_hood6detail5TableILb1ELm80ENSt3__112basic_stringIcNS2_11char_traitsIcEENS2_9allocatorIcEEEENS2_10unique_ptrIN2v810PersistentINSA_6ObjectENSA_27NonCopyablePersistentTraitsISC_EEEENS2_14default_deleteISF_EEEENS_4hashIS8_vEENS2_8equal_toIS8_EEE16rehashPowerOfTwoEmb, symObjAddr: 0x9EB0, symBinAddr: 0x49424, symSize: 0x110 }
  - { offsetInCU: 0x3E017, offset: 0x368500, size: 0x8, addend: 0x0, symName: __ZN10robin_hood6detail5TableILb1ELm80ENSt3__112basic_stringIcNS2_11char_traitsIcEENS2_9allocatorIcEEEENS2_10unique_ptrIN2v810PersistentINSA_6ObjectENSA_27NonCopyablePersistentTraitsISC_EEEENS2_14default_deleteISF_EEEENS_4hashIS8_vEENS2_8equal_toIS8_EEE11insert_moveEONSN_8DataNodeISN_Lb1EEE, symObjAddr: 0x9FC0, symBinAddr: 0x49534, symSize: 0x174 }
  - { offsetInCU: 0x3EB2E, offset: 0x369017, size: 0x8, addend: 0x0, symName: __ZNKSt3__16vectorIPKN3tns12ProtocolMetaENS_9allocatorIS4_EEE20__throw_length_errorB7v160006Ev, symObjAddr: 0xA56C, symBinAddr: 0x496A8, symSize: 0x14 }
  - { offsetInCU: 0x3F0FE, offset: 0x3695E7, size: 0x8, addend: 0x0, symName: __ZNSt3__16vectorIPKN3tns12ProtocolMetaENS_9allocatorIS4_EEE11__vallocateB7v160006Em, symObjAddr: 0xA73C, symBinAddr: 0x49770, symSize: 0x40 }
  - { offsetInCU: 0x3F408, offset: 0x3698F1, size: 0x8, addend: 0x0, symName: __ZNSt3__120__shared_ptr_emplaceIN2v810PersistentINS1_6ObjectENS1_27NonCopyablePersistentTraitsIS3_EEEENS_9allocatorIS6_EEEC2B7v160006IJRPNS1_7IsolateERNS1_5LocalIS3_EEEEES8_DpOT_, symObjAddr: 0xA8AC, symBinAddr: 0x49810, symSize: 0x68 }
  - { offsetInCU: 0x40, offset: 0x36A068, size: 0x8, addend: 0x0, symName: _RuntimeConfig, symObjAddr: 0x24330, symBinAddr: 0x1593D18, symSize: 0x0 }
  - { offsetInCU: 0x4905, offset: 0x36E92D, size: 0x8, addend: 0x0, symName: __ZN13RuntimeConfigD1Ev, symObjAddr: 0x0, symBinAddr: 0x49878, symSize: 0x40 }
  - { offsetInCU: 0x53, offset: 0x36EC13, size: 0x8, addend: 0x0, symName: __ZN3tns13WorkerWrapper7nextId_E, symObjAddr: 0x20CD08, symBinAddr: 0x1593D58, symSize: 0x0 }
  - { offsetInCU: 0x40A, offset: 0x36EFCA, size: 0x8, addend: 0x0, symName: __ZN3tnsL8workers_E, symObjAddr: 0x20CD00, symBinAddr: 0x157ED60, symSize: 0x0 }
  - { offsetInCU: 0x98F, offset: 0x36F54F, size: 0x8, addend: 0x0, symName: __ZN3tns16staticInitMethodEv, symObjAddr: 0x0, symBinAddr: 0x498E0, symSize: 0x2C }
  - { offsetInCU: 0xF743, offset: 0x37E303, size: 0x8, addend: 0x0, symName: __ZN3tns13WorkerWrapper37PassUncaughtExceptionFromWorkerToMainEN2v85LocalINS1_7ContextEEERNS1_8TryCatchEb, symObjAddr: 0xAF0, symBinAddr: 0x4A358, symSize: 0x3E8 }
  - { offsetInCU: 0x12FA0, offset: 0x381B60, size: 0x8, addend: 0x0, symName: __ZN3tns13WorkerWrapperC2EPN2v87IsolateENSt3__18functionIFvS3_NS1_5LocalINS1_6ObjectEEENS4_12basic_stringIcNS4_11char_traitsIcEENS4_9allocatorIcEEEEEEE, symObjAddr: 0x2C, symBinAddr: 0x4990C, symSize: 0x8C }
  - { offsetInCU: 0x13128, offset: 0x381CE8, size: 0x8, addend: 0x0, symName: __ZNSt3__110__function12__value_funcIFvPN2v87IsolateENS2_5LocalINS2_6ObjectEEENS_12basic_stringIcNS_11char_traitsIcEENS_9allocatorIcEEEEEEC2B7v160006ERKSF_, symObjAddr: 0x1A5C, symBinAddr: 0x4ACD4, symSize: 0x64 }
  - { offsetInCU: 0x131AC, offset: 0x381D6C, size: 0x8, addend: 0x0, symName: __ZN3tns13WorkerWrapperC1EPN2v87IsolateENSt3__18functionIFvS3_NS1_5LocalINS1_6ObjectEEENS4_12basic_stringIcNS4_11char_traitsIcEENS4_9allocatorIcEEEEEEE, symObjAddr: 0xB8, symBinAddr: 0x49998, symSize: 0x8C }
  - { offsetInCU: 0x1337A, offset: 0x381F3A, size: 0x8, addend: 0x0, symName: __ZN3tns13WorkerWrapper4TypeEv, symObjAddr: 0x144, symBinAddr: 0x49A24, symSize: 0x8 }
  - { offsetInCU: 0x1339E, offset: 0x381F5E, size: 0x8, addend: 0x0, symName: __ZN3tns13WorkerWrapper2IdEv, symObjAddr: 0x14C, symBinAddr: 0x49A2C, symSize: 0x8 }
  - { offsetInCU: 0x133C7, offset: 0x381F87, size: 0x8, addend: 0x0, symName: __ZN3tns13WorkerWrapper9IsRunningEv, symObjAddr: 0x154, symBinAddr: 0x49A34, symSize: 0x8 }
  - { offsetInCU: 0x133F0, offset: 0x381FB0, size: 0x8, addend: 0x0, symName: __ZN3tns13WorkerWrapper9IsClosingEv, symObjAddr: 0x15C, symBinAddr: 0x49A3C, symSize: 0x8 }
  - { offsetInCU: 0x13419, offset: 0x381FD9, size: 0x8, addend: 0x0, symName: __ZN3tns13WorkerWrapper8WorkerIdEv, symObjAddr: 0x164, symBinAddr: 0x49A44, symSize: 0x8 }
  - { offsetInCU: 0x1354C, offset: 0x38210C, size: 0x8, addend: 0x0, symName: __ZN3tns13WorkerWrapper11PostMessageENSt3__112basic_stringIcNS1_11char_traitsIcEENS1_9allocatorIcEEEE, symObjAddr: 0x16C, symBinAddr: 0x49A4C, symSize: 0x70 }
  - { offsetInCU: 0x1395F, offset: 0x38251F, size: 0x8, addend: 0x0, symName: __ZN3tns13WorkerWrapper5StartENSt3__110shared_ptrIN2v810PersistentINS3_5ValueENS3_27NonCopyablePersistentTraitsIS5_EEEEEENS1_8functionIFPNS3_7IsolateEvEEE, symObjAddr: 0x1DC, symBinAddr: 0x49ABC, symSize: 0x14C }
  - { offsetInCU: 0x13C8E, offset: 0x38284E, size: 0x8, addend: 0x0, symName: __ZNSt3__110__function12__value_funcIFPN2v87IsolateEvEEC2B7v160006ERKS6_, symObjAddr: 0x1AC0, symBinAddr: 0x4AD38, symSize: 0x64 }
  - { offsetInCU: 0x13DE1, offset: 0x3829A1, size: 0x8, addend: 0x0, symName: ____ZN3tns13WorkerWrapper5StartENSt3__110shared_ptrIN2v810PersistentINS3_5ValueENS3_27NonCopyablePersistentTraitsIS5_EEEEEENS1_8functionIFPNS3_7IsolateEvEEE_block_invoke, symObjAddr: 0x3A0, symBinAddr: 0x49C08, symSize: 0xD0 }
  - { offsetInCU: 0x13FBF, offset: 0x382B7F, size: 0x8, addend: 0x0, symName: __ZN3tns13WorkerWrapper16BackgroundLooperENSt3__18functionIFPN2v87IsolateEvEEE, symObjAddr: 0x470, symBinAddr: 0x49CD8, symSize: 0xA0 }
  - { offsetInCU: 0x14154, offset: 0x382D14, size: 0x8, addend: 0x0, symName: ___copy_helper_block_e8_40c40_ZTSNSt3__18functionIFPN2v87IsolateEvEEE, symObjAddr: 0x510, symBinAddr: 0x49D78, symSize: 0xC }
  - { offsetInCU: 0x141CF, offset: 0x382D8F, size: 0x8, addend: 0x0, symName: __ZN3tns13WorkerWrapper17DrainPendingTasksEv, symObjAddr: 0x550, symBinAddr: 0x49DB8, symSize: 0x27C }
  - { offsetInCU: 0x14CC2, offset: 0x383882, size: 0x8, addend: 0x0, symName: ___copy_helper_block_e8_40c40_ZTSNSt3__18functionIFPN2v87IsolateEvEEE, symObjAddr: 0x510, symBinAddr: 0x49D78, symSize: 0xC }
  - { offsetInCU: 0x14D66, offset: 0x383926, size: 0x8, addend: 0x0, symName: ___destroy_helper_block_e8_40c40_ZTSNSt3__18functionIFPN2v87IsolateEvEEE, symObjAddr: 0x51C, symBinAddr: 0x49D84, symSize: 0x34 }
  - { offsetInCU: 0x15045, offset: 0x383C05, size: 0x8, addend: 0x0, symName: __ZNKSt3__18functionIFvPN2v87IsolateENS1_5LocalINS1_6ObjectEEENS_12basic_stringIcNS_11char_traitsIcEENS_9allocatorIcEEEEEEclES3_S6_SC_, symObjAddr: 0x7CC, symBinAddr: 0x4A034, symSize: 0x3C }
  - { offsetInCU: 0x150DB, offset: 0x383C9B, size: 0x8, addend: 0x0, symName: __ZN3tns13WorkerWrapper19CallOnErrorHandlersERN2v88TryCatchE, symObjAddr: 0x808, symBinAddr: 0x4A070, symSize: 0x290 }
  - { offsetInCU: 0x150E7, offset: 0x383CA7, size: 0x8, addend: 0x0, symName: __ZN3tns13WorkerWrapper19CallOnErrorHandlersERN2v88TryCatchE, symObjAddr: 0x808, symBinAddr: 0x4A070, symSize: 0x290 }
  - { offsetInCU: 0x15CDC, offset: 0x38489C, size: 0x8, addend: 0x0, symName: '__ZNSt3__110__function6__funcIZN3tns13WorkerWrapper37PassUncaughtExceptionFromWorkerToMainEN2v85LocalINS4_7ContextEEERNS4_8TryCatchEbE3$_1NS_9allocatorISA_EEFvvEED1Ev', symObjAddr: 0x1C0C, symBinAddr: 0x4AD9C, symSize: 0x5C }
  - { offsetInCU: 0x15CEE, offset: 0x3848AE, size: 0x8, addend: 0x0, symName: __ZN3tns13WorkerWrapper5CloseEv, symObjAddr: 0xA98, symBinAddr: 0x4A300, symSize: 0xC }
  - { offsetInCU: 0x15D4D, offset: 0x38490D, size: 0x8, addend: 0x0, symName: __ZN3tns13WorkerWrapper9TerminateEv, symObjAddr: 0xAA4, symBinAddr: 0x4A30C, symSize: 0x4C }
  - { offsetInCU: 0x164F0, offset: 0x3850B0, size: 0x8, addend: 0x0, symName: '__ZZN3tns13WorkerWrapper37PassUncaughtExceptionFromWorkerToMainEN2v85LocalINS1_7ContextEEERNS1_8TryCatchEbEN3$_1D1Ev', symObjAddr: 0xF94, symBinAddr: 0x4A740, symSize: 0x50 }
  - { offsetInCU: 0x16BC4, offset: 0x385784, size: 0x8, addend: 0x0, symName: __ZN3tns13WorkerWrapper20ConstructErrorObjectEN2v85LocalINS1_7ContextEEENSt3__112basic_stringIcNS5_11char_traitsIcEENS5_9allocatorIcEEEESB_SB_i, symObjAddr: 0xFE4, symBinAddr: 0x4A790, symSize: 0x440 }
  - { offsetInCU: 0x1803B, offset: 0x386BFB, size: 0x8, addend: 0x0, symName: __ZN3tns13WorkerWrapperD1Ev, symObjAddr: 0x1424, symBinAddr: 0x4ABD0, symSize: 0x80 }
  - { offsetInCU: 0x18553, offset: 0x387113, size: 0x8, addend: 0x0, symName: __ZN3tns13WorkerWrapperD0Ev, symObjAddr: 0x14A4, symBinAddr: 0x4AC50, symSize: 0x80 }
  - { offsetInCU: 0x189E9, offset: 0x3875A9, size: 0x8, addend: 0x0, symName: '__ZZN3tns13WorkerWrapper16BackgroundLooperENSt3__18functionIFPN2v87IsolateEvEEEEN3$_08__invokeEPv', symObjAddr: 0x1630, symBinAddr: 0x4ACD0, symSize: 0x4 }
  - { offsetInCU: 0x18A12, offset: 0x3875D2, size: 0x8, addend: 0x0, symName: '__ZZN3tns13WorkerWrapper16BackgroundLooperENSt3__18functionIFPN2v87IsolateEvEEEEN3$_08__invokeEPv', symObjAddr: 0x1630, symBinAddr: 0x4ACD0, symSize: 0x4 }
  - { offsetInCU: 0x18A37, offset: 0x3875F7, size: 0x8, addend: 0x0, symName: '__ZZN3tns13WorkerWrapper16BackgroundLooperENSt3__18functionIFPN2v87IsolateEvEEEEN3$_08__invokeEPv', symObjAddr: 0x1630, symBinAddr: 0x4ACD0, symSize: 0x4 }
  - { offsetInCU: 0x1932F, offset: 0x387EEF, size: 0x8, addend: 0x0, symName: '__ZNSt3__110__function6__funcIZN3tns13WorkerWrapper37PassUncaughtExceptionFromWorkerToMainEN2v85LocalINS4_7ContextEEERNS4_8TryCatchEbE3$_1NS_9allocatorISA_EEFvvEED1Ev', symObjAddr: 0x1C0C, symBinAddr: 0x4AD9C, symSize: 0x5C }
  - { offsetInCU: 0x197FF, offset: 0x3883BF, size: 0x8, addend: 0x0, symName: '__ZNSt3__110__function6__funcIZN3tns13WorkerWrapper37PassUncaughtExceptionFromWorkerToMainEN2v85LocalINS4_7ContextEEERNS4_8TryCatchEbE3$_1NS_9allocatorISA_EEFvvEED0Ev', symObjAddr: 0x1C68, symBinAddr: 0x4ADF8, symSize: 0x5C }
  - { offsetInCU: 0x19F4D, offset: 0x388B0D, size: 0x8, addend: 0x0, symName: '__ZNKSt3__110__function6__funcIZN3tns13WorkerWrapper37PassUncaughtExceptionFromWorkerToMainEN2v85LocalINS4_7ContextEEERNS4_8TryCatchEbE3$_1NS_9allocatorISA_EEFvvEE7__cloneEv', symObjAddr: 0x1CC4, symBinAddr: 0x4AE54, symSize: 0x54 }
  - { offsetInCU: 0x1A1F0, offset: 0x388DB0, size: 0x8, addend: 0x0, symName: '__ZNSt3__122__compressed_pair_elemIZN3tns13WorkerWrapper37PassUncaughtExceptionFromWorkerToMainEN2v85LocalINS3_7ContextEEERNS3_8TryCatchEbE3$_1Li0ELb0EEC2B7v160006IJRKS9_EJLm0EEEENS_21piecewise_construct_tENS_5tupleIJDpT_EEENS_15__tuple_indicesIJXspT0_EEEE', symObjAddr: 0x21A4, symBinAddr: 0x4B334, symSize: 0xA8 }
  - { offsetInCU: 0x1A631, offset: 0x3891F1, size: 0x8, addend: 0x0, symName: '__ZNKSt3__110__function6__funcIZN3tns13WorkerWrapper37PassUncaughtExceptionFromWorkerToMainEN2v85LocalINS4_7ContextEEERNS4_8TryCatchEbE3$_1NS_9allocatorISA_EEFvvEE7__cloneEPNS0_6__baseISD_EE', symObjAddr: 0x1D18, symBinAddr: 0x4AEA8, symSize: 0x1C }
  - { offsetInCU: 0x1A781, offset: 0x389341, size: 0x8, addend: 0x0, symName: '__ZNSt3__110__function6__funcIZN3tns13WorkerWrapper37PassUncaughtExceptionFromWorkerToMainEN2v85LocalINS4_7ContextEEERNS4_8TryCatchEbE3$_1NS_9allocatorISA_EEFvvEE7destroyEv', symObjAddr: 0x1D34, symBinAddr: 0x4AEC4, symSize: 0x8 }
  - { offsetInCU: 0x1A7B8, offset: 0x389378, size: 0x8, addend: 0x0, symName: '__ZNSt3__110__function12__alloc_funcIZN3tns13WorkerWrapper37PassUncaughtExceptionFromWorkerToMainEN2v85LocalINS4_7ContextEEERNS4_8TryCatchEbE3$_1NS_9allocatorISA_EEFvvEE7destroyB7v160006Ev', symObjAddr: 0x224C, symBinAddr: 0x4B3DC, symSize: 0x54 }
  - { offsetInCU: 0x1ABB9, offset: 0x389779, size: 0x8, addend: 0x0, symName: '__ZNSt3__110__function6__funcIZN3tns13WorkerWrapper37PassUncaughtExceptionFromWorkerToMainEN2v85LocalINS4_7ContextEEERNS4_8TryCatchEbE3$_1NS_9allocatorISA_EEFvvEE18destroy_deallocateEv', symObjAddr: 0x1D3C, symBinAddr: 0x4AECC, symSize: 0x28 }
  - { offsetInCU: 0x1AEC6, offset: 0x389A86, size: 0x8, addend: 0x0, symName: '__ZNSt3__110__function6__funcIZN3tns13WorkerWrapper37PassUncaughtExceptionFromWorkerToMainEN2v85LocalINS4_7ContextEEERNS4_8TryCatchEbE3$_1NS_9allocatorISA_EEFvvEEclEv', symObjAddr: 0x1D64, symBinAddr: 0x4AEF4, symSize: 0x440 }
  - { offsetInCU: 0x1182A, offset: 0x39C677, size: 0x8, addend: 0x0, symName: '-[NSDataAdapter initWithJSObject:isolate:]', symObjAddr: 0x0, symBinAddr: 0x4B430, symSize: 0x2A0 }
  - { offsetInCU: 0x121A2, offset: 0x39CFEF, size: 0x8, addend: 0x0, symName: __ZN10robin_hood6detail5TableILb1ELm80EP11objc_objectNSt3__110shared_ptrIN2v810PersistentINS6_5ValueENS6_27NonCopyablePersistentTraitsIS8_EEEEEENS_4hashIS3_vEENS4_8equal_toIS3_EEE7emplaceIJRP13NSDataAdapterRSC_EEENS4_4pairINSH_4IterILb0EEEbEEDpOT_, symObjAddr: 0x304, symBinAddr: 0x4B6D0, symSize: 0x148 }
  - { offsetInCU: 0x12C7E, offset: 0x39DACB, size: 0x8, addend: 0x0, symName: '-[NSDataAdapter bytes]', symObjAddr: 0x44C, symBinAddr: 0x4B818, symSize: 0x4 }
  - { offsetInCU: 0x12DB2, offset: 0x39DBFF, size: 0x8, addend: 0x0, symName: '-[NSDataAdapter mutableBytes]', symObjAddr: 0x450, symBinAddr: 0x4B81C, symSize: 0x164 }
  - { offsetInCU: 0x1308C, offset: 0x39DED9, size: 0x8, addend: 0x0, symName: __ZNSt3__110shared_ptrIN2v812BackingStoreEED2B7v160006Ev, symObjAddr: 0x150C, symBinAddr: 0x4BCC8, symSize: 0x58 }
  - { offsetInCU: 0x13111, offset: 0x39DF5E, size: 0x8, addend: 0x0, symName: '-[NSDataAdapter length]', symObjAddr: 0x5B4, symBinAddr: 0x4B980, symSize: 0x90 }
  - { offsetInCU: 0x1335F, offset: 0x39E1AC, size: 0x8, addend: 0x0, symName: '-[NSDataAdapter dealloc]', symObjAddr: 0x644, symBinAddr: 0x4BA10, symSize: 0x294 }
  - { offsetInCU: 0x13BE0, offset: 0x39EA2D, size: 0x8, addend: 0x0, symName: '-[NSDataAdapter .cxx_destruct]', symObjAddr: 0x99C, symBinAddr: 0x4BCA4, symSize: 0x10 }
  - { offsetInCU: 0x13C6C, offset: 0x39EAB9, size: 0x8, addend: 0x0, symName: '-[NSDataAdapter .cxx_construct]', symObjAddr: 0x9AC, symBinAddr: 0x4BCB4, symSize: 0x14 }
  - { offsetInCU: 0x27, offset: 0x39F8F9, size: 0x8, addend: 0x0, symName: __ZN3tns11DisposerPHV21VisitPersistentHandleEPN2v810PersistentINS1_5ValueENS1_27NonCopyablePersistentTraitsIS3_EEEEt, symObjAddr: 0x0, symBinAddr: 0x4BD20, symSize: 0x118 }
  - { offsetInCU: 0x4B5F, offset: 0x3A4431, size: 0x8, addend: 0x0, symName: __ZN3tns11DisposerPHV21VisitPersistentHandleEPN2v810PersistentINS1_5ValueENS1_27NonCopyablePersistentTraitsIS3_EEEEt, symObjAddr: 0x0, symBinAddr: 0x4BD20, symSize: 0x118 }
  - { offsetInCU: 0x4E8A, offset: 0x3A475C, size: 0x8, addend: 0x0, symName: __ZN3tns11DisposerPHVD1Ev, symObjAddr: 0x118, symBinAddr: 0x4BE38, symSize: 0x4 }
  - { offsetInCU: 0x4EB2, offset: 0x3A4784, size: 0x8, addend: 0x0, symName: __ZN3tns11DisposerPHVD0Ev, symObjAddr: 0x11C, symBinAddr: 0x4BE3C, symSize: 0x4 }
  - { offsetInCU: 0x89A4, offset: 0x3AD19C, size: 0x8, addend: 0x0, symName: __ZN3tns9inspector21NSInMemoryTraceWriter16AppendTraceEventEPN2v88platform7tracing11TraceObjectE, symObjAddr: 0x0, symBinAddr: 0x4BE40, symSize: 0x68 }
  - { offsetInCU: 0x8A80, offset: 0x3AD278, size: 0x8, addend: 0x0, symName: __ZN3tns9inspector21NSInMemoryTraceWriter5FlushEv, symObjAddr: 0x68, symBinAddr: 0x4BEA8, symSize: 0x18 }
  - { offsetInCU: 0x8AAC, offset: 0x3AD2A4, size: 0x8, addend: 0x0, symName: __ZN3tns9inspector21NSInMemoryTraceWriter5FlushEv, symObjAddr: 0x68, symBinAddr: 0x4BEA8, symSize: 0x18 }
  - { offsetInCU: 0x8C30, offset: 0x3AD428, size: 0x8, addend: 0x0, symName: __ZN3tns9inspector21NSInMemoryTraceWriter8getTraceEv, symObjAddr: 0x80, symBinAddr: 0x4BEC0, symSize: 0xFC }
  - { offsetInCU: 0x9416, offset: 0x3ADC0E, size: 0x8, addend: 0x0, symName: __ZNSt3__115basic_stringbufIcNS_11char_traitsIcEENS_9allocatorIcEEE3strERKNS_12basic_stringIcS2_S4_EE, symObjAddr: 0x11C8, symBinAddr: 0x4C5C0, symSize: 0x130 }
  - { offsetInCU: 0x980F, offset: 0x3AE007, size: 0x8, addend: 0x0, symName: __ZN3tns9inspector16TracingAgentImplC2Ev, symObjAddr: 0x17C, symBinAddr: 0x4BFBC, symSize: 0xD4 }
  - { offsetInCU: 0x9B8D, offset: 0x3AE385, size: 0x8, addend: 0x0, symName: __ZN3tns9inspector16TracingAgentImplC1Ev, symObjAddr: 0x250, symBinAddr: 0x4C090, symSize: 0x4 }
  - { offsetInCU: 0x9BB9, offset: 0x3AE3B1, size: 0x8, addend: 0x0, symName: __ZN3tns9inspector16TracingAgentImplC1Ev, symObjAddr: 0x250, symBinAddr: 0x4C090, symSize: 0x4 }
  - { offsetInCU: 0x9D01, offset: 0x3AE4F9, size: 0x8, addend: 0x0, symName: __ZN3tns9inspector16TracingAgentImpl5startEv, symObjAddr: 0x254, symBinAddr: 0x4C094, symSize: 0xB8 }
  - { offsetInCU: 0x9F1F, offset: 0x3AE717, size: 0x8, addend: 0x0, symName: __ZN3tns9inspector16TracingAgentImpl3endEv, symObjAddr: 0x30C, symBinAddr: 0x4C14C, symSize: 0x80 }
  - { offsetInCU: 0xA2A0, offset: 0x3AEA98, size: 0x8, addend: 0x0, symName: __ZN3tns9inspector16TracingAgentImpl14SendToDevtoolsEN2v85LocalINS2_7ContextEEENSt3__112basic_stringIcNS6_11char_traitsIcEENS6_9allocatorIcEEEE, symObjAddr: 0x38C, symBinAddr: 0x4C1CC, symSize: 0x27C }
  - { offsetInCU: 0xAEA2, offset: 0x3AF69A, size: 0x8, addend: 0x0, symName: __ZN3tns9inspector21NSInMemoryTraceWriterD1Ev, symObjAddr: 0x608, symBinAddr: 0x4C448, symSize: 0xBC }
  - { offsetInCU: 0xB13C, offset: 0x3AF934, size: 0x8, addend: 0x0, symName: __ZN3tns9inspector21NSInMemoryTraceWriterD0Ev, symObjAddr: 0x6C4, symBinAddr: 0x4C504, symSize: 0xBC }
  - { offsetInCU: 0xBA2C, offset: 0x3B0224, size: 0x8, addend: 0x0, symName: __ZNSt3__115basic_stringbufIcNS_11char_traitsIcEENS_9allocatorIcEEE3strERKNS_12basic_stringIcS2_S4_EE, symObjAddr: 0x11C8, symBinAddr: 0x4C5C0, symSize: 0x130 }
  - { offsetInCU: 0x43, offset: 0x3B034A, size: 0x8, addend: 0x0, symName: __ZN12_GLOBAL__N_16BufferE, symObjAddr: 0x2B0F38, symBinAddr: 0x157ED68, symSize: 0x0 }
  - { offsetInCU: 0x5D, offset: 0x3B0364, size: 0x8, addend: 0x0, symName: __ZN12_GLOBAL__N_19BinBufferE, symObjAddr: 0x2B0F40, symBinAddr: 0x157ED70, symSize: 0x0 }
  - { offsetInCU: 0x10E54, offset: 0x3C115B, size: 0x8, addend: 0x0, symName: __ZNSt3__116__throw_bad_castB7v160006Ev, symObjAddr: 0x4B30, symBinAddr: 0x50F48, symSize: 0x28 }
  - { offsetInCU: 0x1123C, offset: 0x3C1543, size: 0x8, addend: 0x0, symName: __ZNSt3__119__throw_range_errorB7v160006EPKc, symObjAddr: 0x5974, symBinAddr: 0x51454, symSize: 0x50 }
  - { offsetInCU: 0x113A8, offset: 0x3C16AF, size: 0x8, addend: 0x0, symName: __ZNSt3__119__allocate_at_leastB7v160006INS_9allocatorIDsEEEENS_19__allocation_resultINS_16allocator_traitsIT_E7pointerEEERS5_m, symObjAddr: 0x5A68, symBinAddr: 0x51548, symSize: 0x30 }
  - { offsetInCU: 0x1144D, offset: 0x3C1754, size: 0x8, addend: 0x0, symName: __ZNSt3__112basic_stringIDsNS_11char_traitsIDsEENS_9allocatorIDsEEE6resizeEmDs, symObjAddr: 0x5A98, symBinAddr: 0x51578, symSize: 0x40 }
  - { offsetInCU: 0x11BDB, offset: 0x3C1EE2, size: 0x8, addend: 0x0, symName: __ZNSt3__119__allocate_at_leastB7v160006INS_9allocatorItEEEENS_19__allocation_resultINS_16allocator_traitsIT_E7pointerEEERS5_m, symObjAddr: 0x60B4, symBinAddr: 0x51B94, symSize: 0x30 }
  - { offsetInCU: 0x11C80, offset: 0x3C1F87, size: 0x8, addend: 0x0, symName: __ZNSt3__113basic_filebufIcNS_11char_traitsIcEEEC2Ev, symObjAddr: 0x60E4, symBinAddr: 0x51BC4, symSize: 0x12C }
  - { offsetInCU: 0x12D58, offset: 0x3C305F, size: 0x8, addend: 0x0, symName: __ZN3tns13ToUtf16StringEPN2v87IsolateERKNS0_5LocalINS0_5ValueEEE, symObjAddr: 0x0, symBinAddr: 0x4C6F0, symSize: 0x130 }
  - { offsetInCU: 0x133E7, offset: 0x3C36EE, size: 0x8, addend: 0x0, symName: __ZN3tns8ToVectorERKNSt3__112basic_stringIcNS0_11char_traitsIcEENS0_9allocatorIcEEEE, symObjAddr: 0x1EC, symBinAddr: 0x4C820, symSize: 0x150 }
  - { offsetInCU: 0x139B9, offset: 0x3C3CC0, size: 0x8, addend: 0x0, symName: __ZN3tns6ExistsEPKc, symObjAddr: 0x33C, symBinAddr: 0x4C970, symSize: 0x30 }
  - { offsetInCU: 0x13A1B, offset: 0x3C3D22, size: 0x8, addend: 0x0, symName: __ZN3tns10ReadModuleEPN2v87IsolateERKNSt3__112basic_stringIcNS3_11char_traitsIcEENS3_9allocatorIcEEEE, symObjAddr: 0x36C, symBinAddr: 0x4C9A0, symSize: 0x124 }
  - { offsetInCU: 0x13E34, offset: 0x3C413B, size: 0x8, addend: 0x0, symName: __ZN3tns6AssertEbPN2v87IsolateERKNSt3__112basic_stringIcNS3_11char_traitsIcEENS3_9allocatorIcEEEE, symObjAddr: 0x490, symBinAddr: 0x4CAC4, symSize: 0x168 }
  - { offsetInCU: 0x144C4, offset: 0x3C47CB, size: 0x8, addend: 0x0, symName: __ZN3tns12LogBacktraceEi, symObjAddr: 0x1FF4, symBinAddr: 0x4E594, symSize: 0x1C8 }
  - { offsetInCU: 0x145FB, offset: 0x3C4902, size: 0x8, addend: 0x0, symName: __ZN3tns13GetStackTraceEPN2v87IsolateE, symObjAddr: 0x27F4, symBinAddr: 0x4ED94, symSize: 0x1FC }
  - { offsetInCU: 0x14BD5, offset: 0x3C4EDC, size: 0x8, addend: 0x0, symName: __ZN3tns8ReadTextERKNSt3__112basic_stringIcNS0_11char_traitsIcEENS0_9allocatorIcEEEERlRb, symObjAddr: 0x5F8, symBinAddr: 0x4CC2C, symSize: 0x120 }
  - { offsetInCU: 0x14FD1, offset: 0x3C52D8, size: 0x8, addend: 0x0, symName: __ZN3tns8ReadTextERKNSt3__112basic_stringIcNS0_11char_traitsIcEENS0_9allocatorIcEEEE, symObjAddr: 0x718, symBinAddr: 0x4CD4C, symSize: 0x64 }
  - { offsetInCU: 0x15086, offset: 0x3C538D, size: 0x8, addend: 0x0, symName: __ZN3tns10ReadBinaryENSt3__112basic_stringIcNS0_11char_traitsIcEENS0_9allocatorIcEEEERlRb, symObjAddr: 0x77C, symBinAddr: 0x4CDB0, symSize: 0x1B0 }
  - { offsetInCU: 0x15279, offset: 0x3C5580, size: 0x8, addend: 0x0, symName: __ZN3tns11WriteBinaryERKNSt3__112basic_stringIcNS0_11char_traitsIcEENS0_9allocatorIcEEEEPKvl, symObjAddr: 0xA94, symBinAddr: 0x4D0C8, symSize: 0x74 }
  - { offsetInCU: 0x1536C, offset: 0x3C5673, size: 0x8, addend: 0x0, symName: __ZN3tns15SetPrivateValueERKN2v85LocalINS0_6ObjectEEERKNS1_INS0_6StringEEERKNS1_INS0_5ValueEEE, symObjAddr: 0xB08, symBinAddr: 0x4D13C, symSize: 0xF8 }
  - { offsetInCU: 0x1579D, offset: 0x3C5AA4, size: 0x8, addend: 0x0, symName: __ZN3tns15GetPrivateValueERKN2v85LocalINS0_6ObjectEEERKNS1_INS0_6StringEEE, symObjAddr: 0xC00, symBinAddr: 0x4D234, symSize: 0x184 }
  - { offsetInCU: 0x15F3D, offset: 0x3C6244, size: 0x8, addend: 0x0, symName: __ZN3tns21DeleteWrapperIfUnusedEPN2v87IsolateERKNS0_5LocalINS0_5ValueEEEPNS_15BaseDataWrapperE, symObjAddr: 0xD84, symBinAddr: 0x4D3B8, symSize: 0x48 }
  - { offsetInCU: 0x15FA6, offset: 0x3C62AD, size: 0x8, addend: 0x0, symName: __ZN3tns8GetValueEPN2v87IsolateERKNS0_5LocalINS0_5ValueEEE, symObjAddr: 0xDCC, symBinAddr: 0x4D400, symSize: 0x1E4 }
  - { offsetInCU: 0x16985, offset: 0x3C6C8C, size: 0x8, addend: 0x0, symName: __ZN3tns8SetValueEPN2v87IsolateERKNS0_5LocalINS0_6ObjectEEEPNS_15BaseDataWrapperE, symObjAddr: 0xFB0, symBinAddr: 0x4D5E4, symSize: 0x13C }
  - { offsetInCU: 0x16F4E, offset: 0x3C7255, size: 0x8, addend: 0x0, symName: __ZN3tns11DeleteValueEPN2v87IsolateERKNS0_5LocalINS0_5ValueEEE, symObjAddr: 0x10EC, symBinAddr: 0x4D720, symSize: 0x1F8 }
  - { offsetInCU: 0x1790D, offset: 0x3C7C14, size: 0x8, addend: 0x0, symName: __ZN3tns12ArgsToVectorERKN2v820FunctionCallbackInfoINS0_5ValueEEE, symObjAddr: 0x12E4, symBinAddr: 0x4D918, symSize: 0x150 }
  - { offsetInCU: 0x17F61, offset: 0x3C8268, size: 0x8, addend: 0x0, symName: __ZN3tns18IsArrayOrArrayLikeEPN2v87IsolateERKNS0_5LocalINS0_5ValueEEE, symObjAddr: 0x14C8, symBinAddr: 0x4DA68, symSize: 0x138 }
  - { offsetInCU: 0x1843E, offset: 0x3C8745, size: 0x8, addend: 0x0, symName: __ZN3tns27TryGetBufferFromArrayBufferERKN2v85LocalINS0_5ValueEEERb, symObjAddr: 0x1600, symBinAddr: 0x4DBA0, symSize: 0xF4 }
  - { offsetInCU: 0x1863A, offset: 0x3C8941, size: 0x8, addend: 0x0, symName: __ZN3tns16ExecuteOnRunLoopEP11__CFRunLoopNSt3__18functionIFvvEEEb, symObjAddr: 0x16F4, symBinAddr: 0x4DC94, symSize: 0x2FC }
  - { offsetInCU: 0x18AB4, offset: 0x3C8DBB, size: 0x8, addend: 0x0, symName: __ZN3tns22ExecuteOnDispatchQueueEPU28objcproto17OS_dispatch_queue8NSObjectNSt3__18functionIFvvEEEb, symObjAddr: 0x1B68, symBinAddr: 0x4E108, symSize: 0x110 }
  - { offsetInCU: 0x18D15, offset: 0x3C901C, size: 0x8, addend: 0x0, symName: __ZN3tns19ExecuteOnMainThreadENSt3__18functionIFvvEEEb, symObjAddr: 0x1CC0, symBinAddr: 0x4E260, symSize: 0x120 }
  - { offsetInCU: 0x18F65, offset: 0x3C926C, size: 0x8, addend: 0x0, symName: __ZN3tns8LogErrorEPN2v87IsolateERNS0_8TryCatchE, symObjAddr: 0x1E28, symBinAddr: 0x4E3C8, symSize: 0x1CC }
  - { offsetInCU: 0x19C96, offset: 0x3C9F9D, size: 0x8, addend: 0x0, symName: __ZN3tns10ReplaceAllENSt3__112basic_stringIcNS0_11char_traitsIcEENS0_9allocatorIcEEEES6_S6_, symObjAddr: 0x21BC, symBinAddr: 0x4E75C, symSize: 0x200 }
  - { offsetInCU: 0x1A34A, offset: 0x3CA651, size: 0x8, addend: 0x0, symName: __ZN3tns19JsonStringifyObjectEN2v85LocalINS0_7ContextEEENS1_INS0_5ValueEEEb, symObjAddr: 0x23BC, symBinAddr: 0x4E95C, symSize: 0x1AC }
  - { offsetInCU: 0x1A5B1, offset: 0x3CA8B8, size: 0x8, addend: 0x0, symName: __ZN3tns29GetSmartJSONStringifyFunctionEPN2v87IsolateE, symObjAddr: 0x2568, symBinAddr: 0x4EB08, symSize: 0x28C }
  - { offsetInCU: 0x1B1A2, offset: 0x3CB4A9, size: 0x8, addend: 0x0, symName: __ZN3tns27BuildStacktraceFrameMessageEPN2v87IsolateENS0_5LocalINS0_10StackFrameEEE, symObjAddr: 0x2AD8, symBinAddr: 0x4EF90, symSize: 0x378 }
  - { offsetInCU: 0x1BC3D, offset: 0x3CBF44, size: 0x8, addend: 0x0, symName: __ZN3tns32BuildStacktraceFrameLocationPartEPN2v87IsolateENS0_5LocalINS0_10StackFrameEEE, symObjAddr: 0x2F60, symBinAddr: 0x4F384, symSize: 0x298 }
  - { offsetInCU: 0x1CBF3, offset: 0x3CCEFA, size: 0x8, addend: 0x0, symName: __ZN3tns19GetCurrentScriptUrlEPN2v87IsolateE, symObjAddr: 0x2EE4, symBinAddr: 0x4F308, symSize: 0x7C }
  - { offsetInCU: 0x1CCAD, offset: 0x3CCFB4, size: 0x8, addend: 0x0, symName: __ZN3tns8LiveSyncEPN2v87IsolateE, symObjAddr: 0x31F8, symBinAddr: 0x4F61C, symSize: 0x26C }
  - { offsetInCU: 0x1D422, offset: 0x3CD729, size: 0x8, addend: 0x0, symName: __ZN3tns29StopExecutionAndLogStackTraceEPN2v87IsolateE, symObjAddr: 0x3464, symBinAddr: 0x4F888, symSize: 0x64 }
  - { offsetInCU: 0x1D717, offset: 0x3CDA1E, size: 0x8, addend: 0x0, symName: __ZN3tns19NewFunctionTemplateEPN2v87IsolateEPFvRKNS0_20FunctionCallbackInfoINS0_5ValueEEEENS0_5LocalIS4_EENSA_INS0_9SignatureEEENS0_19ConstructorBehaviorENS0_14SideEffectTypeEPKNS0_9CFunctionE, symObjAddr: 0x34C8, symBinAddr: 0x4F8EC, symSize: 0x34 }
  - { offsetInCU: 0x1D7E0, offset: 0x3CDAE7, size: 0x8, addend: 0x0, symName: __ZN3tns9SetMethodEN2v85LocalINS0_7ContextEEENS1_INS0_6ObjectEEEPKcPFvRKNS0_20FunctionCallbackInfoINS0_5ValueEEEENS1_IS9_EE, symObjAddr: 0x34FC, symBinAddr: 0x4F920, symSize: 0xDC }
  - { offsetInCU: 0x1D931, offset: 0x3CDC38, size: 0x8, addend: 0x0, symName: __ZN3tns9SetMethodEPN2v87IsolateENS0_5LocalINS0_8TemplateEEEPKcPFvRKNS0_20FunctionCallbackInfoINS0_5ValueEEEENS3_IS9_EE, symObjAddr: 0x35D8, symBinAddr: 0x4F9FC, symSize: 0x94 }
  - { offsetInCU: 0x1DA3F, offset: 0x3CDD46, size: 0x8, addend: 0x0, symName: __ZN3tns13SetFastMethodEPN2v87IsolateENS0_5LocalINS0_8TemplateEEEPKcPFvRKNS0_20FunctionCallbackInfoINS0_5ValueEEEEPKNS0_9CFunctionENS3_IS9_EE, symObjAddr: 0x366C, symBinAddr: 0x4FA90, symSize: 0x94 }
  - { offsetInCU: 0x1DB61, offset: 0x3CDE68, size: 0x8, addend: 0x0, symName: __ZN3tns13SetFastMethodEN2v85LocalINS0_7ContextEEENS1_INS0_6ObjectEEEPKcPFvRKNS0_20FunctionCallbackInfoINS0_5ValueEEEEPKNS0_9CFunctionENS1_IS9_EE, symObjAddr: 0x3700, symBinAddr: 0x4FB24, symSize: 0xF4 }
  - { offsetInCU: 0x1DCC3, offset: 0x3CDFCA, size: 0x8, addend: 0x0, symName: __ZN3tns25SetFastMethodNoSideEffectEN2v85LocalINS0_7ContextEEENS1_INS0_6ObjectEEEPKcPFvRKNS0_20FunctionCallbackInfoINS0_5ValueEEEEPKNS0_9CFunctionENS1_IS9_EE, symObjAddr: 0x37F4, symBinAddr: 0x4FC18, symSize: 0xF4 }
  - { offsetInCU: 0x1DE25, offset: 0x3CE12C, size: 0x8, addend: 0x0, symName: __ZN3tns25SetFastMethodNoSideEffectEPN2v87IsolateENS0_5LocalINS0_8TemplateEEEPKcPFvRKNS0_20FunctionCallbackInfoINS0_5ValueEEEEPKNS0_9CFunctionENS3_IS9_EE, symObjAddr: 0x38E8, symBinAddr: 0x4FD0C, symSize: 0x94 }
  - { offsetInCU: 0x1DF47, offset: 0x3CE24E, size: 0x8, addend: 0x0, symName: __ZN3tns21SetMethodNoSideEffectEN2v85LocalINS0_7ContextEEENS1_INS0_6ObjectEEEPKcPFvRKNS0_20FunctionCallbackInfoINS0_5ValueEEEENS1_IS9_EE, symObjAddr: 0x397C, symBinAddr: 0x4FDA0, symSize: 0xDC }
  - { offsetInCU: 0x1E098, offset: 0x3CE39F, size: 0x8, addend: 0x0, symName: __ZN3tns21SetMethodNoSideEffectEPN2v87IsolateENS0_5LocalINS0_8TemplateEEEPKcPFvRKNS0_20FunctionCallbackInfoINS0_5ValueEEEENS3_IS9_EE, symObjAddr: 0x3A58, symBinAddr: 0x4FE7C, symSize: 0x94 }
  - { offsetInCU: 0x1E1A6, offset: 0x3CE4AD, size: 0x8, addend: 0x0, symName: __ZN3tns14SetProtoMethodEPN2v87IsolateENS0_5LocalINS0_16FunctionTemplateEEEPKcPFvRKNS0_20FunctionCallbackInfoINS0_5ValueEEEENS3_IS9_EE, symObjAddr: 0x3AEC, symBinAddr: 0x4FF10, symSize: 0xBC }
  - { offsetInCU: 0x1E2C2, offset: 0x3CE5C9, size: 0x8, addend: 0x0, symName: __ZN3tns26SetProtoMethodNoSideEffectEPN2v87IsolateENS0_5LocalINS0_16FunctionTemplateEEEPKcPFvRKNS0_20FunctionCallbackInfoINS0_5ValueEEEENS3_IS9_EE, symObjAddr: 0x3BA8, symBinAddr: 0x4FFCC, symSize: 0xBC }
  - { offsetInCU: 0x1E3DE, offset: 0x3CE6E5, size: 0x8, addend: 0x0, symName: __ZN3tns17SetInstanceMethodEPN2v87IsolateENS0_5LocalINS0_16FunctionTemplateEEEPKcPFvRKNS0_20FunctionCallbackInfoINS0_5ValueEEEENS3_IS9_EE, symObjAddr: 0x3C64, symBinAddr: 0x50088, symSize: 0xBC }
  - { offsetInCU: 0x1E52D, offset: 0x3CE834, size: 0x8, addend: 0x0, symName: __ZN3tns22SetConstructorFunctionEN2v85LocalINS0_7ContextEEENS1_INS0_6ObjectEEEPKcNS1_INS0_16FunctionTemplateEEENS_26SetConstructorFunctionFlagE, symObjAddr: 0x3D20, symBinAddr: 0x50144, symSize: 0x74 }
  - { offsetInCU: 0x1E605, offset: 0x3CE90C, size: 0x8, addend: 0x0, symName: __ZN3tns22SetConstructorFunctionEN2v85LocalINS0_7ContextEEENS1_INS0_6ObjectEEENS1_INS0_6StringEEENS1_INS0_16FunctionTemplateEEENS_26SetConstructorFunctionFlagE, symObjAddr: 0x3D94, symBinAddr: 0x501B8, symSize: 0x8C }
  - { offsetInCU: 0x1E6FE, offset: 0x3CEA05, size: 0x8, addend: 0x0, symName: __ZN3tns22SetConstructorFunctionEPN2v87IsolateENS0_5LocalINS0_8TemplateEEEPKcNS3_INS0_16FunctionTemplateEEENS_26SetConstructorFunctionFlagE, symObjAddr: 0x3E20, symBinAddr: 0x50244, symSize: 0x70 }
  - { offsetInCU: 0x1E7F6, offset: 0x3CEAFD, size: 0x8, addend: 0x0, symName: __ZN3tns22SetConstructorFunctionEPN2v87IsolateENS0_5LocalINS0_8TemplateEEENS3_INS0_6StringEEENS3_INS0_16FunctionTemplateEEENS_26SetConstructorFunctionFlagE, symObjAddr: 0x3E90, symBinAddr: 0x502B4, symSize: 0x50 }
  - { offsetInCU: 0x25F9C, offset: 0x3D62A3, size: 0x8, addend: 0x0, symName: __ZNSt3__115wstring_convertINS_18codecvt_utf8_utf16IDsLm1114111ELNS_12codecvt_modeE0EEEDsNS_9allocatorIDsEENS4_IcEEE10from_bytesEPKcS9_, symObjAddr: 0x5564, symBinAddr: 0x51044, symSize: 0x298 }
  - { offsetInCU: 0x26724, offset: 0x3D6A2B, size: 0x8, addend: 0x0, symName: __ZNSt3__115wstring_convertINS_18codecvt_utf8_utf16IDsLm1114111ELNS_12codecvt_modeE0EEEDsNS_9allocatorIDsEENS4_IcEEED2Ev, symObjAddr: 0x5510, symBinAddr: 0x50FF0, symSize: 0x54 }
  - { offsetInCU: 0x26E25, offset: 0x3D712C, size: 0x8, addend: 0x0, symName: __ZNSt3__16vectorItNS_9allocatorItEEEC2IPKtLi0EEET_S7_, symObjAddr: 0x5FD8, symBinAddr: 0x51AB8, symSize: 0x8C }
  - { offsetInCU: 0x274F2, offset: 0x3D77F9, size: 0x8, addend: 0x0, symName: __ZN3tns6AssertEbPN2v87IsolateERKNSt3__112basic_stringIcNS3_11char_traitsIcEENS3_9allocatorIcEEEE.cold.1, symObjAddr: 0x698C, symBinAddr: 0xB987E4, symSize: 0x28 }
  - { offsetInCU: 0x275D4, offset: 0x3D78DB, size: 0x8, addend: 0x0, symName: __ZNSt3__114basic_ifstreamIcNS_11char_traitsIcEEEC1ERKNS_12basic_stringIcS2_NS_9allocatorIcEEEEj, symObjAddr: 0x92C, symBinAddr: 0x4CF60, symSize: 0x108 }
  - { offsetInCU: 0x277BD, offset: 0x3D7AC4, size: 0x8, addend: 0x0, symName: __ZNSt3__113basic_filebufIcNS_11char_traitsIcEEED2Ev, symObjAddr: 0x400C, symBinAddr: 0x50430, symSize: 0x6C }
  - { offsetInCU: 0x277F8, offset: 0x3D7AFF, size: 0x8, addend: 0x0, symName: __ZNSt3__114basic_ifstreamIcNS_11char_traitsIcEEED1Ev, symObjAddr: 0xA34, symBinAddr: 0x4D068, symSize: 0x60 }
  - { offsetInCU: 0x27958, offset: 0x3D7C5F, size: 0x8, addend: 0x0, symName: __ZNSt3__113basic_filebufIcNS_11char_traitsIcEEEC2Ev, symObjAddr: 0x60E4, symBinAddr: 0x51BC4, symSize: 0x12C }
  - { offsetInCU: 0x27A28, offset: 0x3D7D2F, size: 0x8, addend: 0x0, symName: __ZNSt3__113basic_filebufIcNS_11char_traitsIcEEE4openEPKcj, symObjAddr: 0x6210, symBinAddr: 0x51CF0, symSize: 0x158 }
  - { offsetInCU: 0x2874D, offset: 0x3D8A54, size: 0x8, addend: 0x0, symName: __ZN3tns18IsArrayOrArrayLikeEPN2v87IsolateERKNS0_5LocalINS0_5ValueEEE, symObjAddr: 0x14C8, symBinAddr: 0x4DA68, symSize: 0x138 }
  - { offsetInCU: 0x28BF2, offset: 0x3D8EF9, size: 0x8, addend: 0x0, symName: __ZNSt3__110__function12__value_funcIFvvEEC2B7v160006ERKS3_, symObjAddr: 0x64F0, symBinAddr: 0x51E48, symSize: 0x64 }
  - { offsetInCU: 0x28CE6, offset: 0x3D8FED, size: 0x8, addend: 0x0, symName: ____ZN3tns16ExecuteOnRunLoopEP11__CFRunLoopNSt3__18functionIFvvEEEb_block_invoke, symObjAddr: 0x19F0, symBinAddr: 0x4DF90, symSize: 0x60 }
  - { offsetInCU: 0x28E0D, offset: 0x3D9114, size: 0x8, addend: 0x0, symName: ___copy_helper_block_e8_32r40c27_ZTSNSt3__18functionIFvvEEE, symObjAddr: 0x1A50, symBinAddr: 0x4DFF0, symSize: 0x60 }
  - { offsetInCU: 0x28E18, offset: 0x3D911F, size: 0x8, addend: 0x0, symName: ___copy_helper_block_e8_32r40c27_ZTSNSt3__18functionIFvvEEE, symObjAddr: 0x1A50, symBinAddr: 0x4DFF0, symSize: 0x60 }
  - { offsetInCU: 0x28EBC, offset: 0x3D91C3, size: 0x8, addend: 0x0, symName: ___destroy_helper_block_e8_32r40c27_ZTSNSt3__18functionIFvvEEE, symObjAddr: 0x1AB0, symBinAddr: 0x4E050, symSize: 0x54 }
  - { offsetInCU: 0x28F69, offset: 0x3D9270, size: 0x8, addend: 0x0, symName: ____ZN3tns16ExecuteOnRunLoopEP11__CFRunLoopNSt3__18functionIFvvEEEb_block_invoke.7, symObjAddr: 0x1B04, symBinAddr: 0x4E0A4, symSize: 0x24 }
  - { offsetInCU: 0x28FF8, offset: 0x3D92FF, size: 0x8, addend: 0x0, symName: ___copy_helper_block_e8_32c27_ZTSNSt3__18functionIFvvEEE, symObjAddr: 0x1B28, symBinAddr: 0x4E0C8, symSize: 0xC }
  - { offsetInCU: 0x29003, offset: 0x3D930A, size: 0x8, addend: 0x0, symName: ___copy_helper_block_e8_32c27_ZTSNSt3__18functionIFvvEEE, symObjAddr: 0x1B28, symBinAddr: 0x4E0C8, symSize: 0xC }
  - { offsetInCU: 0x290A7, offset: 0x3D93AE, size: 0x8, addend: 0x0, symName: ___destroy_helper_block_e8_32c27_ZTSNSt3__18functionIFvvEEE, symObjAddr: 0x1B34, symBinAddr: 0x4E0D4, symSize: 0x34 }
  - { offsetInCU: 0x29179, offset: 0x3D9480, size: 0x8, addend: 0x0, symName: ____ZN3tns22ExecuteOnDispatchQueueEPU28objcproto17OS_dispatch_queue8NSObjectNSt3__18functionIFvvEEEb_block_invoke, symObjAddr: 0x1C78, symBinAddr: 0x4E218, symSize: 0x24 }
  - { offsetInCU: 0x29208, offset: 0x3D950F, size: 0x8, addend: 0x0, symName: ____ZN3tns22ExecuteOnDispatchQueueEPU28objcproto17OS_dispatch_queue8NSObjectNSt3__18functionIFvvEEEb_block_invoke_2, symObjAddr: 0x1C9C, symBinAddr: 0x4E23C, symSize: 0x24 }
  - { offsetInCU: 0x29213, offset: 0x3D951A, size: 0x8, addend: 0x0, symName: ____ZN3tns22ExecuteOnDispatchQueueEPU28objcproto17OS_dispatch_queue8NSObjectNSt3__18functionIFvvEEEb_block_invoke_2, symObjAddr: 0x1C9C, symBinAddr: 0x4E23C, symSize: 0x24 }
  - { offsetInCU: 0x292A2, offset: 0x3D95A9, size: 0x8, addend: 0x0, symName: __ZN3tns19ExecuteOnMainThreadENSt3__18functionIFvvEEEb, symObjAddr: 0x1CC0, symBinAddr: 0x4E260, symSize: 0x120 }
  - { offsetInCU: 0x292AD, offset: 0x3D95B4, size: 0x8, addend: 0x0, symName: ____ZN3tns19ExecuteOnMainThreadENSt3__18functionIFvvEEEb_block_invoke, symObjAddr: 0x1DE0, symBinAddr: 0x4E380, symSize: 0x24 }
  - { offsetInCU: 0x2933C, offset: 0x3D9643, size: 0x8, addend: 0x0, symName: ____ZN3tns19ExecuteOnMainThreadENSt3__18functionIFvvEEEb_block_invoke_2, symObjAddr: 0x1E04, symBinAddr: 0x4E3A4, symSize: 0x24 }
  - { offsetInCU: 0x29347, offset: 0x3D964E, size: 0x8, addend: 0x0, symName: ____ZN3tns19ExecuteOnMainThreadENSt3__18functionIFvvEEEb_block_invoke_2, symObjAddr: 0x1E04, symBinAddr: 0x4E3A4, symSize: 0x24 }
  - { offsetInCU: 0x293D6, offset: 0x3D96DD, size: 0x8, addend: 0x0, symName: __ZN3tns8LogErrorEPN2v87IsolateERNS0_8TryCatchE, symObjAddr: 0x1E28, symBinAddr: 0x4E3C8, symSize: 0x1CC }
  - { offsetInCU: 0x29FA1, offset: 0x3DA2A8, size: 0x8, addend: 0x0, symName: __ZTv0_n24_NSt3__114basic_ifstreamIcNS_11char_traitsIcEEED1Ev, symObjAddr: 0x3EE0, symBinAddr: 0x50304, symSize: 0x60 }
  - { offsetInCU: 0x2A027, offset: 0x3DA32E, size: 0x8, addend: 0x0, symName: __ZNSt3__114basic_ifstreamIcNS_11char_traitsIcEEED0Ev, symObjAddr: 0x3F40, symBinAddr: 0x50364, symSize: 0x60 }
  - { offsetInCU: 0x2A0D0, offset: 0x3DA3D7, size: 0x8, addend: 0x0, symName: __ZTv0_n24_NSt3__114basic_ifstreamIcNS_11char_traitsIcEEED0Ev, symObjAddr: 0x3FA0, symBinAddr: 0x503C4, symSize: 0x68 }
  - { offsetInCU: 0x2A172, offset: 0x3DA479, size: 0x8, addend: 0x0, symName: __ZNSt3__113basic_filebufIcNS_11char_traitsIcEEED1Ev, symObjAddr: 0x4008, symBinAddr: 0x5042C, symSize: 0x4 }
  - { offsetInCU: 0x2A194, offset: 0x3DA49B, size: 0x8, addend: 0x0, symName: __ZNSt3__113basic_filebufIcNS_11char_traitsIcEEED1Ev, symObjAddr: 0x4008, symBinAddr: 0x5042C, symSize: 0x4 }
  - { offsetInCU: 0x2A19F, offset: 0x3DA4A6, size: 0x8, addend: 0x0, symName: __ZNSt3__113basic_filebufIcNS_11char_traitsIcEEE5closeEv, symObjAddr: 0x4078, symBinAddr: 0x5049C, symSize: 0x84 }
  - { offsetInCU: 0x2A37E, offset: 0x3DA685, size: 0x8, addend: 0x0, symName: __ZNSt3__113basic_filebufIcNS_11char_traitsIcEEED0Ev, symObjAddr: 0x4108, symBinAddr: 0x50520, symSize: 0x14 }
  - { offsetInCU: 0x2A424, offset: 0x3DA72B, size: 0x8, addend: 0x0, symName: __ZNSt3__113basic_filebufIcNS_11char_traitsIcEEE5imbueERKNS_6localeE, symObjAddr: 0x411C, symBinAddr: 0x50534, symSize: 0xEC }
  - { offsetInCU: 0x2A4F2, offset: 0x3DA7F9, size: 0x8, addend: 0x0, symName: __ZNSt3__113basic_filebufIcNS_11char_traitsIcEEE6setbufEPcl, symObjAddr: 0x4208, symBinAddr: 0x50620, symSize: 0xF8 }
  - { offsetInCU: 0x2A5D0, offset: 0x3DA8D7, size: 0x8, addend: 0x0, symName: __ZNSt3__113basic_filebufIcNS_11char_traitsIcEEE7seekoffExNS_8ios_base7seekdirEj, symObjAddr: 0x4300, symBinAddr: 0x50718, symSize: 0x100 }
  - { offsetInCU: 0x2A6F8, offset: 0x3DA9FF, size: 0x8, addend: 0x0, symName: __ZNSt3__113basic_filebufIcNS_11char_traitsIcEEE7seekposENS_4fposI11__mbstate_tEEj, symObjAddr: 0x4400, symBinAddr: 0x50818, symSize: 0xB0 }
  - { offsetInCU: 0x2A74B, offset: 0x3DAA52, size: 0x8, addend: 0x0, symName: __ZNSt3__113basic_filebufIcNS_11char_traitsIcEEE7seekposENS_4fposI11__mbstate_tEEj, symObjAddr: 0x4400, symBinAddr: 0x50818, symSize: 0xB0 }
  - { offsetInCU: 0x2A8B5, offset: 0x3DABBC, size: 0x8, addend: 0x0, symName: __ZNSt3__113basic_filebufIcNS_11char_traitsIcEEE4syncEv, symObjAddr: 0x44B0, symBinAddr: 0x508C8, symSize: 0x240 }
  - { offsetInCU: 0x2AB5B, offset: 0x3DAE62, size: 0x8, addend: 0x0, symName: __ZNSt3__113basic_filebufIcNS_11char_traitsIcEEE9underflowEv, symObjAddr: 0x46F0, symBinAddr: 0x50B08, symSize: 0x264 }
  - { offsetInCU: 0x2AC2D, offset: 0x3DAF34, size: 0x8, addend: 0x0, symName: __ZNSt3__113basic_filebufIcNS_11char_traitsIcEEE9underflowEv, symObjAddr: 0x46F0, symBinAddr: 0x50B08, symSize: 0x264 }
  - { offsetInCU: 0x2AF48, offset: 0x3DB24F, size: 0x8, addend: 0x0, symName: __ZNSt3__113basic_filebufIcNS_11char_traitsIcEEE9pbackfailEi, symObjAddr: 0x4954, symBinAddr: 0x50D6C, symSize: 0x5C }
  - { offsetInCU: 0x2AF73, offset: 0x3DB27A, size: 0x8, addend: 0x0, symName: __ZNSt3__113basic_filebufIcNS_11char_traitsIcEEE9pbackfailEi, symObjAddr: 0x4954, symBinAddr: 0x50D6C, symSize: 0x5C }
  - { offsetInCU: 0x2B0E4, offset: 0x3DB3EB, size: 0x8, addend: 0x0, symName: __ZNSt3__113basic_filebufIcNS_11char_traitsIcEEE8overflowEi, symObjAddr: 0x49B0, symBinAddr: 0x50DC8, symSize: 0x180 }
  - { offsetInCU: 0x2B3D1, offset: 0x3DB6D8, size: 0x8, addend: 0x0, symName: __ZNSt3__113basic_filebufIcNS_11char_traitsIcEEE12__write_modeEv, symObjAddr: 0x4B58, symBinAddr: 0x50F70, symSize: 0x68 }
  - { offsetInCU: 0x2B959, offset: 0x3DBC60, size: 0x8, addend: 0x0, symName: __ZNSt3__118codecvt_utf8_utf16IDsLm1114111ELNS_12codecvt_modeE0EED1B7v160006Ev, symObjAddr: 0x54F8, symBinAddr: 0x50FD8, symSize: 0x4 }
  - { offsetInCU: 0x2B97B, offset: 0x3DBC82, size: 0x8, addend: 0x0, symName: __ZNSt3__118codecvt_utf8_utf16IDsLm1114111ELNS_12codecvt_modeE0EED1B7v160006Ev, symObjAddr: 0x54F8, symBinAddr: 0x50FD8, symSize: 0x4 }
  - { offsetInCU: 0x2B998, offset: 0x3DBC9F, size: 0x8, addend: 0x0, symName: __ZNSt3__118codecvt_utf8_utf16IDsLm1114111ELNS_12codecvt_modeE0EED1B7v160006Ev, symObjAddr: 0x54F8, symBinAddr: 0x50FD8, symSize: 0x4 }
  - { offsetInCU: 0x2B9CC, offset: 0x3DBCD3, size: 0x8, addend: 0x0, symName: __ZNSt3__118codecvt_utf8_utf16IDsLm1114111ELNS_12codecvt_modeE0EED0B7v160006Ev, symObjAddr: 0x54FC, symBinAddr: 0x50FDC, symSize: 0x14 }
  - { offsetInCU: 0x2BBF2, offset: 0x3DBEF9, size: 0x8, addend: 0x0, symName: __ZNSt3__112basic_stringIDsNS_11char_traitsIDsEENS_9allocatorIDsEEEC2B7v160006EmDs, symObjAddr: 0x59C4, symBinAddr: 0x514A4, symSize: 0x90 }
  - { offsetInCU: 0x2BDAE, offset: 0x3DC0B5, size: 0x8, addend: 0x0, symName: __ZNKSt3__112basic_stringIDsNS_11char_traitsIDsEENS_9allocatorIDsEEE20__throw_length_errorB7v160006Ev, symObjAddr: 0x5A54, symBinAddr: 0x51534, symSize: 0x14 }
  - { offsetInCU: 0x2BDB9, offset: 0x3DC0C0, size: 0x8, addend: 0x0, symName: __ZNSt3__112basic_stringIDsNS_11char_traitsIDsEENS_9allocatorIDsEEE6resizeEmDs, symObjAddr: 0x5A98, symBinAddr: 0x51578, symSize: 0x40 }
  - { offsetInCU: 0x2BE2E, offset: 0x3DC135, size: 0x8, addend: 0x0, symName: __ZNSt3__112basic_stringIDsNS_11char_traitsIDsEENS_9allocatorIDsEEE6resizeEmDs, symObjAddr: 0x5A98, symBinAddr: 0x51578, symSize: 0x40 }
  - { offsetInCU: 0x2BF96, offset: 0x3DC29D, size: 0x8, addend: 0x0, symName: __ZNSt3__112basic_stringIDsNS_11char_traitsIDsEENS_9allocatorIDsEEE6appendIPKDsEENS_9enable_ifIXsr27__is_cpp17_forward_iteratorIT_EE5valueERS5_E4typeESA_SA_, symObjAddr: 0x57FC, symBinAddr: 0x512DC, symSize: 0x178 }
  - { offsetInCU: 0x2C5D4, offset: 0x3DC8DB, size: 0x8, addend: 0x0, symName: __ZNSt3__112basic_stringIDsNS_11char_traitsIDsEENS_9allocatorIDsEEE25__init_copy_ctor_externalEPKDsm, symObjAddr: 0x5F58, symBinAddr: 0x51A38, symSize: 0x80 }
  - { offsetInCU: 0x2C835, offset: 0x3DCB3C, size: 0x8, addend: 0x0, symName: __ZNSt3__16vectorItNS_9allocatorItEEEC2IPKtLi0EEET_S7_, symObjAddr: 0x5FD8, symBinAddr: 0x51AB8, symSize: 0x8C }
  - { offsetInCU: 0x2C995, offset: 0x3DCC9C, size: 0x8, addend: 0x0, symName: __ZNSt3__112basic_stringIDsNS_11char_traitsIDsEENS_9allocatorIDsEEE9__grow_byEmmmmmm, symObjAddr: 0x5B9C, symBinAddr: 0x5167C, symSize: 0x114 }
  - { offsetInCU: 0x2CEE6, offset: 0x3DD1ED, size: 0x8, addend: 0x0, symName: __ZNSt3__112basic_stringIDsNS_11char_traitsIDsEENS_9allocatorIDsEEE6appendEPKDsm, symObjAddr: 0x5CB0, symBinAddr: 0x51790, symSize: 0xC0 }
  - { offsetInCU: 0x2CEF1, offset: 0x3DD1F8, size: 0x8, addend: 0x0, symName: __ZNSt3__112basic_stringIDsNS_11char_traitsIDsEENS_9allocatorIDsEEEC2B7v160006IPKDsvEET_S9_RKS4_, symObjAddr: 0x5D70, symBinAddr: 0x51850, symSize: 0x90 }
  - { offsetInCU: 0x2D0C4, offset: 0x3DD3CB, size: 0x8, addend: 0x0, symName: __ZNSt3__112basic_stringIDsNS_11char_traitsIDsEENS_9allocatorIDsEEE21__grow_by_and_replaceEmmmmmmPKDs, symObjAddr: 0x5E00, symBinAddr: 0x518E0, symSize: 0x134 }
  - { offsetInCU: 0x2D0DA, offset: 0x3DD3E1, size: 0x8, addend: 0x0, symName: __ZNSt3__112basic_stringIDsNS_11char_traitsIDsEENS_9allocatorIDsEEE6appendEPKDsm, symObjAddr: 0x5CB0, symBinAddr: 0x51790, symSize: 0xC0 }
  - { offsetInCU: 0x2D453, offset: 0x3DD75A, size: 0x8, addend: 0x0, symName: __ZNSt11range_errorC1B7v160006EPKc, symObjAddr: 0x5F34, symBinAddr: 0x51A14, symSize: 0x24 }
  - { offsetInCU: 0x2D594, offset: 0x3DD89B, size: 0x8, addend: 0x0, symName: __ZNKSt3__112basic_stringIDsNS_11char_traitsIDsEENS_9allocatorIDsEEE20__throw_length_errorB7v160006Ev, symObjAddr: 0x5A54, symBinAddr: 0x51534, symSize: 0x14 }
  - { offsetInCU: 0x2D5BE, offset: 0x3DD8C5, size: 0x8, addend: 0x0, symName: __ZNSt3__119__allocate_at_leastB7v160006INS_9allocatorIDsEEEENS_19__allocation_resultINS_16allocator_traitsIT_E7pointerEEERS5_m, symObjAddr: 0x5A68, symBinAddr: 0x51548, symSize: 0x30 }
  - { offsetInCU: 0x2D64F, offset: 0x3DD956, size: 0x8, addend: 0x0, symName: __ZNSt3__112basic_stringIDsNS_11char_traitsIDsEENS_9allocatorIDsEEE6appendEmDs, symObjAddr: 0x5AD8, symBinAddr: 0x515B8, symSize: 0xC4 }
  - { offsetInCU: 0x2D970, offset: 0x3DDC77, size: 0x8, addend: 0x0, symName: __ZNSt3__112basic_stringIDsNS_11char_traitsIDsEENS_9allocatorIDsEEE21__grow_by_and_replaceEmmmmmmPKDs, symObjAddr: 0x5E00, symBinAddr: 0x518E0, symSize: 0x134 }
  - { offsetInCU: 0x2E0A9, offset: 0x3DE3B0, size: 0x8, addend: 0x0, symName: __ZNSt11range_errorC1B7v160006EPKc, symObjAddr: 0x5F34, symBinAddr: 0x51A14, symSize: 0x24 }
  - { offsetInCU: 0x2E3C0, offset: 0x3DE6C7, size: 0x8, addend: 0x0, symName: __ZNSt3__16vectorItNS_9allocatorItEEE11__vallocateB7v160006Em, symObjAddr: 0x6064, symBinAddr: 0x51B44, symSize: 0x3C }
  - { offsetInCU: 0x2E438, offset: 0x3DE73F, size: 0x8, addend: 0x0, symName: __ZNKSt3__16vectorItNS_9allocatorItEEE20__throw_length_errorB7v160006Ev, symObjAddr: 0x60A0, symBinAddr: 0x51B80, symSize: 0x14 }
  - { offsetInCU: 0x2E458, offset: 0x3DE75F, size: 0x8, addend: 0x0, symName: __ZNKSt3__16vectorItNS_9allocatorItEEE20__throw_length_errorB7v160006Ev, symObjAddr: 0x60A0, symBinAddr: 0x51B80, symSize: 0x14 }
  - { offsetInCU: 0x2E482, offset: 0x3DE789, size: 0x8, addend: 0x0, symName: __ZNSt3__119__allocate_at_leastB7v160006INS_9allocatorItEEEENS_19__allocation_resultINS_16allocator_traitsIT_E7pointerEEERS5_m, symObjAddr: 0x60B4, symBinAddr: 0x51B94, symSize: 0x30 }
  - { offsetInCU: 0x2EA87, offset: 0x3DED8E, size: 0x8, addend: 0x0, symName: __ZN3tns6AssertEbPN2v87IsolateERKNSt3__112basic_stringIcNS3_11char_traitsIcEENS3_9allocatorIcEEEE.cold.1, symObjAddr: 0x698C, symBinAddr: 0xB987E4, symSize: 0x28 }
  - { offsetInCU: 0x11FDA, offset: 0x3F1121, size: 0x8, addend: 0x0, symName: __ZN3tns7Interop20RegisterInteropTypesEN2v85LocalINS1_7ContextEEE, symObjAddr: 0x0, symBinAddr: 0x51EDC, symSize: 0xD60 }
  - { offsetInCU: 0x15E2A, offset: 0x3F4F71, size: 0x8, addend: 0x0, symName: __ZN3tns7Interop30RegisterBufferFromDataFunctionEN2v85LocalINS1_7ContextEEENS2_INS1_6ObjectEEE, symObjAddr: 0xD60, symBinAddr: 0x52C3C, symSize: 0x164 }
  - { offsetInCU: 0x1647A, offset: 0x3F55C1, size: 0x8, addend: 0x0, symName: __ZN3tns7Interop25RegisterStringFromCStringEN2v85LocalINS1_7ContextEEENS2_INS1_6ObjectEEE, symObjAddr: 0xEC4, symBinAddr: 0x52DA0, symSize: 0x164 }
  - { offsetInCU: 0x16ACA, offset: 0x3F5C11, size: 0x8, addend: 0x0, symName: __ZN3tns7Interop24RegisterHandleOfFunctionEN2v85LocalINS1_7ContextEEENS2_INS1_6ObjectEEE, symObjAddr: 0x1028, symBinAddr: 0x52F04, symSize: 0x164 }
  - { offsetInCU: 0x1711A, offset: 0x3F6261, size: 0x8, addend: 0x0, symName: __ZN3tns7Interop21RegisterAllocFunctionEN2v85LocalINS1_7ContextEEENS2_INS1_6ObjectEEE, symObjAddr: 0x118C, symBinAddr: 0x53068, symSize: 0x164 }
  - { offsetInCU: 0x1776A, offset: 0x3F68B1, size: 0x8, addend: 0x0, symName: __ZN3tns7Interop20RegisterFreeFunctionEN2v85LocalINS1_7ContextEEENS2_INS1_6ObjectEEE, symObjAddr: 0x12F0, symBinAddr: 0x531CC, symSize: 0x164 }
  - { offsetInCU: 0x17DCE, offset: 0x3F6F15, size: 0x8, addend: 0x0, symName: __ZN3tns7Interop21RegisterAdoptFunctionEN2v85LocalINS1_7ContextEEENS2_INS1_6ObjectEEE, symObjAddr: 0x1454, symBinAddr: 0x53330, symSize: 0x164 }
  - { offsetInCU: 0x18436, offset: 0x3F757D, size: 0x8, addend: 0x0, symName: __ZN3tns7Interop22RegisterSizeOfFunctionEN2v85LocalINS1_7ContextEEENS2_INS1_6ObjectEEE, symObjAddr: 0x15B8, symBinAddr: 0x53494, symSize: 0x164 }
  - { offsetInCU: 0x18CB9, offset: 0x3F7E00, size: 0x8, addend: 0x0, symName: __ZN3tns7Interop19RegisterInteropTypeEN2v85LocalINS1_7ContextEEENS2_INS1_6ObjectEEENSt3__112basic_stringIcNS7_11char_traitsIcEENS7_9allocatorIcEEEEPNS_20PrimitiveDataWrapperEb, symObjAddr: 0x171C, symBinAddr: 0x535F8, symSize: 0x388 }
  - { offsetInCU: 0x19FA3, offset: 0x3F90EA, size: 0x8, addend: 0x0, symName: __ZNK10robin_hood6detail5TableILb1ELm80EN3tns22BinaryTypeEncodingTypeENSt3__110unique_ptrIN2v810PersistentINS6_6ObjectENS6_27NonCopyablePersistentTraitsIS8_EEEENS4_14default_deleteISB_EEEENS_4hashIS3_vEENS4_8equal_toIS3_EEE7findIdxIS3_EEmRKT_, symObjAddr: 0x3868, symBinAddr: 0x54F44, symSize: 0xD4 }
  - { offsetInCU: 0x1A000, offset: 0x3F9147, size: 0x8, addend: 0x0, symName: __ZNK10robin_hood6detail5TableILb1ELm80EN3tns22BinaryTypeEncodingTypeENSt3__110unique_ptrIN2v810PersistentINS6_6ObjectENS6_27NonCopyablePersistentTraitsIS8_EEEENS4_14default_deleteISB_EEEENS_4hashIS3_vEENS4_8equal_toIS3_EEE7findIdxIS3_EEmRKT_, symObjAddr: 0x3868, symBinAddr: 0x54F44, symSize: 0xD4 }
  - { offsetInCU: 0x1A14B, offset: 0x3F9292, size: 0x8, addend: 0x0, symName: __ZN3tns6Caches24registerCacheBoundObjectINS_20PrimitiveDataWrapperEEEvPT_, symObjAddr: 0x1CDC, symBinAddr: 0x53BB8, symSize: 0x118 }
  - { offsetInCU: 0x1A657, offset: 0x3F979E, size: 0x8, addend: 0x0, symName: __ZN10robin_hood6detail5TableILb1ELm80EN3tns22BinaryTypeEncodingTypeENSt3__110unique_ptrIN2v810PersistentINS6_6ObjectENS6_27NonCopyablePersistentTraitsIS8_EEEENS4_14default_deleteISB_EEEENS_4hashIS3_vEENS4_8equal_toIS3_EEE7emplaceIJRS3_SE_EEENS4_4pairINSJ_4IterILb0EEEbEEDpOT_, symObjAddr: 0x1BD8, symBinAddr: 0x53AB4, symSize: 0x104 }
  - { offsetInCU: 0x1AD89, offset: 0x3F9ED0, size: 0x8, addend: 0x0, symName: __ZN3tns7Interop14CreateEncodingENS_22BinaryTypeEncodingTypeE, symObjAddr: 0x1AA4, symBinAddr: 0x53980, symSize: 0x2C }
  - { offsetInCU: 0x1AE4F, offset: 0x3F9F96, size: 0x8, addend: 0x0, symName: __ZN3tns7Interop14GetInteropTypeEN2v85LocalINS1_7ContextEEENS_22BinaryTypeEncodingTypeE, symObjAddr: 0x1AD0, symBinAddr: 0x539AC, symSize: 0x108 }
  - { offsetInCU: 0x1B673, offset: 0x3FA7BA, size: 0x8, addend: 0x0, symName: __ZN10robin_hood6detail5TableILb1ELm80EN3tns22BinaryTypeEncodingTypeENSt3__110unique_ptrIN2v810PersistentINS6_6ObjectENS6_27NonCopyablePersistentTraitsIS8_EEEENS4_14default_deleteISB_EEEENS_4hashIS3_vEENS4_8equal_toIS3_EEE25insertKeyPrepareEmptySpotIRKS3_EENS4_4pairImNSJ_14InsertionStateEEEOT_, symObjAddr: 0x393C, symBinAddr: 0x55018, symSize: 0x190 }
  - { offsetInCU: 0x1B83D, offset: 0x3FA984, size: 0x8, addend: 0x0, symName: __ZNK10robin_hood6detail5TableILb1ELm80EN3tns22BinaryTypeEncodingTypeENSt3__110unique_ptrIN2v810PersistentINS6_6ObjectENS6_27NonCopyablePersistentTraitsIS8_EEEENS4_14default_deleteISB_EEEENS_4hashIS3_vEENS4_8equal_toIS3_EEE18throwOverflowErrorEv, symObjAddr: 0x3ACC, symBinAddr: 0x551A8, symSize: 0x50 }
  - { offsetInCU: 0x1C259, offset: 0x3FB3A0, size: 0x8, addend: 0x0, symName: __ZN3tns7Interop8HandleOfEN2v85LocalINS1_7ContextEEENS2_INS1_5ValueEEE, symObjAddr: 0x1DF4, symBinAddr: 0x53CD0, symSize: 0x328 }
  - { offsetInCU: 0x1D017, offset: 0x3FC15E, size: 0x8, addend: 0x0, symName: __ZN3tns20PrimitiveDataWrapperD1Ev, symObjAddr: 0x227C, symBinAddr: 0x53FF8, symSize: 0x40 }
  - { offsetInCU: 0x1D070, offset: 0x3FC1B7, size: 0x8, addend: 0x0, symName: __ZN3tns20PrimitiveDataWrapperD0Ev, symObjAddr: 0x22BC, symBinAddr: 0x54038, symSize: 0x40 }
  - { offsetInCU: 0x1D0E5, offset: 0x3FC22C, size: 0x8, addend: 0x0, symName: __ZN3tns20PrimitiveDataWrapper4TypeEv, symObjAddr: 0x22FC, symBinAddr: 0x54078, symSize: 0x8 }
  - { offsetInCU: 0x1D7B2, offset: 0x3FC8F9, size: 0x8, addend: 0x0, symName: '__ZZN3tns7Interop30RegisterBufferFromDataFunctionEN2v85LocalINS1_7ContextEEENS2_INS1_6ObjectEEEEN3$_08__invokeERKNS1_20FunctionCallbackInfoINS1_5ValueEEE', symObjAddr: 0x2438, symBinAddr: 0x54080, symSize: 0x2C0 }
  - { offsetInCU: 0x1E48C, offset: 0x3FD5D3, size: 0x8, addend: 0x0, symName: '__ZZN3tns7Interop30RegisterBufferFromDataFunctionEN2v85LocalINS1_7ContextEEENS2_INS1_6ObjectEEEEN3$_08__invokeERKNS1_20FunctionCallbackInfoINS1_5ValueEEE.cold.1', symObjAddr: 0x44F8, symBinAddr: 0xB9880C, symSize: 0x4C }
  - { offsetInCU: 0x1E54E, offset: 0x3FD695, size: 0x8, addend: 0x0, symName: '__ZZZN3tns7Interop30RegisterBufferFromDataFunctionEN2v85LocalINS1_7ContextEEENS2_INS1_6ObjectEEEENK3$_0clERKNS1_20FunctionCallbackInfoINS1_5ValueEEEENUlPvmSD_E_8__invokeESD_mSD_', symObjAddr: 0x26F8, symBinAddr: 0x54340, symSize: 0x4 }
  - { offsetInCU: 0x1E592, offset: 0x3FD6D9, size: 0x8, addend: 0x0, symName: __ZNSt3__120__shared_ptr_pointerIPN2v812BackingStoreENS_14default_deleteIS2_EENS_9allocatorIS2_EEED1Ev, symObjAddr: 0x26FC, symBinAddr: 0x54344, symSize: 0x4 }
  - { offsetInCU: 0x1E5B4, offset: 0x3FD6FB, size: 0x8, addend: 0x0, symName: __ZNSt3__120__shared_ptr_pointerIPN2v812BackingStoreENS_14default_deleteIS2_EENS_9allocatorIS2_EEED1Ev, symObjAddr: 0x26FC, symBinAddr: 0x54344, symSize: 0x4 }
  - { offsetInCU: 0x1E5E7, offset: 0x3FD72E, size: 0x8, addend: 0x0, symName: __ZNSt3__120__shared_ptr_pointerIPN2v812BackingStoreENS_14default_deleteIS2_EENS_9allocatorIS2_EEED0Ev, symObjAddr: 0x2700, symBinAddr: 0x54348, symSize: 0x14 }
  - { offsetInCU: 0x1E657, offset: 0x3FD79E, size: 0x8, addend: 0x0, symName: __ZNSt3__120__shared_ptr_pointerIPN2v812BackingStoreENS_14default_deleteIS2_EENS_9allocatorIS2_EEE16__on_zero_sharedEv, symObjAddr: 0x2714, symBinAddr: 0x5435C, symSize: 0x24 }
  - { offsetInCU: 0x1E71D, offset: 0x3FD864, size: 0x8, addend: 0x0, symName: __ZNSt3__120__shared_ptr_pointerIPN2v812BackingStoreENS_14default_deleteIS2_EENS_9allocatorIS2_EEE21__on_zero_shared_weakEv, symObjAddr: 0x2738, symBinAddr: 0x54380, symSize: 0x4 }
  - { offsetInCU: 0x1E752, offset: 0x3FD899, size: 0x8, addend: 0x0, symName: __ZNSt3__120__shared_ptr_pointerIPN2v812BackingStoreENS_14default_deleteIS2_EENS_9allocatorIS2_EEE21__on_zero_shared_weakEv, symObjAddr: 0x2738, symBinAddr: 0x54380, symSize: 0x4 }
  - { offsetInCU: 0x1E776, offset: 0x3FD8BD, size: 0x8, addend: 0x0, symName: __ZNSt3__120__shared_ptr_pointerIPN2v812BackingStoreENS_14default_deleteIS2_EENS_9allocatorIS2_EEE21__on_zero_shared_weakEv, symObjAddr: 0x2738, symBinAddr: 0x54380, symSize: 0x4 }
  - { offsetInCU: 0x1E7A2, offset: 0x3FD8E9, size: 0x8, addend: 0x0, symName: __ZNSt3__120__shared_ptr_pointerIPN2v812BackingStoreENS_14default_deleteIS2_EENS_9allocatorIS2_EEE21__on_zero_shared_weakEv, symObjAddr: 0x2738, symBinAddr: 0x54380, symSize: 0x4 }
  - { offsetInCU: 0x1E7C9, offset: 0x3FD910, size: 0x8, addend: 0x0, symName: __ZNSt3__120__shared_ptr_pointerIPN2v812BackingStoreENS_14default_deleteIS2_EENS_9allocatorIS2_EEE21__on_zero_shared_weakEv, symObjAddr: 0x2738, symBinAddr: 0x54380, symSize: 0x4 }
  - { offsetInCU: 0x1E7EA, offset: 0x3FD931, size: 0x8, addend: 0x0, symName: __ZNSt3__120__shared_ptr_pointerIPN2v812BackingStoreENS_14default_deleteIS2_EENS_9allocatorIS2_EEE21__on_zero_shared_weakEv, symObjAddr: 0x2738, symBinAddr: 0x54380, symSize: 0x4 }
  - { offsetInCU: 0x1E92B, offset: 0x3FDA72, size: 0x8, addend: 0x0, symName: '__ZZN3tns7Interop25RegisterStringFromCStringEN2v85LocalINS1_7ContextEEENS2_INS1_6ObjectEEEEN3$_18__invokeERKNS1_20FunctionCallbackInfoINS1_5ValueEEE', symObjAddr: 0x273C, symBinAddr: 0x54384, symSize: 0x34C }
  - { offsetInCU: 0x1F97E, offset: 0x3FEAC5, size: 0x8, addend: 0x0, symName: '__ZZN3tns7Interop24RegisterHandleOfFunctionEN2v85LocalINS1_7ContextEEENS2_INS1_6ObjectEEEEN3$_28__invokeERKNS1_20FunctionCallbackInfoINS1_5ValueEEE', symObjAddr: 0x2A88, symBinAddr: 0x546D0, symSize: 0x18C }
  - { offsetInCU: 0x20032, offset: 0x3FF179, size: 0x8, addend: 0x0, symName: '__ZZN3tns7Interop21RegisterAllocFunctionEN2v85LocalINS1_7ContextEEENS2_INS1_6ObjectEEEEN3$_38__invokeERKNS1_20FunctionCallbackInfoINS1_5ValueEEE', symObjAddr: 0x2C14, symBinAddr: 0x5485C, symSize: 0x1C4 }
  - { offsetInCU: 0x209BB, offset: 0x3FFB02, size: 0x8, addend: 0x0, symName: '__ZZN3tns7Interop20RegisterFreeFunctionEN2v85LocalINS1_7ContextEEENS2_INS1_6ObjectEEEEN3$_48__invokeERKNS1_20FunctionCallbackInfoINS1_5ValueEEE', symObjAddr: 0x2DD8, symBinAddr: 0x54A20, symSize: 0x114 }
  - { offsetInCU: 0x20F56, offset: 0x40009D, size: 0x8, addend: 0x0, symName: '__ZZN3tns7Interop21RegisterAdoptFunctionEN2v85LocalINS1_7ContextEEENS2_INS1_6ObjectEEEEN3$_58__invokeERKNS1_20FunctionCallbackInfoINS1_5ValueEEE', symObjAddr: 0x2EEC, symBinAddr: 0x54B34, symSize: 0x114 }
  - { offsetInCU: 0x215A6, offset: 0x4006ED, size: 0x8, addend: 0x0, symName: '__ZZN3tns7Interop22RegisterSizeOfFunctionEN2v85LocalINS1_7ContextEEENS2_INS1_6ObjectEEEEN3$_68__invokeERKNS1_20FunctionCallbackInfoINS1_5ValueEEE', symObjAddr: 0x3000, symBinAddr: 0x54C48, symSize: 0x2FC }
  - { offsetInCU: 0x22C7B, offset: 0x401DC2, size: 0x8, addend: 0x0, symName: __ZNK10robin_hood6detail5TableILb1ELm80EN3tns22BinaryTypeEncodingTypeENSt3__110unique_ptrIN2v810PersistentINS6_6ObjectENS6_27NonCopyablePersistentTraitsIS8_EEEENS4_14default_deleteISB_EEEENS_4hashIS3_vEENS4_8equal_toIS3_EEE7findIdxIS3_EEmRKT_, symObjAddr: 0x3868, symBinAddr: 0x54F44, symSize: 0xD4 }
  - { offsetInCU: 0x22DD1, offset: 0x401F18, size: 0x8, addend: 0x0, symName: __ZN10robin_hood6detail5TableILb1ELm80EN3tns22BinaryTypeEncodingTypeENSt3__110unique_ptrIN2v810PersistentINS6_6ObjectENS6_27NonCopyablePersistentTraitsIS8_EEEENS4_14default_deleteISB_EEEENS_4hashIS3_vEENS4_8equal_toIS3_EEE13increase_sizeEv, symObjAddr: 0x3B1C, symBinAddr: 0x551F8, symSize: 0x12C }
  - { offsetInCU: 0x22E9B, offset: 0x401FE2, size: 0x8, addend: 0x0, symName: __ZN10robin_hood6detail5TableILb1ELm80EN3tns22BinaryTypeEncodingTypeENSt3__110unique_ptrIN2v810PersistentINS6_6ObjectENS6_27NonCopyablePersistentTraitsIS8_EEEENS4_14default_deleteISB_EEEENS_4hashIS3_vEENS4_8equal_toIS3_EEE7shiftUpEmm, symObjAddr: 0x3C48, symBinAddr: 0x55324, symSize: 0xF4 }
  - { offsetInCU: 0x23181, offset: 0x4022C8, size: 0x8, addend: 0x0, symName: __ZN10robin_hood6detail5TableILb1ELm80EN3tns22BinaryTypeEncodingTypeENSt3__110unique_ptrIN2v810PersistentINS6_6ObjectENS6_27NonCopyablePersistentTraitsIS8_EEEENS4_14default_deleteISB_EEEENS_4hashIS3_vEENS4_8equal_toIS3_EEE17try_increase_infoEv, symObjAddr: 0x3E08, symBinAddr: 0x554E4, symSize: 0x100 }
  - { offsetInCU: 0x2328B, offset: 0x4023D2, size: 0x8, addend: 0x0, symName: __ZN10robin_hood6detail5TableILb1ELm80EN3tns22BinaryTypeEncodingTypeENSt3__110unique_ptrIN2v810PersistentINS6_6ObjectENS6_27NonCopyablePersistentTraitsIS8_EEEENS4_14default_deleteISB_EEEENS_4hashIS3_vEENS4_8equal_toIS3_EEE8initDataEm, symObjAddr: 0x3D3C, symBinAddr: 0x55418, symSize: 0xCC }
  - { offsetInCU: 0x2339F, offset: 0x4024E6, size: 0x8, addend: 0x0, symName: __ZN10robin_hood6detail5TableILb1ELm80EN3tns22BinaryTypeEncodingTypeENSt3__110unique_ptrIN2v810PersistentINS6_6ObjectENS6_27NonCopyablePersistentTraitsIS8_EEEENS4_14default_deleteISB_EEEENS_4hashIS3_vEENS4_8equal_toIS3_EEE17try_increase_infoEv, symObjAddr: 0x3E08, symBinAddr: 0x554E4, symSize: 0x100 }
  - { offsetInCU: 0x233AA, offset: 0x4024F1, size: 0x8, addend: 0x0, symName: __ZN10robin_hood6detail5TableILb1ELm80EN3tns22BinaryTypeEncodingTypeENSt3__110unique_ptrIN2v810PersistentINS6_6ObjectENS6_27NonCopyablePersistentTraitsIS8_EEEENS4_14default_deleteISB_EEEENS_4hashIS3_vEENS4_8equal_toIS3_EEE16rehashPowerOfTwoEmb, symObjAddr: 0x3F08, symBinAddr: 0x555E4, symSize: 0x100 }
  - { offsetInCU: 0x23675, offset: 0x4027BC, size: 0x8, addend: 0x0, symName: __ZN10robin_hood6detail5TableILb1ELm80EN3tns22BinaryTypeEncodingTypeENSt3__110unique_ptrIN2v810PersistentINS6_6ObjectENS6_27NonCopyablePersistentTraitsIS8_EEEENS4_14default_deleteISB_EEEENS_4hashIS3_vEENS4_8equal_toIS3_EEE11insert_moveEONSJ_8DataNodeISJ_Lb1EEE, symObjAddr: 0x4030, symBinAddr: 0x556E4, symSize: 0x154 }
  - { offsetInCU: 0x23DBD, offset: 0x402F04, size: 0x8, addend: 0x0, symName: __ZZN3tns6Caches11unique_voidINS_20PrimitiveDataWrapperEEENSt3__110unique_ptrIvPFvPKvEEEPT_ENUlS6_E_8__invokeES6_, symObjAddr: 0x448C, symBinAddr: 0x55838, symSize: 0x14 }
  - { offsetInCU: 0x23DDC, offset: 0x402F23, size: 0x8, addend: 0x0, symName: __ZZN3tns6Caches11unique_voidINS_20PrimitiveDataWrapperEEENSt3__110unique_ptrIvPFvPKvEEEPT_ENUlS6_E_8__invokeES6_, symObjAddr: 0x448C, symBinAddr: 0x55838, symSize: 0x14 }
  - { offsetInCU: 0x26, offset: 0x402F93, size: 0x8, addend: 0x0, symName: _nativescript_module_register, symObjAddr: 0x0, symBinAddr: 0x5584C, symSize: 0x64 }
  - { offsetInCU: 0x44, offset: 0x402FB1, size: 0x8, addend: 0x0, symName: __ZN3tns19node_is_initializedE, symObjAddr: 0x63807, symBinAddr: 0x1593D5C, symSize: 0x0 }
  - { offsetInCU: 0x5E, offset: 0x402FCB, size: 0x8, addend: 0x0, symName: __ZN3tnsL16modlist_internalE, symObjAddr: 0x63808, symBinAddr: 0x157ED78, symSize: 0x0 }
  - { offsetInCU: 0x104, offset: 0x403071, size: 0x8, addend: 0x0, symName: __ZN3tnsL14modlist_linkedE, symObjAddr: 0x63810, symBinAddr: 0x157ED80, symSize: 0x0 }
  - { offsetInCU: 0x117, offset: 0x403084, size: 0x8, addend: 0x0, symName: __ZN3tns7binding23RegisterBuiltinBindingsEv, symObjAddr: 0x64, symBinAddr: 0x558B0, symSize: 0x4 }
  - { offsetInCU: 0x131, offset: 0x40309E, size: 0x8, addend: 0x0, symName: __ZN3tns7binding30CreateInternalBindingTemplatesEPN2v87IsolateENS1_5LocalINS1_16FunctionTemplateEEE, symObjAddr: 0x68, symBinAddr: 0x558B4, symSize: 0x2C }
  - { offsetInCU: 0x2D10, offset: 0x405C7D, size: 0x8, addend: 0x0, symName: _nativescript_module_register, symObjAddr: 0x0, symBinAddr: 0x5584C, symSize: 0x64 }
  - { offsetInCU: 0x5CEB, offset: 0x40B9AB, size: 0x8, addend: 0x0, symName: __ZN3tns14SymbolIterator3SetEN2v85LocalINS1_7ContextEEENS2_INS1_5ValueEEE, symObjAddr: 0x0, symBinAddr: 0x558E0, symSize: 0xC0 }
  - { offsetInCU: 0x616D, offset: 0x40BE2D, size: 0x8, addend: 0x0, symName: __ZN3tns14SymbolIterator20CreateIteratorObjectEN2v85LocalINS1_7ContextEEENS2_INS1_5ValueEEE, symObjAddr: 0xC0, symBinAddr: 0x559A0, symSize: 0x1D8 }
  - { offsetInCU: 0x6F36, offset: 0x40CBF6, size: 0x8, addend: 0x0, symName: __ZN3tns14SymbolIterator12NextCallbackERKN2v820FunctionCallbackInfoINS1_5ValueEEE, symObjAddr: 0x298, symBinAddr: 0x55B78, symSize: 0x54C }
  - { offsetInCU: 0x87B1, offset: 0x40E471, size: 0x8, addend: 0x0, symName: '__ZZN3tns14SymbolIterator3SetEN2v85LocalINS1_7ContextEEENS2_INS1_5ValueEEEEN3$_08__invokeERKNS1_20FunctionCallbackInfoIS5_EE', symObjAddr: 0x834, symBinAddr: 0x560C4, symSize: 0x4C }
  - { offsetInCU: 0x40, offset: 0x40EAA5, size: 0x8, addend: 0x0, symName: __ZN3tns7Runtime13nextIsolateIdE, symObjAddr: 0x2B31C0, symBinAddr: 0x1593D60, symSize: 0x0 }
  - { offsetInCU: 0xB8D, offset: 0x40F5F2, size: 0x8, addend: 0x0, symName: __ZN3tns10allocator_E, symObjAddr: 0x2B31C8, symBinAddr: 0x1593D68, symSize: 0x0 }
  - { offsetInCU: 0xBA7, offset: 0x40F60C, size: 0x8, addend: 0x0, symName: __ZN3tns14AppPackageJsonE, symObjAddr: 0x2B31D0, symBinAddr: 0x1593D70, symSize: 0x0 }
  - { offsetInCU: 0xBBB, offset: 0x40F620, size: 0x8, addend: 0x0, symName: __ZN3tns7Runtime9platform_E, symObjAddr: 0x2B31F8, symBinAddr: 0x1593D98, symSize: 0x0 }
  - { offsetInCU: 0xBCF, offset: 0x40F634, size: 0x8, addend: 0x0, symName: __ZN3tns7Runtime9isolates_E, symObjAddr: 0x2B31D8, symBinAddr: 0x1593D78, symSize: 0x0 }
  - { offsetInCU: 0xBE3, offset: 0x40F648, size: 0x8, addend: 0x0, symName: __ZN3tns7Runtime14v8Initialized_E, symObjAddr: 0x2B31F0, symBinAddr: 0x1593D90, symSize: 0x0 }
  - { offsetInCU: 0xBF7, offset: 0x40F65C, size: 0x8, addend: 0x0, symName: __ZN3tns7Runtime14isolatesMutex_E, symObjAddr: 0x2B3208, symBinAddr: 0x1593DA8, symSize: 0x0 }
  - { offsetInCU: 0xFA5, offset: 0x40FA0A, size: 0x8, addend: 0x0, symName: __ZN3tns26DisposeIsolateWhenPossibleEPN2v87IsolateE, symObjAddr: 0x0, symBinAddr: 0x56110, symSize: 0xA0 }
  - { offsetInCU: 0xF80E, offset: 0x41E273, size: 0x8, addend: 0x0, symName: __ZNSt3__16removeB7v160006INS_11__wrap_iterIPPN2v87IsolateEEES4_EET_S7_S7_RKT0_, symObjAddr: 0x534, symBinAddr: 0x56638, symSize: 0x5C }
  - { offsetInCU: 0xF85C, offset: 0x41E2C1, size: 0x8, addend: 0x0, symName: __ZNSt3__16removeB7v160006INS_11__wrap_iterIPPN2v87IsolateEEES4_EET_S7_S7_RKT0_, symObjAddr: 0x534, symBinAddr: 0x56638, symSize: 0x5C }
  - { offsetInCU: 0x105F4, offset: 0x41F059, size: 0x8, addend: 0x0, symName: __ZNSt3__119__allocate_at_leastB7v160006INS_9allocatorIPN2v87IsolateEEEEENS_19__allocation_resultINS_16allocator_traitsIT_E7pointerEEERS8_m, symObjAddr: 0x27B8, symBinAddr: 0x583D0, symSize: 0x34 }
  - { offsetInCU: 0x10698, offset: 0x41F0FD, size: 0x8, addend: 0x0, symName: __ZNSt3__110__function6__funcIPFN2v85LocalINS2_16FunctionTemplateEEENS3_INS2_7ContextEEEPKN3tns13BaseClassMetaENS8_21KnownUnknownClassPairERKNS_6vectorINS_12basic_stringIcNS_11char_traitsIcEENS_9allocatorIcEEEENSH_ISJ_EEEEENSH_ISP_EESO_ED1Ev, symObjAddr: 0x27EC, symBinAddr: 0x58404, symSize: 0x4 }
  - { offsetInCU: 0x10BCC, offset: 0x41F631, size: 0x8, addend: 0x0, symName: __ZNSt3__115allocate_sharedB7v160006IN3tns6CachesENS_9allocatorIS2_EEJRPN2v87IsolateERKiEvEENS_10shared_ptrIT_EERKT0_DpOT1_, symObjAddr: 0x1E88, symBinAddr: 0x57E64, symSize: 0x60 }
  - { offsetInCU: 0x1A8E1, offset: 0x429346, size: 0x8, addend: 0x0, symName: __ZN3tns7RuntimeD1Ev, symObjAddr: 0x700, symBinAddr: 0x56804, symSize: 0x4 }
  - { offsetInCU: 0x1A93D, offset: 0x4293A2, size: 0x8, addend: 0x0, symName: __ZN3tns7RuntimeD1Ev, symObjAddr: 0x700, symBinAddr: 0x56804, symSize: 0x4 }
  - { offsetInCU: 0x1CE09, offset: 0x42B86E, size: 0x8, addend: 0x0, symName: ____ZN3tns26DisposeIsolateWhenPossibleEPN2v87IsolateE_block_invoke, symObjAddr: 0xA0, symBinAddr: 0x561B0, symSize: 0x8 }
  - { offsetInCU: 0x1CE52, offset: 0x42B8B7, size: 0x8, addend: 0x0, symName: __ZN3tns7Runtime10InitializeEv, symObjAddr: 0xA8, symBinAddr: 0x561B8, symSize: 0x10 }
  - { offsetInCU: 0x1CF8F, offset: 0x42B9F4, size: 0x8, addend: 0x0, symName: __ZN3tns7RuntimeC2Ev, symObjAddr: 0xB8, symBinAddr: 0x561C8, symSize: 0x5C }
  - { offsetInCU: 0x1D08D, offset: 0x42BAF2, size: 0x8, addend: 0x0, symName: __ZNSt3__110shared_ptrIN3tns13ConcurrentMapIiNS0_INS1_6Caches11WorkerStateEEEEEEaSB7v160006ERKS7_, symObjAddr: 0x114, symBinAddr: 0x56224, symSize: 0x78 }
  - { offsetInCU: 0x1D35F, offset: 0x42BDC4, size: 0x8, addend: 0x0, symName: __ZN3tns7RuntimeC1Ev, symObjAddr: 0x18C, symBinAddr: 0x5629C, symSize: 0x5C }
  - { offsetInCU: 0x1DE02, offset: 0x42C867, size: 0x8, addend: 0x0, symName: __ZN3tns7RuntimeD2Ev, symObjAddr: 0x1E8, symBinAddr: 0x562F8, symSize: 0x340 }
  - { offsetInCU: 0x1EA82, offset: 0x42D4E7, size: 0x8, addend: 0x0, symName: __ZN3tns13ConcurrentMapIiNSt3__110shared_ptrINS_6Caches11WorkerStateEEEE7ForEachERKNS1_8functionIFbRiRS5_EEE, symObjAddr: 0x590, symBinAddr: 0x56694, symSize: 0x170 }
  - { offsetInCU: 0x1EFB4, offset: 0x42DA19, size: 0x8, addend: 0x0, symName: __ZN10robin_hood6detail5TableILb1ELm80EiNSt3__110shared_ptrIN3tns6Caches11WorkerStateEEENS_4hashIivEENS2_8equal_toIiEEE5eraseERKi, symObjAddr: 0x2484, symBinAddr: 0x58224, symSize: 0xC4 }
  - { offsetInCU: 0x1F0DE, offset: 0x42DB43, size: 0x8, addend: 0x0, symName: __ZNSt3__110shared_ptrIN3tns13ConcurrentMapIiNS0_INS1_6Caches11WorkerStateEEEEEED2B7v160006Ev, symObjAddr: 0x21CC, symBinAddr: 0x580F8, symSize: 0x58 }
  - { offsetInCU: 0x1F163, offset: 0x42DBC8, size: 0x8, addend: 0x0, symName: __ZNKSt3__114default_deleteIN3tns14ModuleInternalEEclB7v160006EPS2_, symObjAddr: 0x1FEC, symBinAddr: 0x57F70, symSize: 0x5C }
  - { offsetInCU: 0x1F486, offset: 0x42DEEB, size: 0x8, addend: 0x0, symName: __ZN10robin_hood6detail5TableILb1ELm80EiNSt3__110shared_ptrIN3tns6Caches11WorkerStateEEENS_4hashIivEENS2_8equal_toIiEEE5beginEv, symObjAddr: 0x2224, symBinAddr: 0x58150, symSize: 0x48 }
  - { offsetInCU: 0x1F4B0, offset: 0x42DF15, size: 0x8, addend: 0x0, symName: __ZN10robin_hood6detail5TableILb1ELm80EiNSt3__110shared_ptrIN3tns6Caches11WorkerStateEEENS_4hashIivEENS2_8equal_toIiEEE5beginEv, symObjAddr: 0x2224, symBinAddr: 0x58150, symSize: 0x48 }
  - { offsetInCU: 0x1F5C4, offset: 0x42E029, size: 0x8, addend: 0x0, symName: __ZN3tns7Runtime10GetRuntimeEPN2v87IsolateE, symObjAddr: 0x704, symBinAddr: 0x56808, symSize: 0x8 }
  - { offsetInCU: 0x1F5EE, offset: 0x42E053, size: 0x8, addend: 0x0, symName: __ZN3tns7Runtime10GetRuntimeEPN2v87IsolateE, symObjAddr: 0x704, symBinAddr: 0x56808, symSize: 0x8 }
  - { offsetInCU: 0x1F610, offset: 0x42E075, size: 0x8, addend: 0x0, symName: __ZN3tns7Runtime10GetRuntimeEPN2v87IsolateE, symObjAddr: 0x704, symBinAddr: 0x56808, symSize: 0x8 }
  - { offsetInCU: 0x1FECE, offset: 0x42E933, size: 0x8, addend: 0x0, symName: __ZN3tns7Runtime13CreateIsolateEv, symObjAddr: 0x70C, symBinAddr: 0x56810, symSize: 0x2CC }
  - { offsetInCU: 0x20BBC, offset: 0x42F621, size: 0x8, addend: 0x0, symName: __ZNSt3__110shared_ptrIN2v88PlatformEEaSB7v160006IS2_NS_14default_deleteIS2_EEvEERS3_ONS_10unique_ptrIT_T0_EE, symObjAddr: 0x9D8, symBinAddr: 0x56ADC, symSize: 0x98 }
  - { offsetInCU: 0x20FFB, offset: 0x42FA60, size: 0x8, addend: 0x0, symName: __ZNKSt3__16vectorIPN2v87IsolateENS_9allocatorIS3_EEE20__throw_length_errorB7v160006Ev, symObjAddr: 0x27A4, symBinAddr: 0x583BC, symSize: 0x14 }
  - { offsetInCU: 0x21024, offset: 0x42FA89, size: 0x8, addend: 0x0, symName: __ZNSt3__119__allocate_at_leastB7v160006INS_9allocatorIPN2v87IsolateEEEEENS_19__allocation_resultINS_16allocator_traitsIT_E7pointerEEERS8_m, symObjAddr: 0x27B8, symBinAddr: 0x583D0, symSize: 0x34 }
  - { offsetInCU: 0x21368, offset: 0x42FDCD, size: 0x8, addend: 0x0, symName: __ZN3tns7Runtime4InitEPN2v87IsolateEb, symObjAddr: 0xA70, symBinAddr: 0x56B74, symSize: 0x394 }
  - { offsetInCU: 0x21AC2, offset: 0x430527, size: 0x8, addend: 0x0, symName: __ZNSt3__18functionIFN2v85LocalINS1_16FunctionTemplateEEENS2_INS1_7ContextEEEPKN3tns13BaseClassMetaENS7_21KnownUnknownClassPairERKNS_6vectorINS_12basic_stringIcNS_11char_traitsIcEENS_9allocatorIcEEEENSG_ISI_EEEEEEaSIRSN_vEERSO_OT_, symObjAddr: 0xE04, symBinAddr: 0x56F08, symSize: 0xA4 }
  - { offsetInCU: 0x21CC8, offset: 0x43072D, size: 0x8, addend: 0x0, symName: __ZNSt3__18functionIFN2v85LocalINS1_8FunctionEEENS2_INS1_7ContextEEEN3tns10StructInfoEEEaSIRS9_vEERSA_OT_, symObjAddr: 0xEA8, symBinAddr: 0x56FAC, symSize: 0xA4 }
  - { offsetInCU: 0x21EC9, offset: 0x43092E, size: 0x8, addend: 0x0, symName: __ZN3tns7Runtime25DefineNativeScriptVersionEPN2v87IsolateENS1_5LocalINS1_14ObjectTemplateEEE, symObjAddr: 0xF4C, symBinAddr: 0x57050, symSize: 0x134 }
  - { offsetInCU: 0x22598, offset: 0x430FFD, size: 0x8, addend: 0x0, symName: __ZN3tns7Runtime23DefinePerformanceObjectEPN2v87IsolateENS1_5LocalINS1_14ObjectTemplateEEE, symObjAddr: 0x1080, symBinAddr: 0x57184, symSize: 0x17C }
  - { offsetInCU: 0x22A54, offset: 0x4314B9, size: 0x8, addend: 0x0, symName: __ZN3tns7Runtime16DefineTimeMethodEPN2v87IsolateENS1_5LocalINS1_14ObjectTemplateEEE, symObjAddr: 0x11FC, symBinAddr: 0x57300, symSize: 0xF0 }
  - { offsetInCU: 0x22E23, offset: 0x431888, size: 0x8, addend: 0x0, symName: __ZN3tns7Runtime26DefineDrainMicrotaskMethodEPN2v87IsolateENS1_5LocalINS1_14ObjectTemplateEEE, symObjAddr: 0x12EC, symBinAddr: 0x573F0, symSize: 0xF0 }
  - { offsetInCU: 0x231F2, offset: 0x431C57, size: 0x8, addend: 0x0, symName: __ZN3tns7Runtime18DefineGlobalObjectEN2v85LocalINS1_7ContextEEEb, symObjAddr: 0x13DC, symBinAddr: 0x574E0, symSize: 0x214 }
  - { offsetInCU: 0x239D3, offset: 0x432438, size: 0x8, addend: 0x0, symName: __ZN3tns7Runtime21DefineCollectFunctionEN2v85LocalINS1_7ContextEEE, symObjAddr: 0x15F0, symBinAddr: 0x576F4, symSize: 0x1D8 }
  - { offsetInCU: 0x244C7, offset: 0x432F2C, size: 0x8, addend: 0x0, symName: __ZNSt3__110__function12__value_funcIFN2v85LocalINS2_16FunctionTemplateEEENS3_INS2_7ContextEEEPKN3tns13BaseClassMetaENS8_21KnownUnknownClassPairERKNS_6vectorINS_12basic_stringIcNS_11char_traitsIcEENS_9allocatorIcEEEENSH_ISJ_EEEEEE4swapB7v160006ERSP_, symObjAddr: 0x2860, symBinAddr: 0x58478, symSize: 0x16C }
  - { offsetInCU: 0x2481B, offset: 0x433280, size: 0x8, addend: 0x0, symName: __ZNSt3__110__function12__value_funcIFN2v85LocalINS2_8FunctionEEENS3_INS2_7ContextEEEN3tns10StructInfoEEE4swapB7v160006ERSB_, symObjAddr: 0x2BAC, symBinAddr: 0x586F8, symSize: 0x16C }
  - { offsetInCU: 0x249F2, offset: 0x433457, size: 0x8, addend: 0x0, symName: __ZN3tns7Runtime13RunMainScriptEv, symObjAddr: 0x17C8, symBinAddr: 0x578CC, symSize: 0xE8 }
  - { offsetInCU: 0x24DD0, offset: 0x433835, size: 0x8, addend: 0x0, symName: __ZN3tns7Runtime10GetIsolateEv, symObjAddr: 0x18B0, symBinAddr: 0x579B4, symSize: 0x8 }
  - { offsetInCU: 0x24DF2, offset: 0x433857, size: 0x8, addend: 0x0, symName: __ZN3tns7Runtime9RunModuleENSt3__112basic_stringIcNS1_11char_traitsIcEENS1_9allocatorIcEEEE, symObjAddr: 0x18B8, symBinAddr: 0x579BC, symSize: 0xCC }
  - { offsetInCU: 0x25162, offset: 0x433BC7, size: 0x8, addend: 0x0, symName: __ZN3tns7Runtime9RunScriptENSt3__112basic_stringIcNS1_11char_traitsIcEENS1_9allocatorIcEEEE, symObjAddr: 0x1984, symBinAddr: 0x57A88, symSize: 0xF0 }
  - { offsetInCU: 0x2551C, offset: 0x433F81, size: 0x8, addend: 0x0, symName: __ZN3tns7Runtime8WorkerIdEv, symObjAddr: 0x1A74, symBinAddr: 0x57B78, symSize: 0x8 }
  - { offsetInCU: 0x25545, offset: 0x433FAA, size: 0x8, addend: 0x0, symName: __ZN3tns7Runtime11SetWorkerIdEi, symObjAddr: 0x1A7C, symBinAddr: 0x57B80, symSize: 0x8 }
  - { offsetInCU: 0x2558E, offset: 0x433FF3, size: 0x8, addend: 0x0, symName: __ZN3tns7Runtime17GetAppConfigValueENSt3__112basic_stringIcNS1_11char_traitsIcEENS1_9allocatorIcEEEE, symObjAddr: 0x1A84, symBinAddr: 0x57B88, symSize: 0xE4 }
  - { offsetInCU: 0x257E0, offset: 0x434245, size: 0x8, addend: 0x0, symName: __ZN3tns7Runtime22PerformanceNowCallbackERKN2v820FunctionCallbackInfoINS1_5ValueEEE, symObjAddr: 0x1B68, symBinAddr: 0x57C6C, symSize: 0x60 }
  - { offsetInCU: 0x25915, offset: 0x43437A, size: 0x8, addend: 0x0, symName: __ZN3tns7Runtime7IsAliveEPKN2v87IsolateE, symObjAddr: 0x1BC8, symBinAddr: 0x57CCC, symSize: 0x164 }
  - { offsetInCU: 0x25D58, offset: 0x4347BD, size: 0x8, addend: 0x0, symName: __ZNSt3__110shared_ptrIN2v88PlatformEED1B7v160006Ev, symObjAddr: 0x1D2C, symBinAddr: 0x57E30, symSize: 0x4 }
  - { offsetInCU: 0x25D7A, offset: 0x4347DF, size: 0x8, addend: 0x0, symName: __ZNSt3__110shared_ptrIN2v88PlatformEED1B7v160006Ev, symObjAddr: 0x1D2C, symBinAddr: 0x57E30, symSize: 0x4 }
  - { offsetInCU: 0x25E1A, offset: 0x43487F, size: 0x8, addend: 0x0, symName: __ZNSt3__16vectorIPN2v87IsolateENS_9allocatorIS3_EEED1B7v160006Ev, symObjAddr: 0x1D30, symBinAddr: 0x57E34, symSize: 0x30 }
  - { offsetInCU: 0x26243, offset: 0x434CA8, size: 0x8, addend: 0x0, symName: __ZNSt3__120__shared_ptr_emplaceIN3tns6CachesENS_9allocatorIS2_EEEC2B7v160006IJRPN2v87IsolateERKiEEES4_DpOT_, symObjAddr: 0x1EE8, symBinAddr: 0x57EC4, symSize: 0x50 }
  - { offsetInCU: 0x26346, offset: 0x434DAB, size: 0x8, addend: 0x0, symName: '__ZZN3tns7Runtime16DefineTimeMethodEPN2v87IsolateENS1_5LocalINS1_14ObjectTemplateEEEEN3$_18__invokeERKNS1_20FunctionCallbackInfoINS1_5ValueEEE', symObjAddr: 0x1F38, symBinAddr: 0x57F14, symSize: 0x50 }
  - { offsetInCU: 0x26479, offset: 0x434EDE, size: 0x8, addend: 0x0, symName: '__ZZN3tns7Runtime26DefineDrainMicrotaskMethodEPN2v87IsolateENS1_5LocalINS1_14ObjectTemplateEEEEN3$_28__invokeERKNS1_20FunctionCallbackInfoINS1_5ValueEEE', symObjAddr: 0x1F88, symBinAddr: 0x57F64, symSize: 0xC }
  - { offsetInCU: 0x264A6, offset: 0x434F0B, size: 0x8, addend: 0x0, symName: '__ZZN3tns7Runtime26DefineDrainMicrotaskMethodEPN2v87IsolateENS1_5LocalINS1_14ObjectTemplateEEEEN3$_28__invokeERKNS1_20FunctionCallbackInfoINS1_5ValueEEE', symObjAddr: 0x1F88, symBinAddr: 0x57F64, symSize: 0xC }
  - { offsetInCU: 0x264C6, offset: 0x434F2B, size: 0x8, addend: 0x0, symName: '__ZZN3tns7Runtime26DefineDrainMicrotaskMethodEPN2v87IsolateENS1_5LocalINS1_14ObjectTemplateEEEEN3$_28__invokeERKNS1_20FunctionCallbackInfoINS1_5ValueEEE', symObjAddr: 0x1F88, symBinAddr: 0x57F64, symSize: 0xC }
  - { offsetInCU: 0x265D4, offset: 0x435039, size: 0x8, addend: 0x0, symName: __ZN10robin_hood6detail5TableILb1ELm80ENSt3__112basic_stringIcNS2_11char_traitsIcEENS2_9allocatorIcEEEENS2_10shared_ptrIN2v810PersistentINSA_6ObjectENSA_27NonCopyablePersistentTraitsISC_EEEEEENS_4hashIS8_vEENS2_8equal_toIS8_EEE7destroyEv, symObjAddr: 0x2048, symBinAddr: 0x57FCC, symSize: 0x4C }
  - { offsetInCU: 0x26613, offset: 0x435078, size: 0x8, addend: 0x0, symName: __ZNK10robin_hood6detail5TableILb1ELm80ENSt3__112basic_stringIcNS2_11char_traitsIcEENS2_9allocatorIcEEEENS2_10shared_ptrIN2v810PersistentINSA_6ObjectENSA_27NonCopyablePersistentTraitsISC_EEEEEENS_4hashIS8_vEENS2_8equal_toIS8_EEE9DestroyerISL_Lb0EE20nodesDoNotDeallocateERSL_, symObjAddr: 0x2094, symBinAddr: 0x58018, symSize: 0xE0 }
  - { offsetInCU: 0x26AC0, offset: 0x435525, size: 0x8, addend: 0x0, symName: '__ZNSt3__110__function6__funcIZN3tns7RuntimeD1EvE3$_0NS_9allocatorIS4_EEFbRiRNS_10shared_ptrINS2_6Caches11WorkerStateEEEEED1Ev', symObjAddr: 0x22B8, symBinAddr: 0x58198, symSize: 0x4 }
  - { offsetInCU: 0x26AEB, offset: 0x435550, size: 0x8, addend: 0x0, symName: '__ZNSt3__110__function6__funcIZN3tns7RuntimeD1EvE3$_0NS_9allocatorIS4_EEFbRiRNS_10shared_ptrINS2_6Caches11WorkerStateEEEEED0Ev', symObjAddr: 0x22BC, symBinAddr: 0x5819C, symSize: 0x4 }
  - { offsetInCU: 0x26CEF, offset: 0x435754, size: 0x8, addend: 0x0, symName: '__ZNKSt3__110__function6__funcIZN3tns7RuntimeD1EvE3$_0NS_9allocatorIS4_EEFbRiRNS_10shared_ptrINS2_6Caches11WorkerStateEEEEE7__cloneEv', symObjAddr: 0x22C0, symBinAddr: 0x581A0, symSize: 0x34 }
  - { offsetInCU: 0x26FED, offset: 0x435A52, size: 0x8, addend: 0x0, symName: '__ZNKSt3__110__function6__funcIZN3tns7RuntimeD1EvE3$_0NS_9allocatorIS4_EEFbRiRNS_10shared_ptrINS2_6Caches11WorkerStateEEEEE7__cloneEPNS0_6__baseISD_EE', symObjAddr: 0x22F4, symBinAddr: 0x581D4, symSize: 0x14 }
  - { offsetInCU: 0x27025, offset: 0x435A8A, size: 0x8, addend: 0x0, symName: '__ZNKSt3__110__function6__funcIZN3tns7RuntimeD1EvE3$_0NS_9allocatorIS4_EEFbRiRNS_10shared_ptrINS2_6Caches11WorkerStateEEEEE7__cloneEPNS0_6__baseISD_EE', symObjAddr: 0x22F4, symBinAddr: 0x581D4, symSize: 0x14 }
  - { offsetInCU: 0x27054, offset: 0x435AB9, size: 0x8, addend: 0x0, symName: '__ZNKSt3__110__function6__funcIZN3tns7RuntimeD1EvE3$_0NS_9allocatorIS4_EEFbRiRNS_10shared_ptrINS2_6Caches11WorkerStateEEEEE7__cloneEPNS0_6__baseISD_EE', symObjAddr: 0x22F4, symBinAddr: 0x581D4, symSize: 0x14 }
  - { offsetInCU: 0x27083, offset: 0x435AE8, size: 0x8, addend: 0x0, symName: '__ZNKSt3__110__function6__funcIZN3tns7RuntimeD1EvE3$_0NS_9allocatorIS4_EEFbRiRNS_10shared_ptrINS2_6Caches11WorkerStateEEEEE7__cloneEPNS0_6__baseISD_EE', symObjAddr: 0x22F4, symBinAddr: 0x581D4, symSize: 0x14 }
  - { offsetInCU: 0x27099, offset: 0x435AFE, size: 0x8, addend: 0x0, symName: '__ZNKSt3__110__function6__funcIZN3tns7RuntimeD1EvE3$_0NS_9allocatorIS4_EEFbRiRNS_10shared_ptrINS2_6Caches11WorkerStateEEEEE7__cloneEPNS0_6__baseISD_EE', symObjAddr: 0x22F4, symBinAddr: 0x581D4, symSize: 0x14 }
  - { offsetInCU: 0x270AD, offset: 0x435B12, size: 0x8, addend: 0x0, symName: '__ZNKSt3__110__function6__funcIZN3tns7RuntimeD1EvE3$_0NS_9allocatorIS4_EEFbRiRNS_10shared_ptrINS2_6Caches11WorkerStateEEEEE7__cloneEPNS0_6__baseISD_EE', symObjAddr: 0x22F4, symBinAddr: 0x581D4, symSize: 0x14 }
  - { offsetInCU: 0x270C1, offset: 0x435B26, size: 0x8, addend: 0x0, symName: '__ZNKSt3__110__function6__funcIZN3tns7RuntimeD1EvE3$_0NS_9allocatorIS4_EEFbRiRNS_10shared_ptrINS2_6Caches11WorkerStateEEEEE7__cloneEPNS0_6__baseISD_EE', symObjAddr: 0x22F4, symBinAddr: 0x581D4, symSize: 0x14 }
  - { offsetInCU: 0x270D5, offset: 0x435B3A, size: 0x8, addend: 0x0, symName: '__ZNKSt3__110__function6__funcIZN3tns7RuntimeD1EvE3$_0NS_9allocatorIS4_EEFbRiRNS_10shared_ptrINS2_6Caches11WorkerStateEEEEE7__cloneEPNS0_6__baseISD_EE', symObjAddr: 0x22F4, symBinAddr: 0x581D4, symSize: 0x14 }
  - { offsetInCU: 0x270ED, offset: 0x435B52, size: 0x8, addend: 0x0, symName: '__ZNSt3__110__function6__funcIZN3tns7RuntimeD1EvE3$_0NS_9allocatorIS4_EEFbRiRNS_10shared_ptrINS2_6Caches11WorkerStateEEEEE7destroyEv', symObjAddr: 0x2308, symBinAddr: 0x581E8, symSize: 0x4 }
  - { offsetInCU: 0x2713C, offset: 0x435BA1, size: 0x8, addend: 0x0, symName: '__ZNSt3__110__function6__funcIZN3tns7RuntimeD1EvE3$_0NS_9allocatorIS4_EEFbRiRNS_10shared_ptrINS2_6Caches11WorkerStateEEEEE18destroy_deallocateEv', symObjAddr: 0x230C, symBinAddr: 0x581EC, symSize: 0x4 }
  - { offsetInCU: 0x27172, offset: 0x435BD7, size: 0x8, addend: 0x0, symName: '__ZNSt3__110__function6__funcIZN3tns7RuntimeD1EvE3$_0NS_9allocatorIS4_EEFbRiRNS_10shared_ptrINS2_6Caches11WorkerStateEEEEE18destroy_deallocateEv', symObjAddr: 0x230C, symBinAddr: 0x581EC, symSize: 0x4 }
  - { offsetInCU: 0x27196, offset: 0x435BFB, size: 0x8, addend: 0x0, symName: '__ZNSt3__110__function6__funcIZN3tns7RuntimeD1EvE3$_0NS_9allocatorIS4_EEFbRiRNS_10shared_ptrINS2_6Caches11WorkerStateEEEEE18destroy_deallocateEv', symObjAddr: 0x230C, symBinAddr: 0x581EC, symSize: 0x4 }
  - { offsetInCU: 0x271C2, offset: 0x435C27, size: 0x8, addend: 0x0, symName: '__ZNSt3__110__function6__funcIZN3tns7RuntimeD1EvE3$_0NS_9allocatorIS4_EEFbRiRNS_10shared_ptrINS2_6Caches11WorkerStateEEEEE18destroy_deallocateEv', symObjAddr: 0x230C, symBinAddr: 0x581EC, symSize: 0x4 }
  - { offsetInCU: 0x271E9, offset: 0x435C4E, size: 0x8, addend: 0x0, symName: '__ZNSt3__110__function6__funcIZN3tns7RuntimeD1EvE3$_0NS_9allocatorIS4_EEFbRiRNS_10shared_ptrINS2_6Caches11WorkerStateEEEEE18destroy_deallocateEv', symObjAddr: 0x230C, symBinAddr: 0x581EC, symSize: 0x4 }
  - { offsetInCU: 0x272F4, offset: 0x435D59, size: 0x8, addend: 0x0, symName: '__ZNSt3__110__function6__funcIZN3tns7RuntimeD1EvE3$_0NS_9allocatorIS4_EEFbRiRNS_10shared_ptrINS2_6Caches11WorkerStateEEEEEclES7_SC_', symObjAddr: 0x2310, symBinAddr: 0x581F0, symSize: 0x34 }
  - { offsetInCU: 0x27513, offset: 0x435F78, size: 0x8, addend: 0x0, symName: __ZN10robin_hood6detail5TableILb1ELm80EiNSt3__110shared_ptrIN3tns6Caches11WorkerStateEEENS_4hashIivEENS2_8equal_toIiEEE9shiftDownEm, symObjAddr: 0x2548, symBinAddr: 0x582E8, symSize: 0xA0 }
  - { offsetInCU: 0x27800, offset: 0x436265, size: 0x8, addend: 0x0, symName: __ZNSt3__120__shared_ptr_pointerIPN2v88PlatformENS_14default_deleteIS2_EENS_9allocatorIS2_EEED1Ev, symObjAddr: 0x264C, symBinAddr: 0x58388, symSize: 0x4 }
  - { offsetInCU: 0x27822, offset: 0x436287, size: 0x8, addend: 0x0, symName: __ZNSt3__120__shared_ptr_pointerIPN2v88PlatformENS_14default_deleteIS2_EENS_9allocatorIS2_EEED1Ev, symObjAddr: 0x264C, symBinAddr: 0x58388, symSize: 0x4 }
  - { offsetInCU: 0x27855, offset: 0x4362BA, size: 0x8, addend: 0x0, symName: __ZNSt3__120__shared_ptr_pointerIPN2v88PlatformENS_14default_deleteIS2_EENS_9allocatorIS2_EEED0Ev, symObjAddr: 0x2650, symBinAddr: 0x5838C, symSize: 0x14 }
  - { offsetInCU: 0x278B7, offset: 0x43631C, size: 0x8, addend: 0x0, symName: __ZNSt3__120__shared_ptr_pointerIPN2v88PlatformENS_14default_deleteIS2_EENS_9allocatorIS2_EEE16__on_zero_sharedEv, symObjAddr: 0x2664, symBinAddr: 0x583A0, symSize: 0x18 }
  - { offsetInCU: 0x2795F, offset: 0x4363C4, size: 0x8, addend: 0x0, symName: __ZNSt3__120__shared_ptr_pointerIPN2v88PlatformENS_14default_deleteIS2_EENS_9allocatorIS2_EEE21__on_zero_shared_weakEv, symObjAddr: 0x267C, symBinAddr: 0x583B8, symSize: 0x4 }
  - { offsetInCU: 0x27994, offset: 0x4363F9, size: 0x8, addend: 0x0, symName: __ZNSt3__120__shared_ptr_pointerIPN2v88PlatformENS_14default_deleteIS2_EENS_9allocatorIS2_EEE21__on_zero_shared_weakEv, symObjAddr: 0x267C, symBinAddr: 0x583B8, symSize: 0x4 }
  - { offsetInCU: 0x279B8, offset: 0x43641D, size: 0x8, addend: 0x0, symName: __ZNSt3__120__shared_ptr_pointerIPN2v88PlatformENS_14default_deleteIS2_EENS_9allocatorIS2_EEE21__on_zero_shared_weakEv, symObjAddr: 0x267C, symBinAddr: 0x583B8, symSize: 0x4 }
  - { offsetInCU: 0x279E4, offset: 0x436449, size: 0x8, addend: 0x0, symName: __ZNSt3__120__shared_ptr_pointerIPN2v88PlatformENS_14default_deleteIS2_EENS_9allocatorIS2_EEE21__on_zero_shared_weakEv, symObjAddr: 0x267C, symBinAddr: 0x583B8, symSize: 0x4 }
  - { offsetInCU: 0x27A0B, offset: 0x436470, size: 0x8, addend: 0x0, symName: __ZNSt3__120__shared_ptr_pointerIPN2v88PlatformENS_14default_deleteIS2_EENS_9allocatorIS2_EEE21__on_zero_shared_weakEv, symObjAddr: 0x267C, symBinAddr: 0x583B8, symSize: 0x4 }
  - { offsetInCU: 0x27C80, offset: 0x4366E5, size: 0x8, addend: 0x0, symName: __ZNSt3__110__function6__funcIPFN2v85LocalINS2_16FunctionTemplateEEENS3_INS2_7ContextEEEPKN3tns13BaseClassMetaENS8_21KnownUnknownClassPairERKNS_6vectorINS_12basic_stringIcNS_11char_traitsIcEENS_9allocatorIcEEEENSH_ISJ_EEEEENSH_ISP_EESO_ED1Ev, symObjAddr: 0x27EC, symBinAddr: 0x58404, symSize: 0x4 }
  - { offsetInCU: 0x27CAB, offset: 0x436710, size: 0x8, addend: 0x0, symName: __ZNSt3__110__function6__funcIPFN2v85LocalINS2_16FunctionTemplateEEENS3_INS2_7ContextEEEPKN3tns13BaseClassMetaENS8_21KnownUnknownClassPairERKNS_6vectorINS_12basic_stringIcNS_11char_traitsIcEENS_9allocatorIcEEEENSH_ISJ_EEEEENSH_ISP_EESO_ED0Ev, symObjAddr: 0x27F0, symBinAddr: 0x58408, symSize: 0x4 }
  - { offsetInCU: 0x27EAF, offset: 0x436914, size: 0x8, addend: 0x0, symName: __ZNKSt3__110__function6__funcIPFN2v85LocalINS2_16FunctionTemplateEEENS3_INS2_7ContextEEEPKN3tns13BaseClassMetaENS8_21KnownUnknownClassPairERKNS_6vectorINS_12basic_stringIcNS_11char_traitsIcEENS_9allocatorIcEEEENSH_ISJ_EEEEENSH_ISP_EESO_E7__cloneEv, symObjAddr: 0x27F4, symBinAddr: 0x5840C, symSize: 0x38 }
  - { offsetInCU: 0x281AD, offset: 0x436C12, size: 0x8, addend: 0x0, symName: __ZNKSt3__110__function6__funcIPFN2v85LocalINS2_16FunctionTemplateEEENS3_INS2_7ContextEEEPKN3tns13BaseClassMetaENS8_21KnownUnknownClassPairERKNS_6vectorINS_12basic_stringIcNS_11char_traitsIcEENS_9allocatorIcEEEENSH_ISJ_EEEEENSH_ISP_EESO_E7__cloneEPNS0_6__baseISO_EE, symObjAddr: 0x282C, symBinAddr: 0x58444, symSize: 0x18 }
  - { offsetInCU: 0x281E5, offset: 0x436C4A, size: 0x8, addend: 0x0, symName: __ZNKSt3__110__function6__funcIPFN2v85LocalINS2_16FunctionTemplateEEENS3_INS2_7ContextEEEPKN3tns13BaseClassMetaENS8_21KnownUnknownClassPairERKNS_6vectorINS_12basic_stringIcNS_11char_traitsIcEENS_9allocatorIcEEEENSH_ISJ_EEEEENSH_ISP_EESO_E7__cloneEPNS0_6__baseISO_EE, symObjAddr: 0x282C, symBinAddr: 0x58444, symSize: 0x18 }
  - { offsetInCU: 0x28214, offset: 0x436C79, size: 0x8, addend: 0x0, symName: __ZNKSt3__110__function6__funcIPFN2v85LocalINS2_16FunctionTemplateEEENS3_INS2_7ContextEEEPKN3tns13BaseClassMetaENS8_21KnownUnknownClassPairERKNS_6vectorINS_12basic_stringIcNS_11char_traitsIcEENS_9allocatorIcEEEENSH_ISJ_EEEEENSH_ISP_EESO_E7__cloneEPNS0_6__baseISO_EE, symObjAddr: 0x282C, symBinAddr: 0x58444, symSize: 0x18 }
  - { offsetInCU: 0x282AD, offset: 0x436D12, size: 0x8, addend: 0x0, symName: __ZNSt3__110__function6__funcIPFN2v85LocalINS2_16FunctionTemplateEEENS3_INS2_7ContextEEEPKN3tns13BaseClassMetaENS8_21KnownUnknownClassPairERKNS_6vectorINS_12basic_stringIcNS_11char_traitsIcEENS_9allocatorIcEEEENSH_ISJ_EEEEENSH_ISP_EESO_E7destroyEv, symObjAddr: 0x2844, symBinAddr: 0x5845C, symSize: 0x4 }
  - { offsetInCU: 0x282FE, offset: 0x436D63, size: 0x8, addend: 0x0, symName: __ZNSt3__110__function6__funcIPFN2v85LocalINS2_16FunctionTemplateEEENS3_INS2_7ContextEEEPKN3tns13BaseClassMetaENS8_21KnownUnknownClassPairERKNS_6vectorINS_12basic_stringIcNS_11char_traitsIcEENS_9allocatorIcEEEENSH_ISJ_EEEEENSH_ISP_EESO_E18destroy_deallocateEv, symObjAddr: 0x2848, symBinAddr: 0x58460, symSize: 0x4 }
  - { offsetInCU: 0x28334, offset: 0x436D99, size: 0x8, addend: 0x0, symName: __ZNSt3__110__function6__funcIPFN2v85LocalINS2_16FunctionTemplateEEENS3_INS2_7ContextEEEPKN3tns13BaseClassMetaENS8_21KnownUnknownClassPairERKNS_6vectorINS_12basic_stringIcNS_11char_traitsIcEENS_9allocatorIcEEEENSH_ISJ_EEEEENSH_ISP_EESO_E18destroy_deallocateEv, symObjAddr: 0x2848, symBinAddr: 0x58460, symSize: 0x4 }
  - { offsetInCU: 0x28358, offset: 0x436DBD, size: 0x8, addend: 0x0, symName: __ZNSt3__110__function6__funcIPFN2v85LocalINS2_16FunctionTemplateEEENS3_INS2_7ContextEEEPKN3tns13BaseClassMetaENS8_21KnownUnknownClassPairERKNS_6vectorINS_12basic_stringIcNS_11char_traitsIcEENS_9allocatorIcEEEENSH_ISJ_EEEEENSH_ISP_EESO_E18destroy_deallocateEv, symObjAddr: 0x2848, symBinAddr: 0x58460, symSize: 0x4 }
  - { offsetInCU: 0x28384, offset: 0x436DE9, size: 0x8, addend: 0x0, symName: __ZNSt3__110__function6__funcIPFN2v85LocalINS2_16FunctionTemplateEEENS3_INS2_7ContextEEEPKN3tns13BaseClassMetaENS8_21KnownUnknownClassPairERKNS_6vectorINS_12basic_stringIcNS_11char_traitsIcEENS_9allocatorIcEEEENSH_ISJ_EEEEENSH_ISP_EESO_E18destroy_deallocateEv, symObjAddr: 0x2848, symBinAddr: 0x58460, symSize: 0x4 }
  - { offsetInCU: 0x283AB, offset: 0x436E10, size: 0x8, addend: 0x0, symName: __ZNSt3__110__function6__funcIPFN2v85LocalINS2_16FunctionTemplateEEENS3_INS2_7ContextEEEPKN3tns13BaseClassMetaENS8_21KnownUnknownClassPairERKNS_6vectorINS_12basic_stringIcNS_11char_traitsIcEENS_9allocatorIcEEEENSH_ISJ_EEEEENSH_ISP_EESO_E18destroy_deallocateEv, symObjAddr: 0x2848, symBinAddr: 0x58460, symSize: 0x4 }
  - { offsetInCU: 0x28484, offset: 0x436EE9, size: 0x8, addend: 0x0, symName: __ZNSt3__110__function6__funcIPFN2v85LocalINS2_16FunctionTemplateEEENS3_INS2_7ContextEEEPKN3tns13BaseClassMetaENS8_21KnownUnknownClassPairERKNS_6vectorINS_12basic_stringIcNS_11char_traitsIcEENS_9allocatorIcEEEENSH_ISJ_EEEEENSH_ISP_EESO_EclEOS7_OSB_OSC_SN_, symObjAddr: 0x284C, symBinAddr: 0x58464, symSize: 0x14 }
  - { offsetInCU: 0x284F2, offset: 0x436F57, size: 0x8, addend: 0x0, symName: __ZNSt3__110__function6__funcIPFN2v85LocalINS2_16FunctionTemplateEEENS3_INS2_7ContextEEEPKN3tns13BaseClassMetaENS8_21KnownUnknownClassPairERKNS_6vectorINS_12basic_stringIcNS_11char_traitsIcEENS_9allocatorIcEEEENSH_ISJ_EEEEENSH_ISP_EESO_EclEOS7_OSB_OSC_SN_, symObjAddr: 0x284C, symBinAddr: 0x58464, symSize: 0x14 }
  - { offsetInCU: 0x28537, offset: 0x436F9C, size: 0x8, addend: 0x0, symName: __ZNSt3__110__function6__funcIPFN2v85LocalINS2_16FunctionTemplateEEENS3_INS2_7ContextEEEPKN3tns13BaseClassMetaENS8_21KnownUnknownClassPairERKNS_6vectorINS_12basic_stringIcNS_11char_traitsIcEENS_9allocatorIcEEEENSH_ISJ_EEEEENSH_ISP_EESO_EclEOS7_OSB_OSC_SN_, symObjAddr: 0x284C, symBinAddr: 0x58464, symSize: 0x14 }
  - { offsetInCU: 0x2857A, offset: 0x436FDF, size: 0x8, addend: 0x0, symName: __ZNSt3__110__function6__funcIPFN2v85LocalINS2_16FunctionTemplateEEENS3_INS2_7ContextEEEPKN3tns13BaseClassMetaENS8_21KnownUnknownClassPairERKNS_6vectorINS_12basic_stringIcNS_11char_traitsIcEENS_9allocatorIcEEEENSH_ISJ_EEEEENSH_ISP_EESO_EclEOS7_OSB_OSC_SN_, symObjAddr: 0x284C, symBinAddr: 0x58464, symSize: 0x14 }
  - { offsetInCU: 0x285D0, offset: 0x437035, size: 0x8, addend: 0x0, symName: __ZNSt3__110__function6__funcIPFN2v85LocalINS2_8FunctionEEENS3_INS2_7ContextEEEN3tns10StructInfoEENS_9allocatorISB_EESA_ED1Ev, symObjAddr: 0x29CC, symBinAddr: 0x585E4, symSize: 0x4 }
  - { offsetInCU: 0x285FB, offset: 0x437060, size: 0x8, addend: 0x0, symName: __ZNSt3__110__function6__funcIPFN2v85LocalINS2_8FunctionEEENS3_INS2_7ContextEEEN3tns10StructInfoEENS_9allocatorISB_EESA_ED0Ev, symObjAddr: 0x29D0, symBinAddr: 0x585E8, symSize: 0x4 }
  - { offsetInCU: 0x287FF, offset: 0x437264, size: 0x8, addend: 0x0, symName: __ZNKSt3__110__function6__funcIPFN2v85LocalINS2_8FunctionEEENS3_INS2_7ContextEEEN3tns10StructInfoEENS_9allocatorISB_EESA_E7__cloneEv, symObjAddr: 0x29D4, symBinAddr: 0x585EC, symSize: 0x38 }
  - { offsetInCU: 0x28AFD, offset: 0x437562, size: 0x8, addend: 0x0, symName: __ZNKSt3__110__function6__funcIPFN2v85LocalINS2_8FunctionEEENS3_INS2_7ContextEEEN3tns10StructInfoEENS_9allocatorISB_EESA_E7__cloneEPNS0_6__baseISA_EE, symObjAddr: 0x2A0C, symBinAddr: 0x58624, symSize: 0x18 }
  - { offsetInCU: 0x28B35, offset: 0x43759A, size: 0x8, addend: 0x0, symName: __ZNKSt3__110__function6__funcIPFN2v85LocalINS2_8FunctionEEENS3_INS2_7ContextEEEN3tns10StructInfoEENS_9allocatorISB_EESA_E7__cloneEPNS0_6__baseISA_EE, symObjAddr: 0x2A0C, symBinAddr: 0x58624, symSize: 0x18 }
  - { offsetInCU: 0x28B64, offset: 0x4375C9, size: 0x8, addend: 0x0, symName: __ZNKSt3__110__function6__funcIPFN2v85LocalINS2_8FunctionEEENS3_INS2_7ContextEEEN3tns10StructInfoEENS_9allocatorISB_EESA_E7__cloneEPNS0_6__baseISA_EE, symObjAddr: 0x2A0C, symBinAddr: 0x58624, symSize: 0x18 }
  - { offsetInCU: 0x28BFD, offset: 0x437662, size: 0x8, addend: 0x0, symName: __ZNSt3__110__function6__funcIPFN2v85LocalINS2_8FunctionEEENS3_INS2_7ContextEEEN3tns10StructInfoEENS_9allocatorISB_EESA_E7destroyEv, symObjAddr: 0x2A24, symBinAddr: 0x5863C, symSize: 0x4 }
  - { offsetInCU: 0x28C4E, offset: 0x4376B3, size: 0x8, addend: 0x0, symName: __ZNSt3__110__function6__funcIPFN2v85LocalINS2_8FunctionEEENS3_INS2_7ContextEEEN3tns10StructInfoEENS_9allocatorISB_EESA_E18destroy_deallocateEv, symObjAddr: 0x2A28, symBinAddr: 0x58640, symSize: 0x4 }
  - { offsetInCU: 0x28C84, offset: 0x4376E9, size: 0x8, addend: 0x0, symName: __ZNSt3__110__function6__funcIPFN2v85LocalINS2_8FunctionEEENS3_INS2_7ContextEEEN3tns10StructInfoEENS_9allocatorISB_EESA_E18destroy_deallocateEv, symObjAddr: 0x2A28, symBinAddr: 0x58640, symSize: 0x4 }
  - { offsetInCU: 0x28CA8, offset: 0x43770D, size: 0x8, addend: 0x0, symName: __ZNSt3__110__function6__funcIPFN2v85LocalINS2_8FunctionEEENS3_INS2_7ContextEEEN3tns10StructInfoEENS_9allocatorISB_EESA_E18destroy_deallocateEv, symObjAddr: 0x2A28, symBinAddr: 0x58640, symSize: 0x4 }
  - { offsetInCU: 0x28CD4, offset: 0x437739, size: 0x8, addend: 0x0, symName: __ZNSt3__110__function6__funcIPFN2v85LocalINS2_8FunctionEEENS3_INS2_7ContextEEEN3tns10StructInfoEENS_9allocatorISB_EESA_E18destroy_deallocateEv, symObjAddr: 0x2A28, symBinAddr: 0x58640, symSize: 0x4 }
  - { offsetInCU: 0x28CFB, offset: 0x437760, size: 0x8, addend: 0x0, symName: __ZNSt3__110__function6__funcIPFN2v85LocalINS2_8FunctionEEENS3_INS2_7ContextEEEN3tns10StructInfoEENS_9allocatorISB_EESA_E18destroy_deallocateEv, symObjAddr: 0x2A28, symBinAddr: 0x58640, symSize: 0x4 }
  - { offsetInCU: 0x28D50, offset: 0x4377B5, size: 0x8, addend: 0x0, symName: __ZNSt3__110__function6__funcIPFN2v85LocalINS2_8FunctionEEENS3_INS2_7ContextEEEN3tns10StructInfoEENS_9allocatorISB_EESA_EclEOS7_OS9_, symObjAddr: 0x2A2C, symBinAddr: 0x58644, symSize: 0x8 }
  - { offsetInCU: 0x28DD1, offset: 0x437836, size: 0x8, addend: 0x0, symName: __ZNSt3__128__invoke_void_return_wrapperIN2v85LocalINS1_8FunctionEEELb0EE6__callIJRPFS4_NS2_INS1_7ContextEEEN3tns10StructInfoEES8_SA_EEES4_DpOT_, symObjAddr: 0x2A34, symBinAddr: 0x5864C, symSize: 0xAC }
  - { offsetInCU: 0x3F, offset: 0x438424, size: 0x8, addend: 0x0, symName: __ZN4rnv89V8Runtime10s_platformE, symObjAddr: 0x18D738, symBinAddr: 0x1593DB0, symSize: 0x0 }
  - { offsetInCU: 0x9B4, offset: 0x438D99, size: 0x8, addend: 0x0, symName: __ZN4rnv816s_platform_mutexE, symObjAddr: 0x7BE0, symBinAddr: 0xD09228, symSize: 0x0 }
  - { offsetInCU: 0x9D0, offset: 0x438DB5, size: 0x8, addend: 0x0, symName: __ZN4rnv812_GLOBAL__N_122kHostFunctionProxyPropE, symObjAddr: 0x8033, symBinAddr: 0xB9EAE9, symSize: 0x0 }
  - { offsetInCU: 0x6704, offset: 0x43EAE9, size: 0x8, addend: 0x0, symName: __ZNSt3__14endlB7v160006IcNS_11char_traitsIcEEEERNS_13basic_ostreamIT_T0_EES7_, symObjAddr: 0x87C, symBinAddr: 0x59098, symSize: 0x90 }
  - { offsetInCU: 0x6AB6, offset: 0x43EE9B, size: 0x8, addend: 0x0, symName: __ZN4rnv89V8RuntimeC2Ev.cold.1, symObjAddr: 0x67F0, symBinAddr: 0xB98858, symSize: 0x2C }
  - { offsetInCU: 0x9D9D, offset: 0x442182, size: 0x8, addend: 0x0, symName: __ZNSt3__110unique_ptrIN2v88PlatformENS_14default_deleteIS2_EEED1B7v160006Ev, symObjAddr: 0x0, symBinAddr: 0x588FC, symSize: 0x38 }
  - { offsetInCU: 0xA1AA, offset: 0x44258F, size: 0x8, addend: 0x0, symName: __ZN4rnv89V8RuntimeC2Ev, symObjAddr: 0x38, symBinAddr: 0x58934, symSize: 0x164 }
  - { offsetInCU: 0xA544, offset: 0x442929, size: 0x8, addend: 0x0, symName: __ZN4rnv89V8RuntimeC2Ev.cold.1, symObjAddr: 0x67F0, symBinAddr: 0xB98858, symSize: 0x2C }
  - { offsetInCU: 0xA5CF, offset: 0x4429B4, size: 0x8, addend: 0x0, symName: __ZN4rnv89V8RuntimeC1Ev, symObjAddr: 0x19C, symBinAddr: 0x58A98, symSize: 0x4 }
  - { offsetInCU: 0xA5FB, offset: 0x4429E0, size: 0x8, addend: 0x0, symName: __ZN4rnv89V8RuntimeC1Ev, symObjAddr: 0x19C, symBinAddr: 0x58A98, symSize: 0x4 }
  - { offsetInCU: 0xA606, offset: 0x4429EB, size: 0x8, addend: 0x0, symName: __ZN4rnv89V8Runtime10GetIsolateEv, symObjAddr: 0x1A0, symBinAddr: 0x58A9C, symSize: 0x18 }
  - { offsetInCU: 0xA65C, offset: 0x442A41, size: 0x8, addend: 0x0, symName: __ZN4rnv89V8RuntimeD2Ev, symObjAddr: 0x1B8, symBinAddr: 0x58AB4, symSize: 0xB8 }
  - { offsetInCU: 0xA8BF, offset: 0x442CA4, size: 0x8, addend: 0x0, symName: __ZN4rnv89V8RuntimeD1Ev, symObjAddr: 0x27C, symBinAddr: 0x58B6C, symSize: 0x4 }
  - { offsetInCU: 0xA8E1, offset: 0x442CC6, size: 0x8, addend: 0x0, symName: __ZN4rnv89V8RuntimeD1Ev, symObjAddr: 0x27C, symBinAddr: 0x58B6C, symSize: 0x4 }
  - { offsetInCU: 0xA90B, offset: 0x442CF0, size: 0x8, addend: 0x0, symName: __ZN4rnv89V8RuntimeD0Ev, symObjAddr: 0x280, symBinAddr: 0x58B70, symSize: 0x14 }
  - { offsetInCU: 0xA95F, offset: 0x442D44, size: 0x8, addend: 0x0, symName: __ZN4rnv89V8Runtime14OnMainLoopIdleEv, symObjAddr: 0x294, symBinAddr: 0x58B84, symSize: 0x4 }
  - { offsetInCU: 0xAD6D, offset: 0x443152, size: 0x8, addend: 0x0, symName: __ZNK4rnv89V8Runtime15ReportExceptionEPN2v87IsolateEPNS1_8TryCatchE, symObjAddr: 0x298, symBinAddr: 0x58B88, symSize: 0x510 }
  - { offsetInCU: 0xC302, offset: 0x4446E7, size: 0x8, addend: 0x0, symName: __ZN4rnv89V8Runtime11GetPlatformEv, symObjAddr: 0x998, symBinAddr: 0x59128, symSize: 0xC }
  - { offsetInCU: 0xC31C, offset: 0x444701, size: 0x8, addend: 0x0, symName: __ZN4rnv89V8Runtime11GetPlatformEv, symObjAddr: 0x998, symBinAddr: 0x59128, symSize: 0xC }
  - { offsetInCU: 0xC395, offset: 0x44477A, size: 0x8, addend: 0x0, symName: __ZN4rnv89V8Runtime18evaluateJavaScriptERKNSt3__110shared_ptrIKN8facebook3jsi6BufferEEERKNS1_12basic_stringIcNS1_11char_traitsIcEENS1_9allocatorIcEEEE, symObjAddr: 0x9A4, symBinAddr: 0x59134, symSize: 0x8 }
  - { offsetInCU: 0xC3D1, offset: 0x4447B6, size: 0x8, addend: 0x0, symName: __ZN4rnv89V8Runtime18evaluateJavaScriptERKNSt3__110shared_ptrIKN8facebook3jsi6BufferEEERKNS1_12basic_stringIcNS1_11char_traitsIcEENS1_9allocatorIcEEEE, symObjAddr: 0x9A4, symBinAddr: 0x59134, symSize: 0x8 }
  - { offsetInCU: 0xC3EC, offset: 0x4447D1, size: 0x8, addend: 0x0, symName: __ZN4rnv89V8Runtime18evaluateJavaScriptERKNSt3__110shared_ptrIKN8facebook3jsi6BufferEEERKNS1_12basic_stringIcNS1_11char_traitsIcEENS1_9allocatorIcEEEE, symObjAddr: 0x9A4, symBinAddr: 0x59134, symSize: 0x8 }
  - { offsetInCU: 0xC410, offset: 0x4447F5, size: 0x8, addend: 0x0, symName: __ZN4rnv89V8Runtime18evaluateJavaScriptERKNSt3__110shared_ptrIKN8facebook3jsi6BufferEEERKNS1_12basic_stringIcNS1_11char_traitsIcEENS1_9allocatorIcEEEE, symObjAddr: 0x9A4, symBinAddr: 0x59134, symSize: 0x8 }
  - { offsetInCU: 0xC47C, offset: 0x444861, size: 0x8, addend: 0x0, symName: __ZN4rnv89V8Runtime17prepareJavaScriptERKNSt3__110shared_ptrIKN8facebook3jsi6BufferEEENS1_12basic_stringIcNS1_11char_traitsIcEENS1_9allocatorIcEEEE, symObjAddr: 0x9AC, symBinAddr: 0x5913C, symSize: 0x8 }
  - { offsetInCU: 0xC4B8, offset: 0x44489D, size: 0x8, addend: 0x0, symName: __ZN4rnv89V8Runtime17prepareJavaScriptERKNSt3__110shared_ptrIKN8facebook3jsi6BufferEEENS1_12basic_stringIcNS1_11char_traitsIcEENS1_9allocatorIcEEEE, symObjAddr: 0x9AC, symBinAddr: 0x5913C, symSize: 0x8 }
  - { offsetInCU: 0xC4DA, offset: 0x4448BF, size: 0x8, addend: 0x0, symName: __ZN4rnv89V8Runtime17prepareJavaScriptERKNSt3__110shared_ptrIKN8facebook3jsi6BufferEEENS1_12basic_stringIcNS1_11char_traitsIcEENS1_9allocatorIcEEEE, symObjAddr: 0x9AC, symBinAddr: 0x5913C, symSize: 0x8 }
  - { offsetInCU: 0xC5D4, offset: 0x4449B9, size: 0x8, addend: 0x0, symName: __ZN4rnv89V8Runtime26evaluatePreparedJavaScriptERKNSt3__110shared_ptrIKN8facebook3jsi18PreparedJavaScriptEEE, symObjAddr: 0x9B4, symBinAddr: 0x59144, symSize: 0xC8 }
  - { offsetInCU: 0xCBDF, offset: 0x444FC4, size: 0x8, addend: 0x0, symName: __ZNSt3__110shared_ptrIKN8facebook3jsi6BufferEED2B7v160006Ev, symObjAddr: 0x62C0, symBinAddr: 0x5E348, symSize: 0x58 }
  - { offsetInCU: 0xCD61, offset: 0x445146, size: 0x8, addend: 0x0, symName: __ZN4rnv89V8Runtime15drainMicrotasksEi, symObjAddr: 0xA7C, symBinAddr: 0x5920C, symSize: 0x114 }
  - { offsetInCU: 0xD07F, offset: 0x445464, size: 0x8, addend: 0x0, symName: __ZN4rnv89V8Runtime6globalEv, symObjAddr: 0xB90, symBinAddr: 0x59320, symSize: 0x14C }
  - { offsetInCU: 0xD3B8, offset: 0x44579D, size: 0x8, addend: 0x0, symName: __ZN4rnv89V8Runtime11descriptionEv, symObjAddr: 0xCDC, symBinAddr: 0x5946C, symSize: 0xE8 }
  - { offsetInCU: 0xD620, offset: 0x445A05, size: 0x8, addend: 0x0, symName: __ZN4rnv89V8Runtime13isInspectableEv, symObjAddr: 0xDC4, symBinAddr: 0x59554, symSize: 0x8 }
  - { offsetInCU: 0xD644, offset: 0x445A29, size: 0x8, addend: 0x0, symName: __ZN4rnv89V8Runtime11cloneSymbolEPKN8facebook3jsi7Runtime12PointerValueE, symObjAddr: 0xDCC, symBinAddr: 0x5955C, symSize: 0x184 }
  - { offsetInCU: 0xD86F, offset: 0x445C54, size: 0x8, addend: 0x0, symName: __ZN4rnv89V8Runtime11cloneBigIntEPKN8facebook3jsi7Runtime12PointerValueE, symObjAddr: 0xF50, symBinAddr: 0x596E0, symSize: 0x184 }
  - { offsetInCU: 0xDA9A, offset: 0x445E7F, size: 0x8, addend: 0x0, symName: __ZN4rnv89V8Runtime11cloneStringEPKN8facebook3jsi7Runtime12PointerValueE, symObjAddr: 0x10D4, symBinAddr: 0x59864, symSize: 0x19C }
  - { offsetInCU: 0xDDD5, offset: 0x4461BA, size: 0x8, addend: 0x0, symName: __ZN4rnv89V8Runtime11cloneObjectEPKN8facebook3jsi7Runtime12PointerValueE, symObjAddr: 0x1270, symBinAddr: 0x59A00, symSize: 0x184 }
  - { offsetInCU: 0xE000, offset: 0x4463E5, size: 0x8, addend: 0x0, symName: __ZN4rnv89V8Runtime15clonePropNameIDEPKN8facebook3jsi7Runtime12PointerValueE, symObjAddr: 0x13F4, symBinAddr: 0x59B84, symSize: 0xC }
  - { offsetInCU: 0xE09E, offset: 0x446483, size: 0x8, addend: 0x0, symName: __ZN4rnv89V8Runtime25createPropNameIDFromAsciiEPKcm, symObjAddr: 0x1400, symBinAddr: 0x59B90, symSize: 0x160 }
  - { offsetInCU: 0xE3BD, offset: 0x4467A2, size: 0x8, addend: 0x0, symName: __ZN8facebook3jsi7JSErrorC1ERNS0_7RuntimeEPKc, symObjAddr: 0x1560, symBinAddr: 0x59CF0, symSize: 0x74 }
  - { offsetInCU: 0xE699, offset: 0x446A7E, size: 0x8, addend: 0x0, symName: __ZN4rnv89V8Runtime24createPropNameIDFromUtf8EPKhm, symObjAddr: 0x15D4, symBinAddr: 0x59D64, symSize: 0x160 }
  - { offsetInCU: 0xE9DE, offset: 0x446DC3, size: 0x8, addend: 0x0, symName: __ZN4rnv89V8Runtime26createPropNameIDFromStringERKN8facebook3jsi6StringE, symObjAddr: 0x1734, symBinAddr: 0x59EC4, symSize: 0x1A8 }
  - { offsetInCU: 0xEDA7, offset: 0x44718C, size: 0x8, addend: 0x0, symName: __ZN4rnv89V8Runtime26createPropNameIDFromSymbolERKN8facebook3jsi6SymbolE, symObjAddr: 0x18DC, symBinAddr: 0x5A06C, symSize: 0x13C }
  - { offsetInCU: 0xF0AB, offset: 0x447490, size: 0x8, addend: 0x0, symName: __ZN4rnv89V8Runtime4utf8ERKN8facebook3jsi10PropNameIDE, symObjAddr: 0x1A18, symBinAddr: 0x5A1A8, symSize: 0x140 }
  - { offsetInCU: 0xF316, offset: 0x4476FB, size: 0x8, addend: 0x0, symName: __ZN4rnv89V8Runtime7compareERKN8facebook3jsi10PropNameIDES5_, symObjAddr: 0x1B58, symBinAddr: 0x5A2E8, symSize: 0x134 }
  - { offsetInCU: 0xF6C8, offset: 0x447AAD, size: 0x8, addend: 0x0, symName: __ZN4rnv89V8Runtime14symbolToStringERKN8facebook3jsi6SymbolE, symObjAddr: 0x1C8C, symBinAddr: 0x5A41C, symSize: 0xC4 }
  - { offsetInCU: 0xF93C, offset: 0x447D21, size: 0x8, addend: 0x0, symName: __ZN4rnv89V8Runtime21createStringFromAsciiEPKcm, symObjAddr: 0x1D50, symBinAddr: 0x5A4E0, symSize: 0x160 }
  - { offsetInCU: 0xFC33, offset: 0x448018, size: 0x8, addend: 0x0, symName: __ZN4rnv89V8Runtime20createStringFromUtf8EPKhm, symObjAddr: 0x1EB0, symBinAddr: 0x5A640, symSize: 0x160 }
  - { offsetInCU: 0xFF2A, offset: 0x44830F, size: 0x8, addend: 0x0, symName: __ZN4rnv89V8Runtime4utf8ERKN8facebook3jsi6StringE, symObjAddr: 0x2010, symBinAddr: 0x5A7A0, symSize: 0x198 }
  - { offsetInCU: 0x102A7, offset: 0x44868C, size: 0x8, addend: 0x0, symName: __ZN4rnv89V8Runtime12createObjectEv, symObjAddr: 0x21A8, symBinAddr: 0x5A938, symSize: 0x134 }
  - { offsetInCU: 0x1076A, offset: 0x448B4F, size: 0x8, addend: 0x0, symName: __ZN4rnv89V8Runtime12createObjectENSt3__110shared_ptrIN8facebook3jsi10HostObjectEEE, symObjAddr: 0x22DC, symBinAddr: 0x5AA6C, symSize: 0x2B4 }
  - { offsetInCU: 0x10D22, offset: 0x449107, size: 0x8, addend: 0x0, symName: __ZN4rnv815HostObjectProxyD1Ev, symObjAddr: 0x2590, symBinAddr: 0x5AD20, symSize: 0x3C }
  - { offsetInCU: 0x10F58, offset: 0x44933D, size: 0x8, addend: 0x0, symName: __ZN4rnv89V8Runtime13getHostObjectERKN8facebook3jsi6ObjectE, symObjAddr: 0x25CC, symBinAddr: 0x5AD5C, symSize: 0x194 }
  - { offsetInCU: 0x1132D, offset: 0x449712, size: 0x8, addend: 0x0, symName: __ZN4rnv89V8Runtime13getHostObjectERKN8facebook3jsi6ObjectE.cold.1, symObjAddr: 0x681C, symBinAddr: 0xB98884, symSize: 0x28 }
  - { offsetInCU: 0x1135F, offset: 0x449744, size: 0x8, addend: 0x0, symName: __ZN4rnv89V8Runtime15getHostFunctionERKN8facebook3jsi8FunctionE, symObjAddr: 0x2760, symBinAddr: 0x5AEF0, symSize: 0x1F4 }
  - { offsetInCU: 0x11650, offset: 0x449A35, size: 0x8, addend: 0x0, symName: __ZN4rnv89V8Runtime15getHostFunctionERKN8facebook3jsi8FunctionE.cold.1, symObjAddr: 0x6844, symBinAddr: 0xB988AC, symSize: 0x28 }
  - { offsetInCU: 0x1166F, offset: 0x449A54, size: 0x8, addend: 0x0, symName: __ZN4rnv89V8Runtime11getPropertyERKN8facebook3jsi6ObjectERKNS2_10PropNameIDE, symObjAddr: 0x2954, symBinAddr: 0x5B0E4, symSize: 0x1B0 }
  - { offsetInCU: 0x1196E, offset: 0x449D53, size: 0x8, addend: 0x0, symName: __ZN4rnv89V8Runtime11getPropertyERKN8facebook3jsi6ObjectERKNS2_6StringE, symObjAddr: 0x2B04, symBinAddr: 0x5B294, symSize: 0x1B0 }
  - { offsetInCU: 0x11C87, offset: 0x44A06C, size: 0x8, addend: 0x0, symName: __ZN4rnv89V8Runtime11hasPropertyERKN8facebook3jsi6ObjectERKNS2_10PropNameIDE, symObjAddr: 0x2CB4, symBinAddr: 0x5B444, symSize: 0x198 }
  - { offsetInCU: 0x11F1A, offset: 0x44A2FF, size: 0x8, addend: 0x0, symName: __ZN4rnv89V8Runtime11hasPropertyERKN8facebook3jsi6ObjectERKNS2_6StringE, symObjAddr: 0x2E4C, symBinAddr: 0x5B5DC, symSize: 0x198 }
  - { offsetInCU: 0x121AD, offset: 0x44A592, size: 0x8, addend: 0x0, symName: __ZN4rnv89V8Runtime16setPropertyValueERN8facebook3jsi6ObjectERKNS2_10PropNameIDERKNS2_5ValueE, symObjAddr: 0x2FE4, symBinAddr: 0x5B774, symSize: 0x1A8 }
  - { offsetInCU: 0x1241A, offset: 0x44A7FF, size: 0x8, addend: 0x0, symName: __ZN4rnv89V8Runtime16setPropertyValueERN8facebook3jsi6ObjectERKNS2_6StringERKNS2_5ValueE, symObjAddr: 0x318C, symBinAddr: 0x5B91C, symSize: 0x1A8 }
  - { offsetInCU: 0x12687, offset: 0x44AA6C, size: 0x8, addend: 0x0, symName: __ZNK4rnv89V8Runtime7isArrayERKN8facebook3jsi6ObjectE, symObjAddr: 0x3334, symBinAddr: 0x5BAC4, symSize: 0x108 }
  - { offsetInCU: 0x128C4, offset: 0x44ACA9, size: 0x8, addend: 0x0, symName: __ZNK4rnv89V8Runtime13isArrayBufferERKN8facebook3jsi6ObjectE, symObjAddr: 0x343C, symBinAddr: 0x5BBCC, symSize: 0x108 }
  - { offsetInCU: 0x12B01, offset: 0x44AEE6, size: 0x8, addend: 0x0, symName: __ZNK4rnv89V8Runtime10isFunctionERKN8facebook3jsi6ObjectE, symObjAddr: 0x3544, symBinAddr: 0x5BCD4, symSize: 0x108 }
  - { offsetInCU: 0x12D3E, offset: 0x44B123, size: 0x8, addend: 0x0, symName: __ZNK4rnv89V8Runtime12isHostObjectERKN8facebook3jsi6ObjectE, symObjAddr: 0x364C, symBinAddr: 0x5BDDC, symSize: 0x110 }
  - { offsetInCU: 0x12FA5, offset: 0x44B38A, size: 0x8, addend: 0x0, symName: __ZNK4rnv89V8Runtime14isHostFunctionERKN8facebook3jsi8FunctionE, symObjAddr: 0x375C, symBinAddr: 0x5BEEC, symSize: 0x174 }
  - { offsetInCU: 0x1337B, offset: 0x44B760, size: 0x8, addend: 0x0, symName: __ZN4rnv89V8Runtime16getPropertyNamesERKN8facebook3jsi6ObjectE, symObjAddr: 0x38D0, symBinAddr: 0x5C060, symSize: 0x1E0 }
  - { offsetInCU: 0x13989, offset: 0x44BD6E, size: 0x8, addend: 0x0, symName: __ZN4rnv89V8Runtime16createWeakObjectERKN8facebook3jsi6ObjectE, symObjAddr: 0x3AB0, symBinAddr: 0x5C240, symSize: 0x1C4 }
  - { offsetInCU: 0x13E85, offset: 0x44C26A, size: 0x8, addend: 0x0, symName: __ZN4rnv89V8Runtime14lockWeakObjectERN8facebook3jsi10WeakObjectE, symObjAddr: 0x3C74, symBinAddr: 0x5C404, symSize: 0x160 }
  - { offsetInCU: 0x140E0, offset: 0x44C4C5, size: 0x8, addend: 0x0, symName: __ZN4rnv89V8Runtime11createArrayEm, symObjAddr: 0x3DD4, symBinAddr: 0x5C564, symSize: 0x1A4 }
  - { offsetInCU: 0x1451C, offset: 0x44C901, size: 0x8, addend: 0x0, symName: __ZN4rnv89V8Runtime4sizeERKN8facebook3jsi5ArrayE, symObjAddr: 0x3F78, symBinAddr: 0x5C708, symSize: 0x10C }
  - { offsetInCU: 0x14759, offset: 0x44CB3E, size: 0x8, addend: 0x0, symName: __ZN4rnv89V8Runtime4sizeERKN8facebook3jsi11ArrayBufferE, symObjAddr: 0x4084, symBinAddr: 0x5C814, symSize: 0x140 }
  - { offsetInCU: 0x149F2, offset: 0x44CDD7, size: 0x8, addend: 0x0, symName: __ZN4rnv89V8Runtime4dataERKN8facebook3jsi11ArrayBufferE, symObjAddr: 0x41C4, symBinAddr: 0x5C954, symSize: 0x194 }
  - { offsetInCU: 0x14D7A, offset: 0x44D15F, size: 0x8, addend: 0x0, symName: __ZN4rnv89V8Runtime15getValueAtIndexERKN8facebook3jsi5ArrayEm, symObjAddr: 0x4358, symBinAddr: 0x5CAE8, symSize: 0x194 }
  - { offsetInCU: 0x14FE7, offset: 0x44D3CC, size: 0x8, addend: 0x0, symName: __ZN4rnv89V8Runtime19setValueAtIndexImplERN8facebook3jsi5ArrayEmRKNS2_5ValueE, symObjAddr: 0x44EC, symBinAddr: 0x5CC7C, symSize: 0x198 }
  - { offsetInCU: 0x153C1, offset: 0x44D7A6, size: 0x8, addend: 0x0, symName: __ZN4rnv89V8Runtime30createFunctionFromHostFunctionERKN8facebook3jsi10PropNameIDEjNSt3__18functionIFNS2_5ValueERNS2_7RuntimeERKS8_PSB_mEEE, symObjAddr: 0x4684, symBinAddr: 0x5CE14, symSize: 0x2D8 }
  - { offsetInCU: 0x15E97, offset: 0x44E27C, size: 0x8, addend: 0x0, symName: __ZN4rnv89V8Runtime30OnHostFuncionContainerCallbackERKN2v820FunctionCallbackInfoINS1_5ValueEEE, symObjAddr: 0x495C, symBinAddr: 0x5D0EC, symSize: 0x1D8 }
  - { offsetInCU: 0x1696D, offset: 0x44ED52, size: 0x8, addend: 0x0, symName: __ZN4rnv89V8Runtime4callERKN8facebook3jsi8FunctionERKNS2_5ValueEPS7_m, symObjAddr: 0x4B34, symBinAddr: 0x5D2C4, symSize: 0x324 }
  - { offsetInCU: 0x174B4, offset: 0x44F899, size: 0x8, addend: 0x0, symName: __ZN4rnv89V8Runtime17callAsConstructorERKN8facebook3jsi8FunctionEPKNS2_5ValueEm, symObjAddr: 0x4E58, symBinAddr: 0x5D5E8, symSize: 0x314 }
  - { offsetInCU: 0x17F1F, offset: 0x450304, size: 0x8, addend: 0x0, symName: __ZNK4rnv89V8Runtime12strictEqualsERKN8facebook3jsi6SymbolES5_, symObjAddr: 0x516C, symBinAddr: 0x5D8FC, symSize: 0x178 }
  - { offsetInCU: 0x181AD, offset: 0x450592, size: 0x8, addend: 0x0, symName: __ZNK4rnv89V8Runtime12strictEqualsERKN8facebook3jsi6BigIntES5_, symObjAddr: 0x52E4, symBinAddr: 0x5DA74, symSize: 0x178 }
  - { offsetInCU: 0x18477, offset: 0x45085C, size: 0x8, addend: 0x0, symName: __ZNK4rnv89V8Runtime12strictEqualsERKN8facebook3jsi6StringES5_, symObjAddr: 0x545C, symBinAddr: 0x5DBEC, symSize: 0x178 }
  - { offsetInCU: 0x18705, offset: 0x450AEA, size: 0x8, addend: 0x0, symName: __ZNK4rnv89V8Runtime12strictEqualsERKN8facebook3jsi6ObjectES5_, symObjAddr: 0x55D4, symBinAddr: 0x5DD64, symSize: 0x178 }
  - { offsetInCU: 0x18993, offset: 0x450D78, size: 0x8, addend: 0x0, symName: __ZN4rnv89V8Runtime10instanceOfERKN8facebook3jsi6ObjectERKNS2_8FunctionE, symObjAddr: 0x574C, symBinAddr: 0x5DEDC, symSize: 0x1A8 }
  - { offsetInCU: 0x18C8D, offset: 0x451072, size: 0x8, addend: 0x0, symName: __ZN4rnv89V8Runtime14GetRuntimeInfoERKN2v820FunctionCallbackInfoINS1_5ValueEEE, symObjAddr: 0x58F4, symBinAddr: 0x5E084, symSize: 0x2C4 }
  - { offsetInCU: 0x2F0D, offset: 0x454B05, size: 0x8, addend: 0x0, symName: __ZN8facebook3jsi12_GLOBAL__N_119throwFormattedErrorEPKcz, symObjAddr: 0x1F4, symBinAddr: 0x5E5D4, symSize: 0x198 }
  - { offsetInCU: 0x5303, offset: 0x456EFB, size: 0x8, addend: 0x0, symName: __ZN8facebook3jsi10FileBufferC2ERKNSt3__112basic_stringIcNS2_11char_traitsIcEENS2_9allocatorIcEEEE, symObjAddr: 0x0, symBinAddr: 0x5E3EC, symSize: 0x16C }
  - { offsetInCU: 0x5682, offset: 0x45727A, size: 0x8, addend: 0x0, symName: __ZN8facebook3jsi10FileBufferC1ERKNSt3__112basic_stringIcNS2_11char_traitsIcEENS2_9allocatorIcEEEE, symObjAddr: 0x16C, symBinAddr: 0x5E558, symSize: 0x4 }
  - { offsetInCU: 0x56BC, offset: 0x4572B4, size: 0x8, addend: 0x0, symName: __ZN8facebook3jsi10FileBufferC1ERKNSt3__112basic_stringIcNS2_11char_traitsIcEENS2_9allocatorIcEEEE, symObjAddr: 0x16C, symBinAddr: 0x5E558, symSize: 0x4 }
  - { offsetInCU: 0x56C7, offset: 0x4572BF, size: 0x8, addend: 0x0, symName: __ZN8facebook3jsi10FileBufferD2Ev, symObjAddr: 0x170, symBinAddr: 0x5E55C, symSize: 0x78 }
  - { offsetInCU: 0x5B14, offset: 0x45770C, size: 0x8, addend: 0x0, symName: __ZN8facebook3jsi10FileBufferD1Ev, symObjAddr: 0x38C, symBinAddr: 0x5E76C, symSize: 0x4 }
  - { offsetInCU: 0x5B36, offset: 0x45772E, size: 0x8, addend: 0x0, symName: __ZN8facebook3jsi10FileBufferD1Ev, symObjAddr: 0x38C, symBinAddr: 0x5E76C, symSize: 0x4 }
  - { offsetInCU: 0x5B60, offset: 0x457758, size: 0x8, addend: 0x0, symName: __ZN8facebook3jsi10FileBufferD0Ev, symObjAddr: 0x390, symBinAddr: 0x5E770, symSize: 0x14 }
  - { offsetInCU: 0x5BB4, offset: 0x4577AC, size: 0x8, addend: 0x0, symName: __ZNK8facebook3jsi10FileBuffer4sizeEv, symObjAddr: 0x3A4, symBinAddr: 0x5E784, symSize: 0x8 }
  - { offsetInCU: 0x5BDB, offset: 0x4577D3, size: 0x8, addend: 0x0, symName: __ZNK8facebook3jsi10FileBuffer4dataEv, symObjAddr: 0x3AC, symBinAddr: 0x5E78C, symSize: 0x8 }
  - { offsetInCU: 0x52, offset: 0x457A8F, size: 0x8, addend: 0x0, symName: __ZN3tns16ParametrizedCall11callsCache_E, symObjAddr: 0x16A8B8, symBinAddr: 0x1593E00, symSize: 0x0 }
  - { offsetInCU: 0xE3, offset: 0x457B20, size: 0x8, addend: 0x0, symName: __ZN3tns7FFICall17structInfosCache_E, symObjAddr: 0x16A870, symBinAddr: 0x1593DB8, symSize: 0x0 }
  - { offsetInCU: 0x77E8, offset: 0x45F225, size: 0x8, addend: 0x0, symName: __ZNSt3__119__allocate_at_leastB7v160006INS_9allocatorImEEEENS_19__allocation_resultINS_16allocator_traitsIT_E7pointerEEERS5_m, symObjAddr: 0x1CB8, symBinAddr: 0x5FA98, symSize: 0x34 }
  - { offsetInCU: 0x835C, offset: 0x45FD99, size: 0x8, addend: 0x0, symName: __ZNSt3__142__uninitialized_allocator_move_if_noexceptB7v160006INS_9allocatorIN3tns11StructFieldEEENS_16reverse_iteratorIPS3_EES7_S7_EET2_RT_T0_T1_S8_, symObjAddr: 0x288C, symBinAddr: 0x5FC38, symSize: 0xB0 }
  - { offsetInCU: 0xA9C7, offset: 0x462404, size: 0x8, addend: 0x0, symName: __ZNSt3__16vectorIN3tns11StructFieldENS_9allocatorIS2_EEE26__swap_out_circular_bufferERNS_14__split_bufferIS2_RS4_EE, symObjAddr: 0x2818, symBinAddr: 0x5FBC4, symSize: 0x74 }
  - { offsetInCU: 0xCB5B, offset: 0x464598, size: 0x8, addend: 0x0, symName: __ZN3tns7FFICall15GetArgumentTypeEPKNS_12TypeEncodingEb, symObjAddr: 0x0, symBinAddr: 0x5E794, symSize: 0x3BC }
  - { offsetInCU: 0xDABF, offset: 0x4654FC, size: 0x8, addend: 0x0, symName: __ZN3tns7FFICall13GetStructInfoEmPKNS_12TypeEncodingEPKNS_5PtrToIcEENSt3__112basic_stringIcNS8_11char_traitsIcEENS8_9allocatorIcEEEE, symObjAddr: 0x684, symBinAddr: 0x5EDE0, symSize: 0x57C }
  - { offsetInCU: 0xF5C1, offset: 0x466FFE, size: 0x8, addend: 0x0, symName: __ZN3tns7FFICall13GetStructInfoEPKNS_10StructMetaENSt3__112basic_stringIcNS4_11char_traitsIcEENS4_9allocatorIcEEEE, symObjAddr: 0x3BC, symBinAddr: 0x5EB50, symSize: 0x290 }
  - { offsetInCU: 0x10F25, offset: 0x468962, size: 0x8, addend: 0x0, symName: __ZNK10robin_hood6detail5TableILb0ELm80ENSt3__112basic_stringIcNS2_11char_traitsIcEENS2_9allocatorIcEEEEN3tns10StructInfoENS_4hashIS8_vEENS2_8equal_toIS8_EEE7findIdxIS8_EEmRKT_, symObjAddr: 0x2590, symBinAddr: 0x5FACC, symSize: 0xF8 }
  - { offsetInCU: 0x11225, offset: 0x468C62, size: 0x8, addend: 0x0, symName: __ZNSt3__16vectorIN3tns11StructFieldENS_9allocatorIS2_EEE7reserveEm, symObjAddr: 0xED8, symBinAddr: 0x5F3D4, symSize: 0xB0 }
  - { offsetInCU: 0x113C9, offset: 0x468E06, size: 0x8, addend: 0x0, symName: __ZNSt3__16vectorIN3tns11StructFieldENS_9allocatorIS2_EEE21__push_back_slow_pathIRKS2_EEvOT_, symObjAddr: 0x2A3C, symBinAddr: 0x5FDE8, symSize: 0x11C }
  - { offsetInCU: 0x116B1, offset: 0x4690EE, size: 0x8, addend: 0x0, symName: __ZN3tns10StructInfoC2ENSt3__112basic_stringIcNS1_11char_traitsIcEENS1_9allocatorIcEEEEP9_ffi_typeNS1_6vectorINS_11StructFieldENS5_ISB_EEEE, symObjAddr: 0x1964, symBinAddr: 0x5F7C4, symSize: 0x60 }
  - { offsetInCU: 0x11858, offset: 0x469295, size: 0x8, addend: 0x0, symName: __ZN10robin_hood6detail5TableILb0ELm80ENSt3__112basic_stringIcNS2_11char_traitsIcEENS2_9allocatorIcEEEEN3tns10StructInfoENS_4hashIS8_vEENS2_8equal_toIS8_EEE7emplaceIJRS8_RSA_EEENS2_4pairINSF_4IterILb0EEEbEEDpOT_, symObjAddr: 0xF88, symBinAddr: 0x5F484, symSize: 0xCC }
  - { offsetInCU: 0x11AD3, offset: 0x469510, size: 0x8, addend: 0x0, symName: __ZN3tns7FFICall14DisposeFFITypeEP9_ffi_typePKNS_12TypeEncodingE, symObjAddr: 0xC00, symBinAddr: 0x5F35C, symSize: 0x78 }
  - { offsetInCU: 0x11D8F, offset: 0x4697CC, size: 0x8, addend: 0x0, symName: __ZNSt3__114__split_bufferIN3tns11StructFieldERNS_9allocatorIS2_EEED2Ev, symObjAddr: 0x29B4, symBinAddr: 0x5FD60, symSize: 0x34 }
  - { offsetInCU: 0x11FF6, offset: 0x469A33, size: 0x8, addend: 0x0, symName: __ZN10robin_hood6detail5TableILb0ELm80ENSt3__112basic_stringIcNS2_11char_traitsIcEENS2_9allocatorIcEEEEN3tns10StructInfoENS_4hashIS8_vEENS2_8equal_toIS8_EEE8DataNodeISF_Lb0EEC2IJRS8_RSA_EEERSF_DpOT_, symObjAddr: 0x2D8C, symBinAddr: 0x60138, symSize: 0x5C }
  - { offsetInCU: 0x120F0, offset: 0x469B2D, size: 0x8, addend: 0x0, symName: __ZN10robin_hood6detail5TableILb0ELm80ENSt3__112basic_stringIcNS2_11char_traitsIcEENS2_9allocatorIcEEEEN3tns10StructInfoENS_4hashIS8_vEENS2_8equal_toIS8_EEE25insertKeyPrepareEmptySpotIRKS8_EENS2_4pairImNSF_14InsertionStateEEEOT_, symObjAddr: 0x2B58, symBinAddr: 0x5FF04, symSize: 0x180 }
  - { offsetInCU: 0x1227A, offset: 0x469CB7, size: 0x8, addend: 0x0, symName: __ZN10robin_hood6detail5TableILb0ELm80ENSt3__112basic_stringIcNS2_11char_traitsIcEENS2_9allocatorIcEEEEN3tns10StructInfoENS_4hashIS8_vEENS2_8equal_toIS8_EEE8DataNodeISF_Lb0EE7destroyERSF_, symObjAddr: 0x2CD8, symBinAddr: 0x60084, symSize: 0x64 }
  - { offsetInCU: 0x125B9, offset: 0x469FF6, size: 0x8, addend: 0x0, symName: __ZNK10robin_hood6detail5TableILb0ELm80ENSt3__112basic_stringIcNS2_11char_traitsIcEENS2_9allocatorIcEEEEN3tns10StructInfoENS_4hashIS8_vEENS2_8equal_toIS8_EEE18throwOverflowErrorEv, symObjAddr: 0x2D3C, symBinAddr: 0x600E8, symSize: 0x50 }
  - { offsetInCU: 0x12645, offset: 0x46A082, size: 0x8, addend: 0x0, symName: __ZN3tns16ParametrizedCall3GetEPKNS_12TypeEncodingEii, symObjAddr: 0x1054, symBinAddr: 0x5F550, symSize: 0x19C }
  - { offsetInCU: 0x12A11, offset: 0x46A44E, size: 0x8, addend: 0x0, symName: __ZNK10robin_hood6detail5TableILb1ELm80EPKN3tns12TypeEncodingEPNS2_16ParametrizedCallENS_4hashIS5_vEENSt3__18equal_toIS5_EEE7findIdxIS5_EEmRKT_, symObjAddr: 0x3560, symBinAddr: 0x608C0, symSize: 0xD8 }
  - { offsetInCU: 0x12A6D, offset: 0x46A4AA, size: 0x8, addend: 0x0, symName: __ZNK10robin_hood6detail5TableILb1ELm80EPKN3tns12TypeEncodingEPNS2_16ParametrizedCallENS_4hashIS5_vEENSt3__18equal_toIS5_EEE7findIdxIS5_EEmRKT_, symObjAddr: 0x3560, symBinAddr: 0x608C0, symSize: 0xD8 }
  - { offsetInCU: 0x12BDA, offset: 0x46A617, size: 0x8, addend: 0x0, symName: __ZN3tns16ParametrizedCallC2EP7ffi_cif, symObjAddr: 0x19C4, symBinAddr: 0x5F824, symSize: 0x1CC }
  - { offsetInCU: 0x13294, offset: 0x46ACD1, size: 0x8, addend: 0x0, symName: __ZN10robin_hood6detail5TableILb1ELm80EPKN3tns12TypeEncodingEPNS2_16ParametrizedCallENS_4hashIS5_vEENSt3__18equal_toIS5_EEE7emplaceIJRS5_RS7_EEENSA_4pairINSD_4IterILb0EEEbEEDpOT_, symObjAddr: 0x11F0, symBinAddr: 0x5F6EC, symSize: 0x94 }
  - { offsetInCU: 0x13611, offset: 0x46B04E, size: 0x8, addend: 0x0, symName: __ZN10robin_hood6detail5TableILb1ELm80EPKN3tns12TypeEncodingEPNS2_16ParametrizedCallENS_4hashIS5_vEENSt3__18equal_toIS5_EEE25insertKeyPrepareEmptySpotIRKS5_EENSA_4pairImNSD_14InsertionStateEEEOT_, symObjAddr: 0x3638, symBinAddr: 0x60998, symSize: 0x194 }
  - { offsetInCU: 0x137CB, offset: 0x46B208, size: 0x8, addend: 0x0, symName: __ZNK10robin_hood6detail5TableILb1ELm80EPKN3tns12TypeEncodingEPNS2_16ParametrizedCallENS_4hashIS5_vEENSt3__18equal_toIS5_EEE18throwOverflowErrorEv, symObjAddr: 0x37CC, symBinAddr: 0x60B2C, symSize: 0x50 }
  - { offsetInCU: 0x1385E, offset: 0x46B29B, size: 0x8, addend: 0x0, symName: __ZN10robin_hood6detail5TableILb1ELm80EPKN3tns12TypeEncodingEPNS2_16ParametrizedCallENS_4hashIS5_vEENSt3__18equal_toIS5_EEED1Ev, symObjAddr: 0x1284, symBinAddr: 0x5F780, symSize: 0x40 }
  - { offsetInCU: 0x138E3, offset: 0x46B320, size: 0x8, addend: 0x0, symName: __ZN10robin_hood6detail5TableILb0ELm80ENSt3__112basic_stringIcNS2_11char_traitsIcEENS2_9allocatorIcEEEEN3tns10StructInfoENS_4hashIS8_vEENS2_8equal_toIS8_EEED1Ev, symObjAddr: 0x12C4, symBinAddr: 0x5F7C0, symSize: 0x4 }
  - { offsetInCU: 0x1390E, offset: 0x46B34B, size: 0x8, addend: 0x0, symName: __ZN10robin_hood6detail5TableILb0ELm80ENSt3__112basic_stringIcNS2_11char_traitsIcEENS2_9allocatorIcEEEEN3tns10StructInfoENS_4hashIS8_vEENS2_8equal_toIS8_EEED1Ev, symObjAddr: 0x12C4, symBinAddr: 0x5F7C0, symSize: 0x4 }
  - { offsetInCU: 0x13919, offset: 0x46B356, size: 0x8, addend: 0x0, symName: __ZN10robin_hood6detail5TableILb0ELm80ENSt3__112basic_stringIcNS2_11char_traitsIcEENS2_9allocatorIcEEEEN3tns10StructInfoENS_4hashIS8_vEENS2_8equal_toIS8_EEED2Ev, symObjAddr: 0x3DC4, symBinAddr: 0x61124, symSize: 0x48 }
  - { offsetInCU: 0x13EBF, offset: 0x46B8FC, size: 0x8, addend: 0x0, symName: __ZNSt3__16vectorImNS_9allocatorImEEE7reserveEm, symObjAddr: 0x1B90, symBinAddr: 0x5F9F0, symSize: 0x94 }
  - { offsetInCU: 0x141AB, offset: 0x46BBE8, size: 0x8, addend: 0x0, symName: __ZNKSt3__16vectorImNS_9allocatorImEEE20__throw_length_errorB7v160006Ev, symObjAddr: 0x1C30, symBinAddr: 0x5FA84, symSize: 0x14 }
  - { offsetInCU: 0x151B1, offset: 0x46CBEE, size: 0x8, addend: 0x0, symName: __ZNK10robin_hood6detail5TableILb0ELm80ENSt3__112basic_stringIcNS2_11char_traitsIcEENS2_9allocatorIcEEEEN3tns10StructInfoENS_4hashIS8_vEENS2_8equal_toIS8_EEE7findIdxIS8_EEmRKT_, symObjAddr: 0x2590, symBinAddr: 0x5FACC, symSize: 0xF8 }
  - { offsetInCU: 0x15611, offset: 0x46D04E, size: 0x8, addend: 0x0, symName: __ZNSt3__128__exception_guard_exceptionsINS_29_AllocatorDestroyRangeReverseINS_9allocatorIN3tns11StructFieldEEENS_16reverse_iteratorIPS4_EEEEED2B7v160006Ev, symObjAddr: 0x293C, symBinAddr: 0x5FCE8, symSize: 0x34 }
  - { offsetInCU: 0x1564A, offset: 0x46D087, size: 0x8, addend: 0x0, symName: __ZNKSt3__129_AllocatorDestroyRangeReverseINS_9allocatorIN3tns11StructFieldEEENS_16reverse_iteratorIPS3_EEEclB7v160006Ev, symObjAddr: 0x2970, symBinAddr: 0x5FD1C, symSize: 0x44 }
  - { offsetInCU: 0x15897, offset: 0x46D2D4, size: 0x8, addend: 0x0, symName: __ZNSt3__114__split_bufferIN3tns11StructFieldERNS_9allocatorIS2_EEE17__destruct_at_endB7v160006EPS2_, symObjAddr: 0x29E8, symBinAddr: 0x5FD94, symSize: 0x54 }
  - { offsetInCU: 0x15AF2, offset: 0x46D52F, size: 0x8, addend: 0x0, symName: __ZN10robin_hood6detail5TableILb0ELm80ENSt3__112basic_stringIcNS2_11char_traitsIcEENS2_9allocatorIcEEEEN3tns10StructInfoENS_4hashIS8_vEENS2_8equal_toIS8_EEE13increase_sizeEv, symObjAddr: 0x2F64, symBinAddr: 0x602E8, symSize: 0x12C }
  - { offsetInCU: 0x15BBC, offset: 0x46D5F9, size: 0x8, addend: 0x0, symName: __ZN10robin_hood6detail5TableILb0ELm80ENSt3__112basic_stringIcNS2_11char_traitsIcEENS2_9allocatorIcEEEEN3tns10StructInfoENS_4hashIS8_vEENS2_8equal_toIS8_EEE7shiftUpEmm, symObjAddr: 0x3090, symBinAddr: 0x60414, symSize: 0x94 }
  - { offsetInCU: 0x15D29, offset: 0x46D766, size: 0x8, addend: 0x0, symName: __ZN10robin_hood6detail17BulkPoolAllocatorINS_4pairIKNSt3__112basic_stringIcNS3_11char_traitsIcEENS3_9allocatorIcEEEEN3tns10StructInfoEEELm4ELm16384EE17performAllocationEv, symObjAddr: 0x2DE8, symBinAddr: 0x60194, symSize: 0x6C }
  - { offsetInCU: 0x15DCD, offset: 0x46D80A, size: 0x8, addend: 0x0, symName: __ZN10robin_hood6detail17BulkPoolAllocatorINS_4pairIKNSt3__112basic_stringIcNS3_11char_traitsIcEENS3_9allocatorIcEEEEN3tns10StructInfoEEELm4ELm16384EE3addEPvm, symObjAddr: 0x2E54, symBinAddr: 0x60200, symSize: 0x60 }
  - { offsetInCU: 0x15DD9, offset: 0x46D816, size: 0x8, addend: 0x0, symName: __ZN10robin_hood4pairIKNSt3__112basic_stringIcNS1_11char_traitsIcEENS1_9allocatorIcEEEEN3tns10StructInfoEEC2IRS7_RSA_EEOT_OT0_, symObjAddr: 0x2EDC, symBinAddr: 0x60260, symSize: 0x88 }
  - { offsetInCU: 0x16125, offset: 0x46DB62, size: 0x8, addend: 0x0, symName: __ZN10robin_hood6detail17BulkPoolAllocatorINS_4pairIKNSt3__112basic_stringIcNS3_11char_traitsIcEENS3_9allocatorIcEEEEN3tns10StructInfoEEELm4ELm16384EE3addEPvm, symObjAddr: 0x2E54, symBinAddr: 0x60200, symSize: 0x60 }
  - { offsetInCU: 0x16213, offset: 0x46DC50, size: 0x8, addend: 0x0, symName: __ZN10robin_hood6detail5TableILb0ELm80ENSt3__112basic_stringIcNS2_11char_traitsIcEENS2_9allocatorIcEEEEN3tns10StructInfoENS_4hashIS8_vEENS2_8equal_toIS8_EEE17try_increase_infoEv, symObjAddr: 0x31F0, symBinAddr: 0x60574, symSize: 0x100 }
  - { offsetInCU: 0x1631D, offset: 0x46DD5A, size: 0x8, addend: 0x0, symName: __ZN10robin_hood6detail5TableILb0ELm80ENSt3__112basic_stringIcNS2_11char_traitsIcEENS2_9allocatorIcEEEEN3tns10StructInfoENS_4hashIS8_vEENS2_8equal_toIS8_EEE8initDataEm, symObjAddr: 0x3124, symBinAddr: 0x604A8, symSize: 0xCC }
  - { offsetInCU: 0x16430, offset: 0x46DE6D, size: 0x8, addend: 0x0, symName: __ZN10robin_hood6detail5TableILb0ELm80ENSt3__112basic_stringIcNS2_11char_traitsIcEENS2_9allocatorIcEEEEN3tns10StructInfoENS_4hashIS8_vEENS2_8equal_toIS8_EEE17try_increase_infoEv, symObjAddr: 0x31F0, symBinAddr: 0x60574, symSize: 0x100 }
  - { offsetInCU: 0x1643C, offset: 0x46DE79, size: 0x8, addend: 0x0, symName: __ZN10robin_hood6detail5TableILb0ELm80ENSt3__112basic_stringIcNS2_11char_traitsIcEENS2_9allocatorIcEEEEN3tns10StructInfoENS_4hashIS8_vEENS2_8equal_toIS8_EEE16rehashPowerOfTwoEmb, symObjAddr: 0x32F0, symBinAddr: 0x60674, symSize: 0x138 }
  - { offsetInCU: 0x1665D, offset: 0x46E09A, size: 0x8, addend: 0x0, symName: __ZN10robin_hood6detail5TableILb0ELm80ENSt3__112basic_stringIcNS2_11char_traitsIcEENS2_9allocatorIcEEEEN3tns10StructInfoENS_4hashIS8_vEENS2_8equal_toIS8_EEE11insert_moveEONSF_8DataNodeISF_Lb0EEE, symObjAddr: 0x3428, symBinAddr: 0x607AC, symSize: 0x114 }
  - { offsetInCU: 0x168AA, offset: 0x46E2E7, size: 0x8, addend: 0x0, symName: __ZN10robin_hood6detail5TableILb1ELm80EPKN3tns12TypeEncodingEPNS2_16ParametrizedCallENS_4hashIS5_vEENSt3__18equal_toIS5_EEE13increase_sizeEv, symObjAddr: 0x381C, symBinAddr: 0x60B7C, symSize: 0x12C }
  - { offsetInCU: 0x16974, offset: 0x46E3B1, size: 0x8, addend: 0x0, symName: __ZN10robin_hood6detail5TableILb1ELm80EPKN3tns12TypeEncodingEPNS2_16ParametrizedCallENS_4hashIS5_vEENSt3__18equal_toIS5_EEE7shiftUpEmm, symObjAddr: 0x3948, symBinAddr: 0x60CA8, symSize: 0x98 }
  - { offsetInCU: 0x16A00, offset: 0x46E43D, size: 0x8, addend: 0x0, symName: __ZN10robin_hood6detail5TableILb1ELm80EPKN3tns12TypeEncodingEPNS2_16ParametrizedCallENS_4hashIS5_vEENSt3__18equal_toIS5_EEE17try_increase_infoEv, symObjAddr: 0x3AAC, symBinAddr: 0x60E0C, symSize: 0x100 }
