---
triple:          'arm64-apple-darwin'
binary-path:     '/Users/teodordermendzhiev/Library/Developer/Xcode/DerivedData/v8ios-guuegdqojkhtxjgqgmysqgxkmdle/ArchiveIntermediates/NativeScript/InstallationBuildProductsLocation/Library/Frameworks/NativeScript.framework/NativeScript'
relocations:
  - { offsetInCU: 0x33, offset: 0x33, size: 0x8, addend: 0x0, symName: _NativeScriptVersionString, symObjAddr: 0x0, symBinAddr: 0xB961E0, symSize: 0x0 }
  - { offsetInCU: 0x67, offset: 0x67, size: 0x8, addend: 0x0, symName: _NativeScriptVersionNumber, symObjAddr: 0x30, symBinAddr: 0xB96210, symSize: 0x0 }
  - { offsetInCU: 0x26, offset: 0xA2, size: 0x8, addend: 0x0, symName: __ZN3tns21OneByteStringResourceC2EPKcm, symObjAddr: 0x0, symBinAddr: 0x4000, symSize: 0x14 }
  - { offsetInCU: 0xD557, offset: 0xD5D3, size: 0x8, addend: 0x0, symName: __ZN3tns21OneByteStringResourceC2EPKcm, symObjAddr: 0x0, symBinAddr: 0x4000, symSize: 0x14 }
  - { offsetInCU: 0xD5D5, offset: 0xD651, size: 0x8, addend: 0x0, symName: __ZN3tns21OneByteStringResourceC1EPKcm, symObjAddr: 0x14, symBinAddr: 0x4014, symSize: 0x14 }
  - { offsetInCU: 0xD61D, offset: 0xD699, size: 0x8, addend: 0x0, symName: __ZN3tns21OneByteStringResourceC1EPKcm, symObjAddr: 0x14, symBinAddr: 0x4014, symSize: 0x14 }
  - { offsetInCU: 0xD660, offset: 0xD6DC, size: 0x8, addend: 0x0, symName: __ZN3tns21OneByteStringResourceD2Ev, symObjAddr: 0x28, symBinAddr: 0x4028, symSize: 0x38 }
  - { offsetInCU: 0xD69D, offset: 0xD719, size: 0x8, addend: 0x0, symName: __ZN3tns21OneByteStringResourceD1Ev, symObjAddr: 0x60, symBinAddr: 0x4060, symSize: 0x38 }
  - { offsetInCU: 0xD6F6, offset: 0xD772, size: 0x8, addend: 0x0, symName: __ZN3tns21OneByteStringResourceD0Ev, symObjAddr: 0x98, symBinAddr: 0x4098, symSize: 0x38 }
  - { offsetInCU: 0xD75B, offset: 0xD7D7, size: 0x8, addend: 0x0, symName: __ZNK3tns21OneByteStringResource4dataEv, symObjAddr: 0xD0, symBinAddr: 0x40D0, symSize: 0x8 }
  - { offsetInCU: 0xD784, offset: 0xD800, size: 0x8, addend: 0x0, symName: __ZNK3tns21OneByteStringResource6lengthEv, symObjAddr: 0xD8, symBinAddr: 0x40D8, symSize: 0x8 }
  - { offsetInCU: 0xD7AD, offset: 0xD829, size: 0x8, addend: 0x0, symName: __ZNK2v86String26ExternalStringResourceBase11IsCacheableEv, symObjAddr: 0xE0, symBinAddr: 0x40E0, symSize: 0x8 }
  - { offsetInCU: 0xD7D4, offset: 0xD850, size: 0x8, addend: 0x0, symName: __ZN2v86String26ExternalStringResourceBase7DisposeEv, symObjAddr: 0xE8, symBinAddr: 0x40E8, symSize: 0x14 }
  - { offsetInCU: 0xD804, offset: 0xD880, size: 0x8, addend: 0x0, symName: __ZNK2v86String26ExternalStringResourceBase4LockEv, symObjAddr: 0xFC, symBinAddr: 0x40FC, symSize: 0x4 }
  - { offsetInCU: 0xD828, offset: 0xD8A4, size: 0x8, addend: 0x0, symName: __ZNK2v86String26ExternalStringResourceBase6UnlockEv, symObjAddr: 0x100, symBinAddr: 0x4100, symSize: 0x4 }
  - { offsetInCU: 0xAB2E, offset: 0x183FF, size: 0x8, addend: 0x0, symName: __ZNSt3__120__throw_length_errorB7v160006EPKc, symObjAddr: 0xB7C, symBinAddr: 0x4C80, symSize: 0x50 }
  - { offsetInCU: 0xE775, offset: 0x1C046, size: 0x8, addend: 0x0, symName: __ZN4rnv819JSIV8ValueConverter10ToJSIValueEPN2v87IsolateERKNS1_5LocalINS1_5ValueEEE, symObjAddr: 0x0, symBinAddr: 0x4104, symSize: 0x1E4 }
  - { offsetInCU: 0xEE24, offset: 0x1C6F5, size: 0x8, addend: 0x0, symName: __ZN4rnv819JSIV8ValueConverter9ToV8ValueERKNS_9V8RuntimeERKN8facebook3jsi5ValueE, symObjAddr: 0x1E4, symBinAddr: 0x42E8, symSize: 0x1C0 }
  - { offsetInCU: 0xF1AB, offset: 0x1CA7C, size: 0x8, addend: 0x0, symName: __ZNKR8facebook3jsi5Value9getStringERNS0_7RuntimeE, symObjAddr: 0x46C, symBinAddr: 0x4570, symSize: 0x48 }
  - { offsetInCU: 0xF27F, offset: 0x1CB50, size: 0x8, addend: 0x0, symName: __ZN4rnv819JSIV8ValueConverter10ToV8ObjectERKNS_9V8RuntimeERKN8facebook3jsi6ObjectE, symObjAddr: 0x4B4, symBinAddr: 0x45B8, symSize: 0xB0 }
  - { offsetInCU: 0xF28A, offset: 0x1CB5B, size: 0x8, addend: 0x0, symName: __ZN4rnv819JSIV8ValueConverter10ToV8StringERKNS_9V8RuntimeERKN8facebook3jsi6StringE, symObjAddr: 0x3A4, symBinAddr: 0x44A8, symSize: 0xC8 }
  - { offsetInCU: 0xF4A6, offset: 0x1CD77, size: 0x8, addend: 0x0, symName: __ZNKR8facebook3jsi5Value9getObjectERNS0_7RuntimeE, symObjAddr: 0x564, symBinAddr: 0x4668, symSize: 0x48 }
  - { offsetInCU: 0xF57A, offset: 0x1CE4B, size: 0x8, addend: 0x0, symName: __ZN4rnv819JSIV8ValueConverter10ToV8StringERKNS_9V8RuntimeERKN8facebook3jsi10PropNameIDE, symObjAddr: 0x5AC, symBinAddr: 0x46B0, symSize: 0xC8 }
  - { offsetInCU: 0xF585, offset: 0x1CE56, size: 0x8, addend: 0x0, symName: __ZN4rnv819JSIV8ValueConverter10ToV8ObjectERKNS_9V8RuntimeERKN8facebook3jsi6ObjectE, symObjAddr: 0x4B4, symBinAddr: 0x45B8, symSize: 0xB0 }
  - { offsetInCU: 0xF722, offset: 0x1CFF3, size: 0x8, addend: 0x0, symName: __ZNKR8facebook3jsi5Value9getStringERNS0_7RuntimeE.cold.1, symObjAddr: 0xBF0, symBinAddr: 0xB8FC14, symSize: 0x28 }
  - { offsetInCU: 0xF791, offset: 0x1D062, size: 0x8, addend: 0x0, symName: __ZNKR8facebook3jsi5Value9getObjectERNS0_7RuntimeE.cold.1, symObjAddr: 0xC18, symBinAddr: 0xB8FC3C, symSize: 0x28 }
  - { offsetInCU: 0xF7A9, offset: 0x1D07A, size: 0x8, addend: 0x0, symName: __ZN4rnv819JSIV8ValueConverter10ToV8StringERKNS_9V8RuntimeERKN8facebook3jsi10PropNameIDE, symObjAddr: 0x5AC, symBinAddr: 0x46B0, symSize: 0xC8 }
  - { offsetInCU: 0xFA0A, offset: 0x1D2DB, size: 0x8, addend: 0x0, symName: __ZN4rnv819JSIV8ValueConverter10ToV8StringERKNS_9V8RuntimeERKNSt3__110shared_ptrIKN8facebook3jsi6BufferEEE, symObjAddr: 0x674, symBinAddr: 0x4778, symSize: 0xA8 }
  - { offsetInCU: 0xFBAA, offset: 0x1D47B, size: 0x8, addend: 0x0, symName: __ZN4rnv819JSIV8ValueConverter10ToV8SymbolERKNS_9V8RuntimeERKN8facebook3jsi6SymbolE, symObjAddr: 0x71C, symBinAddr: 0x4820, symSize: 0xB0 }
  - { offsetInCU: 0xFCEE, offset: 0x1D5BF, size: 0x8, addend: 0x0, symName: __ZN4rnv819JSIV8ValueConverter9ToV8ArrayERKNS_9V8RuntimeERKN8facebook3jsi5ArrayE, symObjAddr: 0x7CC, symBinAddr: 0x48D0, symSize: 0xB0 }
  - { offsetInCU: 0xFE32, offset: 0x1D703, size: 0x8, addend: 0x0, symName: __ZN4rnv819JSIV8ValueConverter12ToV8FunctionERKNS_9V8RuntimeERKN8facebook3jsi8FunctionE, symObjAddr: 0x87C, symBinAddr: 0x4980, symSize: 0xB0 }
  - { offsetInCU: 0xFFF4, offset: 0x1D8C5, size: 0x8, addend: 0x0, symName: __ZN4rnv819JSIV8ValueConverter15ToJSIPropNameIDERKNS_9V8RuntimeERKN2v85LocalINS4_4NameEEE, symObjAddr: 0x92C, symBinAddr: 0x4A30, symSize: 0x90 }
  - { offsetInCU: 0x101B4, offset: 0x1DA85, size: 0x8, addend: 0x0, symName: __ZN4rnv819JSIV8ValueConverter11ToSTLStringERKN2v86String9Utf8ValueE, symObjAddr: 0x9BC, symBinAddr: 0x4AC0, symSize: 0x20 }
  - { offsetInCU: 0x101D6, offset: 0x1DAA7, size: 0x8, addend: 0x0, symName: __ZN4rnv819JSIV8ValueConverter11ToSTLStringERKN2v86String9Utf8ValueE, symObjAddr: 0x9BC, symBinAddr: 0x4AC0, symSize: 0x20 }
  - { offsetInCU: 0x1029B, offset: 0x1DB6C, size: 0x8, addend: 0x0, symName: __ZNSt3__112basic_stringIcNS_11char_traitsIcEENS_9allocatorIcEEEC2B7v160006EPKcm, symObjAddr: 0xAD4, symBinAddr: 0x4BD8, symSize: 0x94 }
  - { offsetInCU: 0x105EE, offset: 0x1DEBF, size: 0x8, addend: 0x0, symName: __ZNKSt3__112basic_stringIcNS_11char_traitsIcEENS_9allocatorIcEEE20__throw_length_errorB7v160006Ev, symObjAddr: 0xB68, symBinAddr: 0x4C6C, symSize: 0x14 }
  - { offsetInCU: 0x1060E, offset: 0x1DEDF, size: 0x8, addend: 0x0, symName: __ZN4rnv819JSIV8ValueConverter11ToSTLStringEPN2v87IsolateERKNS1_5LocalINS1_5ValueEEE, symObjAddr: 0x9DC, symBinAddr: 0x4AE0, symSize: 0xEC }
  - { offsetInCU: 0x10A56, offset: 0x1E327, size: 0x8, addend: 0x0, symName: __ZNKSt3__112basic_stringIcNS_11char_traitsIcEENS_9allocatorIcEEE20__throw_length_errorB7v160006Ev, symObjAddr: 0xB68, symBinAddr: 0x4C6C, symSize: 0x14 }
  - { offsetInCU: 0x10A80, offset: 0x1E351, size: 0x8, addend: 0x0, symName: __ZNSt3__120__throw_length_errorB7v160006EPKc, symObjAddr: 0xB7C, symBinAddr: 0x4C80, symSize: 0x50 }
  - { offsetInCU: 0x10A8B, offset: 0x1E35C, size: 0x8, addend: 0x0, symName: __ZNSt12length_errorC1B7v160006EPKc, symObjAddr: 0xBCC, symBinAddr: 0x4CD0, symSize: 0x24 }
  - { offsetInCU: 0x26, offset: 0x1E40C, size: 0x8, addend: 0x0, symName: __ZN3tns7WeakRef4InitEN2v85LocalINS1_7ContextEEE, symObjAddr: 0x0, symBinAddr: 0x4CF4, symSize: 0x144 }
  - { offsetInCU: 0xCE39, offset: 0x2B21F, size: 0x8, addend: 0x0, symName: __ZN3tns7WeakRef4InitEN2v85LocalINS1_7ContextEEE, symObjAddr: 0x0, symBinAddr: 0x4CF4, symSize: 0x144 }
  - { offsetInCU: 0xD53F, offset: 0x2B925, size: 0x8, addend: 0x0, symName: __ZNSt3__112basic_stringIcNS_11char_traitsIcEENS_9allocatorIcEEEC2B7v160006IDnEEPKc, symObjAddr: 0x144, symBinAddr: 0x4E38, symSize: 0x9C }
  - { offsetInCU: 0x26, offset: 0x2BEF9, size: 0x8, addend: 0x0, symName: __ZN3tns9ExtVector11NewInstanceEPN2v87IsolateEPvP9_ffi_typePKNS_12TypeEncodingES9_, symObjAddr: 0x0, symBinAddr: 0x4ED4, symSize: 0x1E0 }
  - { offsetInCU: 0x602E, offset: 0x31F01, size: 0x8, addend: 0x0, symName: __ZN3tns9ExtVector11NewInstanceEPN2v87IsolateEPvP9_ffi_typePKNS_12TypeEncodingES9_, symObjAddr: 0x0, symBinAddr: 0x4ED4, symSize: 0x1E0 }
  - { offsetInCU: 0x681E, offset: 0x326F1, size: 0x8, addend: 0x0, symName: __ZN3tns9ExtVector22RegisterToStringMethodEPN2v87IsolateENS1_5LocalINS1_14ObjectTemplateEEE, symObjAddr: 0x42C, symBinAddr: 0x5300, symSize: 0xEC }
  - { offsetInCU: 0x6D82, offset: 0x32C55, size: 0x8, addend: 0x0, symName: __ZN3tns9ExtVector26IndexedPropertyGetCallbackEjRKN2v820PropertyCallbackInfoINS1_5ValueEEE, symObjAddr: 0x1E0, symBinAddr: 0x50B4, symSize: 0x138 }
  - { offsetInCU: 0x730C, offset: 0x331DF, size: 0x8, addend: 0x0, symName: __ZN3tns9ExtVector26IndexedPropertySetCallbackEjN2v85LocalINS1_5ValueEEERKNS1_20PropertyCallbackInfoIS3_EE, symObjAddr: 0x318, symBinAddr: 0x51EC, symSize: 0x114 }
  - { offsetInCU: 0x77A5, offset: 0x33678, size: 0x8, addend: 0x0, symName: __ZN3tns16ExtVectorWrapperD1Ev, symObjAddr: 0x518, symBinAddr: 0x53EC, symSize: 0x4 }
  - { offsetInCU: 0x77D0, offset: 0x336A3, size: 0x8, addend: 0x0, symName: __ZN3tns16ExtVectorWrapperD0Ev, symObjAddr: 0x51C, symBinAddr: 0x53F0, symSize: 0x4 }
  - { offsetInCU: 0x77FB, offset: 0x336CE, size: 0x8, addend: 0x0, symName: __ZN3tns16ExtVectorWrapper4TypeEv, symObjAddr: 0x520, symBinAddr: 0x53F4, symSize: 0x8 }
  - { offsetInCU: 0x7A32, offset: 0x33905, size: 0x8, addend: 0x0, symName: '__ZZN3tns9ExtVector22RegisterToStringMethodEPN2v87IsolateENS1_5LocalINS1_14ObjectTemplateEEEEN3$_08__invokeERKNS1_20FunctionCallbackInfoINS1_5ValueEEE', symObjAddr: 0x528, symBinAddr: 0x53FC, symSize: 0x144 }
  - { offsetInCU: 0x59, offset: 0x34114, size: 0x8, addend: 0x0, symName: __ZN3tnsL12NSTimerClassE, symObjAddr: 0x1DEA10, symBinAddr: 0x15786F0, symSize: 0x0 }
  - { offsetInCU: 0x1FC6, offset: 0x36081, size: 0x8, addend: 0x0, symName: __ZN3tns8ToStringEPN2v87IsolateERKNS0_5LocalINS0_5ValueEEE, symObjAddr: 0xFB0, symBinAddr: 0x64F0, symSize: 0xBC }
  - { offsetInCU: 0x124CE, offset: 0x46589, size: 0x8, addend: 0x0, symName: __ZNSt3__124__put_character_sequenceB7v160006IcNS_11char_traitsIcEEEERNS_13basic_ostreamIT_T0_EES7_PKS4_m, symObjAddr: 0x2848, symBinAddr: 0x7BC4, symSize: 0x164 }
  - { offsetInCU: 0x13F81, offset: 0x4803C, size: 0x8, addend: 0x0, symName: __ZNSt3__115allocate_sharedB7v160006IN3tns6CachesENS_9allocatorIS2_EEJRPN2v87IsolateEEvEENS_10shared_ptrIT_EERKT0_DpOT1_, symObjAddr: 0x1158, symBinAddr: 0x6698, symSize: 0x58 }
  - { offsetInCU: 0x1424C, offset: 0x48307, size: 0x8, addend: 0x0, symName: __ZNSt3__115allocate_sharedB7v160006IN2v810PersistentINS1_5ValueENS1_27NonCopyablePersistentTraitsIS3_EEEENS_9allocatorIS6_EEJRPNS1_7IsolateERKNS1_5LocalIS3_EEEvEENS_10shared_ptrIT_EERKT0_DpOT1_, symObjAddr: 0x1DDC, symBinAddr: 0x7158, symSize: 0x60 }
  - { offsetInCU: 0x14810, offset: 0x488CB, size: 0x8, addend: 0x0, symName: __ZNSt3__130__uninitialized_allocator_copyB7v160006INS_9allocatorIN3tns11StructFieldEEEPS3_S5_S5_EET2_RT_T0_T1_S6_, symObjAddr: 0x145C, symBinAddr: 0x691C, symSize: 0xB8 }
  - { offsetInCU: 0x14A15, offset: 0x48AD0, size: 0x8, addend: 0x0, symName: __ZNSt3__119__allocate_at_leastB7v160006INS_9allocatorIN3tns11StructFieldEEEEENS_19__allocation_resultINS_16allocator_traitsIT_E7pointerEEERS7_m, symObjAddr: 0x13A4, symBinAddr: 0x68D8, symSize: 0x44 }
  - { offsetInCU: 0x15924, offset: 0x499DF, size: 0x8, addend: 0x0, symName: __ZNSt3__116__pad_and_outputB7v160006IcNS_11char_traitsIcEEEENS_19ostreambuf_iteratorIT_T0_EES6_PKS4_S8_S8_RNS_8ios_baseES4_, symObjAddr: 0x29AC, symBinAddr: 0x7D28, symSize: 0x13C }
  - { offsetInCU: 0x16257, offset: 0x4A312, size: 0x8, addend: 0x0, symName: __ZSt28__throw_bad_array_new_lengthB7v160006v, symObjAddr: 0x11B0, symBinAddr: 0x66F0, symSize: 0x28 }
  - { offsetInCU: 0x203A0, offset: 0x5445B, size: 0x8, addend: 0x0, symName: __ZN3tns13ObjectManager4InitEPN2v87IsolateENS1_5LocalINS1_14ObjectTemplateEEE, symObjAddr: 0x0, symBinAddr: 0x5540, symSize: 0xEC }
  - { offsetInCU: 0x20910, offset: 0x549CB, size: 0x8, addend: 0x0, symName: __ZNSt3__115allocate_sharedB7v160006IN2v810PersistentINS1_5ValueENS1_27NonCopyablePersistentTraitsIS3_EEEENS_9allocatorIS6_EEJRPNS1_7IsolateERKNS1_5LocalIS3_EEEvEENS_10shared_ptrIT_EERKT0_DpOT1_, symObjAddr: 0x1DDC, symBinAddr: 0x7158, symSize: 0x60 }
  - { offsetInCU: 0x20CE7, offset: 0x54DA2, size: 0x8, addend: 0x0, symName: __ZN3tns13ObjectManager32ReleaseNativeCounterpartCallbackERKN2v820FunctionCallbackInfoINS1_5ValueEEE, symObjAddr: 0xEC, symBinAddr: 0x562C, symSize: 0x470 }
  - { offsetInCU: 0x22097, offset: 0x56152, size: 0x8, addend: 0x0, symName: __ZNSt3__119basic_ostringstreamIcNS_11char_traitsIcEENS_9allocatorIcEEEC1B7v160006Ev, symObjAddr: 0xE50, symBinAddr: 0x6390, symSize: 0xD4 }
  - { offsetInCU: 0x22155, offset: 0x56210, size: 0x8, addend: 0x0, symName: __ZNKSt3__115basic_stringbufIcNS_11char_traitsIcEENS_9allocatorIcEEE3strEv, symObjAddr: 0x2B80, symBinAddr: 0x7EFC, symSize: 0x68 }
  - { offsetInCU: 0x222C6, offset: 0x56381, size: 0x8, addend: 0x0, symName: __ZNK10robin_hood6detail5TableILb1ELm80EP11objc_objectNSt3__110shared_ptrIN2v810PersistentINS6_5ValueENS6_27NonCopyablePersistentTraitsIS8_EEEEEENS_4hashIS3_vEENS4_8equal_toIS3_EEE7findIdxIS3_EEmRKT_, symObjAddr: 0x2C80, symBinAddr: 0x7FFC, symSize: 0xE8 }
  - { offsetInCU: 0x22322, offset: 0x563DD, size: 0x8, addend: 0x0, symName: __ZNK10robin_hood6detail5TableILb1ELm80EP11objc_objectNSt3__110shared_ptrIN2v810PersistentINS6_5ValueENS6_27NonCopyablePersistentTraitsIS8_EEEEEENS_4hashIS3_vEENS4_8equal_toIS3_EEE7findIdxIS3_EEmRKT_, symObjAddr: 0x2C80, symBinAddr: 0x7FFC, symSize: 0xE8 }
  - { offsetInCU: 0x2245E, offset: 0x56519, size: 0x8, addend: 0x0, symName: __ZNSt3__110shared_ptrIN2v810PersistentINS1_5ValueENS1_27NonCopyablePersistentTraitsIS3_EEEEED2B7v160006Ev, symObjAddr: 0x1CA0, symBinAddr: 0x70B8, symSize: 0x50 }
  - { offsetInCU: 0x224E3, offset: 0x5659E, size: 0x8, addend: 0x0, symName: __ZN10robin_hood6detail5TableILb1ELm80EP11objc_objectNSt3__110shared_ptrIN2v810PersistentINS6_5ValueENS6_27NonCopyablePersistentTraitsIS8_EEEEEENS_4hashIS3_vEENS4_8equal_toIS3_EEE5eraseENSH_4IterILb0EEE, symObjAddr: 0x106C, symBinAddr: 0x65AC, symSize: 0xA0 }
  - { offsetInCU: 0x22592, offset: 0x5664D, size: 0x8, addend: 0x0, symName: __ZNSt3__110shared_ptrIN3tns6CachesEED2B7v160006Ev, symObjAddr: 0x1CF0, symBinAddr: 0x7108, symSize: 0x50 }
  - { offsetInCU: 0x22617, offset: 0x566D2, size: 0x8, addend: 0x0, symName: __ZNSt3__119basic_ostringstreamIcNS_11char_traitsIcEENS_9allocatorIcEEED1Ev, symObjAddr: 0xF24, symBinAddr: 0x6464, symSize: 0x8C }
  - { offsetInCU: 0x228F6, offset: 0x569B1, size: 0x8, addend: 0x0, symName: __ZN3tns13ObjectManager8RegisterEN2v85LocalINS1_7ContextEEENS2_INS1_5ValueEEE, symObjAddr: 0x55C, symBinAddr: 0x5A9C, symSize: 0xE4 }
  - { offsetInCU: 0x22D40, offset: 0x56DFB, size: 0x8, addend: 0x0, symName: __ZN3tns13ObjectManager17FinalizerCallbackERKN2v816WeakCallbackInfoINS_23ObjectWeakCallbackStateEEE, symObjAddr: 0x640, symBinAddr: 0x5B80, symSize: 0x98 }
  - { offsetInCU: 0x22F81, offset: 0x5703C, size: 0x8, addend: 0x0, symName: __ZN3tns13ObjectManager12DisposeValueEPN2v87IsolateENS1_5LocalINS1_5ValueEEEb, symObjAddr: 0x6D8, symBinAddr: 0x5C18, symSize: 0x48C }
  - { offsetInCU: 0x24781, offset: 0x5883C, size: 0x8, addend: 0x0, symName: __ZN10robin_hood6detail5TableILb1ELm80EP11objc_objectNSt3__110shared_ptrIN2v810PersistentINS6_5ValueENS6_27NonCopyablePersistentTraitsIS8_EEEEEENS_4hashIS3_vEENS4_8equal_toIS3_EEE5eraseERKS3_, symObjAddr: 0xCC8, symBinAddr: 0x6208, symSize: 0xC4 }
  - { offsetInCU: 0x248A3, offset: 0x5895E, size: 0x8, addend: 0x0, symName: __ZN10robin_hood6detail5TableILb1ELm80EPKvNSt3__110shared_ptrIN2v810PersistentINS6_6ObjectENS6_27NonCopyablePersistentTraitsIS8_EEEEEENS_4hashIS3_vEENS4_8equal_toIS3_EEE5eraseERKS3_, symObjAddr: 0xD8C, symBinAddr: 0x62CC, symSize: 0xC4 }
  - { offsetInCU: 0x249C5, offset: 0x58A80, size: 0x8, addend: 0x0, symName: __ZN3tns17StructTypeWrapper10StructInfoEv, symObjAddr: 0xB64, symBinAddr: 0x60A4, symSize: 0x5C }
  - { offsetInCU: 0x24B73, offset: 0x58C2E, size: 0x8, addend: 0x0, symName: __ZN3tns10StructInfoD1Ev, symObjAddr: 0xBC0, symBinAddr: 0x6100, symSize: 0x38 }
  - { offsetInCU: 0x24D05, offset: 0x58DC0, size: 0x8, addend: 0x0, symName: __ZN10robin_hood6detail5TableILb1ELm80ENSt3__14pairIPvNS2_12basic_stringIcNS2_11char_traitsIcEENS2_9allocatorIcEEEEEENS2_10shared_ptrIN2v810PersistentINSD_5ValueENSD_27NonCopyablePersistentTraitsISF_EEEEEEN3tns9pair_hashENS2_8equal_toISB_EEE5eraseERKSB_, symObjAddr: 0xBF8, symBinAddr: 0x6138, symSize: 0xD0 }
  - { offsetInCU: 0x24E46, offset: 0x58F01, size: 0x8, addend: 0x0, symName: __ZNSt3__16vectorIN3tns11StructFieldENS_9allocatorIS2_EEEC2ERKS5_, symObjAddr: 0x128C, symBinAddr: 0x67C0, symSize: 0xB4 }
  - { offsetInCU: 0x250CC, offset: 0x59187, size: 0x8, addend: 0x0, symName: __ZNSt3__16vectorIN3tns11StructFieldENS_9allocatorIS2_EEED2B7v160006Ev, symObjAddr: 0x165C, symBinAddr: 0x6B1C, symSize: 0x38 }
  - { offsetInCU: 0x251DE, offset: 0x59299, size: 0x8, addend: 0x0, symName: __ZNK3tns9pair_hashclIPvNSt3__112basic_stringIcNS3_11char_traitsIcEENS3_9allocatorIcEEEEEEmRKNS3_4pairIT_T0_EE, symObjAddr: 0x20A0, symBinAddr: 0x741C, symSize: 0x68 }
  - { offsetInCU: 0x25313, offset: 0x593CE, size: 0x8, addend: 0x0, symName: __ZNKSt3__18equal_toINS_4pairIPvNS_12basic_stringIcNS_11char_traitsIcEENS_9allocatorIcEEEEEEEclB7v160006ERKS9_SC_, symObjAddr: 0x1EE4, symBinAddr: 0x7260, symSize: 0xC0 }
  - { offsetInCU: 0x25501, offset: 0x595BC, size: 0x8, addend: 0x0, symName: __ZN10robin_hood6detail5TableILb1ELm80ENSt3__14pairIPvNS2_12basic_stringIcNS2_11char_traitsIcEENS2_9allocatorIcEEEEEENS2_10shared_ptrIN2v810PersistentINSD_5ValueENSD_27NonCopyablePersistentTraitsISF_EEEEEEN3tns9pair_hashENS2_8equal_toISB_EEE9shiftDownEm, symObjAddr: 0x1FA4, symBinAddr: 0x7320, symSize: 0xFC }
  - { offsetInCU: 0x25963, offset: 0x59A1E, size: 0x8, addend: 0x0, symName: __ZN10robin_hood6detail5TableILb1ELm80EP11objc_objectNSt3__110shared_ptrIN2v810PersistentINS6_5ValueENS6_27NonCopyablePersistentTraitsIS8_EEEEEENS_4hashIS3_vEENS4_8equal_toIS3_EEE9shiftDownEm, symObjAddr: 0x265C, symBinAddr: 0x79D8, symSize: 0xA0 }
  - { offsetInCU: 0x25B67, offset: 0x59C22, size: 0x8, addend: 0x0, symName: __ZN10robin_hood6detail5TableILb1ELm80EPKvNSt3__110shared_ptrIN2v810PersistentINS6_6ObjectENS6_27NonCopyablePersistentTraitsIS8_EEEEEENS_4hashIS3_vEENS4_8equal_toIS3_EEE9shiftDownEm, symObjAddr: 0x26FC, symBinAddr: 0x7A78, symSize: 0xA0 }
  - { offsetInCU: 0x260A0, offset: 0x5A15B, size: 0x8, addend: 0x0, symName: __ZN3tns13ObjectManager12IsInstanceOfEP11objc_objectP10objc_class, symObjAddr: 0x110C, symBinAddr: 0x664C, symSize: 0x8 }
  - { offsetInCU: 0x260E6, offset: 0x5A1A1, size: 0x8, addend: 0x0, symName: __ZN3tns13ObjectManager14GetRetainCountEP11objc_object, symObjAddr: 0x1114, symBinAddr: 0x6654, symSize: 0x44 }
  - { offsetInCU: 0x2637D, offset: 0x5A438, size: 0x8, addend: 0x0, symName: __ZNSt3__120__shared_ptr_emplaceIN3tns6CachesENS_9allocatorIS2_EEEC2B7v160006IJRPN2v87IsolateEEEES4_DpOT_, symObjAddr: 0x11D8, symBinAddr: 0x6718, symSize: 0x64 }
  - { offsetInCU: 0x2646E, offset: 0x5A529, size: 0x8, addend: 0x0, symName: __ZNSt3__120__shared_ptr_emplaceIN3tns6CachesENS_9allocatorIS2_EEED1Ev, symObjAddr: 0x123C, symBinAddr: 0x677C, symSize: 0x14 }
  - { offsetInCU: 0x2648F, offset: 0x5A54A, size: 0x8, addend: 0x0, symName: __ZNSt3__120__shared_ptr_emplaceIN3tns6CachesENS_9allocatorIS2_EEED1Ev, symObjAddr: 0x123C, symBinAddr: 0x677C, symSize: 0x14 }
  - { offsetInCU: 0x264C7, offset: 0x5A582, size: 0x8, addend: 0x0, symName: __ZNSt3__120__shared_ptr_emplaceIN3tns6CachesENS_9allocatorIS2_EEED0Ev, symObjAddr: 0x1250, symBinAddr: 0x6790, symSize: 0x24 }
  - { offsetInCU: 0x2652E, offset: 0x5A5E9, size: 0x8, addend: 0x0, symName: __ZNSt3__120__shared_ptr_emplaceIN3tns6CachesENS_9allocatorIS2_EEE16__on_zero_sharedEv, symObjAddr: 0x1274, symBinAddr: 0x67B4, symSize: 0x8 }
  - { offsetInCU: 0x26557, offset: 0x5A612, size: 0x8, addend: 0x0, symName: __ZNSt3__120__shared_ptr_emplaceIN3tns6CachesENS_9allocatorIS2_EEE16__on_zero_sharedEv, symObjAddr: 0x1274, symBinAddr: 0x67B4, symSize: 0x8 }
  - { offsetInCU: 0x26573, offset: 0x5A62E, size: 0x8, addend: 0x0, symName: __ZNSt3__120__shared_ptr_emplaceIN3tns6CachesENS_9allocatorIS2_EEE21__on_zero_shared_weakEv, symObjAddr: 0x127C, symBinAddr: 0x67BC, symSize: 0x4 }
  - { offsetInCU: 0x265A6, offset: 0x5A661, size: 0x8, addend: 0x0, symName: __ZNSt3__120__shared_ptr_emplaceIN3tns6CachesENS_9allocatorIS2_EEE21__on_zero_shared_weakEv, symObjAddr: 0x127C, symBinAddr: 0x67BC, symSize: 0x4 }
  - { offsetInCU: 0x265CA, offset: 0x5A685, size: 0x8, addend: 0x0, symName: __ZNSt3__120__shared_ptr_emplaceIN3tns6CachesENS_9allocatorIS2_EEE21__on_zero_shared_weakEv, symObjAddr: 0x127C, symBinAddr: 0x67BC, symSize: 0x4 }
  - { offsetInCU: 0x265EE, offset: 0x5A6A9, size: 0x8, addend: 0x0, symName: __ZNSt3__120__shared_ptr_emplaceIN3tns6CachesENS_9allocatorIS2_EEE21__on_zero_shared_weakEv, symObjAddr: 0x127C, symBinAddr: 0x67BC, symSize: 0x4 }
  - { offsetInCU: 0x2661C, offset: 0x5A6D7, size: 0x8, addend: 0x0, symName: __ZNSt3__120__shared_ptr_emplaceIN3tns6CachesENS_9allocatorIS2_EEE21__on_zero_shared_weakEv, symObjAddr: 0x127C, symBinAddr: 0x67BC, symSize: 0x4 }
  - { offsetInCU: 0x26645, offset: 0x5A700, size: 0x8, addend: 0x0, symName: __ZNSt3__120__shared_ptr_emplaceIN3tns6CachesENS_9allocatorIS2_EEE21__on_zero_shared_weakEv, symObjAddr: 0x127C, symBinAddr: 0x67BC, symSize: 0x4 }
  - { offsetInCU: 0x26810, offset: 0x5A8CB, size: 0x8, addend: 0x0, symName: __ZNSt3__16vectorIN3tns11StructFieldENS_9allocatorIS2_EEE11__vallocateB7v160006Em, symObjAddr: 0x1340, symBinAddr: 0x6874, symSize: 0x50 }
  - { offsetInCU: 0x26887, offset: 0x5A942, size: 0x8, addend: 0x0, symName: __ZNKSt3__16vectorIN3tns11StructFieldENS_9allocatorIS2_EEE20__throw_length_errorB7v160006Ev, symObjAddr: 0x1390, symBinAddr: 0x68C4, symSize: 0x14 }
  - { offsetInCU: 0x26893, offset: 0x5A94E, size: 0x8, addend: 0x0, symName: __ZNSt3__128__exception_guard_exceptionsINS_6vectorIN3tns11StructFieldENS_9allocatorIS3_EEE16__destroy_vectorEED2B7v160006Ev, symObjAddr: 0x1594, symBinAddr: 0x6A54, symSize: 0x34 }
  - { offsetInCU: 0x268E1, offset: 0x5A99C, size: 0x8, addend: 0x0, symName: __ZNKSt3__16vectorIN3tns11StructFieldENS_9allocatorIS2_EEE20__throw_length_errorB7v160006Ev, symObjAddr: 0x1390, symBinAddr: 0x68C4, symSize: 0x14 }
  - { offsetInCU: 0x2690A, offset: 0x5A9C5, size: 0x8, addend: 0x0, symName: __ZNSt3__119__allocate_at_leastB7v160006INS_9allocatorIN3tns11StructFieldEEEEENS_19__allocation_resultINS_16allocator_traitsIT_E7pointerEEERS7_m, symObjAddr: 0x13A4, symBinAddr: 0x68D8, symSize: 0x44 }
  - { offsetInCU: 0x26ADA, offset: 0x5AB95, size: 0x8, addend: 0x0, symName: __ZNSt3__128__exception_guard_exceptionsINS_29_AllocatorDestroyRangeReverseINS_9allocatorIN3tns11StructFieldEEEPS4_EEED2B7v160006Ev, symObjAddr: 0x1514, symBinAddr: 0x69D4, symSize: 0x34 }
  - { offsetInCU: 0x26B13, offset: 0x5ABCE, size: 0x8, addend: 0x0, symName: __ZNKSt3__129_AllocatorDestroyRangeReverseINS_9allocatorIN3tns11StructFieldEEEPS3_EclB7v160006Ev, symObjAddr: 0x1548, symBinAddr: 0x6A08, symSize: 0x4C }
  - { offsetInCU: 0x26E3A, offset: 0x5AEF5, size: 0x8, addend: 0x0, symName: __ZNSt3__16vectorIN3tns11StructFieldENS_9allocatorIS2_EEE16__destroy_vectorclB7v160006Ev, symObjAddr: 0x15C8, symBinAddr: 0x6A88, symSize: 0x40 }
  - { offsetInCU: 0x26F7C, offset: 0x5B037, size: 0x8, addend: 0x0, symName: __ZNSt3__16vectorIN3tns11StructFieldENS_9allocatorIS2_EEE7__clearB7v160006Ev, symObjAddr: 0x1608, symBinAddr: 0x6AC8, symSize: 0x54 }
  - { offsetInCU: 0x27203, offset: 0x5B2BE, size: 0x8, addend: 0x0, symName: __ZTv0_n24_NSt3__119basic_ostringstreamIcNS_11char_traitsIcEENS_9allocatorIcEEED1Ev, symObjAddr: 0x1694, symBinAddr: 0x6B54, symSize: 0x8C }
  - { offsetInCU: 0x273B6, offset: 0x5B471, size: 0x8, addend: 0x0, symName: __ZNSt3__119basic_ostringstreamIcNS_11char_traitsIcEENS_9allocatorIcEEED0Ev, symObjAddr: 0x1720, symBinAddr: 0x6BE0, symSize: 0x8C }
  - { offsetInCU: 0x2758C, offset: 0x5B647, size: 0x8, addend: 0x0, symName: __ZTv0_n24_NSt3__119basic_ostringstreamIcNS_11char_traitsIcEENS_9allocatorIcEEED0Ev, symObjAddr: 0x17AC, symBinAddr: 0x6C6C, symSize: 0x94 }
  - { offsetInCU: 0x2775B, offset: 0x5B816, size: 0x8, addend: 0x0, symName: __ZNSt3__115basic_stringbufIcNS_11char_traitsIcEENS_9allocatorIcEEED1Ev, symObjAddr: 0x1840, symBinAddr: 0x6D00, symSize: 0x40 }
  - { offsetInCU: 0x278CE, offset: 0x5B989, size: 0x8, addend: 0x0, symName: __ZNSt3__115basic_stringbufIcNS_11char_traitsIcEENS_9allocatorIcEEED0Ev, symObjAddr: 0x1880, symBinAddr: 0x6D40, symSize: 0x44 }
  - { offsetInCU: 0x27B3F, offset: 0x5BBFA, size: 0x8, addend: 0x0, symName: __ZNSt3__115basic_stringbufIcNS_11char_traitsIcEENS_9allocatorIcEEE7seekoffExNS_8ios_base7seekdirEj, symObjAddr: 0x18C4, symBinAddr: 0x6D84, symSize: 0x100 }
  - { offsetInCU: 0x27D4D, offset: 0x5BE08, size: 0x8, addend: 0x0, symName: __ZNSt3__115basic_stringbufIcNS_11char_traitsIcEENS_9allocatorIcEEE7seekposENS_4fposI11__mbstate_tEEj, symObjAddr: 0x19C4, symBinAddr: 0x6E84, symSize: 0x18 }
  - { offsetInCU: 0x27DD2, offset: 0x5BE8D, size: 0x8, addend: 0x0, symName: __ZNSt3__115basic_stringbufIcNS_11char_traitsIcEENS_9allocatorIcEEE9underflowEv, symObjAddr: 0x19DC, symBinAddr: 0x6E9C, symSize: 0x50 }
  - { offsetInCU: 0x27E7A, offset: 0x5BF35, size: 0x8, addend: 0x0, symName: __ZNSt3__115basic_stringbufIcNS_11char_traitsIcEENS_9allocatorIcEEE9pbackfailEi, symObjAddr: 0x1A2C, symBinAddr: 0x6EEC, symSize: 0x6C }
  - { offsetInCU: 0x2805C, offset: 0x5C117, size: 0x8, addend: 0x0, symName: __ZNSt3__115basic_stringbufIcNS_11char_traitsIcEENS_9allocatorIcEEE8overflowEi, symObjAddr: 0x1A98, symBinAddr: 0x6F58, symSize: 0x160 }
  - { offsetInCU: 0x2859B, offset: 0x5C656, size: 0x8, addend: 0x0, symName: __ZNSt3__110shared_ptrIN2v810PersistentINS1_5ValueENS1_27NonCopyablePersistentTraitsIS3_EEEEED2B7v160006Ev, symObjAddr: 0x1CA0, symBinAddr: 0x70B8, symSize: 0x50 }
  - { offsetInCU: 0x287E2, offset: 0x5C89D, size: 0x8, addend: 0x0, symName: __ZNSt3__120__shared_ptr_emplaceIN2v810PersistentINS1_5ValueENS1_27NonCopyablePersistentTraitsIS3_EEEENS_9allocatorIS6_EEEC2B7v160006IJRPNS1_7IsolateERKNS1_5LocalIS3_EEEEES8_DpOT_, symObjAddr: 0x1E3C, symBinAddr: 0x71B8, symSize: 0x68 }
  - { offsetInCU: 0x28A24, offset: 0x5CADF, size: 0x8, addend: 0x0, symName: __ZNSt3__120__shared_ptr_emplaceIN2v810PersistentINS1_5ValueENS1_27NonCopyablePersistentTraitsIS3_EEEENS_9allocatorIS6_EEED1Ev, symObjAddr: 0x1EA4, symBinAddr: 0x7220, symSize: 0x14 }
  - { offsetInCU: 0x28A45, offset: 0x5CB00, size: 0x8, addend: 0x0, symName: __ZNSt3__120__shared_ptr_emplaceIN2v810PersistentINS1_5ValueENS1_27NonCopyablePersistentTraitsIS3_EEEENS_9allocatorIS6_EEED1Ev, symObjAddr: 0x1EA4, symBinAddr: 0x7220, symSize: 0x14 }
  - { offsetInCU: 0x28A7D, offset: 0x5CB38, size: 0x8, addend: 0x0, symName: __ZNSt3__120__shared_ptr_emplaceIN2v810PersistentINS1_5ValueENS1_27NonCopyablePersistentTraitsIS3_EEEENS_9allocatorIS6_EEED0Ev, symObjAddr: 0x1EB8, symBinAddr: 0x7234, symSize: 0x24 }
  - { offsetInCU: 0x28AE4, offset: 0x5CB9F, size: 0x8, addend: 0x0, symName: __ZNSt3__120__shared_ptr_emplaceIN2v810PersistentINS1_5ValueENS1_27NonCopyablePersistentTraitsIS3_EEEENS_9allocatorIS6_EEE16__on_zero_sharedEv, symObjAddr: 0x1EDC, symBinAddr: 0x7258, symSize: 0x4 }
  - { offsetInCU: 0x28B08, offset: 0x5CBC3, size: 0x8, addend: 0x0, symName: __ZNSt3__120__shared_ptr_emplaceIN2v810PersistentINS1_5ValueENS1_27NonCopyablePersistentTraitsIS3_EEEENS_9allocatorIS6_EEE21__on_zero_shared_weakEv, symObjAddr: 0x1EE0, symBinAddr: 0x725C, symSize: 0x4 }
  - { offsetInCU: 0x28B3B, offset: 0x5CBF6, size: 0x8, addend: 0x0, symName: __ZNSt3__120__shared_ptr_emplaceIN2v810PersistentINS1_5ValueENS1_27NonCopyablePersistentTraitsIS3_EEEENS_9allocatorIS6_EEE21__on_zero_shared_weakEv, symObjAddr: 0x1EE0, symBinAddr: 0x725C, symSize: 0x4 }
  - { offsetInCU: 0x28B5F, offset: 0x5CC1A, size: 0x8, addend: 0x0, symName: __ZNSt3__120__shared_ptr_emplaceIN2v810PersistentINS1_5ValueENS1_27NonCopyablePersistentTraitsIS3_EEEENS_9allocatorIS6_EEE21__on_zero_shared_weakEv, symObjAddr: 0x1EE0, symBinAddr: 0x725C, symSize: 0x4 }
  - { offsetInCU: 0x28B83, offset: 0x5CC3E, size: 0x8, addend: 0x0, symName: __ZNSt3__120__shared_ptr_emplaceIN2v810PersistentINS1_5ValueENS1_27NonCopyablePersistentTraitsIS3_EEEENS_9allocatorIS6_EEE21__on_zero_shared_weakEv, symObjAddr: 0x1EE0, symBinAddr: 0x725C, symSize: 0x4 }
  - { offsetInCU: 0x28BAF, offset: 0x5CC6A, size: 0x8, addend: 0x0, symName: __ZNSt3__120__shared_ptr_emplaceIN2v810PersistentINS1_5ValueENS1_27NonCopyablePersistentTraitsIS3_EEEENS_9allocatorIS6_EEE21__on_zero_shared_weakEv, symObjAddr: 0x1EE0, symBinAddr: 0x725C, symSize: 0x4 }
  - { offsetInCU: 0x28BD6, offset: 0x5CC91, size: 0x8, addend: 0x0, symName: __ZNSt3__120__shared_ptr_emplaceIN2v810PersistentINS1_5ValueENS1_27NonCopyablePersistentTraitsIS3_EEEENS_9allocatorIS6_EEE21__on_zero_shared_weakEv, symObjAddr: 0x1EE0, symBinAddr: 0x725C, symSize: 0x4 }
  - { offsetInCU: 0x28D60, offset: 0x5CE1B, size: 0x8, addend: 0x0, symName: __ZNSt3__110shared_ptrIN2v810PersistentINS1_5ValueENS1_27NonCopyablePersistentTraitsIS3_EEEEEaSB7v160006EOS7_, symObjAddr: 0x2600, symBinAddr: 0x797C, symSize: 0x5C }
  - { offsetInCU: 0x2907E, offset: 0x5D139, size: 0x8, addend: 0x0, symName: __ZNKSt3__113__string_hashIcNS_9allocatorIcEEEclERKNS_12basic_stringIcNS_11char_traitsIcEES2_EE, symObjAddr: 0x2108, symBinAddr: 0x7484, symSize: 0x3C }
  - { offsetInCU: 0x29149, offset: 0x5D204, size: 0x8, addend: 0x0, symName: __ZNSt3__121__murmur2_or_cityhashImLm64EEclEPKvm, symObjAddr: 0x2144, symBinAddr: 0x74C0, symSize: 0x208 }
  - { offsetInCU: 0x297A2, offset: 0x5D85D, size: 0x8, addend: 0x0, symName: __ZNSt3__121__murmur2_or_cityhashImLm64EE18__hash_len_0_to_16EPKcm, symObjAddr: 0x234C, symBinAddr: 0x76C8, symSize: 0xF8 }
  - { offsetInCU: 0x29976, offset: 0x5DA31, size: 0x8, addend: 0x0, symName: __ZNSt3__121__murmur2_or_cityhashImLm64EE19__hash_len_33_to_64EPKcm, symObjAddr: 0x24F0, symBinAddr: 0x786C, symSize: 0x110 }
  - { offsetInCU: 0x29B07, offset: 0x5DBC2, size: 0x8, addend: 0x0, symName: __ZNSt3__121__murmur2_or_cityhashImLm64EE19__hash_len_17_to_32EPKcm, symObjAddr: 0x2444, symBinAddr: 0x77C0, symSize: 0xAC }
  - { offsetInCU: 0x29E66, offset: 0x5DF21, size: 0x8, addend: 0x0, symName: __ZNSt3__110shared_ptrIN2v810PersistentINS1_6ObjectENS1_27NonCopyablePersistentTraitsIS3_EEEEEaSB7v160006EOS7_, symObjAddr: 0x279C, symBinAddr: 0x7B18, symSize: 0x5C }
  - { offsetInCU: 0x29FC4, offset: 0x5E07F, size: 0x8, addend: 0x0, symName: __ZNSt3__110shared_ptrIN2v810PersistentINS1_6ObjectENS1_27NonCopyablePersistentTraitsIS3_EEEEED2B7v160006Ev, symObjAddr: 0x27F8, symBinAddr: 0x7B74, symSize: 0x50 }
  - { offsetInCU: 0x2A321, offset: 0x5E3DC, size: 0x8, addend: 0x0, symName: __ZNSt3__112basic_stringIcNS_11char_traitsIcEENS_9allocatorIcEEEC2B7v160006Emc, symObjAddr: 0x2AE8, symBinAddr: 0x7E64, symSize: 0x98 }
  - { offsetInCU: 0x2A54E, offset: 0x5E609, size: 0x8, addend: 0x0, symName: __ZNKSt3__115basic_stringbufIcNS_11char_traitsIcEENS_9allocatorIcEEE3strEv, symObjAddr: 0x2B80, symBinAddr: 0x7EFC, symSize: 0x68 }
  - { offsetInCU: 0x2A665, offset: 0x5E720, size: 0x8, addend: 0x0, symName: __ZNSt3__112basic_stringIcNS_11char_traitsIcEENS_9allocatorIcEEEC2B7v160006IPcvEET_S8_RKS4_, symObjAddr: 0x2BE8, symBinAddr: 0x7F64, symSize: 0x98 }
  - { offsetInCU: 0x2A8B4, offset: 0x5E96F, size: 0x8, addend: 0x0, symName: __ZNK10robin_hood6detail5TableILb1ELm80EP11objc_objectNSt3__110shared_ptrIN2v810PersistentINS6_5ValueENS6_27NonCopyablePersistentTraitsIS8_EEEEEENS_4hashIS3_vEENS4_8equal_toIS3_EEE7findIdxIS3_EEmRKT_, symObjAddr: 0x2C80, symBinAddr: 0x7FFC, symSize: 0xE8 }
  - { offsetInCU: 0x53, offset: 0x5EA69, size: 0x8, addend: 0x0, symName: __ZN12v8_inspector19JsV8InspectorClient7DomainsE, symObjAddr: 0x871AB0, symBinAddr: 0x158D6D0, symSize: 0x0 }
  - { offsetInCU: 0x72403, offset: 0xD0E19, size: 0x8, addend: 0x0, symName: __ZNSt3__125__throw_bad_function_callB7v160006Ev, symObjAddr: 0x44D0, symBinAddr: 0xC27C, symSize: 0x34 }
  - { offsetInCU: 0x7308A, offset: 0xD1AA0, size: 0x8, addend: 0x0, symName: __ZNSt3__119__allocate_at_leastB7v160006INS_9allocatorIPNS_12basic_stringIcNS_11char_traitsIcEENS1_IcEEEEEEEENS_19__allocation_resultINS_16allocator_traitsIT_E7pointerEEERSB_m, symObjAddr: 0x41BC, symBinAddr: 0xBF68, symSize: 0x34 }
  - { offsetInCU: 0x7312F, offset: 0xD1B45, size: 0x8, addend: 0x0, symName: '__ZNSt3__110__function6__funcIZN12v8_inspector19JsV8InspectorClient25onFrontendMessageReceivedENS_12basic_stringIcNS_11char_traitsIcEENS_9allocatorIcEEEEE3$_2NS7_ISA_EEFvvEED1Ev', symObjAddr: 0x41F0, symBinAddr: 0xBF9C, symSize: 0x3C }
  - { offsetInCU: 0x736C3, offset: 0xD20D9, size: 0x8, addend: 0x0, symName: __ZNSt3__127__tree_balance_after_insertB7v160006IPNS_16__tree_node_baseIPvEEEEvT_S5_, symObjAddr: 0x4998, symBinAddr: 0xC6A8, symSize: 0x198 }
  - { offsetInCU: 0x7A3B8, offset: 0xD8DCE, size: 0x8, addend: 0x0, symName: __ZN3tns10ToV8StringEPN2v87IsolateERKNSt3__112basic_stringIcNS3_11char_traitsIcEENS3_9allocatorIcEEEE, symObjAddr: 0x1A38, symBinAddr: 0x9B40, symSize: 0x50 }
  - { offsetInCU: 0x8CCC1, offset: 0xEB6D7, size: 0x8, addend: 0x0, symName: ____ZN12v8_inspector19JsV8InspectorClient15enableInspectorEiPPc_block_invoke_4, symObjAddr: 0x460, symBinAddr: 0x8568, symSize: 0x190 }
  - { offsetInCU: 0x8D526, offset: 0xEBF3C, size: 0x8, addend: 0x0, symName: __ZN12v8_inspector19JsV8InspectorClient25onFrontendMessageReceivedENSt3__112basic_stringIcNS1_11char_traitsIcEENS1_9allocatorIcEEEE, symObjAddr: 0xA08, symBinAddr: 0x8B10, symSize: 0x1BC }
  - { offsetInCU: 0x9017B, offset: 0xEEB91, size: 0x8, addend: 0x0, symName: __ZN12v8_inspector19JsV8InspectorClientC2EPN3tns7RuntimeE, symObjAddr: 0x0, symBinAddr: 0x8108, symSize: 0xD0 }
  - { offsetInCU: 0x90454, offset: 0xEEE6A, size: 0x8, addend: 0x0, symName: __ZN12v8_inspector19JsV8InspectorClientC2EPN3tns7RuntimeE.cold.1, symObjAddr: 0x4BCC, symBinAddr: 0xB8FC64, symSize: 0x20 }
  - { offsetInCU: 0x904DF, offset: 0xEEEF5, size: 0x8, addend: 0x0, symName: __ZN12v8_inspector19JsV8InspectorClientC1EPN3tns7RuntimeE, symObjAddr: 0xD0, symBinAddr: 0x81D8, symSize: 0x4 }
  - { offsetInCU: 0x90519, offset: 0xEEF2F, size: 0x8, addend: 0x0, symName: __ZN12v8_inspector19JsV8InspectorClientC1EPN3tns7RuntimeE, symObjAddr: 0xD0, symBinAddr: 0x81D8, symSize: 0x4 }
  - { offsetInCU: 0x90524, offset: 0xEEF3A, size: 0x8, addend: 0x0, symName: __ZN12v8_inspector19JsV8InspectorClient15enableInspectorEiPPc, symObjAddr: 0xD4, symBinAddr: 0x81DC, symSize: 0x23C }
  - { offsetInCU: 0x90756, offset: 0xEF16C, size: 0x8, addend: 0x0, symName: ____ZN12v8_inspector19JsV8InspectorClient15enableInspectorEiPPc_block_invoke, symObjAddr: 0x310, symBinAddr: 0x8418, symSize: 0xD4 }
  - { offsetInCU: 0x90922, offset: 0xEF338, size: 0x8, addend: 0x0, symName: ____ZN12v8_inspector19JsV8InspectorClient15enableInspectorEiPPc_block_invoke_2, symObjAddr: 0x3E4, symBinAddr: 0x84EC, symSize: 0x2C }
  - { offsetInCU: 0x9095B, offset: 0xEF371, size: 0x8, addend: 0x0, symName: ____ZN12v8_inspector19JsV8InspectorClient15enableInspectorEiPPc_block_invoke_3, symObjAddr: 0x410, symBinAddr: 0x8518, symSize: 0x50 }
  - { offsetInCU: 0x90E3D, offset: 0xEF853, size: 0x8, addend: 0x0, symName: ____ZN12v8_inspector19JsV8InspectorClient15enableInspectorEiPPc_block_invoke_4.cold.1, symObjAddr: 0x4BEC, symBinAddr: 0xB8FC84, symSize: 0x40 }
  - { offsetInCU: 0x90EAF, offset: 0xEF8C5, size: 0x8, addend: 0x0, symName: __ZN12v8_inspector19JsV8InspectorClient19onFrontendConnectedENSt3__18functionIFvNS1_12basic_stringIcNS1_11char_traitsIcEENS1_9allocatorIcEEEEEEE, symObjAddr: 0x5F0, symBinAddr: 0x86F8, symSize: 0xAC }
  - { offsetInCU: 0x90F4D, offset: 0xEF963, size: 0x8, addend: 0x0, symName: __ZNSt3__18functionIFvNS_12basic_stringIcNS_11char_traitsIcEENS_9allocatorIcEEEEEEaSERKS8_, symObjAddr: 0x89C, symBinAddr: 0x89A4, symSize: 0x98 }
  - { offsetInCU: 0x910CB, offset: 0xEFAE1, size: 0x8, addend: 0x0, symName: __ZN12v8_inspector19JsV8InspectorClient10disconnectEv, symObjAddr: 0x934, symBinAddr: 0x8A3C, symSize: 0xD4 }
  - { offsetInCU: 0x91286, offset: 0xEFC9C, size: 0x8, addend: 0x0, symName: ____ZN12v8_inspector19JsV8InspectorClient19onFrontendConnectedENSt3__18functionIFvNS1_12basic_stringIcNS1_11char_traitsIcEENS1_9allocatorIcEEEEEEE_block_invoke, symObjAddr: 0x69C, symBinAddr: 0x87A4, symSize: 0x38 }
  - { offsetInCU: 0x912CD, offset: 0xEFCE3, size: 0x8, addend: 0x0, symName: __ZN12v8_inspector19JsV8InspectorClient13scheduleBreakEv, symObjAddr: 0x6D4, symBinAddr: 0x87DC, symSize: 0x1C8 }
  - { offsetInCU: 0x91EB4, offset: 0xF08CA, size: 0x8, addend: 0x0, symName: __ZNSt3__15dequeINS_12basic_stringIcNS_11char_traitsIcEENS_9allocatorIcEEEENS4_IS6_EEE9pop_frontEv, symObjAddr: 0x45B8, symBinAddr: 0xC2C8, symSize: 0x74 }
  - { offsetInCU: 0x91F5E, offset: 0xF0974, size: 0x8, addend: 0x0, symName: __ZNSt3__110__function12__value_funcIFvNS_12basic_stringIcNS_11char_traitsIcEENS_9allocatorIcEEEEEEC2B7v160006ERKS9_, symObjAddr: 0x3638, symBinAddr: 0xB3E4, symSize: 0x64 }
  - { offsetInCU: 0x91FA3, offset: 0xF09B9, size: 0x8, addend: 0x0, symName: __ZNSt3__110__function12__value_funcIFvNS_12basic_stringIcNS_11char_traitsIcEENS_9allocatorIcEEEEEE4swapB7v160006ERS9_, symObjAddr: 0x3800, symBinAddr: 0xB5AC, symSize: 0x16C }
  - { offsetInCU: 0x9209A, offset: 0xF0AB0, size: 0x8, addend: 0x0, symName: __ZN12v8_inspector19JsV8InspectorClient22createInspectorSessionEv, symObjAddr: 0xD78, symBinAddr: 0x8E80, symSize: 0x88 }
  - { offsetInCU: 0x927DC, offset: 0xF11F2, size: 0x8, addend: 0x0, symName: ____ZN12v8_inspector19JsV8InspectorClient25onFrontendMessageReceivedENSt3__112basic_stringIcNS1_11char_traitsIcEENS1_9allocatorIcEEEE_block_invoke, symObjAddr: 0xBC4, symBinAddr: 0x8CCC, symSize: 0x30 }
  - { offsetInCU: 0x92856, offset: 0xF126C, size: 0x8, addend: 0x0, symName: __ZNSt3__15dequeINS_12basic_stringIcNS_11char_traitsIcEENS_9allocatorIcEEEENS4_IS6_EEE9push_backERKS6_, symObjAddr: 0x396C, symBinAddr: 0xB718, symSize: 0xAC }
  - { offsetInCU: 0x929B5, offset: 0xF13CB, size: 0x8, addend: 0x0, symName: ___copy_helper_block_e8_40c66_ZTSNSt3__112basic_stringIcNS_11char_traitsIcEENS_9allocatorIcEEEE, symObjAddr: 0xBF4, symBinAddr: 0x8CFC, symSize: 0xC }
  - { offsetInCU: 0x929DE, offset: 0xF13F4, size: 0x8, addend: 0x0, symName: ___destroy_helper_block_e8_40c66_ZTSNSt3__112basic_stringIcNS_11char_traitsIcEENS_9allocatorIcEEEE, symObjAddr: 0xC00, symBinAddr: 0x8D08, symSize: 0x14 }
  - { offsetInCU: 0x92A2E, offset: 0xF1444, size: 0x8, addend: 0x0, symName: ___destroy_helper_block_e8_40c66_ZTSNSt3__112basic_stringIcNS_11char_traitsIcEENS_9allocatorIcEEEE, symObjAddr: 0xC00, symBinAddr: 0x8D08, symSize: 0x14 }
  - { offsetInCU: 0x92D29, offset: 0xF173F, size: 0x8, addend: 0x0, symName: __ZN12v8_inspector19JsV8InspectorClient4initEv, symObjAddr: 0xC14, symBinAddr: 0x8D1C, symSize: 0x164 }
  - { offsetInCU: 0x930F3, offset: 0xF1B09, size: 0x8, addend: 0x0, symName: __ZNKSt3__114default_deleteIN3tns9inspector16TracingAgentImplEEclB7v160006EPS3_, symObjAddr: 0x4448, symBinAddr: 0xC1F4, symSize: 0x38 }
  - { offsetInCU: 0x932CF, offset: 0xF1CE5, size: 0x8, addend: 0x0, symName: __ZN12v8_inspector19JsV8InspectorClient7connectEiPPc, symObjAddr: 0xE00, symBinAddr: 0x8F08, symSize: 0xC }
  - { offsetInCU: 0x93428, offset: 0xF1E3E, size: 0x8, addend: 0x0, symName: __ZN12v8_inspector19JsV8InspectorClient21runMessageLoopOnPauseEi, symObjAddr: 0xE0C, symBinAddr: 0x8F14, symSize: 0x1EC }
  - { offsetInCU: 0x93968, offset: 0xF237E, size: 0x8, addend: 0x0, symName: __ZN12v8_inspector19JsV8InspectorClient11PumpMessageEv, symObjAddr: 0x1040, symBinAddr: 0x9148, symSize: 0xE8 }
  - { offsetInCU: 0x93C77, offset: 0xF268D, size: 0x8, addend: 0x0, symName: __ZN12v8_inspector19JsV8InspectorClient15dispatchMessageERKNSt3__112basic_stringIcNS1_11char_traitsIcEENS1_9allocatorIcEEEE, symObjAddr: 0x1128, symBinAddr: 0x9230, symSize: 0x6CC }
  - { offsetInCU: 0x9562A, offset: 0xF4040, size: 0x8, addend: 0x0, symName: __ZNSt3__110shared_ptrIN2v88PlatformEED2B7v160006Ev, symObjAddr: 0x4480, symBinAddr: 0xC22C, symSize: 0x50 }
  - { offsetInCU: 0x956AF, offset: 0xF40C5, size: 0x8, addend: 0x0, symName: ____ZN12v8_inspector19JsV8InspectorClient21runMessageLoopOnPauseEi_block_invoke, symObjAddr: 0xFF8, symBinAddr: 0x9100, symSize: 0x2C }
  - { offsetInCU: 0x956F0, offset: 0xF4106, size: 0x8, addend: 0x0, symName: ___copy_helper_block_e8_32r, symObjAddr: 0x1024, symBinAddr: 0x912C, symSize: 0x10 }
  - { offsetInCU: 0x95719, offset: 0xF412F, size: 0x8, addend: 0x0, symName: ___destroy_helper_block_e8_32r, symObjAddr: 0x1034, symBinAddr: 0x913C, symSize: 0xC }
  - { offsetInCU: 0x95C99, offset: 0xF46AF, size: 0x8, addend: 0x0, symName: __ZN12v8_inspector19JsV8InspectorClient25CallDomainHandlerFunctionEN2v85LocalINS1_7ContextEEENS2_INS1_8FunctionEEERKNS2_INS1_6ObjectEEERS8_RNS2_INS1_5ValueEEE, symObjAddr: 0x1A88, symBinAddr: 0x9B90, symSize: 0x2B0 }
  - { offsetInCU: 0x96346, offset: 0xF4D5C, size: 0x8, addend: 0x0, symName: __ZN12v8_inspector19JsV8InspectorClient39GetReturnMessageFromDomainHandlerResultERKN2v85LocalINS1_5ValueEEES6_, symObjAddr: 0x1D38, symBinAddr: 0x9E40, symSize: 0x4DC }
  - { offsetInCU: 0x97811, offset: 0xF6227, size: 0x8, addend: 0x0, symName: ____ZN12v8_inspector19JsV8InspectorClient21runMessageLoopOnPauseEi_block_invoke.18, symObjAddr: 0x17F4, symBinAddr: 0x98FC, symSize: 0x10 }
  - { offsetInCU: 0x9783A, offset: 0xF6250, size: 0x8, addend: 0x0, symName: __ZN12v8_inspector19JsV8InspectorClient22quitMessageLoopOnPauseEv, symObjAddr: 0x1804, symBinAddr: 0x990C, symSize: 0x58 }
  - { offsetInCU: 0x97871, offset: 0xF6287, size: 0x8, addend: 0x0, symName: ____ZN12v8_inspector19JsV8InspectorClient22quitMessageLoopOnPauseEv_block_invoke, symObjAddr: 0x185C, symBinAddr: 0x9964, symSize: 0x10 }
  - { offsetInCU: 0x9789A, offset: 0xF62B0, size: 0x8, addend: 0x0, symName: __ZN12v8_inspector19JsV8InspectorClient12sendResponseEiNSt3__110unique_ptrINS_12StringBufferENS1_14default_deleteIS3_EEEE, symObjAddr: 0x186C, symBinAddr: 0x9974, symSize: 0x74 }
  - { offsetInCU: 0x97AFF, offset: 0xF6515, size: 0x8, addend: 0x0, symName: __ZN12v8_inspector19JsV8InspectorClient6notifyENSt3__110unique_ptrINS_12StringBufferENS1_14default_deleteIS3_EEEE, symObjAddr: 0x18E0, symBinAddr: 0x99E8, symSize: 0xCC }
  - { offsetInCU: 0x9816B, offset: 0xF6B81, size: 0x8, addend: 0x0, symName: __ZThn8_N12v8_inspector19JsV8InspectorClient12sendResponseEiNSt3__110unique_ptrINS_12StringBufferENS1_14default_deleteIS3_EEEE, symObjAddr: 0x19AC, symBinAddr: 0x9AB4, symSize: 0x8 }
  - { offsetInCU: 0x98190, offset: 0xF6BA6, size: 0x8, addend: 0x0, symName: __ZN12v8_inspector19JsV8InspectorClient16sendNotificationENSt3__110unique_ptrINS_12StringBufferENS1_14default_deleteIS3_EEEE, symObjAddr: 0x19B4, symBinAddr: 0x9ABC, symSize: 0x74 }
  - { offsetInCU: 0x983EA, offset: 0xF6E00, size: 0x8, addend: 0x0, symName: __ZThn8_N12v8_inspector19JsV8InspectorClient16sendNotificationENSt3__110unique_ptrINS_12StringBufferENS1_14default_deleteIS3_EEEE, symObjAddr: 0x1A28, symBinAddr: 0x9B30, symSize: 0x8 }
  - { offsetInCU: 0x9840F, offset: 0xF6E25, size: 0x8, addend: 0x0, symName: __ZN12v8_inspector19JsV8InspectorClient26flushProtocolNotificationsEv, symObjAddr: 0x1A30, symBinAddr: 0x9B38, symSize: 0x4 }
  - { offsetInCU: 0x98433, offset: 0xF6E49, size: 0x8, addend: 0x0, symName: __ZThn8_N12v8_inspector19JsV8InspectorClient26flushProtocolNotificationsEv, symObjAddr: 0x1A34, symBinAddr: 0x9B3C, symSize: 0x4 }
  - { offsetInCU: 0x98745, offset: 0xF715B, size: 0x8, addend: 0x0, symName: __ZN12v8_inspector19JsV8InspectorClient27ensureDefaultContextInGroupEi, symObjAddr: 0x2214, symBinAddr: 0xA31C, symSize: 0x2C }
  - { offsetInCU: 0x987F8, offset: 0xF720E, size: 0x8, addend: 0x0, symName: ___Block_byref_object_copy_, symObjAddr: 0x2240, symBinAddr: 0xA348, symSize: 0x1C }
  - { offsetInCU: 0x98820, offset: 0xF7236, size: 0x8, addend: 0x0, symName: ___Block_byref_object_copy_, symObjAddr: 0x2240, symBinAddr: 0xA348, symSize: 0x1C }
  - { offsetInCU: 0x98846, offset: 0xF725C, size: 0x8, addend: 0x0, symName: ___Block_byref_object_copy_, symObjAddr: 0x2240, symBinAddr: 0xA348, symSize: 0x1C }
  - { offsetInCU: 0x9888D, offset: 0xF72A3, size: 0x8, addend: 0x0, symName: ___Block_byref_object_dispose_, symObjAddr: 0x225C, symBinAddr: 0xA364, symSize: 0x14 }
  - { offsetInCU: 0x988DD, offset: 0xF72F3, size: 0x8, addend: 0x0, symName: ___Block_byref_object_dispose_, symObjAddr: 0x225C, symBinAddr: 0xA364, symSize: 0x14 }
  - { offsetInCU: 0x98A4B, offset: 0xF7461, size: 0x8, addend: 0x0, symName: ____ZN12v8_inspector19JsV8InspectorClient11PumpMessageEv_block_invoke, symObjAddr: 0x2270, symBinAddr: 0xA378, symSize: 0x74 }
  - { offsetInCU: 0x98B52, offset: 0xF7568, size: 0x8, addend: 0x0, symName: __ZNSt3__15dequeINS_12basic_stringIcNS_11char_traitsIcEENS_9allocatorIcEEEENS4_IS6_EEE9pop_frontEv, symObjAddr: 0x45B8, symBinAddr: 0xC2C8, symSize: 0x74 }
  - { offsetInCU: 0x98D4C, offset: 0xF7762, size: 0x8, addend: 0x0, symName: __ZN12v8_inspector19JsV8InspectorClient15registerModulesEv, symObjAddr: 0x22E4, symBinAddr: 0xA3EC, symSize: 0x44C }
  - { offsetInCU: 0x99B2E, offset: 0xF8544, size: 0x8, addend: 0x0, symName: __ZN12v8_inspector19JsV8InspectorClient32registerDomainDispatcherCallbackERKN2v820FunctionCallbackInfoINS1_5ValueEEE, symObjAddr: 0x2730, symBinAddr: 0xA838, symSize: 0x174 }
  - { offsetInCU: 0x9A10E, offset: 0xF8B24, size: 0x8, addend: 0x0, symName: __ZNSt3__16__treeINS_12__value_typeINS_12basic_stringIcNS_11char_traitsIcEENS_9allocatorIcEEEEPN2v810PersistentINS8_6ObjectENS8_27NonCopyablePersistentTraitsISA_EEEEEENS_19__map_value_compareIS7_SF_NS_4lessIS7_EELb1EEENS5_ISF_EEE4findIS7_EENS_15__tree_iteratorISF_PNS_11__tree_nodeISF_PvEElEERKT_, symObjAddr: 0x4690, symBinAddr: 0xC3A0, symSize: 0x8C }
  - { offsetInCU: 0x9A23C, offset: 0xF8C52, size: 0x8, addend: 0x0, symName: __ZNSt3__16__treeINS_12__value_typeINS_12basic_stringIcNS_11char_traitsIcEENS_9allocatorIcEEEEPN2v810PersistentINS8_6ObjectENS8_27NonCopyablePersistentTraitsISA_EEEEEENS_19__map_value_compareIS7_SF_NS_4lessIS7_EELb1EEENS5_ISF_EEE25__emplace_unique_key_argsIS7_JRS7_RSE_EEENS_4pairINS_15__tree_iteratorISF_PNS_11__tree_nodeISF_PvEElEEbEERKT_DpOT0_, symObjAddr: 0x4798, symBinAddr: 0xC4A8, symSize: 0x84 }
  - { offsetInCU: 0x9A39E, offset: 0xF8DB4, size: 0x8, addend: 0x0, symName: __ZN12v8_inspector19JsV8InspectorClient26inspectorSendEventCallbackERKN2v820FunctionCallbackInfoINS1_5ValueEEE, symObjAddr: 0x28A4, symBinAddr: 0xA9AC, symSize: 0x164 }
  - { offsetInCU: 0x9AEAB, offset: 0xF98C1, size: 0x8, addend: 0x0, symName: __ZN12v8_inspector19JsV8InspectorClient26inspectorTimestampCallbackERKN2v820FunctionCallbackInfoINS1_5ValueEEE, symObjAddr: 0x2A08, symBinAddr: 0xAB10, symSize: 0x48 }
  - { offsetInCU: 0x9B5BA, offset: 0xF9FD0, size: 0x8, addend: 0x0, symName: __ZN12v8_inspector19JsV8InspectorClient10consoleLogEPN2v87IsolateENS_14ConsoleAPITypeERKNSt3__16vectorINS1_5LocalINS1_5ValueEEENS5_9allocatorIS9_EEEE, symObjAddr: 0x2B0C, symBinAddr: 0xAB58, symSize: 0x1CC }
  - { offsetInCU: 0x9BE66, offset: 0xFA87C, size: 0x8, addend: 0x0, symName: __ZN12v8_inspector19JsV8InspectorClient10consoleLogEPN2v87IsolateENS_14ConsoleAPITypeERKNSt3__16vectorINS1_5LocalINS1_5ValueEEENS5_9allocatorIS9_EEEE.cold.1, symObjAddr: 0x4C2C, symBinAddr: 0xB8FCC4, symSize: 0x20 }
  - { offsetInCU: 0x9C006, offset: 0xFAA1C, size: 0x8, addend: 0x0, symName: __ZNSt3__13mapINS_12basic_stringIcNS_11char_traitsIcEENS_9allocatorIcEEEEPN2v810PersistentINS7_6ObjectENS7_27NonCopyablePersistentTraitsIS9_EEEENS_4lessIS6_EENS4_INS_4pairIKS6_SD_EEEEED1B7v160006Ev, symObjAddr: 0x2CD8, symBinAddr: 0xAD24, symSize: 0x28 }
  - { offsetInCU: 0x9C0B7, offset: 0xFAACD, size: 0x8, addend: 0x0, symName: __ZNSt3__16__treeINS_12__value_typeINS_12basic_stringIcNS_11char_traitsIcEENS_9allocatorIcEEEEPN2v810PersistentINS8_6ObjectENS8_27NonCopyablePersistentTraitsISA_EEEEEENS_19__map_value_compareIS7_SF_NS_4lessIS7_EELb1EEENS5_ISF_EEE7destroyEPNS_11__tree_nodeISF_PvEE, symObjAddr: 0x4B7C, symBinAddr: 0xC88C, symSize: 0x50 }
  - { offsetInCU: 0x9C418, offset: 0xFAE2E, size: 0x8, addend: 0x0, symName: __ZN12v8_inspector19JsV8InspectorClientD1Ev, symObjAddr: 0x2D00, symBinAddr: 0xAD4C, symSize: 0xA8 }
  - { offsetInCU: 0x9C709, offset: 0xFB11F, size: 0x8, addend: 0x0, symName: __ZNSt3__15dequeINS_12basic_stringIcNS_11char_traitsIcEENS_9allocatorIcEEEENS4_IS6_EEED2B7v160006Ev, symObjAddr: 0x3284, symBinAddr: 0xB080, symSize: 0x144 }
  - { offsetInCU: 0x9CC2F, offset: 0xFB645, size: 0x8, addend: 0x0, symName: __ZN12v8_inspector19JsV8InspectorClientD0Ev, symObjAddr: 0x2DA8, symBinAddr: 0xADF4, symSize: 0xA8 }
  - { offsetInCU: 0x9CF3C, offset: 0xFB952, size: 0x8, addend: 0x0, symName: __ZN12v8_inspector17V8InspectorClient23runIfWaitingForDebuggerEi, symObjAddr: 0x2E50, symBinAddr: 0xAE9C, symSize: 0x4 }
  - { offsetInCU: 0x9CF6E, offset: 0xFB984, size: 0x8, addend: 0x0, symName: __ZN12v8_inspector17V8InspectorClient11muteMetricsEi, symObjAddr: 0x2E54, symBinAddr: 0xAEA0, symSize: 0x4 }
  - { offsetInCU: 0x9CFA0, offset: 0xFB9B6, size: 0x8, addend: 0x0, symName: __ZN12v8_inspector17V8InspectorClient13unmuteMetricsEi, symObjAddr: 0x2E58, symBinAddr: 0xAEA4, symSize: 0x4 }
  - { offsetInCU: 0x9CFD2, offset: 0xFB9E8, size: 0x8, addend: 0x0, symName: __ZN12v8_inspector17V8InspectorClient16beginUserGestureEv, symObjAddr: 0x2E5C, symBinAddr: 0xAEA8, symSize: 0x4 }
  - { offsetInCU: 0x9CFF6, offset: 0xFBA0C, size: 0x8, addend: 0x0, symName: __ZN12v8_inspector17V8InspectorClient14endUserGestureEv, symObjAddr: 0x2E60, symBinAddr: 0xAEAC, symSize: 0x4 }
  - { offsetInCU: 0x9D117, offset: 0xFBB2D, size: 0x8, addend: 0x0, symName: __ZN12v8_inspector17V8InspectorClient25serializeToWebDriverValueEN2v85LocalINS1_5ValueEEEi, symObjAddr: 0x2E64, symBinAddr: 0xAEB0, symSize: 0x8 }
  - { offsetInCU: 0x9D15A, offset: 0xFBB70, size: 0x8, addend: 0x0, symName: __ZN12v8_inspector17V8InspectorClient25serializeToWebDriverValueEN2v85LocalINS1_5ValueEEEi, symObjAddr: 0x2E64, symBinAddr: 0xAEB0, symSize: 0x8 }
  - { offsetInCU: 0x9D17C, offset: 0xFBB92, size: 0x8, addend: 0x0, symName: __ZN12v8_inspector17V8InspectorClient25serializeToWebDriverValueEN2v85LocalINS1_5ValueEEEi, symObjAddr: 0x2E64, symBinAddr: 0xAEB0, symSize: 0x8 }
  - { offsetInCU: 0x9D19E, offset: 0xFBBB4, size: 0x8, addend: 0x0, symName: __ZN12v8_inspector17V8InspectorClient25serializeToWebDriverValueEN2v85LocalINS1_5ValueEEEi, symObjAddr: 0x2E64, symBinAddr: 0xAEB0, symSize: 0x8 }
  - { offsetInCU: 0x9D1B9, offset: 0xFBBCF, size: 0x8, addend: 0x0, symName: __ZN12v8_inspector17V8InspectorClient25serializeToWebDriverValueEN2v85LocalINS1_5ValueEEEi, symObjAddr: 0x2E64, symBinAddr: 0xAEB0, symSize: 0x8 }
  - { offsetInCU: 0x9D1D4, offset: 0xFBBEA, size: 0x8, addend: 0x0, symName: __ZN12v8_inspector17V8InspectorClient25serializeToWebDriverValueEN2v85LocalINS1_5ValueEEEi, symObjAddr: 0x2E64, symBinAddr: 0xAEB0, symSize: 0x8 }
  - { offsetInCU: 0x9D2E9, offset: 0xFBCFF, size: 0x8, addend: 0x0, symName: __ZN12v8_inspector17V8InspectorClient12valueSubtypeEN2v85LocalINS1_5ValueEEE, symObjAddr: 0x2E6C, symBinAddr: 0xAEB8, symSize: 0x8 }
  - { offsetInCU: 0x9D31A, offset: 0xFBD30, size: 0x8, addend: 0x0, symName: __ZN12v8_inspector17V8InspectorClient12valueSubtypeEN2v85LocalINS1_5ValueEEE, symObjAddr: 0x2E6C, symBinAddr: 0xAEB8, symSize: 0x8 }
  - { offsetInCU: 0x9D33C, offset: 0xFBD52, size: 0x8, addend: 0x0, symName: __ZN12v8_inspector17V8InspectorClient12valueSubtypeEN2v85LocalINS1_5ValueEEE, symObjAddr: 0x2E6C, symBinAddr: 0xAEB8, symSize: 0x8 }
  - { offsetInCU: 0x9D35E, offset: 0xFBD74, size: 0x8, addend: 0x0, symName: __ZN12v8_inspector17V8InspectorClient12valueSubtypeEN2v85LocalINS1_5ValueEEE, symObjAddr: 0x2E6C, symBinAddr: 0xAEB8, symSize: 0x8 }
  - { offsetInCU: 0x9D379, offset: 0xFBD8F, size: 0x8, addend: 0x0, symName: __ZN12v8_inspector17V8InspectorClient12valueSubtypeEN2v85LocalINS1_5ValueEEE, symObjAddr: 0x2E6C, symBinAddr: 0xAEB8, symSize: 0x8 }
  - { offsetInCU: 0x9D394, offset: 0xFBDAA, size: 0x8, addend: 0x0, symName: __ZN12v8_inspector17V8InspectorClient12valueSubtypeEN2v85LocalINS1_5ValueEEE, symObjAddr: 0x2E6C, symBinAddr: 0xAEB8, symSize: 0x8 }
  - { offsetInCU: 0x9D3B1, offset: 0xFBDC7, size: 0x8, addend: 0x0, symName: __ZN12v8_inspector17V8InspectorClient26descriptionForValueSubtypeEN2v85LocalINS1_7ContextEEENS2_INS1_5ValueEEE, symObjAddr: 0x2E74, symBinAddr: 0xAEC0, symSize: 0x8 }
  - { offsetInCU: 0x9D3EC, offset: 0xFBE02, size: 0x8, addend: 0x0, symName: __ZN12v8_inspector17V8InspectorClient26descriptionForValueSubtypeEN2v85LocalINS1_7ContextEEENS2_INS1_5ValueEEE, symObjAddr: 0x2E74, symBinAddr: 0xAEC0, symSize: 0x8 }
  - { offsetInCU: 0x9D40E, offset: 0xFBE24, size: 0x8, addend: 0x0, symName: __ZN12v8_inspector17V8InspectorClient26descriptionForValueSubtypeEN2v85LocalINS1_7ContextEEENS2_INS1_5ValueEEE, symObjAddr: 0x2E74, symBinAddr: 0xAEC0, symSize: 0x8 }
  - { offsetInCU: 0x9D430, offset: 0xFBE46, size: 0x8, addend: 0x0, symName: __ZN12v8_inspector17V8InspectorClient26descriptionForValueSubtypeEN2v85LocalINS1_7ContextEEENS2_INS1_5ValueEEE, symObjAddr: 0x2E74, symBinAddr: 0xAEC0, symSize: 0x8 }
  - { offsetInCU: 0x9D44B, offset: 0xFBE61, size: 0x8, addend: 0x0, symName: __ZN12v8_inspector17V8InspectorClient26descriptionForValueSubtypeEN2v85LocalINS1_7ContextEEENS2_INS1_5ValueEEE, symObjAddr: 0x2E74, symBinAddr: 0xAEC0, symSize: 0x8 }
  - { offsetInCU: 0x9D466, offset: 0xFBE7C, size: 0x8, addend: 0x0, symName: __ZN12v8_inspector17V8InspectorClient26descriptionForValueSubtypeEN2v85LocalINS1_7ContextEEENS2_INS1_5ValueEEE, symObjAddr: 0x2E74, symBinAddr: 0xAEC0, symSize: 0x8 }
  - { offsetInCU: 0x9D483, offset: 0xFBE99, size: 0x8, addend: 0x0, symName: __ZN12v8_inspector17V8InspectorClient23isInspectableHeapObjectEN2v85LocalINS1_6ObjectEEE, symObjAddr: 0x2E7C, symBinAddr: 0xAEC8, symSize: 0x8 }
  - { offsetInCU: 0x9D4B4, offset: 0xFBECA, size: 0x8, addend: 0x0, symName: __ZN12v8_inspector17V8InspectorClient29beginEnsureAllContextsInGroupEi, symObjAddr: 0x2E84, symBinAddr: 0xAED0, symSize: 0x4 }
  - { offsetInCU: 0x9D4E6, offset: 0xFBEFC, size: 0x8, addend: 0x0, symName: __ZN12v8_inspector17V8InspectorClient27endEnsureAllContextsInGroupEi, symObjAddr: 0x2E88, symBinAddr: 0xAED4, symSize: 0x4 }
  - { offsetInCU: 0x9D518, offset: 0xFBF2E, size: 0x8, addend: 0x0, symName: __ZN12v8_inspector17V8InspectorClient31installAdditionalCommandLineAPIEN2v85LocalINS1_7ContextEEENS2_INS1_6ObjectEEE, symObjAddr: 0x2E8C, symBinAddr: 0xAED8, symSize: 0x4 }
  - { offsetInCU: 0x9D550, offset: 0xFBF66, size: 0x8, addend: 0x0, symName: __ZN12v8_inspector17V8InspectorClient17consoleAPIMessageEiN2v87Isolate17MessageErrorLevelERKNS_10StringViewES6_jjPNS_12V8StackTraceE, symObjAddr: 0x2E90, symBinAddr: 0xAEDC, symSize: 0x4 }
  - { offsetInCU: 0x9D5D6, offset: 0xFBFEC, size: 0x8, addend: 0x0, symName: __ZN12v8_inspector17V8InspectorClient10memoryInfoEPN2v87IsolateENS1_5LocalINS1_7ContextEEE, symObjAddr: 0x2E94, symBinAddr: 0xAEE0, symSize: 0x8 }
  - { offsetInCU: 0x9D613, offset: 0xFC029, size: 0x8, addend: 0x0, symName: __ZN12v8_inspector17V8InspectorClient11consoleTimeERKNS_10StringViewE, symObjAddr: 0x2E9C, symBinAddr: 0xAEE8, symSize: 0x4 }
  - { offsetInCU: 0x9D646, offset: 0xFC05C, size: 0x8, addend: 0x0, symName: __ZN12v8_inspector17V8InspectorClient14consoleTimeEndERKNS_10StringViewE, symObjAddr: 0x2EA0, symBinAddr: 0xAEEC, symSize: 0x4 }
  - { offsetInCU: 0x9D679, offset: 0xFC08F, size: 0x8, addend: 0x0, symName: __ZN12v8_inspector17V8InspectorClient16consoleTimeStampERKNS_10StringViewE, symObjAddr: 0x2EA4, symBinAddr: 0xAEF0, symSize: 0x4 }
  - { offsetInCU: 0x9D6AC, offset: 0xFC0C2, size: 0x8, addend: 0x0, symName: __ZN12v8_inspector17V8InspectorClient12consoleClearEi, symObjAddr: 0x2EA8, symBinAddr: 0xAEF4, symSize: 0x4 }
  - { offsetInCU: 0x9D6DF, offset: 0xFC0F5, size: 0x8, addend: 0x0, symName: __ZN12v8_inspector17V8InspectorClient13currentTimeMSEv, symObjAddr: 0x2EAC, symBinAddr: 0xAEF8, symSize: 0x8 }
  - { offsetInCU: 0x9D703, offset: 0xFC119, size: 0x8, addend: 0x0, symName: __ZN12v8_inspector17V8InspectorClient19startRepeatingTimerEdPFvPvES1_, symObjAddr: 0x2EB4, symBinAddr: 0xAF00, symSize: 0x4 }
  - { offsetInCU: 0x9D74D, offset: 0xFC163, size: 0x8, addend: 0x0, symName: __ZN12v8_inspector17V8InspectorClient11cancelTimerEPv, symObjAddr: 0x2EB8, symBinAddr: 0xAF04, symSize: 0x4 }
  - { offsetInCU: 0x9D780, offset: 0xFC196, size: 0x8, addend: 0x0, symName: __ZN12v8_inspector17V8InspectorClient17canExecuteScriptsEi, symObjAddr: 0x2EBC, symBinAddr: 0xAF08, symSize: 0x8 }
  - { offsetInCU: 0x9D7B6, offset: 0xFC1CC, size: 0x8, addend: 0x0, symName: __ZN12v8_inspector17V8InspectorClient29maxAsyncCallStackDepthChangedEi, symObjAddr: 0x2EC4, symBinAddr: 0xAF10, symSize: 0x4 }
  - { offsetInCU: 0x9D7E9, offset: 0xFC1FF, size: 0x8, addend: 0x0, symName: __ZN12v8_inspector17V8InspectorClient17resourceNameToUrlERKNS_10StringViewE, symObjAddr: 0x2EC8, symBinAddr: 0xAF14, symSize: 0x8 }
  - { offsetInCU: 0x9D81F, offset: 0xFC235, size: 0x8, addend: 0x0, symName: __ZN12v8_inspector17V8InspectorClient17resourceNameToUrlERKNS_10StringViewE, symObjAddr: 0x2EC8, symBinAddr: 0xAF14, symSize: 0x8 }
  - { offsetInCU: 0x9D843, offset: 0xFC259, size: 0x8, addend: 0x0, symName: __ZN12v8_inspector17V8InspectorClient17resourceNameToUrlERKNS_10StringViewE, symObjAddr: 0x2EC8, symBinAddr: 0xAF14, symSize: 0x8 }
  - { offsetInCU: 0x9D865, offset: 0xFC27B, size: 0x8, addend: 0x0, symName: __ZN12v8_inspector17V8InspectorClient17resourceNameToUrlERKNS_10StringViewE, symObjAddr: 0x2EC8, symBinAddr: 0xAF14, symSize: 0x8 }
  - { offsetInCU: 0x9D880, offset: 0xFC296, size: 0x8, addend: 0x0, symName: __ZN12v8_inspector17V8InspectorClient17resourceNameToUrlERKNS_10StringViewE, symObjAddr: 0x2EC8, symBinAddr: 0xAF14, symSize: 0x8 }
  - { offsetInCU: 0x9D89B, offset: 0xFC2B1, size: 0x8, addend: 0x0, symName: __ZN12v8_inspector17V8InspectorClient17resourceNameToUrlERKNS_10StringViewE, symObjAddr: 0x2EC8, symBinAddr: 0xAF14, symSize: 0x8 }
  - { offsetInCU: 0x9D8B8, offset: 0xFC2CE, size: 0x8, addend: 0x0, symName: __ZN12v8_inspector17V8InspectorClient16generateUniqueIdEv, symObjAddr: 0x2ED0, symBinAddr: 0xAF1C, symSize: 0x8 }
  - { offsetInCU: 0x9D8DF, offset: 0xFC2F5, size: 0x8, addend: 0x0, symName: __ZN12v8_inspector17V8InspectorClient13dispatchErrorEN2v85LocalINS1_7ContextEEENS2_INS1_7MessageEEENS2_INS1_5ValueEEE, symObjAddr: 0x2ED8, symBinAddr: 0xAF24, symSize: 0x4 }
  - { offsetInCU: 0x9D924, offset: 0xFC33A, size: 0x8, addend: 0x0, symName: __ZThn8_N12v8_inspector19JsV8InspectorClientD1Ev, symObjAddr: 0x2EDC, symBinAddr: 0xAF28, symSize: 0xA8 }
  - { offsetInCU: 0x9DC3D, offset: 0xFC653, size: 0x8, addend: 0x0, symName: __ZThn8_N12v8_inspector19JsV8InspectorClientD0Ev, symObjAddr: 0x2F84, symBinAddr: 0xAFD0, symSize: 0xB0 }
  - { offsetInCU: 0x9E609, offset: 0xFD01F, size: 0x8, addend: 0x0, symName: __ZNSt3__114__split_bufferIPNS_12basic_stringIcNS_11char_traitsIcEENS_9allocatorIcEEEENS4_IS7_EEED2Ev, symObjAddr: 0x33C8, symBinAddr: 0xB1C4, symSize: 0x4C }
  - { offsetInCU: 0x9E823, offset: 0xFD239, size: 0x8, addend: 0x0, symName: '__ZNSt3__110__function6__funcIZZN12v8_inspector19JsV8InspectorClient15enableInspectorEiPPcEUb_E3$_0NS_9allocatorIS6_EEFvNS_8functionIFvNS_12basic_stringIcNS_11char_traitsIcEENS7_IcEEEEEEEEED1Ev', symObjAddr: 0x3464, symBinAddr: 0xB210, symSize: 0x4 }
  - { offsetInCU: 0x9E84E, offset: 0xFD264, size: 0x8, addend: 0x0, symName: '__ZNSt3__110__function6__funcIZZN12v8_inspector19JsV8InspectorClient15enableInspectorEiPPcEUb_E3$_0NS_9allocatorIS6_EEFvNS_8functionIFvNS_12basic_stringIcNS_11char_traitsIcEENS7_IcEEEEEEEEED0Ev', symObjAddr: 0x3468, symBinAddr: 0xB214, symSize: 0x4 }
  - { offsetInCU: 0x9EA52, offset: 0xFD468, size: 0x8, addend: 0x0, symName: '__ZNKSt3__110__function6__funcIZZN12v8_inspector19JsV8InspectorClient15enableInspectorEiPPcEUb_E3$_0NS_9allocatorIS6_EEFvNS_8functionIFvNS_12basic_stringIcNS_11char_traitsIcEENS7_IcEEEEEEEEE7__cloneEv', symObjAddr: 0x346C, symBinAddr: 0xB218, symSize: 0x34 }
  - { offsetInCU: 0x9ED50, offset: 0xFD766, size: 0x8, addend: 0x0, symName: '__ZNKSt3__110__function6__funcIZZN12v8_inspector19JsV8InspectorClient15enableInspectorEiPPcEUb_E3$_0NS_9allocatorIS6_EEFvNS_8functionIFvNS_12basic_stringIcNS_11char_traitsIcEENS7_IcEEEEEEEEE7__cloneEPNS0_6__baseISH_EE', symObjAddr: 0x34A0, symBinAddr: 0xB24C, symSize: 0x14 }
  - { offsetInCU: 0x9ED88, offset: 0xFD79E, size: 0x8, addend: 0x0, symName: '__ZNKSt3__110__function6__funcIZZN12v8_inspector19JsV8InspectorClient15enableInspectorEiPPcEUb_E3$_0NS_9allocatorIS6_EEFvNS_8functionIFvNS_12basic_stringIcNS_11char_traitsIcEENS7_IcEEEEEEEEE7__cloneEPNS0_6__baseISH_EE', symObjAddr: 0x34A0, symBinAddr: 0xB24C, symSize: 0x14 }
  - { offsetInCU: 0x9EDB7, offset: 0xFD7CD, size: 0x8, addend: 0x0, symName: '__ZNKSt3__110__function6__funcIZZN12v8_inspector19JsV8InspectorClient15enableInspectorEiPPcEUb_E3$_0NS_9allocatorIS6_EEFvNS_8functionIFvNS_12basic_stringIcNS_11char_traitsIcEENS7_IcEEEEEEEEE7__cloneEPNS0_6__baseISH_EE', symObjAddr: 0x34A0, symBinAddr: 0xB24C, symSize: 0x14 }
  - { offsetInCU: 0x9EDE6, offset: 0xFD7FC, size: 0x8, addend: 0x0, symName: '__ZNKSt3__110__function6__funcIZZN12v8_inspector19JsV8InspectorClient15enableInspectorEiPPcEUb_E3$_0NS_9allocatorIS6_EEFvNS_8functionIFvNS_12basic_stringIcNS_11char_traitsIcEENS7_IcEEEEEEEEE7__cloneEPNS0_6__baseISH_EE', symObjAddr: 0x34A0, symBinAddr: 0xB24C, symSize: 0x14 }
  - { offsetInCU: 0x9EDFC, offset: 0xFD812, size: 0x8, addend: 0x0, symName: '__ZNKSt3__110__function6__funcIZZN12v8_inspector19JsV8InspectorClient15enableInspectorEiPPcEUb_E3$_0NS_9allocatorIS6_EEFvNS_8functionIFvNS_12basic_stringIcNS_11char_traitsIcEENS7_IcEEEEEEEEE7__cloneEPNS0_6__baseISH_EE', symObjAddr: 0x34A0, symBinAddr: 0xB24C, symSize: 0x14 }
  - { offsetInCU: 0x9EE10, offset: 0xFD826, size: 0x8, addend: 0x0, symName: '__ZNKSt3__110__function6__funcIZZN12v8_inspector19JsV8InspectorClient15enableInspectorEiPPcEUb_E3$_0NS_9allocatorIS6_EEFvNS_8functionIFvNS_12basic_stringIcNS_11char_traitsIcEENS7_IcEEEEEEEEE7__cloneEPNS0_6__baseISH_EE', symObjAddr: 0x34A0, symBinAddr: 0xB24C, symSize: 0x14 }
  - { offsetInCU: 0x9EE24, offset: 0xFD83A, size: 0x8, addend: 0x0, symName: '__ZNKSt3__110__function6__funcIZZN12v8_inspector19JsV8InspectorClient15enableInspectorEiPPcEUb_E3$_0NS_9allocatorIS6_EEFvNS_8functionIFvNS_12basic_stringIcNS_11char_traitsIcEENS7_IcEEEEEEEEE7__cloneEPNS0_6__baseISH_EE', symObjAddr: 0x34A0, symBinAddr: 0xB24C, symSize: 0x14 }
  - { offsetInCU: 0x9EE38, offset: 0xFD84E, size: 0x8, addend: 0x0, symName: '__ZNKSt3__110__function6__funcIZZN12v8_inspector19JsV8InspectorClient15enableInspectorEiPPcEUb_E3$_0NS_9allocatorIS6_EEFvNS_8functionIFvNS_12basic_stringIcNS_11char_traitsIcEENS7_IcEEEEEEEEE7__cloneEPNS0_6__baseISH_EE', symObjAddr: 0x34A0, symBinAddr: 0xB24C, symSize: 0x14 }
  - { offsetInCU: 0x9EE50, offset: 0xFD866, size: 0x8, addend: 0x0, symName: '__ZNSt3__110__function6__funcIZZN12v8_inspector19JsV8InspectorClient15enableInspectorEiPPcEUb_E3$_0NS_9allocatorIS6_EEFvNS_8functionIFvNS_12basic_stringIcNS_11char_traitsIcEENS7_IcEEEEEEEEE7destroyEv', symObjAddr: 0x34B4, symBinAddr: 0xB260, symSize: 0x4 }
  - { offsetInCU: 0x9EE9F, offset: 0xFD8B5, size: 0x8, addend: 0x0, symName: '__ZNSt3__110__function6__funcIZZN12v8_inspector19JsV8InspectorClient15enableInspectorEiPPcEUb_E3$_0NS_9allocatorIS6_EEFvNS_8functionIFvNS_12basic_stringIcNS_11char_traitsIcEENS7_IcEEEEEEEEE18destroy_deallocateEv', symObjAddr: 0x34B8, symBinAddr: 0xB264, symSize: 0x4 }
  - { offsetInCU: 0x9EED5, offset: 0xFD8EB, size: 0x8, addend: 0x0, symName: '__ZNSt3__110__function6__funcIZZN12v8_inspector19JsV8InspectorClient15enableInspectorEiPPcEUb_E3$_0NS_9allocatorIS6_EEFvNS_8functionIFvNS_12basic_stringIcNS_11char_traitsIcEENS7_IcEEEEEEEEE18destroy_deallocateEv', symObjAddr: 0x34B8, symBinAddr: 0xB264, symSize: 0x4 }
  - { offsetInCU: 0x9EEF9, offset: 0xFD90F, size: 0x8, addend: 0x0, symName: '__ZNSt3__110__function6__funcIZZN12v8_inspector19JsV8InspectorClient15enableInspectorEiPPcEUb_E3$_0NS_9allocatorIS6_EEFvNS_8functionIFvNS_12basic_stringIcNS_11char_traitsIcEENS7_IcEEEEEEEEE18destroy_deallocateEv', symObjAddr: 0x34B8, symBinAddr: 0xB264, symSize: 0x4 }
  - { offsetInCU: 0x9EF25, offset: 0xFD93B, size: 0x8, addend: 0x0, symName: '__ZNSt3__110__function6__funcIZZN12v8_inspector19JsV8InspectorClient15enableInspectorEiPPcEUb_E3$_0NS_9allocatorIS6_EEFvNS_8functionIFvNS_12basic_stringIcNS_11char_traitsIcEENS7_IcEEEEEEEEE18destroy_deallocateEv', symObjAddr: 0x34B8, symBinAddr: 0xB264, symSize: 0x4 }
  - { offsetInCU: 0x9EF4C, offset: 0xFD962, size: 0x8, addend: 0x0, symName: '__ZNSt3__110__function6__funcIZZN12v8_inspector19JsV8InspectorClient15enableInspectorEiPPcEUb_E3$_0NS_9allocatorIS6_EEFvNS_8functionIFvNS_12basic_stringIcNS_11char_traitsIcEENS7_IcEEEEEEEEE18destroy_deallocateEv', symObjAddr: 0x34B8, symBinAddr: 0xB264, symSize: 0x4 }
  - { offsetInCU: 0x9F08A, offset: 0xFDAA0, size: 0x8, addend: 0x0, symName: '__ZNSt3__110__function6__funcIZZN12v8_inspector19JsV8InspectorClient15enableInspectorEiPPcEUb_E3$_0NS_9allocatorIS6_EEFvNS_8functionIFvNS_12basic_stringIcNS_11char_traitsIcEENS7_IcEEEEEEEEEclEOSG_', symObjAddr: 0x34BC, symBinAddr: 0xB268, symSize: 0x17C }
  - { offsetInCU: 0x9F4C5, offset: 0xFDEDB, size: 0x8, addend: 0x0, symName: __ZNSt3__110__function12__value_funcIFvNS_12basic_stringIcNS_11char_traitsIcEENS_9allocatorIcEEEEEEC2B7v160006EOS9_, symObjAddr: 0x369C, symBinAddr: 0xB448, symSize: 0x64 }
  - { offsetInCU: 0x9F50D, offset: 0xFDF23, size: 0x8, addend: 0x0, symName: '__ZNSt3__110__function6__funcIZZN12v8_inspector19JsV8InspectorClient15enableInspectorEiPPcEUb_E3$_1NS_9allocatorIS6_EEFvNS_12basic_stringIcNS_11char_traitsIcEENS7_IcEEEEEED1Ev', symObjAddr: 0x3700, symBinAddr: 0xB4AC, symSize: 0x4 }
  - { offsetInCU: 0x9F538, offset: 0xFDF4E, size: 0x8, addend: 0x0, symName: '__ZNSt3__110__function6__funcIZZN12v8_inspector19JsV8InspectorClient15enableInspectorEiPPcEUb_E3$_1NS_9allocatorIS6_EEFvNS_12basic_stringIcNS_11char_traitsIcEENS7_IcEEEEEED0Ev', symObjAddr: 0x3704, symBinAddr: 0xB4B0, symSize: 0x4 }
  - { offsetInCU: 0x9F73C, offset: 0xFE152, size: 0x8, addend: 0x0, symName: '__ZNKSt3__110__function6__funcIZZN12v8_inspector19JsV8InspectorClient15enableInspectorEiPPcEUb_E3$_1NS_9allocatorIS6_EEFvNS_12basic_stringIcNS_11char_traitsIcEENS7_IcEEEEEE7__cloneEv', symObjAddr: 0x3708, symBinAddr: 0xB4B4, symSize: 0x34 }
  - { offsetInCU: 0x9FA3A, offset: 0xFE450, size: 0x8, addend: 0x0, symName: '__ZNKSt3__110__function6__funcIZZN12v8_inspector19JsV8InspectorClient15enableInspectorEiPPcEUb_E3$_1NS_9allocatorIS6_EEFvNS_12basic_stringIcNS_11char_traitsIcEENS7_IcEEEEEE7__cloneEPNS0_6__baseISE_EE', symObjAddr: 0x373C, symBinAddr: 0xB4E8, symSize: 0x14 }
  - { offsetInCU: 0x9FA72, offset: 0xFE488, size: 0x8, addend: 0x0, symName: '__ZNKSt3__110__function6__funcIZZN12v8_inspector19JsV8InspectorClient15enableInspectorEiPPcEUb_E3$_1NS_9allocatorIS6_EEFvNS_12basic_stringIcNS_11char_traitsIcEENS7_IcEEEEEE7__cloneEPNS0_6__baseISE_EE', symObjAddr: 0x373C, symBinAddr: 0xB4E8, symSize: 0x14 }
  - { offsetInCU: 0x9FAA1, offset: 0xFE4B7, size: 0x8, addend: 0x0, symName: '__ZNKSt3__110__function6__funcIZZN12v8_inspector19JsV8InspectorClient15enableInspectorEiPPcEUb_E3$_1NS_9allocatorIS6_EEFvNS_12basic_stringIcNS_11char_traitsIcEENS7_IcEEEEEE7__cloneEPNS0_6__baseISE_EE', symObjAddr: 0x373C, symBinAddr: 0xB4E8, symSize: 0x14 }
  - { offsetInCU: 0x9FAD0, offset: 0xFE4E6, size: 0x8, addend: 0x0, symName: '__ZNKSt3__110__function6__funcIZZN12v8_inspector19JsV8InspectorClient15enableInspectorEiPPcEUb_E3$_1NS_9allocatorIS6_EEFvNS_12basic_stringIcNS_11char_traitsIcEENS7_IcEEEEEE7__cloneEPNS0_6__baseISE_EE', symObjAddr: 0x373C, symBinAddr: 0xB4E8, symSize: 0x14 }
  - { offsetInCU: 0x9FAE6, offset: 0xFE4FC, size: 0x8, addend: 0x0, symName: '__ZNKSt3__110__function6__funcIZZN12v8_inspector19JsV8InspectorClient15enableInspectorEiPPcEUb_E3$_1NS_9allocatorIS6_EEFvNS_12basic_stringIcNS_11char_traitsIcEENS7_IcEEEEEE7__cloneEPNS0_6__baseISE_EE', symObjAddr: 0x373C, symBinAddr: 0xB4E8, symSize: 0x14 }
  - { offsetInCU: 0x9FAFA, offset: 0xFE510, size: 0x8, addend: 0x0, symName: '__ZNKSt3__110__function6__funcIZZN12v8_inspector19JsV8InspectorClient15enableInspectorEiPPcEUb_E3$_1NS_9allocatorIS6_EEFvNS_12basic_stringIcNS_11char_traitsIcEENS7_IcEEEEEE7__cloneEPNS0_6__baseISE_EE', symObjAddr: 0x373C, symBinAddr: 0xB4E8, symSize: 0x14 }
  - { offsetInCU: 0x9FB0E, offset: 0xFE524, size: 0x8, addend: 0x0, symName: '__ZNKSt3__110__function6__funcIZZN12v8_inspector19JsV8InspectorClient15enableInspectorEiPPcEUb_E3$_1NS_9allocatorIS6_EEFvNS_12basic_stringIcNS_11char_traitsIcEENS7_IcEEEEEE7__cloneEPNS0_6__baseISE_EE', symObjAddr: 0x373C, symBinAddr: 0xB4E8, symSize: 0x14 }
  - { offsetInCU: 0x9FB22, offset: 0xFE538, size: 0x8, addend: 0x0, symName: '__ZNKSt3__110__function6__funcIZZN12v8_inspector19JsV8InspectorClient15enableInspectorEiPPcEUb_E3$_1NS_9allocatorIS6_EEFvNS_12basic_stringIcNS_11char_traitsIcEENS7_IcEEEEEE7__cloneEPNS0_6__baseISE_EE', symObjAddr: 0x373C, symBinAddr: 0xB4E8, symSize: 0x14 }
  - { offsetInCU: 0x9FB3A, offset: 0xFE550, size: 0x8, addend: 0x0, symName: '__ZNSt3__110__function6__funcIZZN12v8_inspector19JsV8InspectorClient15enableInspectorEiPPcEUb_E3$_1NS_9allocatorIS6_EEFvNS_12basic_stringIcNS_11char_traitsIcEENS7_IcEEEEEE7destroyEv', symObjAddr: 0x3750, symBinAddr: 0xB4FC, symSize: 0x4 }
  - { offsetInCU: 0x9FB89, offset: 0xFE59F, size: 0x8, addend: 0x0, symName: '__ZNSt3__110__function6__funcIZZN12v8_inspector19JsV8InspectorClient15enableInspectorEiPPcEUb_E3$_1NS_9allocatorIS6_EEFvNS_12basic_stringIcNS_11char_traitsIcEENS7_IcEEEEEE18destroy_deallocateEv', symObjAddr: 0x3754, symBinAddr: 0xB500, symSize: 0x4 }
  - { offsetInCU: 0x9FBBF, offset: 0xFE5D5, size: 0x8, addend: 0x0, symName: '__ZNSt3__110__function6__funcIZZN12v8_inspector19JsV8InspectorClient15enableInspectorEiPPcEUb_E3$_1NS_9allocatorIS6_EEFvNS_12basic_stringIcNS_11char_traitsIcEENS7_IcEEEEEE18destroy_deallocateEv', symObjAddr: 0x3754, symBinAddr: 0xB500, symSize: 0x4 }
  - { offsetInCU: 0x9FBE3, offset: 0xFE5F9, size: 0x8, addend: 0x0, symName: '__ZNSt3__110__function6__funcIZZN12v8_inspector19JsV8InspectorClient15enableInspectorEiPPcEUb_E3$_1NS_9allocatorIS6_EEFvNS_12basic_stringIcNS_11char_traitsIcEENS7_IcEEEEEE18destroy_deallocateEv', symObjAddr: 0x3754, symBinAddr: 0xB500, symSize: 0x4 }
  - { offsetInCU: 0x9FC0F, offset: 0xFE625, size: 0x8, addend: 0x0, symName: '__ZNSt3__110__function6__funcIZZN12v8_inspector19JsV8InspectorClient15enableInspectorEiPPcEUb_E3$_1NS_9allocatorIS6_EEFvNS_12basic_stringIcNS_11char_traitsIcEENS7_IcEEEEEE18destroy_deallocateEv', symObjAddr: 0x3754, symBinAddr: 0xB500, symSize: 0x4 }
  - { offsetInCU: 0x9FC36, offset: 0xFE64C, size: 0x8, addend: 0x0, symName: '__ZNSt3__110__function6__funcIZZN12v8_inspector19JsV8InspectorClient15enableInspectorEiPPcEUb_E3$_1NS_9allocatorIS6_EEFvNS_12basic_stringIcNS_11char_traitsIcEENS7_IcEEEEEE18destroy_deallocateEv', symObjAddr: 0x3754, symBinAddr: 0xB500, symSize: 0x4 }
  - { offsetInCU: 0x9FCDA, offset: 0xFE6F0, size: 0x8, addend: 0x0, symName: '__ZNSt3__110__function6__funcIZZN12v8_inspector19JsV8InspectorClient15enableInspectorEiPPcEUb_E3$_1NS_9allocatorIS6_EEFvNS_12basic_stringIcNS_11char_traitsIcEENS7_IcEEEEEEclEOSD_', symObjAddr: 0x3758, symBinAddr: 0xB504, symSize: 0xA8 }
  - { offsetInCU: 0xA0373, offset: 0xFED89, size: 0x8, addend: 0x0, symName: __ZNSt3__15dequeINS_12basic_stringIcNS_11char_traitsIcEENS_9allocatorIcEEEENS4_IS6_EEE19__add_back_capacityEv, symObjAddr: 0x3A18, symBinAddr: 0xB7C4, symSize: 0x368 }
  - { offsetInCU: 0xA1A5A, offset: 0x100470, size: 0x8, addend: 0x0, symName: __ZNSt3__114__split_bufferIPNS_12basic_stringIcNS_11char_traitsIcEENS_9allocatorIcEEEENS4_IS7_EEE9push_backEOS7_, symObjAddr: 0x3D80, symBinAddr: 0xBB2C, symSize: 0x104 }
  - { offsetInCU: 0xA1EA4, offset: 0x1008BA, size: 0x8, addend: 0x0, symName: __ZNSt3__114__split_bufferIPNS_12basic_stringIcNS_11char_traitsIcEENS_9allocatorIcEEEERNS4_IS7_EEE9push_backEOS7_, symObjAddr: 0x3FA0, symBinAddr: 0xBD4C, symSize: 0x104 }
  - { offsetInCU: 0xA2336, offset: 0x100D4C, size: 0x8, addend: 0x0, symName: __ZNSt3__114__split_bufferIPNS_12basic_stringIcNS_11char_traitsIcEENS_9allocatorIcEEEERNS4_IS7_EEE10push_frontERKS7_, symObjAddr: 0x40A4, symBinAddr: 0xBE50, symSize: 0x118 }
  - { offsetInCU: 0xA27F1, offset: 0x101207, size: 0x8, addend: 0x0, symName: __ZNSt3__114__split_bufferIPNS_12basic_stringIcNS_11char_traitsIcEENS_9allocatorIcEEEENS4_IS7_EEE10push_frontEOS7_, symObjAddr: 0x3E84, symBinAddr: 0xBC30, symSize: 0x11C }
  - { offsetInCU: 0xA2DBF, offset: 0x1017D5, size: 0x8, addend: 0x0, symName: '__ZNSt3__110__function6__funcIZN12v8_inspector19JsV8InspectorClient25onFrontendMessageReceivedENS_12basic_stringIcNS_11char_traitsIcEENS_9allocatorIcEEEEE3$_2NS7_ISA_EEFvvEED1Ev', symObjAddr: 0x41F0, symBinAddr: 0xBF9C, symSize: 0x3C }
  - { offsetInCU: 0xA3025, offset: 0x101A3B, size: 0x8, addend: 0x0, symName: '__ZNSt3__110__function6__funcIZN12v8_inspector19JsV8InspectorClient25onFrontendMessageReceivedENS_12basic_stringIcNS_11char_traitsIcEENS_9allocatorIcEEEEE3$_2NS7_ISA_EEFvvEED0Ev', symObjAddr: 0x422C, symBinAddr: 0xBFD8, symSize: 0x3C }
  - { offsetInCU: 0xA3595, offset: 0x101FAB, size: 0x8, addend: 0x0, symName: '__ZNKSt3__110__function6__funcIZN12v8_inspector19JsV8InspectorClient25onFrontendMessageReceivedENS_12basic_stringIcNS_11char_traitsIcEENS_9allocatorIcEEEEE3$_2NS7_ISA_EEFvvEE7__cloneEv', symObjAddr: 0x4268, symBinAddr: 0xC014, symSize: 0x58 }
  - { offsetInCU: 0xA39EE, offset: 0x102404, size: 0x8, addend: 0x0, symName: '__ZNKSt3__110__function6__funcIZN12v8_inspector19JsV8InspectorClient25onFrontendMessageReceivedENS_12basic_stringIcNS_11char_traitsIcEENS_9allocatorIcEEEEE3$_2NS7_ISA_EEFvvEE7__cloneEPNS0_6__baseISC_EE', symObjAddr: 0x42C0, symBinAddr: 0xC06C, symSize: 0x20 }
  - { offsetInCU: 0xA3A2B, offset: 0x102441, size: 0x8, addend: 0x0, symName: '__ZNKSt3__110__function6__funcIZN12v8_inspector19JsV8InspectorClient25onFrontendMessageReceivedENS_12basic_stringIcNS_11char_traitsIcEENS_9allocatorIcEEEEE3$_2NS7_ISA_EEFvvEE7__cloneEPNS0_6__baseISC_EE', symObjAddr: 0x42C0, symBinAddr: 0xC06C, symSize: 0x20 }
  - { offsetInCU: 0xA3A5F, offset: 0x102475, size: 0x8, addend: 0x0, symName: '__ZNKSt3__110__function6__funcIZN12v8_inspector19JsV8InspectorClient25onFrontendMessageReceivedENS_12basic_stringIcNS_11char_traitsIcEENS_9allocatorIcEEEEE3$_2NS7_ISA_EEFvvEE7__cloneEPNS0_6__baseISC_EE', symObjAddr: 0x42C0, symBinAddr: 0xC06C, symSize: 0x20 }
  - { offsetInCU: 0xA3BBE, offset: 0x1025D4, size: 0x8, addend: 0x0, symName: '__ZNSt3__110__function6__funcIZN12v8_inspector19JsV8InspectorClient25onFrontendMessageReceivedENS_12basic_stringIcNS_11char_traitsIcEENS_9allocatorIcEEEEE3$_2NS7_ISA_EEFvvEE7destroyEv', symObjAddr: 0x42E0, symBinAddr: 0xC08C, symSize: 0x14 }
  - { offsetInCU: 0xA3CA4, offset: 0x1026BA, size: 0x8, addend: 0x0, symName: '__ZNSt3__110__function6__funcIZN12v8_inspector19JsV8InspectorClient25onFrontendMessageReceivedENS_12basic_stringIcNS_11char_traitsIcEENS_9allocatorIcEEEEE3$_2NS7_ISA_EEFvvEE7destroyEv', symObjAddr: 0x42E0, symBinAddr: 0xC08C, symSize: 0x14 }
  - { offsetInCU: 0xA3D88, offset: 0x10279E, size: 0x8, addend: 0x0, symName: '__ZNSt3__110__function6__funcIZN12v8_inspector19JsV8InspectorClient25onFrontendMessageReceivedENS_12basic_stringIcNS_11char_traitsIcEENS_9allocatorIcEEEEE3$_2NS7_ISA_EEFvvEE18destroy_deallocateEv', symObjAddr: 0x42F4, symBinAddr: 0xC0A0, symSize: 0x30 }
  - { offsetInCU: 0xA40AF, offset: 0x102AC5, size: 0x8, addend: 0x0, symName: '__ZNSt3__110__function6__funcIZN12v8_inspector19JsV8InspectorClient25onFrontendMessageReceivedENS_12basic_stringIcNS_11char_traitsIcEENS_9allocatorIcEEEEE3$_2NS7_ISA_EEFvvEEclEv', symObjAddr: 0x4324, symBinAddr: 0xC0D0, symSize: 0x58 }
  - { offsetInCU: 0xA41CC, offset: 0x102BE2, size: 0x8, addend: 0x0, symName: '____ZZN12v8_inspector19JsV8InspectorClient25onFrontendMessageReceivedENSt3__112basic_stringIcNS1_11char_traitsIcEENS1_9allocatorIcEEEEENK3$_2clEv_block_invoke', symObjAddr: 0x437C, symBinAddr: 0xC128, symSize: 0xCC }
  - { offsetInCU: 0xA4751, offset: 0x103167, size: 0x8, addend: 0x0, symName: __ZNSt3__117bad_function_callD1Ev, symObjAddr: 0x4504, symBinAddr: 0xC2B0, symSize: 0x4 }
  - { offsetInCU: 0xA4773, offset: 0x103189, size: 0x8, addend: 0x0, symName: __ZNSt3__117bad_function_callD1Ev, symObjAddr: 0x4504, symBinAddr: 0xC2B0, symSize: 0x4 }
  - { offsetInCU: 0xA47A4, offset: 0x1031BA, size: 0x8, addend: 0x0, symName: __ZNSt3__117bad_function_callD0Ev, symObjAddr: 0x4508, symBinAddr: 0xC2B4, symSize: 0x14 }
  - { offsetInCU: 0xA4817, offset: 0x10322D, size: 0x8, addend: 0x0, symName: __ZNSt3__15dequeINS_12basic_stringIcNS_11char_traitsIcEENS_9allocatorIcEEEENS4_IS6_EEE26__maybe_remove_front_spareB7v160006Eb, symObjAddr: 0x462C, symBinAddr: 0xC33C, symSize: 0x64 }
  - { offsetInCU: 0xA4ABB, offset: 0x1034D1, size: 0x8, addend: 0x0, symName: __ZNKSt3__14lessINS_12basic_stringIcNS_11char_traitsIcEENS_9allocatorIcEEEEEclB7v160006ERKS6_S9_, symObjAddr: 0x471C, symBinAddr: 0xC42C, symSize: 0x7C }
  - { offsetInCU: 0xA4DE5, offset: 0x1037FB, size: 0x8, addend: 0x0, symName: __ZNSt3__16__treeINS_12__value_typeINS_12basic_stringIcNS_11char_traitsIcEENS_9allocatorIcEEEEPN2v810PersistentINS8_6ObjectENS8_27NonCopyablePersistentTraitsISA_EEEEEENS_19__map_value_compareIS7_SF_NS_4lessIS7_EELb1EEENS5_ISF_EEE12__find_equalIS7_EERPNS_16__tree_node_baseIPvEERPNS_15__tree_end_nodeISQ_EERKT_, symObjAddr: 0x481C, symBinAddr: 0xC52C, symSize: 0x9C }
  - { offsetInCU: 0xA4EED, offset: 0x103903, size: 0x8, addend: 0x0, symName: __ZNSt3__16__treeINS_12__value_typeINS_12basic_stringIcNS_11char_traitsIcEENS_9allocatorIcEEEEPN2v810PersistentINS8_6ObjectENS8_27NonCopyablePersistentTraitsISA_EEEEEENS_19__map_value_compareIS7_SF_NS_4lessIS7_EELb1EEENS5_ISF_EEE16__construct_nodeIJRS7_RSE_EEENS_10unique_ptrINS_11__tree_nodeISF_PvEENS_22__tree_node_destructorINS5_ISS_EEEEEEDpOT_, symObjAddr: 0x48B8, symBinAddr: 0xC5C8, symSize: 0x8C }
  - { offsetInCU: 0xA51D8, offset: 0x103BEE, size: 0x8, addend: 0x0, symName: __ZNSt3__16__treeINS_12__value_typeINS_12basic_stringIcNS_11char_traitsIcEENS_9allocatorIcEEEEPN2v810PersistentINS8_6ObjectENS8_27NonCopyablePersistentTraitsISA_EEEEEENS_19__map_value_compareIS7_SF_NS_4lessIS7_EELb1EEENS5_ISF_EEE16__insert_node_atEPNS_15__tree_end_nodeIPNS_16__tree_node_baseIPvEEEERSQ_SQ_, symObjAddr: 0x4944, symBinAddr: 0xC654, symSize: 0x54 }
  - { offsetInCU: 0xA558C, offset: 0x103FA2, size: 0x8, addend: 0x0, symName: __ZNSt3__122__tree_node_destructorINS_9allocatorINS_11__tree_nodeINS_12__value_typeINS_12basic_stringIcNS_11char_traitsIcEENS1_IcEEEEPN2v810PersistentINS9_6ObjectENS9_27NonCopyablePersistentTraitsISB_EEEEEEPvEEEEEclB7v160006EPSI_, symObjAddr: 0x4B30, symBinAddr: 0xC840, symSize: 0x4C }
  - { offsetInCU: 0x26, offset: 0x104A18, size: 0x8, addend: 0x0, symName: __ZN3tns12ClassBuilder16GetExtendedClassENSt3__112basic_stringIcNS1_11char_traitsIcEENS1_9allocatorIcEEEES7_, symObjAddr: 0x0, symBinAddr: 0xC908, symSize: 0x330 }
  - { offsetInCU: 0x70CF, offset: 0x10BAC1, size: 0x8, addend: 0x0, symName: __ZN3tns12ClassBuilder16GetExtendedClassENSt3__112basic_stringIcNS1_11char_traitsIcEENS1_9allocatorIcEEEES7_, symObjAddr: 0x0, symBinAddr: 0xC908, symSize: 0x330 }
  - { offsetInCU: 0x85D5, offset: 0x10CFC7, size: 0x8, addend: 0x0, symName: __ZNSt3__112basic_stringIcNS_11char_traitsIcEENS_9allocatorIcEEEC2B7v160006ENS_24__uninitialized_size_tagEmRKS4_, symObjAddr: 0x330, symBinAddr: 0xCC38, symSize: 0x74 }
  - { offsetInCU: 0x6C66, offset: 0x113F50, size: 0x8, addend: 0x0, symName: __ZNSt3__115allocate_sharedB7v160006IN2v810PersistentINS1_6ObjectENS1_27NonCopyablePersistentTraitsIS3_EEEENS_9allocatorIS6_EEJRPNS1_7IsolateENS1_5LocalIS3_EEEvEENS_10shared_ptrIT_EERKT0_DpOT1_, symObjAddr: 0x20D0, symBinAddr: 0xEAFC, symSize: 0x60 }
  - { offsetInCU: 0xCFCE, offset: 0x11A2B8, size: 0x8, addend: 0x0, symName: __ZN10robin_hood6detail7doThrowISt9bad_allocJEEEvDpOT0_, symObjAddr: 0x2904, symBinAddr: 0xF2E0, symSize: 0x28 }
  - { offsetInCU: 0xFE98, offset: 0x11D182, size: 0x8, addend: 0x0, symName: __ZN3tns7Pointer8RegisterEN2v85LocalINS1_7ContextEEENS2_INS1_6ObjectEEE, symObjAddr: 0x0, symBinAddr: 0xCCAC, symSize: 0x118 }
  - { offsetInCU: 0x102BE, offset: 0x11D5A8, size: 0x8, addend: 0x0, symName: __ZN3tns7Pointer18GetPointerCtorFuncEN2v85LocalINS1_7ContextEEE, symObjAddr: 0x118, symBinAddr: 0xCDC4, symSize: 0x39C }
  - { offsetInCU: 0x11729, offset: 0x11EA13, size: 0x8, addend: 0x0, symName: __ZN3tns7Pointer17RegisterAddMethodEN2v85LocalINS1_7ContextEEENS2_INS1_6ObjectEEE, symObjAddr: 0x974, symBinAddr: 0xD620, symSize: 0x174 }
  - { offsetInCU: 0x11D3A, offset: 0x11F024, size: 0x8, addend: 0x0, symName: __ZN3tns7Pointer22RegisterSubtractMethodEN2v85LocalINS1_7ContextEEENS2_INS1_6ObjectEEE, symObjAddr: 0xAE8, symBinAddr: 0xD794, symSize: 0x174 }
  - { offsetInCU: 0x1234B, offset: 0x11F635, size: 0x8, addend: 0x0, symName: __ZN3tns7Pointer22RegisterToStringMethodEN2v85LocalINS1_7ContextEEENS2_INS1_6ObjectEEE, symObjAddr: 0xC5C, symBinAddr: 0xD908, symSize: 0x174 }
  - { offsetInCU: 0x1295C, offset: 0x11FC46, size: 0x8, addend: 0x0, symName: __ZN3tns7Pointer25RegisterToHexStringMethodEN2v85LocalINS1_7ContextEEENS2_INS1_6ObjectEEE, symObjAddr: 0xDD0, symBinAddr: 0xDA7C, symSize: 0x174 }
  - { offsetInCU: 0x12F6D, offset: 0x120257, size: 0x8, addend: 0x0, symName: __ZN3tns7Pointer29RegisterToDecimalStringMethodEN2v85LocalINS1_7ContextEEENS2_INS1_6ObjectEEE, symObjAddr: 0xF44, symBinAddr: 0xDBF0, symSize: 0x174 }
  - { offsetInCU: 0x1357E, offset: 0x120868, size: 0x8, addend: 0x0, symName: __ZN3tns7Pointer22RegisterToNumberMethodEN2v85LocalINS1_7ContextEEENS2_INS1_6ObjectEEE, symObjAddr: 0x10B8, symBinAddr: 0xDD64, symSize: 0x174 }
  - { offsetInCU: 0x13BA8, offset: 0x120E92, size: 0x8, addend: 0x0, symName: __ZN3tns7Pointer22RegisterToBigIntMethodEN2v85LocalINS1_7ContextEEENS2_INS1_6ObjectEEE, symObjAddr: 0x122C, symBinAddr: 0xDED8, symSize: 0x174 }
  - { offsetInCU: 0x14250, offset: 0x12153A, size: 0x8, addend: 0x0, symName: __ZN3tns7Pointer11NewInstanceEN2v85LocalINS1_7ContextEEEPv, symObjAddr: 0x4B4, symBinAddr: 0xD160, symSize: 0xA4 }
  - { offsetInCU: 0x145ED, offset: 0x1218D7, size: 0x8, addend: 0x0, symName: __ZN3tns7Pointer26PointerConstructorCallbackERKN2v820FunctionCallbackInfoINS1_5ValueEEE, symObjAddr: 0x558, symBinAddr: 0xD204, symSize: 0x41C }
  - { offsetInCU: 0x15360, offset: 0x12264A, size: 0x8, addend: 0x0, symName: __ZNK10robin_hood6detail5TableILb1ELm80EPKvNSt3__110shared_ptrIN2v810PersistentINS6_6ObjectENS6_27NonCopyablePersistentTraitsIS8_EEEEEENS_4hashIS3_vEENS4_8equal_toIS3_EEE7findIdxIS3_EEmRKT_, symObjAddr: 0x1FE8, symBinAddr: 0xEA14, symSize: 0xE8 }
  - { offsetInCU: 0x153BD, offset: 0x1226A7, size: 0x8, addend: 0x0, symName: __ZNK10robin_hood6detail5TableILb1ELm80EPKvNSt3__110shared_ptrIN2v810PersistentINS6_6ObjectENS6_27NonCopyablePersistentTraitsIS8_EEEEEENS_4hashIS3_vEENS4_8equal_toIS3_EEE7findIdxIS3_EEmRKT_, symObjAddr: 0x1FE8, symBinAddr: 0xEA14, symSize: 0xE8 }
  - { offsetInCU: 0x154F8, offset: 0x1227E2, size: 0x8, addend: 0x0, symName: __ZN10robin_hood6detail5TableILb1ELm80EPKvNSt3__110shared_ptrIN2v810PersistentINS6_6ObjectENS6_27NonCopyablePersistentTraitsIS8_EEEEEENS_4hashIS3_vEENS4_8equal_toIS3_EEE7emplaceIJRPvSC_EEENS4_4pairINSH_4IterILb0EEEbEEDpOT_, symObjAddr: 0x13A0, symBinAddr: 0xE04C, symSize: 0x128 }
  - { offsetInCU: 0x15DC6, offset: 0x1230B0, size: 0x8, addend: 0x0, symName: __ZN10robin_hood6detail5TableILb1ELm80EPKvNSt3__110shared_ptrIN2v810PersistentINS6_6ObjectENS6_27NonCopyablePersistentTraitsIS8_EEEEEENS_4hashIS3_vEENS4_8equal_toIS3_EEE25insertKeyPrepareEmptySpotIRKS3_EENS4_4pairImNSH_14InsertionStateEEEOT_, symObjAddr: 0x2228, symBinAddr: 0xEC04, symSize: 0x1A0 }
  - { offsetInCU: 0x16030, offset: 0x12331A, size: 0x8, addend: 0x0, symName: __ZNK10robin_hood6detail5TableILb1ELm80EPKvNSt3__110shared_ptrIN2v810PersistentINS6_6ObjectENS6_27NonCopyablePersistentTraitsIS8_EEEEEENS_4hashIS3_vEENS4_8equal_toIS3_EEE18throwOverflowErrorEv, symObjAddr: 0x23C8, symBinAddr: 0xEDA4, symSize: 0x50 }
  - { offsetInCU: 0x162F7, offset: 0x1235E1, size: 0x8, addend: 0x0, symName: __ZN3tns18PointerTypeWrapperD1Ev, symObjAddr: 0x15D4, symBinAddr: 0xE174, symSize: 0x4 }
  - { offsetInCU: 0x16320, offset: 0x12360A, size: 0x8, addend: 0x0, symName: __ZN3tns18PointerTypeWrapperD0Ev, symObjAddr: 0x15D8, symBinAddr: 0xE178, symSize: 0x4 }
  - { offsetInCU: 0x16349, offset: 0x123633, size: 0x8, addend: 0x0, symName: __ZN3tns18PointerTypeWrapper4TypeEv, symObjAddr: 0x15DC, symBinAddr: 0xE17C, symSize: 0x8 }
  - { offsetInCU: 0x16370, offset: 0x12365A, size: 0x8, addend: 0x0, symName: __ZN3tns14PointerWrapperD1Ev, symObjAddr: 0x15E4, symBinAddr: 0xE184, symSize: 0x4 }
  - { offsetInCU: 0x16399, offset: 0x123683, size: 0x8, addend: 0x0, symName: __ZN3tns14PointerWrapperD0Ev, symObjAddr: 0x15E8, symBinAddr: 0xE188, symSize: 0x4 }
  - { offsetInCU: 0x163C2, offset: 0x1236AC, size: 0x8, addend: 0x0, symName: __ZN3tns14PointerWrapper4TypeEv, symObjAddr: 0x15EC, symBinAddr: 0xE18C, symSize: 0x8 }
  - { offsetInCU: 0x1660C, offset: 0x1238F6, size: 0x8, addend: 0x0, symName: '__ZZN3tns7Pointer17RegisterAddMethodEN2v85LocalINS1_7ContextEEENS2_INS1_6ObjectEEEEN3$_08__invokeERKNS1_20FunctionCallbackInfoINS1_5ValueEEE', symObjAddr: 0x15F4, symBinAddr: 0xE194, symSize: 0x188 }
  - { offsetInCU: 0x16D9C, offset: 0x124086, size: 0x8, addend: 0x0, symName: '__ZZN3tns7Pointer22RegisterSubtractMethodEN2v85LocalINS1_7ContextEEENS2_INS1_6ObjectEEEEN3$_18__invokeERKNS1_20FunctionCallbackInfoINS1_5ValueEEE', symObjAddr: 0x177C, symBinAddr: 0xE31C, symSize: 0x210 }
  - { offsetInCU: 0x176FB, offset: 0x1249E5, size: 0x8, addend: 0x0, symName: '__ZZN3tns7Pointer22RegisterToStringMethodEN2v85LocalINS1_7ContextEEENS2_INS1_6ObjectEEEEN3$_28__invokeERKNS1_20FunctionCallbackInfoINS1_5ValueEEE', symObjAddr: 0x198C, symBinAddr: 0xE52C, symSize: 0x144 }
  - { offsetInCU: 0x17CF4, offset: 0x124FDE, size: 0x8, addend: 0x0, symName: '__ZZN3tns7Pointer25RegisterToHexStringMethodEN2v85LocalINS1_7ContextEEENS2_INS1_6ObjectEEEEN3$_38__invokeERKNS1_20FunctionCallbackInfoINS1_5ValueEEE', symObjAddr: 0x1AD0, symBinAddr: 0xE670, symSize: 0x144 }
  - { offsetInCU: 0x182F9, offset: 0x1255E3, size: 0x8, addend: 0x0, symName: '__ZZN3tns7Pointer29RegisterToDecimalStringMethodEN2v85LocalINS1_7ContextEEENS2_INS1_6ObjectEEEEN3$_48__invokeERKNS1_20FunctionCallbackInfoINS1_5ValueEEE', symObjAddr: 0x1C14, symBinAddr: 0xE7B4, symSize: 0x144 }
  - { offsetInCU: 0x1892E, offset: 0x125C18, size: 0x8, addend: 0x0, symName: '__ZZN3tns7Pointer22RegisterToNumberMethodEN2v85LocalINS1_7ContextEEENS2_INS1_6ObjectEEEEN3$_58__invokeERKNS1_20FunctionCallbackInfoINS1_5ValueEEE', symObjAddr: 0x1D58, symBinAddr: 0xE8F8, symSize: 0x90 }
  - { offsetInCU: 0x18C0A, offset: 0x125EF4, size: 0x8, addend: 0x0, symName: '__ZZN3tns7Pointer22RegisterToBigIntMethodEN2v85LocalINS1_7ContextEEENS2_INS1_6ObjectEEEEN3$_68__invokeERKNS1_20FunctionCallbackInfoINS1_5ValueEEE', symObjAddr: 0x1DE8, symBinAddr: 0xE988, symSize: 0x8C }
  - { offsetInCU: 0x193AD, offset: 0x126697, size: 0x8, addend: 0x0, symName: __ZNSt3__120__shared_ptr_emplaceIN2v810PersistentINS1_6ObjectENS1_27NonCopyablePersistentTraitsIS3_EEEENS_9allocatorIS6_EEEC2B7v160006IJRPNS1_7IsolateENS1_5LocalIS3_EEEEES8_DpOT_, symObjAddr: 0x2130, symBinAddr: 0xEB5C, symSize: 0x68 }
  - { offsetInCU: 0x195F4, offset: 0x1268DE, size: 0x8, addend: 0x0, symName: __ZNSt3__120__shared_ptr_emplaceIN2v810PersistentINS1_6ObjectENS1_27NonCopyablePersistentTraitsIS3_EEEENS_9allocatorIS6_EEED1Ev, symObjAddr: 0x2198, symBinAddr: 0xEBC4, symSize: 0x14 }
  - { offsetInCU: 0x19616, offset: 0x126900, size: 0x8, addend: 0x0, symName: __ZNSt3__120__shared_ptr_emplaceIN2v810PersistentINS1_6ObjectENS1_27NonCopyablePersistentTraitsIS3_EEEENS_9allocatorIS6_EEED1Ev, symObjAddr: 0x2198, symBinAddr: 0xEBC4, symSize: 0x14 }
  - { offsetInCU: 0x1964D, offset: 0x126937, size: 0x8, addend: 0x0, symName: __ZNSt3__120__shared_ptr_emplaceIN2v810PersistentINS1_6ObjectENS1_27NonCopyablePersistentTraitsIS3_EEEENS_9allocatorIS6_EEED0Ev, symObjAddr: 0x21AC, symBinAddr: 0xEBD8, symSize: 0x24 }
  - { offsetInCU: 0x196B4, offset: 0x12699E, size: 0x8, addend: 0x0, symName: __ZNSt3__120__shared_ptr_emplaceIN2v810PersistentINS1_6ObjectENS1_27NonCopyablePersistentTraitsIS3_EEEENS_9allocatorIS6_EEE16__on_zero_sharedEv, symObjAddr: 0x21D0, symBinAddr: 0xEBFC, symSize: 0x4 }
  - { offsetInCU: 0x196D8, offset: 0x1269C2, size: 0x8, addend: 0x0, symName: __ZNSt3__120__shared_ptr_emplaceIN2v810PersistentINS1_6ObjectENS1_27NonCopyablePersistentTraitsIS3_EEEENS_9allocatorIS6_EEE21__on_zero_shared_weakEv, symObjAddr: 0x21D4, symBinAddr: 0xEC00, symSize: 0x4 }
  - { offsetInCU: 0x1970C, offset: 0x1269F6, size: 0x8, addend: 0x0, symName: __ZNSt3__120__shared_ptr_emplaceIN2v810PersistentINS1_6ObjectENS1_27NonCopyablePersistentTraitsIS3_EEEENS_9allocatorIS6_EEE21__on_zero_shared_weakEv, symObjAddr: 0x21D4, symBinAddr: 0xEC00, symSize: 0x4 }
  - { offsetInCU: 0x19730, offset: 0x126A1A, size: 0x8, addend: 0x0, symName: __ZNSt3__120__shared_ptr_emplaceIN2v810PersistentINS1_6ObjectENS1_27NonCopyablePersistentTraitsIS3_EEEENS_9allocatorIS6_EEE21__on_zero_shared_weakEv, symObjAddr: 0x21D4, symBinAddr: 0xEC00, symSize: 0x4 }
  - { offsetInCU: 0x19754, offset: 0x126A3E, size: 0x8, addend: 0x0, symName: __ZNSt3__120__shared_ptr_emplaceIN2v810PersistentINS1_6ObjectENS1_27NonCopyablePersistentTraitsIS3_EEEENS_9allocatorIS6_EEE21__on_zero_shared_weakEv, symObjAddr: 0x21D4, symBinAddr: 0xEC00, symSize: 0x4 }
  - { offsetInCU: 0x19780, offset: 0x126A6A, size: 0x8, addend: 0x0, symName: __ZNSt3__120__shared_ptr_emplaceIN2v810PersistentINS1_6ObjectENS1_27NonCopyablePersistentTraitsIS3_EEEENS_9allocatorIS6_EEE21__on_zero_shared_weakEv, symObjAddr: 0x21D4, symBinAddr: 0xEC00, symSize: 0x4 }
  - { offsetInCU: 0x197A7, offset: 0x126A91, size: 0x8, addend: 0x0, symName: __ZNSt3__120__shared_ptr_emplaceIN2v810PersistentINS1_6ObjectENS1_27NonCopyablePersistentTraitsIS3_EEEENS_9allocatorIS6_EEE21__on_zero_shared_weakEv, symObjAddr: 0x21D4, symBinAddr: 0xEC00, symSize: 0x4 }
  - { offsetInCU: 0x19801, offset: 0x126AEB, size: 0x8, addend: 0x0, symName: __ZN10robin_hood6detail5TableILb1ELm80EPKvNSt3__110shared_ptrIN2v810PersistentINS6_6ObjectENS6_27NonCopyablePersistentTraitsIS8_EEEEEENS_4hashIS3_vEENS4_8equal_toIS3_EEE13increase_sizeEv, symObjAddr: 0x2418, symBinAddr: 0xEDF4, symSize: 0x12C }
  - { offsetInCU: 0x198CB, offset: 0x126BB5, size: 0x8, addend: 0x0, symName: __ZN10robin_hood6detail5TableILb1ELm80EPKvNSt3__110shared_ptrIN2v810PersistentINS6_6ObjectENS6_27NonCopyablePersistentTraitsIS8_EEEEEENS_4hashIS3_vEENS4_8equal_toIS3_EEE7shiftUpEmm, symObjAddr: 0x2544, symBinAddr: 0xEF20, symSize: 0xEC }
  - { offsetInCU: 0x19A3C, offset: 0x126D26, size: 0x8, addend: 0x0, symName: __ZNSt14overflow_errorC1B7v160006EPKc, symObjAddr: 0x2AD8, symBinAddr: 0xF458, symSize: 0x24 }
  - { offsetInCU: 0x19AD1, offset: 0x126DBB, size: 0x8, addend: 0x0, symName: __ZN10robin_hood6detail5TableILb1ELm80EPKvNSt3__110shared_ptrIN2v810PersistentINS6_6ObjectENS6_27NonCopyablePersistentTraitsIS8_EEEEEENS_4hashIS3_vEENS4_8equal_toIS3_EEE17try_increase_infoEv, symObjAddr: 0x270C, symBinAddr: 0xF0E8, symSize: 0x100 }
  - { offsetInCU: 0x19BD8, offset: 0x126EC2, size: 0x8, addend: 0x0, symName: __ZN10robin_hood6detail5TableILb1ELm80EPKvNSt3__110shared_ptrIN2v810PersistentINS6_6ObjectENS6_27NonCopyablePersistentTraitsIS8_EEEEEENS_4hashIS3_vEENS4_8equal_toIS3_EEE8initDataEm, symObjAddr: 0x2630, symBinAddr: 0xF00C, symSize: 0xDC }
  - { offsetInCU: 0x19CF2, offset: 0x126FDC, size: 0x8, addend: 0x0, symName: __ZN10robin_hood6detail5TableILb1ELm80EPKvNSt3__110shared_ptrIN2v810PersistentINS6_6ObjectENS6_27NonCopyablePersistentTraitsIS8_EEEEEENS_4hashIS3_vEENS4_8equal_toIS3_EEE17try_increase_infoEv, symObjAddr: 0x270C, symBinAddr: 0xF0E8, symSize: 0x100 }
  - { offsetInCU: 0x19CFD, offset: 0x126FE7, size: 0x8, addend: 0x0, symName: __ZN10robin_hood6detail5TableILb1ELm80EPKvNSt3__110shared_ptrIN2v810PersistentINS6_6ObjectENS6_27NonCopyablePersistentTraitsIS8_EEEEEENS_4hashIS3_vEENS4_8equal_toIS3_EEE16rehashPowerOfTwoEmb, symObjAddr: 0x280C, symBinAddr: 0xF1E8, symSize: 0xF8 }
  - { offsetInCU: 0x19F6E, offset: 0x127258, size: 0x8, addend: 0x0, symName: __ZN10robin_hood6detail5TableILb1ELm80EPKvNSt3__110shared_ptrIN2v810PersistentINS6_6ObjectENS6_27NonCopyablePersistentTraitsIS8_EEEEEENS_4hashIS3_vEENS4_8equal_toIS3_EEE11insert_moveEONSH_8DataNodeISH_Lb1EEE, symObjAddr: 0x292C, symBinAddr: 0xF308, symSize: 0x150 }
  - { offsetInCU: 0x2158, offset: 0x1296D0, size: 0x8, addend: 0x0, symName: __ZN3tns10ToNSStringEPN2v87IsolateERKNS0_5LocalINS0_5ValueEEE, symObjAddr: 0x274C, symBinAddr: 0x119AC, symSize: 0xCC }
  - { offsetInCU: 0xEE6B, offset: 0x1363E3, size: 0x8, addend: 0x0, symName: __ZNSt3__119__allocate_at_leastB7v160006INS_9allocatorIPKN3tns10MethodMetaEEEEENS_19__allocation_resultINS_16allocator_traitsIT_E7pointerEEERS9_m, symObjAddr: 0x871C, symBinAddr: 0x1664C, symSize: 0x34 }
  - { offsetInCU: 0xEF10, offset: 0x136488, size: 0x8, addend: 0x0, symName: __ZNSt3__16vectorIN2v85LocalINS1_5ValueEEENS_9allocatorIS4_EEE6assignIPS4_Li0EEEvT_SA_, symObjAddr: 0x8750, symBinAddr: 0x16680, symSize: 0x108 }
  - { offsetInCU: 0xF205, offset: 0x13677D, size: 0x8, addend: 0x0, symName: __ZNSt3__119__allocate_at_leastB7v160006INS_9allocatorIN2v85LocalINS2_5ValueEEEEEEENS_19__allocation_resultINS_16allocator_traitsIT_E7pointerEEERS9_m, symObjAddr: 0x7DC0, symBinAddr: 0x15DD8, symSize: 0x34 }
  - { offsetInCU: 0xFBAF, offset: 0x137127, size: 0x8, addend: 0x0, symName: __ZNSt3__115allocate_sharedB7v160006IN2v810PersistentINS1_5ValueENS1_27NonCopyablePersistentTraitsIS3_EEEENS_9allocatorIS6_EEJRPNS1_7IsolateERNS1_5LocalINS1_6ObjectEEEEvEENS_10shared_ptrIT_EERKT0_DpOT1_, symObjAddr: 0x97F8, symBinAddr: 0x17668, symSize: 0x60 }
  - { offsetInCU: 0x113C4, offset: 0x13893C, size: 0x8, addend: 0x0, symName: __ZNK3tns10MethodMeta8selectorEv, symObjAddr: 0x5C90, symBinAddr: 0x14718, symSize: 0x21C }
  - { offsetInCU: 0x113E9, offset: 0x138961, size: 0x8, addend: 0x0, symName: __ZZNK3tns10MethodMeta8selectorEvE23methodMetaSelectorCache, symObjAddr: 0xB3F0, symBinAddr: 0xD02B68, symSize: 0x0 }
  - { offsetInCU: 0x11400, offset: 0x138978, size: 0x8, addend: 0x0, symName: __ZZNK3tns10MethodMeta8selectorEvE1p, symObjAddr: 0xB430, symBinAddr: 0xD02BA8, symSize: 0x0 }
  - { offsetInCU: 0x1C77B, offset: 0x143CF3, size: 0x8, addend: 0x0, symName: __ZN3tns12ArgConverter4InitEN2v85LocalINS1_7ContextEEEPFvNS2_INS1_4NameEEERKNS1_20PropertyCallbackInfoINS1_5ValueEEEEPFvS6_NS2_IS8_EESB_E, symObjAddr: 0x0, symBinAddr: 0xF47C, symSize: 0x180 }
  - { offsetInCU: 0x1CCCC, offset: 0x144244, size: 0x8, addend: 0x0, symName: __ZN3tns12ArgConverter27CreateEmptyInstanceFunctionEN2v85LocalINS1_7ContextEEEPFvNS2_INS1_4NameEEERKNS1_20PropertyCallbackInfoINS1_5ValueEEEEPFvS6_NS2_IS8_EESB_E, symObjAddr: 0x180, symBinAddr: 0xF5FC, symSize: 0x138 }
  - { offsetInCU: 0x1DB7B, offset: 0x1450F3, size: 0x8, addend: 0x0, symName: __ZN3tns12ArgConverter6InvokeEN2v85LocalINS1_7ContextEEEP10objc_classNS2_INS1_6ObjectEEERNS_6V8ArgsEPKNS_10MethodMetaEb, symObjAddr: 0x2B8, symBinAddr: 0xF734, symSize: 0x658 }
  - { offsetInCU: 0x1FF21, offset: 0x147499, size: 0x8, addend: 0x0, symName: __ZNK10robin_hood6detail5TableILb1ELm80ENSt3__112basic_stringIcNS2_11char_traitsIcEENS2_9allocatorIcEEEENS2_10unique_ptrIN2v810PersistentINSA_6ObjectENSA_27NonCopyablePersistentTraitsISC_EEEENS2_14default_deleteISF_EEEENS_4hashIS8_vEENS2_8equal_toIS8_EEE7findIdxIS8_EEmRKT_, symObjAddr: 0x76DC, symBinAddr: 0x15B2C, symSize: 0x108 }
  - { offsetInCU: 0x1FF45, offset: 0x1474BD, size: 0x8, addend: 0x0, symName: __ZN3tns12ArgConverter19FindMethodOverloadsEP10objc_classNSt3__112basic_stringIcNS3_11char_traitsIcEENS3_9allocatorIcEEEENS_10MemberTypeERNS3_6vectorIPKNS_10MethodMetaENS7_ISE_EEEE, symObjAddr: 0x910, symBinAddr: 0xFD8C, symSize: 0x278 }
  - { offsetInCU: 0x20CCE, offset: 0x148246, size: 0x8, addend: 0x0, symName: __ZN3tns14ObjCMethodCallC2EN2v85LocalINS1_7ContextEEEPKNS_10MethodMetaEP11objc_objectP10objc_classRNS_6V8ArgsEb, symObjAddr: 0x5AD8, symBinAddr: 0x14560, symSize: 0x1B8 }
  - { offsetInCU: 0x21307, offset: 0x14887F, size: 0x8, addend: 0x0, symName: __ZNK10robin_hood6detail5TableILb1ELm80ENSt3__112basic_stringIcNS2_11char_traitsIcEENS2_9allocatorIcEEEENS2_10unique_ptrIN2v810PersistentINSA_6ObjectENSA_27NonCopyablePersistentTraitsISC_EEEENS2_14default_deleteISF_EEEENS_4hashIS8_vEENS2_8equal_toIS8_EEE7findIdxIS8_EEmRKT_, symObjAddr: 0x76DC, symBinAddr: 0x15B2C, symSize: 0x108 }
  - { offsetInCU: 0x21C41, offset: 0x1491B9, size: 0x8, addend: 0x0, symName: __ZN3tns12ArgConverter8FindMetaEP10objc_classPKNS_12TypeEncodingE, symObjAddr: 0x2DD0, symBinAddr: 0x11F9C, symSize: 0x28C }
  - { offsetInCU: 0x22A86, offset: 0x149FFE, size: 0x8, addend: 0x0, symName: __ZNK3tns13InterfaceMeta8baseNameEv, symObjAddr: 0x5214, symBinAddr: 0x14334, symSize: 0x78 }
  - { offsetInCU: 0x22D2B, offset: 0x14A2A3, size: 0x8, addend: 0x0, symName: __ZNSt3__16__treeIPKN3tns10MemberMetaENS_4lessIS4_EENS_9allocatorIS4_EEE7destroyEPNS_11__tree_nodeIS4_PvEE, symObjAddr: 0x9900, symBinAddr: 0x17730, symSize: 0x40 }
  - { offsetInCU: 0x22E6B, offset: 0x14A3E3, size: 0x8, addend: 0x0, symName: __ZNKSt3__16vectorIPKN3tns10MethodMetaENS_9allocatorIS4_EEE20__throw_length_errorB7v160006Ev, symObjAddr: 0x8708, symBinAddr: 0x16638, symSize: 0x14 }
  - { offsetInCU: 0x22E94, offset: 0x14A40C, size: 0x8, addend: 0x0, symName: __ZNSt3__119__allocate_at_leastB7v160006INS_9allocatorIPKN3tns10MethodMetaEEEEENS_19__allocation_resultINS_16allocator_traitsIT_E7pointerEEERS9_m, symObjAddr: 0x871C, symBinAddr: 0x1664C, symSize: 0x34 }
  - { offsetInCU: 0x22FD4, offset: 0x14A54C, size: 0x8, addend: 0x0, symName: __ZN3tns12ArgConverter15ConvertArgumentEN2v85LocalINS1_7ContextEEEPNS_15BaseDataWrapperEbRKNSt3__16vectorINS7_12basic_stringIcNS7_11char_traitsIcEENS7_9allocatorIcEEEENSC_ISE_EEEE, symObjAddr: 0xCE8, symBinAddr: 0x10004, symSize: 0x60 }
  - { offsetInCU: 0x23075, offset: 0x14A5ED, size: 0x8, addend: 0x0, symName: __ZN3tns12ArgConverter15CreateJsWrapperEN2v85LocalINS1_7ContextEEEPNS_15BaseDataWrapperENS2_INS1_6ObjectEEEbRKNSt3__16vectorINS9_12basic_stringIcNS9_11char_traitsIcEENS9_9allocatorIcEEEENSE_ISG_EEEE, symObjAddr: 0xD48, symBinAddr: 0x10064, symSize: 0xB5C }
  - { offsetInCU: 0x265EC, offset: 0x14DB64, size: 0x8, addend: 0x0, symName: __ZN3tns12ArgConverter17CreateEmptyObjectEN2v85LocalINS1_7ContextEEEb, symObjAddr: 0x4558, symBinAddr: 0x136D4, symSize: 0x110 }
  - { offsetInCU: 0x26B52, offset: 0x14E0CA, size: 0x8, addend: 0x0, symName: __ZN3tns12ArgConverter17CreateEmptyStructEN2v85LocalINS1_7ContextEEE, symObjAddr: 0x43FC, symBinAddr: 0x135C8, symSize: 0x10C }
  - { offsetInCU: 0x2727E, offset: 0x14E7F6, size: 0x8, addend: 0x0, symName: __ZNKSt3__18functionIFN2v85LocalINS1_16FunctionTemplateEEENS2_INS1_7ContextEEEPKN3tns13BaseClassMetaENS7_21KnownUnknownClassPairERKNS_6vectorINS_12basic_stringIcNS_11char_traitsIcEENS_9allocatorIcEEEENSG_ISI_EEEEEEclES6_SA_SB_SM_, symObjAddr: 0x4668, symBinAddr: 0x137E4, symSize: 0x4C }
  - { offsetInCU: 0x2732D, offset: 0x14E8A5, size: 0x8, addend: 0x0, symName: __ZNK3tns11GlobalTableILNS_15GlobalTableTypeE0EE8findMetaEPKcb, symObjAddr: 0x46B4, symBinAddr: 0x13830, symSize: 0x54 }
  - { offsetInCU: 0x27339, offset: 0x14E8B1, size: 0x8, addend: 0x0, symName: __ZNK10robin_hood6detail5TableILb1ELm80EPKN3tns4MetaENSt3__110unique_ptrIN2v810PersistentINS8_5ValueENS8_27NonCopyablePersistentTraitsISA_EEEENS6_14default_deleteISD_EEEENS_4hashIS5_vEENS6_8equal_toIS5_EEE7findIdxIS5_EEmRKT_, symObjAddr: 0x88E4, symBinAddr: 0x167C8, symSize: 0xD8 }
  - { offsetInCU: 0x27395, offset: 0x14E90D, size: 0x8, addend: 0x0, symName: __ZNK10robin_hood6detail5TableILb1ELm80EPKN3tns4MetaENSt3__110unique_ptrIN2v810PersistentINS8_5ValueENS8_27NonCopyablePersistentTraitsISA_EEEENS6_14default_deleteISD_EEEENS_4hashIS5_vEENS6_8equal_toIS5_EEE7findIdxIS5_EEmRKT_, symObjAddr: 0x88E4, symBinAddr: 0x167C8, symSize: 0xD8 }
  - { offsetInCU: 0x274D1, offset: 0x14EA49, size: 0x8, addend: 0x0, symName: __ZNSt3__16vectorINS_12basic_stringIcNS_11char_traitsIcEENS_9allocatorIcEEEENS4_IS6_EEED2B7v160006Ev, symObjAddr: 0x7574, symBinAddr: 0x15A60, symSize: 0x38 }
  - { offsetInCU: 0x27652, offset: 0x14EBCA, size: 0x8, addend: 0x0, symName: __ZN10robin_hood6detail5TableILb1ELm80EP11objc_objectNSt3__110shared_ptrIN2v810PersistentINS6_5ValueENS6_27NonCopyablePersistentTraitsIS8_EEEEEENS_4hashIS3_vEENS4_8equal_toIS3_EEE7emplaceIJRS3_RSC_EEENS4_4pairINSH_4IterILb0EEEbEEDpOT_, symObjAddr: 0x3848, symBinAddr: 0x12A14, symSize: 0x138 }
  - { offsetInCU: 0x284C8, offset: 0x14FA40, size: 0x8, addend: 0x0, symName: __ZN3tns12ArgConverter14MethodCallbackEP7ffi_cifPvPS3_S3_, symObjAddr: 0x18A4, symBinAddr: 0x10BC0, symSize: 0x7B0 }
  - { offsetInCU: 0x29D83, offset: 0x1512FB, size: 0x8, addend: 0x0, symName: __ZNSt3__16vectorIN2v85LocalINS1_5ValueEEENS_9allocatorIS4_EEE7reserveEm, symObjAddr: 0x2054, symBinAddr: 0x11370, symSize: 0x94 }
  - { offsetInCU: 0x2A078, offset: 0x1515F0, size: 0x8, addend: 0x0, symName: __ZNK3tns12TypeEncoding4nextEv, symObjAddr: 0x20E8, symBinAddr: 0x11404, symSize: 0xE4 }
  - { offsetInCU: 0x2A084, offset: 0x1515FC, size: 0x8, addend: 0x0, symName: __ZNK3tns12TypeEncoding4nextEv, symObjAddr: 0x20E8, symBinAddr: 0x11404, symSize: 0xE4 }
  - { offsetInCU: 0x2A269, offset: 0x1517E1, size: 0x8, addend: 0x0, symName: __ZN3tns12ArgConverter19IsErrorOutParameterEPKNS_12TypeEncodingE, symObjAddr: 0x21CC, symBinAddr: 0x114E8, symSize: 0xA4 }
  - { offsetInCU: 0x2A51F, offset: 0x151A97, size: 0x8, addend: 0x0, symName: __ZN3tns12ArgConverter8SetValueEN2v85LocalINS1_7ContextEEEPvNS2_INS1_5ValueEEEPKNS_12TypeEncodingE, symObjAddr: 0x232C, symBinAddr: 0x1158C, symSize: 0x420 }
  - { offsetInCU: 0x2B36F, offset: 0x1528E7, size: 0x8, addend: 0x0, symName: __ZNKSt3__16vectorIN2v85LocalINS1_5ValueEEENS_9allocatorIS4_EEE20__throw_length_errorB7v160006Ev, symObjAddr: 0x7DAC, symBinAddr: 0x15DC4, symSize: 0x14 }
  - { offsetInCU: 0x2B398, offset: 0x152910, size: 0x8, addend: 0x0, symName: __ZNSt3__119__allocate_at_leastB7v160006INS_9allocatorIN2v85LocalINS2_5ValueEEEEEEENS_19__allocation_resultINS_16allocator_traitsIT_E7pointerEEERS9_m, symObjAddr: 0x7DC0, symBinAddr: 0x15DD8, symSize: 0x34 }
  - { offsetInCU: 0x2B990, offset: 0x152F08, size: 0x8, addend: 0x0, symName: __ZNK3tns5PtrToIcE8valuePtrEv, symObjAddr: 0x2818, symBinAddr: 0x11A78, symSize: 0x78 }
  - { offsetInCU: 0x2BBFC, offset: 0x153174, size: 0x8, addend: 0x0, symName: __ZN3tns12ArgConverter7GetMetaENSt3__112basic_stringIcNS1_11char_traitsIcEENS1_9allocatorIcEEEE, symObjAddr: 0x2890, symBinAddr: 0x11AF0, symSize: 0x13C }
  - { offsetInCU: 0x2C2FF, offset: 0x153877, size: 0x8, addend: 0x0, symName: __ZNK10robin_hood6detail5TableILb1ELm80ENSt3__112basic_stringIcNS2_11char_traitsIcEENS2_9allocatorIcEEEEPKN3tns4MetaENS_4hashIS8_vEENS2_8equal_toIS8_EEE7findIdxIS8_EEmRKT_, symObjAddr: 0x92D4, symBinAddr: 0x171B8, symSize: 0x108 }
  - { offsetInCU: 0x2C43B, offset: 0x1539B3, size: 0x8, addend: 0x0, symName: __ZNK3tns11GlobalTableILNS_15GlobalTableTypeE0EE8findMetaEPKcb, symObjAddr: 0x46B4, symBinAddr: 0x13830, symSize: 0x54 }
  - { offsetInCU: 0x2C4CE, offset: 0x153A46, size: 0x8, addend: 0x0, symName: __ZNK3tns11GlobalTableILNS_15GlobalTableTypeE1EE8findMetaEPKcb, symObjAddr: 0x4708, symBinAddr: 0x13884, symSize: 0x54 }
  - { offsetInCU: 0x2C566, offset: 0x153ADE, size: 0x8, addend: 0x0, symName: __ZN10robin_hood6detail5TableILb1ELm80ENSt3__112basic_stringIcNS2_11char_traitsIcEENS2_9allocatorIcEEEEPKN3tns4MetaENS_4hashIS8_vEENS2_8equal_toIS8_EEEixISC_EENS2_9enable_ifIXntsr3std7is_voidIT_EE5valueERSK_E4typeERKS8_, symObjAddr: 0x89BC, symBinAddr: 0x168A0, symSize: 0xD4 }
  - { offsetInCU: 0x2CBE4, offset: 0x15415C, size: 0x8, addend: 0x0, symName: __ZN3tns12ArgConverter15ConstructObjectEN2v85LocalINS1_7ContextEEERKNS1_20FunctionCallbackInfoINS1_5ValueEEEP10objc_classPKNS_13InterfaceMetaE, symObjAddr: 0x2A60, symBinAddr: 0x11C2C, symSize: 0x370 }
  - { offsetInCU: 0x2D899, offset: 0x154E11, size: 0x8, addend: 0x0, symName: __ZN3tns12ArgConverter15FindInitializerEN2v85LocalINS1_7ContextEEEP10objc_classPKNS_13InterfaceMetaERKNS1_20FunctionCallbackInfoINS1_5ValueEEERNSt3__16vectorINS2_ISB_EENSF_9allocatorISH_EEEE, symObjAddr: 0x305C, symBinAddr: 0x12228, symSize: 0x7EC }
  - { offsetInCU: 0x3045E, offset: 0x1579D6, size: 0x8, addend: 0x0, symName: __ZN3tns12ArgConverter15GetInitializersEPNS_6CachesEP10objc_classPKNS_13InterfaceMetaE, symObjAddr: 0x3D1C, symBinAddr: 0x12EE8, symSize: 0xE0 }
  - { offsetInCU: 0x3082C, offset: 0x157DA4, size: 0x8, addend: 0x0, symName: __ZN3tns12ArgConverter9CanInvokeEN2v85LocalINS1_7ContextEEEPKNS_10MethodMetaERKNS1_20FunctionCallbackInfoINS1_5ValueEEE, symObjAddr: 0x3DFC, symBinAddr: 0x12FC8, symSize: 0x168 }
  - { offsetInCU: 0x30E6A, offset: 0x1583E2, size: 0x8, addend: 0x0, symName: __ZNK3tns13InterfaceMeta8baseMetaEv, symObjAddr: 0x3F64, symBinAddr: 0x13130, symSize: 0x48 }
  - { offsetInCU: 0x30ED7, offset: 0x15844F, size: 0x8, addend: 0x0, symName: __ZNSt3__16vectorIN2v85LocalINS1_5ValueEEENS_9allocatorIS4_EEE6assignIPS4_Li0EEEvT_SA_, symObjAddr: 0x8750, symBinAddr: 0x16680, symSize: 0x108 }
  - { offsetInCU: 0x314F8, offset: 0x158A70, size: 0x8, addend: 0x0, symName: __ZNSt3__16vectorIN2v85LocalINS1_5ValueEEENS_9allocatorIS4_EEE11__vallocateB7v160006Em, symObjAddr: 0x8858, symBinAddr: 0x16788, symSize: 0x40 }
  - { offsetInCU: 0x31514, offset: 0x158A8C, size: 0x8, addend: 0x0, symName: __ZN3tns12ArgConverter18GetInitializerArgsEN2v85LocalINS1_6ObjectEEERNSt3__112basic_stringIcNS5_11char_traitsIcEENS5_9allocatorIcEEEE, symObjAddr: 0x3980, symBinAddr: 0x12B4C, symSize: 0x39C }
  - { offsetInCU: 0x3287B, offset: 0x159DF3, size: 0x8, addend: 0x0, symName: __ZNSt3__118basic_stringstreamIcNS_11char_traitsIcEENS_9allocatorIcEEEC1B7v160006Ev, symObjAddr: 0x3FAC, symBinAddr: 0x13178, symSize: 0xE8 }
  - { offsetInCU: 0x32956, offset: 0x159ECE, size: 0x8, addend: 0x0, symName: __ZNSt3__118basic_stringstreamIcNS_11char_traitsIcEENS_9allocatorIcEEED1Ev, symObjAddr: 0x4094, symBinAddr: 0x13260, symSize: 0x94 }
  - { offsetInCU: 0x32E67, offset: 0x15A3DF, size: 0x8, addend: 0x0, symName: __ZN10robin_hood6detail5TableILb1ELm80EP11objc_objectNSt3__110shared_ptrIN2v810PersistentINS6_5ValueENS6_27NonCopyablePersistentTraitsIS8_EEEEEENS_4hashIS3_vEENS4_8equal_toIS3_EEE25insertKeyPrepareEmptySpotIRKS3_EENS4_4pairImNSH_14InsertionStateEEEOT_, symObjAddr: 0x7EDC, symBinAddr: 0x15E0C, symSize: 0x1A0 }
  - { offsetInCU: 0x330D1, offset: 0x15A649, size: 0x8, addend: 0x0, symName: __ZNK10robin_hood6detail5TableILb1ELm80EP11objc_objectNSt3__110shared_ptrIN2v810PersistentINS6_5ValueENS6_27NonCopyablePersistentTraitsIS8_EEEEEENS_4hashIS3_vEENS4_8equal_toIS3_EEE18throwOverflowErrorEv, symObjAddr: 0x807C, symBinAddr: 0x15FAC, symSize: 0x50 }
  - { offsetInCU: 0x332D7, offset: 0x15A84F, size: 0x8, addend: 0x0, symName: __ZNK10robin_hood6detail5TableILb1ELm80EPKN3tns13InterfaceMetaENSt3__16vectorIPKNS2_10MethodMetaENS6_9allocatorISA_EEEENS_4hashIS5_vEENS6_8equal_toIS5_EEE7findIdxIS5_EEmRKT_, symObjAddr: 0x9940, symBinAddr: 0x17770, symSize: 0xD8 }
  - { offsetInCU: 0x33333, offset: 0x15A8AB, size: 0x8, addend: 0x0, symName: __ZNK10robin_hood6detail5TableILb1ELm80EPKN3tns13InterfaceMetaENSt3__16vectorIPKNS2_10MethodMetaENS6_9allocatorISA_EEEENS_4hashIS5_vEENS6_8equal_toIS5_EEE7findIdxIS5_EEmRKT_, symObjAddr: 0x9940, symBinAddr: 0x17770, symSize: 0xD8 }
  - { offsetInCU: 0x33470, offset: 0x15A9E8, size: 0x8, addend: 0x0, symName: __ZNSt3__16vectorIPKN3tns10MethodMetaENS_9allocatorIS4_EEEC2ERKS7_, symObjAddr: 0x9A18, symBinAddr: 0x17848, symSize: 0x80 }
  - { offsetInCU: 0x3379B, offset: 0x15AD13, size: 0x8, addend: 0x0, symName: __ZNK3tns13BaseClassMeta25initializersWithProtocolsENS_21KnownUnknownClassPairERKNSt3__16vectorIPKNS_12ProtocolMetaENS2_9allocatorIS6_EEEE, symObjAddr: 0x528C, symBinAddr: 0x143AC, symSize: 0x68 }
  - { offsetInCU: 0x33B03, offset: 0x15B07B, size: 0x8, addend: 0x0, symName: __ZN10robin_hood6detail5TableILb1ELm80EPKN3tns13InterfaceMetaENSt3__16vectorIPKNS2_10MethodMetaENS6_9allocatorISA_EEEENS_4hashIS5_vEENS6_8equal_toIS5_EEE7emplaceIJRS5_RSD_EEENS6_4pairINSI_4IterILb0EEEbEEDpOT_, symObjAddr: 0x52F4, symBinAddr: 0x14414, symSize: 0x14C }
  - { offsetInCU: 0x34326, offset: 0x15B89E, size: 0x8, addend: 0x0, symName: __ZN3tns12ArgConverter9CanInvokeEN2v85LocalINS1_7ContextEEEPKNS_12TypeEncodingENS2_INS1_5ValueEEE, symObjAddr: 0x4128, symBinAddr: 0x132F4, symSize: 0x2D4 }
  - { offsetInCU: 0x34B92, offset: 0x15C10A, size: 0x8, addend: 0x0, symName: __ZNK3tns11GlobalTableILNS_15GlobalTableTypeE0EE17findInterfaceMetaEPKc, symObjAddr: 0x6CDC, symBinAddr: 0x152A0, symSize: 0x4C }
  - { offsetInCU: 0x34CA7, offset: 0x15C21F, size: 0x8, addend: 0x0, symName: __ZN3tns12ArgConverter19CreateEmptyInstanceEN2v85LocalINS1_7ContextEEEPNS1_10PersistentINS1_8FunctionENS1_27NonCopyablePersistentTraitsIS6_EEEEb, symObjAddr: 0x4AD8, symBinAddr: 0x13C54, symSize: 0x154 }
  - { offsetInCU: 0x351D5, offset: 0x15C74D, size: 0x8, addend: 0x0, symName: __ZN3WTF12StringHasher26computeHashAndMaskTop8BitsIcXadL_ZNS0_16defaultConverterEcEEEEjPKT_, symObjAddr: 0x6E1C, symBinAddr: 0x153E0, symSize: 0x4C }
  - { offsetInCU: 0x35296, offset: 0x15C80E, size: 0x8, addend: 0x0, symName: __ZNK3tns11GlobalTableILNS_15GlobalTableTypeE0EE8findMetaEPKcmjb, symObjAddr: 0x6F1C, symBinAddr: 0x154E0, symSize: 0x16C }
  - { offsetInCU: 0x35891, offset: 0x15CE09, size: 0x8, addend: 0x0, symName: __ZNK3tns11GlobalTableILNS_15GlobalTableTypeE1EE8findMetaEPKcmjb, symObjAddr: 0x93DC, symBinAddr: 0x172C0, symSize: 0x16C }
  - { offsetInCU: 0x35FF8, offset: 0x15D570, size: 0x8, addend: 0x0, symName: __ZN3tns12ArgConverter16FindProtocolMetaEP8Protocol, symObjAddr: 0x475C, symBinAddr: 0x138D8, symSize: 0x37C }
  - { offsetInCU: 0x37B08, offset: 0x15F080, size: 0x8, addend: 0x0, symName: __ZNSt3__115allocate_sharedB7v160006IN2v810PersistentINS1_5ValueENS1_27NonCopyablePersistentTraitsIS3_EEEENS_9allocatorIS6_EEJRPNS1_7IsolateERNS1_5LocalINS1_6ObjectEEEEvEENS_10shared_ptrIT_EERKT0_DpOT1_, symObjAddr: 0x97F8, symBinAddr: 0x17668, symSize: 0x60 }
  - { offsetInCU: 0x37D77, offset: 0x15F2EF, size: 0x8, addend: 0x0, symName: __ZN3tns12ArgConverter29IndexedPropertyGetterCallbackEjRKN2v820PropertyCallbackInfoINS1_5ValueEEE, symObjAddr: 0x4C88, symBinAddr: 0x13DA8, symSize: 0x4DC }
  - { offsetInCU: 0x38D19, offset: 0x160291, size: 0x8, addend: 0x0, symName: __ZN3tns12ArgConverter29IndexedPropertySetterCallbackEjN2v85LocalINS1_5ValueEEERKNS1_20PropertyCallbackInfoIS3_EE, symObjAddr: 0x5164, symBinAddr: 0x14284, symSize: 0xB0 }
  - { offsetInCU: 0x3926E, offset: 0x1607E6, size: 0x8, addend: 0x0, symName: __ZN10robin_hood6detail5TableILb1ELm80EPKN3tns13InterfaceMetaENSt3__16vectorIPKNS2_10MethodMetaENS6_9allocatorISA_EEEENS_4hashIS5_vEENS6_8equal_toIS5_EEE25insertKeyPrepareEmptySpotIRKS5_EENS6_4pairImNSI_14InsertionStateEEEOT_, symObjAddr: 0x9AD8, symBinAddr: 0x17908, symSize: 0x194 }
  - { offsetInCU: 0x39410, offset: 0x160988, size: 0x8, addend: 0x0, symName: __ZNK10robin_hood6detail5TableILb1ELm80EPKN3tns13InterfaceMetaENSt3__16vectorIPKNS2_10MethodMetaENS6_9allocatorISA_EEEENS_4hashIS5_vEENS6_8equal_toIS5_EEE18throwOverflowErrorEv, symObjAddr: 0x9C6C, symBinAddr: 0x17A9C, symSize: 0x50 }
  - { offsetInCU: 0x39A26, offset: 0x160F9E, size: 0x8, addend: 0x0, symName: __ZNK10robin_hood6detail5TableILb1ELm80EPKN3tns10MethodMetaEP13objc_selectorNS_4hashIS5_vEENSt3__18equal_toIS5_EEE7findIdxIS5_EEmRKT_, symObjAddr: 0x5F80, symBinAddr: 0x14A08, symSize: 0xD8 }
  - { offsetInCU: 0x39A82, offset: 0x160FFA, size: 0x8, addend: 0x0, symName: __ZNK10robin_hood6detail5TableILb1ELm80EPKN3tns10MethodMetaEP13objc_selectorNS_4hashIS5_vEENSt3__18equal_toIS5_EEE7findIdxIS5_EEmRKT_, symObjAddr: 0x5F80, symBinAddr: 0x14A08, symSize: 0xD8 }
  - { offsetInCU: 0x39BD4, offset: 0x16114C, size: 0x8, addend: 0x0, symName: __ZN10robin_hood6detail5TableILb1ELm80EPKN3tns10MethodMetaEP13objc_selectorNS_4hashIS5_vEENSt3__18equal_toIS5_EEE7emplaceIJS5_RS7_EEENSA_4pairINSD_4IterILb0EEEbEEDpOT_, symObjAddr: 0x5EEC, symBinAddr: 0x14974, symSize: 0x94 }
  - { offsetInCU: 0x39DDA, offset: 0x161352, size: 0x8, addend: 0x0, symName: __ZN10robin_hood6detail5TableILb1ELm80EPKN3tns10MethodMetaEP13objc_selectorNS_4hashIS5_vEENSt3__18equal_toIS5_EEED1Ev, symObjAddr: 0x5EAC, symBinAddr: 0x14934, symSize: 0x40 }
  - { offsetInCU: 0x3A034, offset: 0x1615AC, size: 0x8, addend: 0x0, symName: __ZN10robin_hood6detail5TableILb1ELm80EPKN3tns10MethodMetaEP13objc_selectorNS_4hashIS5_vEENSt3__18equal_toIS5_EEE25insertKeyPrepareEmptySpotIRKS5_EENSA_4pairImNSD_14InsertionStateEEEOT_, symObjAddr: 0x6058, symBinAddr: 0x14AE0, symSize: 0x194 }
  - { offsetInCU: 0x3A1D6, offset: 0x16174E, size: 0x8, addend: 0x0, symName: __ZNK10robin_hood6detail5TableILb1ELm80EPKN3tns10MethodMetaEP13objc_selectorNS_4hashIS5_vEENSt3__18equal_toIS5_EEE18throwOverflowErrorEv, symObjAddr: 0x61EC, symBinAddr: 0x14C74, symSize: 0x50 }
  - { offsetInCU: 0x3A31B, offset: 0x161893, size: 0x8, addend: 0x0, symName: __ZN10robin_hood6detail5TableILb1ELm80EPKN3tns10MethodMetaEP13objc_selectorNS_4hashIS5_vEENSt3__18equal_toIS5_EEE13increase_sizeEv, symObjAddr: 0x623C, symBinAddr: 0x14CC4, symSize: 0x12C }
  - { offsetInCU: 0x3A3E5, offset: 0x16195D, size: 0x8, addend: 0x0, symName: __ZN10robin_hood6detail5TableILb1ELm80EPKN3tns10MethodMetaEP13objc_selectorNS_4hashIS5_vEENSt3__18equal_toIS5_EEE7shiftUpEmm, symObjAddr: 0x6368, symBinAddr: 0x14DF0, symSize: 0x98 }
  - { offsetInCU: 0x3A4AA, offset: 0x161A22, size: 0x8, addend: 0x0, symName: __ZN10robin_hood6detail5TableILb1ELm80EPKN3tns10MethodMetaEP13objc_selectorNS_4hashIS5_vEENSt3__18equal_toIS5_EEE17try_increase_infoEv, symObjAddr: 0x64CC, symBinAddr: 0x14F54, symSize: 0x100 }
  - { offsetInCU: 0x3A5B1, offset: 0x161B29, size: 0x8, addend: 0x0, symName: __ZN10robin_hood6detail5TableILb1ELm80EPKN3tns10MethodMetaEP13objc_selectorNS_4hashIS5_vEENSt3__18equal_toIS5_EEE8initDataEm, symObjAddr: 0x6400, symBinAddr: 0x14E88, symSize: 0xCC }
  - { offsetInCU: 0x3A6CA, offset: 0x161C42, size: 0x8, addend: 0x0, symName: __ZN10robin_hood6detail5TableILb1ELm80EPKN3tns10MethodMetaEP13objc_selectorNS_4hashIS5_vEENSt3__18equal_toIS5_EEE17try_increase_infoEv, symObjAddr: 0x64CC, symBinAddr: 0x14F54, symSize: 0x100 }
  - { offsetInCU: 0x3A6D6, offset: 0x161C4E, size: 0x8, addend: 0x0, symName: __ZN10robin_hood6detail5TableILb1ELm80EPKN3tns10MethodMetaEP13objc_selectorNS_4hashIS5_vEENSt3__18equal_toIS5_EEE16rehashPowerOfTwoEmb, symObjAddr: 0x65CC, symBinAddr: 0x15054, symSize: 0xF0 }
  - { offsetInCU: 0x3A857, offset: 0x161DCF, size: 0x8, addend: 0x0, symName: __ZN10robin_hood6detail5TableILb1ELm80EPKN3tns10MethodMetaEP13objc_selectorNS_4hashIS5_vEENSt3__18equal_toIS5_EEE11insert_moveEONSD_8DataNodeISD_Lb1EEE, symObjAddr: 0x66E4, symBinAddr: 0x15144, symSize: 0x128 }
  - { offsetInCU: 0x3A9F5, offset: 0x161F6D, size: 0x8, addend: 0x0, symName: __ZN3tns15ObjCDataWrapperD1Ev, symObjAddr: 0x6830, symBinAddr: 0x1526C, symSize: 0x4 }
  - { offsetInCU: 0x3AA20, offset: 0x161F98, size: 0x8, addend: 0x0, symName: __ZN3tns15ObjCDataWrapperD0Ev, symObjAddr: 0x6834, symBinAddr: 0x15270, symSize: 0x4 }
  - { offsetInCU: 0x3AA4B, offset: 0x161FC3, size: 0x8, addend: 0x0, symName: __ZN3tns15ObjCDataWrapper4TypeEv, symObjAddr: 0x6838, symBinAddr: 0x15274, symSize: 0x8 }
  - { offsetInCU: 0x3B46E, offset: 0x1629E6, size: 0x8, addend: 0x0, symName: __ZNK3tns12V8VectorArgsixEi, symObjAddr: 0x6CB8, symBinAddr: 0x1527C, symSize: 0x10 }
  - { offsetInCU: 0x3B4BF, offset: 0x162A37, size: 0x8, addend: 0x0, symName: __ZNK3tns12V8VectorArgs6LengthEv, symObjAddr: 0x6CC8, symBinAddr: 0x1528C, symSize: 0x14 }
  - { offsetInCU: 0x3B505, offset: 0x162A7D, size: 0x8, addend: 0x0, symName: __ZNK3tns11GlobalTableILNS_15GlobalTableTypeE0EE17findInterfaceMetaEPKcmj, symObjAddr: 0x6D28, symBinAddr: 0x152EC, symSize: 0xF4 }
  - { offsetInCU: 0x3B986, offset: 0x162EFE, size: 0x8, addend: 0x0, symName: __ZN3WTF12StringHasher28addCharactersAssumingAlignedIcXadL_ZNS0_16defaultConverterEcEEEEvPKT_, symObjAddr: 0x6E68, symBinAddr: 0x1542C, symSize: 0x80 }
  - { offsetInCU: 0x3BA7D, offset: 0x162FF5, size: 0x8, addend: 0x0, symName: __ZNK3WTF12StringHasher13avalancheBitsEv, symObjAddr: 0x6EE8, symBinAddr: 0x154AC, symSize: 0x34 }
  - { offsetInCU: 0x3BBD6, offset: 0x16314E, size: 0x8, addend: 0x0, symName: __ZN3tns11GlobalTableILNS_15GlobalTableTypeE0EE11compareNameERKNS_4MetaEPKcm, symObjAddr: 0x7088, symBinAddr: 0x1564C, symSize: 0x120 }
  - { offsetInCU: 0x3BFA7, offset: 0x16351F, size: 0x8, addend: 0x0, symName: __ZThn16_NSt3__118basic_stringstreamIcNS_11char_traitsIcEENS_9allocatorIcEEED1Ev, symObjAddr: 0x71A8, symBinAddr: 0x1576C, symSize: 0x8C }
  - { offsetInCU: 0x3C15D, offset: 0x1636D5, size: 0x8, addend: 0x0, symName: __ZTv0_n24_NSt3__118basic_stringstreamIcNS_11char_traitsIcEENS_9allocatorIcEEED1Ev, symObjAddr: 0x7234, symBinAddr: 0x157F8, symSize: 0x94 }
  - { offsetInCU: 0x3C310, offset: 0x163888, size: 0x8, addend: 0x0, symName: __ZNSt3__118basic_stringstreamIcNS_11char_traitsIcEENS_9allocatorIcEEED0Ev, symObjAddr: 0x72C8, symBinAddr: 0x1588C, symSize: 0x94 }
  - { offsetInCU: 0x3C4E6, offset: 0x163A5E, size: 0x8, addend: 0x0, symName: __ZThn16_NSt3__118basic_stringstreamIcNS_11char_traitsIcEENS_9allocatorIcEEED0Ev, symObjAddr: 0x735C, symBinAddr: 0x15920, symSize: 0x94 }
  - { offsetInCU: 0x3C6BB, offset: 0x163C33, size: 0x8, addend: 0x0, symName: __ZTv0_n24_NSt3__118basic_stringstreamIcNS_11char_traitsIcEENS_9allocatorIcEEED0Ev, symObjAddr: 0x73F0, symBinAddr: 0x159B4, symSize: 0x9C }
  - { offsetInCU: 0x3C88A, offset: 0x163E02, size: 0x8, addend: 0x0, symName: __ZN3tns16ObjCClassWrapperD1Ev, symObjAddr: 0x748C, symBinAddr: 0x15A50, symSize: 0x4 }
  - { offsetInCU: 0x3C8B5, offset: 0x163E2D, size: 0x8, addend: 0x0, symName: __ZN3tns16ObjCClassWrapperD0Ev, symObjAddr: 0x7490, symBinAddr: 0x15A54, symSize: 0x4 }
  - { offsetInCU: 0x3C8E0, offset: 0x163E58, size: 0x8, addend: 0x0, symName: __ZN3tns16ObjCClassWrapper4TypeEv, symObjAddr: 0x7494, symBinAddr: 0x15A58, symSize: 0x8 }
  - { offsetInCU: 0x3C9A5, offset: 0x163F1D, size: 0x8, addend: 0x0, symName: __ZNSt3__16vectorINS_12basic_stringIcNS_11char_traitsIcEENS_9allocatorIcEEEENS4_IS6_EEE16__destroy_vectorclB7v160006Ev, symObjAddr: 0x75AC, symBinAddr: 0x15A98, symSize: 0x40 }
  - { offsetInCU: 0x3CAEC, offset: 0x164064, size: 0x8, addend: 0x0, symName: __ZNSt3__16vectorINS_12basic_stringIcNS_11char_traitsIcEENS_9allocatorIcEEEENS4_IS6_EEE7__clearB7v160006Ev, symObjAddr: 0x75EC, symBinAddr: 0x15AD8, symSize: 0x54 }
  - { offsetInCU: 0x3CDB1, offset: 0x164329, size: 0x8, addend: 0x0, symName: __ZNK10robin_hood4hashINSt3__112basic_stringIcNS1_11char_traitsIcEENS1_9allocatorIcEEEEvEclERKS7_, symObjAddr: 0x7894, symBinAddr: 0x15CE4, symSize: 0xE0 }
  - { offsetInCU: 0x3CECF, offset: 0x164447, size: 0x8, addend: 0x0, symName: __ZNKSt3__18equal_toINS_12basic_stringIcNS_11char_traitsIcEENS_9allocatorIcEEEEEclB7v160006ERKS6_S9_, symObjAddr: 0x77E4, symBinAddr: 0x15C34, symSize: 0xB0 }
  - { offsetInCU: 0x3D692, offset: 0x164C0A, size: 0x8, addend: 0x0, symName: __ZNKSt3__16vectorIN2v85LocalINS1_5ValueEEENS_9allocatorIS4_EEE20__throw_length_errorB7v160006Ev, symObjAddr: 0x7DAC, symBinAddr: 0x15DC4, symSize: 0x14 }
  - { offsetInCU: 0x3D83D, offset: 0x164DB5, size: 0x8, addend: 0x0, symName: __ZN10robin_hood6detail5TableILb1ELm80EP11objc_objectNSt3__110shared_ptrIN2v810PersistentINS6_5ValueENS6_27NonCopyablePersistentTraitsIS8_EEEEEENS_4hashIS3_vEENS4_8equal_toIS3_EEE13increase_sizeEv, symObjAddr: 0x80CC, symBinAddr: 0x15FFC, symSize: 0x12C }
  - { offsetInCU: 0x3D907, offset: 0x164E7F, size: 0x8, addend: 0x0, symName: __ZN10robin_hood6detail5TableILb1ELm80EP11objc_objectNSt3__110shared_ptrIN2v810PersistentINS6_5ValueENS6_27NonCopyablePersistentTraitsIS8_EEEEEENS_4hashIS3_vEENS4_8equal_toIS3_EEE7shiftUpEmm, symObjAddr: 0x81F8, symBinAddr: 0x16128, symSize: 0xEC }
  - { offsetInCU: 0x3DAAF, offset: 0x165027, size: 0x8, addend: 0x0, symName: __ZN10robin_hood6detail5TableILb1ELm80EP11objc_objectNSt3__110shared_ptrIN2v810PersistentINS6_5ValueENS6_27NonCopyablePersistentTraitsIS8_EEEEEENS_4hashIS3_vEENS4_8equal_toIS3_EEE17try_increase_infoEv, symObjAddr: 0x83C0, symBinAddr: 0x162F0, symSize: 0x100 }
  - { offsetInCU: 0x3DBB6, offset: 0x16512E, size: 0x8, addend: 0x0, symName: __ZN10robin_hood6detail5TableILb1ELm80EP11objc_objectNSt3__110shared_ptrIN2v810PersistentINS6_5ValueENS6_27NonCopyablePersistentTraitsIS8_EEEEEENS_4hashIS3_vEENS4_8equal_toIS3_EEE8initDataEm, symObjAddr: 0x82E4, symBinAddr: 0x16214, symSize: 0xDC }
  - { offsetInCU: 0x3DCCF, offset: 0x165247, size: 0x8, addend: 0x0, symName: __ZN10robin_hood6detail5TableILb1ELm80EP11objc_objectNSt3__110shared_ptrIN2v810PersistentINS6_5ValueENS6_27NonCopyablePersistentTraitsIS8_EEEEEENS_4hashIS3_vEENS4_8equal_toIS3_EEE17try_increase_infoEv, symObjAddr: 0x83C0, symBinAddr: 0x162F0, symSize: 0x100 }
  - { offsetInCU: 0x3DCDB, offset: 0x165253, size: 0x8, addend: 0x0, symName: __ZN10robin_hood6detail5TableILb1ELm80EP11objc_objectNSt3__110shared_ptrIN2v810PersistentINS6_5ValueENS6_27NonCopyablePersistentTraitsIS8_EEEEEENS_4hashIS3_vEENS4_8equal_toIS3_EEE16rehashPowerOfTwoEmb, symObjAddr: 0x84C0, symBinAddr: 0x163F0, symSize: 0xF8 }
  - { offsetInCU: 0x3DF3D, offset: 0x1654B5, size: 0x8, addend: 0x0, symName: __ZN10robin_hood6detail5TableILb1ELm80EP11objc_objectNSt3__110shared_ptrIN2v810PersistentINS6_5ValueENS6_27NonCopyablePersistentTraitsIS8_EEEEEENS_4hashIS3_vEENS4_8equal_toIS3_EEE11insert_moveEONSH_8DataNodeISH_Lb1EEE, symObjAddr: 0x85B8, symBinAddr: 0x164E8, symSize: 0x150 }
  - { offsetInCU: 0x3E3C0, offset: 0x165938, size: 0x8, addend: 0x0, symName: __ZNSt3__16vectorIN2v85LocalINS1_5ValueEEENS_9allocatorIS4_EEE11__vallocateB7v160006Em, symObjAddr: 0x8858, symBinAddr: 0x16788, symSize: 0x40 }
  - { offsetInCU: 0x3E857, offset: 0x165DCF, size: 0x8, addend: 0x0, symName: __ZN10robin_hood6detail5TableILb1ELm80ENSt3__112basic_stringIcNS2_11char_traitsIcEENS2_9allocatorIcEEEEPKN3tns4MetaENS_4hashIS8_vEENS2_8equal_toIS8_EEE25insertKeyPrepareEmptySpotIRKS8_EENS2_4pairImNSH_14InsertionStateEEEOT_, symObjAddr: 0x8A90, symBinAddr: 0x16974, symSize: 0x188 }
  - { offsetInCU: 0x3E9A4, offset: 0x165F1C, size: 0x8, addend: 0x0, symName: __ZNK10robin_hood6detail5TableILb1ELm80ENSt3__112basic_stringIcNS2_11char_traitsIcEENS2_9allocatorIcEEEEPKN3tns4MetaENS_4hashIS8_vEENS2_8equal_toIS8_EEE18throwOverflowErrorEv, symObjAddr: 0x8C18, symBinAddr: 0x16AFC, symSize: 0x50 }
  - { offsetInCU: 0x3EA8E, offset: 0x166006, size: 0x8, addend: 0x0, symName: __ZN10robin_hood6detail5TableILb1ELm80ENSt3__112basic_stringIcNS2_11char_traitsIcEENS2_9allocatorIcEEEEPKN3tns4MetaENS_4hashIS8_vEENS2_8equal_toIS8_EEE13increase_sizeEv, symObjAddr: 0x8C68, symBinAddr: 0x16B4C, symSize: 0x12C }
  - { offsetInCU: 0x3EB58, offset: 0x1660D0, size: 0x8, addend: 0x0, symName: __ZN10robin_hood6detail5TableILb1ELm80ENSt3__112basic_stringIcNS2_11char_traitsIcEENS2_9allocatorIcEEEEPKN3tns4MetaENS_4hashIS8_vEENS2_8equal_toIS8_EEE7shiftUpEmm, symObjAddr: 0x8D94, symBinAddr: 0x16C78, symSize: 0x118 }
  - { offsetInCU: 0x3EDDA, offset: 0x166352, size: 0x8, addend: 0x0, symName: __ZN10robin_hood6detail5TableILb1ELm80ENSt3__112basic_stringIcNS2_11char_traitsIcEENS2_9allocatorIcEEEEPKN3tns4MetaENS_4hashIS8_vEENS2_8equal_toIS8_EEE17try_increase_infoEv, symObjAddr: 0x8F78, symBinAddr: 0x16E5C, symSize: 0x100 }
  - { offsetInCU: 0x3EEE1, offset: 0x166459, size: 0x8, addend: 0x0, symName: __ZN10robin_hood6detail5TableILb1ELm80ENSt3__112basic_stringIcNS2_11char_traitsIcEENS2_9allocatorIcEEEEPKN3tns4MetaENS_4hashIS8_vEENS2_8equal_toIS8_EEE8initDataEm, symObjAddr: 0x8EAC, symBinAddr: 0x16D90, symSize: 0xCC }
  - { offsetInCU: 0x3EFFA, offset: 0x166572, size: 0x8, addend: 0x0, symName: __ZN10robin_hood6detail5TableILb1ELm80ENSt3__112basic_stringIcNS2_11char_traitsIcEENS2_9allocatorIcEEEEPKN3tns4MetaENS_4hashIS8_vEENS2_8equal_toIS8_EEE17try_increase_infoEv, symObjAddr: 0x8F78, symBinAddr: 0x16E5C, symSize: 0x100 }
  - { offsetInCU: 0x3F006, offset: 0x16657E, size: 0x8, addend: 0x0, symName: __ZN10robin_hood6detail5TableILb1ELm80ENSt3__112basic_stringIcNS2_11char_traitsIcEENS2_9allocatorIcEEEEPKN3tns4MetaENS_4hashIS8_vEENS2_8equal_toIS8_EEE16rehashPowerOfTwoEmb, symObjAddr: 0x9078, symBinAddr: 0x16F5C, symSize: 0x100 }
  - { offsetInCU: 0x3F39A, offset: 0x166912, size: 0x8, addend: 0x0, symName: __ZN10robin_hood6detail5TableILb1ELm80ENSt3__112basic_stringIcNS2_11char_traitsIcEENS2_9allocatorIcEEEEPKN3tns4MetaENS_4hashIS8_vEENS2_8equal_toIS8_EEE11insert_moveEONSH_8DataNodeISH_Lb1EEE, symObjAddr: 0x9178, symBinAddr: 0x1705C, symSize: 0x15C }
  - { offsetInCU: 0x3F790, offset: 0x166D08, size: 0x8, addend: 0x0, symName: __ZN3tns11GlobalTableILNS_15GlobalTableTypeE1EE11compareNameERKNS_4MetaEPKcm, symObjAddr: 0x9548, symBinAddr: 0x1742C, symSize: 0x23C }
  - { offsetInCU: 0x40124, offset: 0x16769C, size: 0x8, addend: 0x0, symName: __ZNSt3__120__shared_ptr_emplaceIN2v810PersistentINS1_5ValueENS1_27NonCopyablePersistentTraitsIS3_EEEENS_9allocatorIS6_EEEC2B7v160006IJRPNS1_7IsolateERNS1_5LocalINS1_6ObjectEEEEEES8_DpOT_, symObjAddr: 0x9858, symBinAddr: 0x176C8, symSize: 0x68 }
  - { offsetInCU: 0x40610, offset: 0x167B88, size: 0x8, addend: 0x0, symName: __ZNSt3__16vectorIPKN3tns10MethodMetaENS_9allocatorIS4_EEE11__vallocateB7v160006Em, symObjAddr: 0x9A98, symBinAddr: 0x178C8, symSize: 0x40 }
  - { offsetInCU: 0x40687, offset: 0x167BFF, size: 0x8, addend: 0x0, symName: __ZN10robin_hood6detail5TableILb1ELm80EPKN3tns13InterfaceMetaENSt3__16vectorIPKNS2_10MethodMetaENS6_9allocatorISA_EEEENS_4hashIS5_vEENS6_8equal_toIS5_EEE25insertKeyPrepareEmptySpotIRKS5_EENS6_4pairImNSI_14InsertionStateEEEOT_, symObjAddr: 0x9AD8, symBinAddr: 0x17908, symSize: 0x194 }
  - { offsetInCU: 0x406D7, offset: 0x167C4F, size: 0x8, addend: 0x0, symName: __ZN10robin_hood6detail5TableILb1ELm80EPKN3tns13InterfaceMetaENSt3__16vectorIPKNS2_10MethodMetaENS6_9allocatorISA_EEEENS_4hashIS5_vEENS6_8equal_toIS5_EEE13increase_sizeEv, symObjAddr: 0x9CBC, symBinAddr: 0x17AEC, symSize: 0x12C }
  - { offsetInCU: 0x407A1, offset: 0x167D19, size: 0x8, addend: 0x0, symName: __ZN10robin_hood6detail5TableILb1ELm80EPKN3tns13InterfaceMetaENSt3__16vectorIPKNS2_10MethodMetaENS6_9allocatorISA_EEEENS_4hashIS5_vEENS6_8equal_toIS5_EEE7shiftUpEmm, symObjAddr: 0x9DE8, symBinAddr: 0x17C18, symSize: 0xF4 }
  - { offsetInCU: 0x4096A, offset: 0x167EE2, size: 0x8, addend: 0x0, symName: __ZN10robin_hood6detail5TableILb1ELm80EPKN3tns13InterfaceMetaENSt3__16vectorIPKNS2_10MethodMetaENS6_9allocatorISA_EEEENS_4hashIS5_vEENS6_8equal_toIS5_EEE17try_increase_infoEv, symObjAddr: 0x9FA8, symBinAddr: 0x17DD8, symSize: 0x100 }
  - { offsetInCU: 0x40A71, offset: 0x167FE9, size: 0x8, addend: 0x0, symName: __ZN10robin_hood6detail5TableILb1ELm80EPKN3tns13InterfaceMetaENSt3__16vectorIPKNS2_10MethodMetaENS6_9allocatorISA_EEEENS_4hashIS5_vEENS6_8equal_toIS5_EEE8initDataEm, symObjAddr: 0x9EDC, symBinAddr: 0x17D0C, symSize: 0xCC }
  - { offsetInCU: 0x40B8A, offset: 0x168102, size: 0x8, addend: 0x0, symName: __ZN10robin_hood6detail5TableILb1ELm80EPKN3tns13InterfaceMetaENSt3__16vectorIPKNS2_10MethodMetaENS6_9allocatorISA_EEEENS_4hashIS5_vEENS6_8equal_toIS5_EEE17try_increase_infoEv, symObjAddr: 0x9FA8, symBinAddr: 0x17DD8, symSize: 0x100 }
  - { offsetInCU: 0x40B96, offset: 0x16810E, size: 0x8, addend: 0x0, symName: __ZN10robin_hood6detail5TableILb1ELm80EPKN3tns13InterfaceMetaENSt3__16vectorIPKNS2_10MethodMetaENS6_9allocatorISA_EEEENS_4hashIS5_vEENS6_8equal_toIS5_EEE16rehashPowerOfTwoEmb, symObjAddr: 0xA0A8, symBinAddr: 0x17ED8, symSize: 0x100 }
  - { offsetInCU: 0x40EAB, offset: 0x168423, size: 0x8, addend: 0x0, symName: __ZNSt3__16vectorIPKN3tns10MethodMetaENS_9allocatorIS4_EEE13__move_assignERS7_NS_17integral_constantIbLb1EEE, symObjAddr: 0xA304, symBinAddr: 0x18134, symSize: 0x50 }
  - { offsetInCU: 0x4109B, offset: 0x168613, size: 0x8, addend: 0x0, symName: __ZN10robin_hood6detail5TableILb1ELm80EPKN3tns13InterfaceMetaENSt3__16vectorIPKNS2_10MethodMetaENS6_9allocatorISA_EEEENS_4hashIS5_vEENS6_8equal_toIS5_EEE11insert_moveEONSI_8DataNodeISI_Lb1EEE, symObjAddr: 0xA1A8, symBinAddr: 0x17FD8, symSize: 0x15C }
  - { offsetInCU: 0x53, offset: 0x1689B8, size: 0x8, addend: 0x0, symName: __ZN3tns6Worker15GlobalFunctionsE, symObjAddr: 0x270690, symBinAddr: 0x158D6E8, symSize: 0x0 }
  - { offsetInCU: 0xCDC5, offset: 0x17572A, size: 0x8, addend: 0x0, symName: __ZNSt3__115allocate_sharedB7v160006IN3tns6Caches11WorkerStateENS_9allocatorIS3_EEJRPN2v87IsolateERNS_10shared_ptrINS6_10PersistentINS6_5ValueENS6_27NonCopyablePersistentTraitsISC_EEEEEERPNS1_13WorkerWrapperEEvEENSA_IT_EERKT0_DpOT1_, symObjAddr: 0x27D8, symBinAddr: 0x1A470, symSize: 0x70 }
  - { offsetInCU: 0xD364, offset: 0x175CC9, size: 0x8, addend: 0x0, symName: __ZNSt3__130__uninitialized_allocator_copyB7v160006INS_9allocatorINS_12basic_stringIcNS_11char_traitsIcEENS1_IcEEEEEEPKS6_S9_PS6_EET2_RT_T0_T1_SB_, symObjAddr: 0x2220, symBinAddr: 0x19EB8, symSize: 0xA0 }
  - { offsetInCU: 0x152E6, offset: 0x17DC4B, size: 0x8, addend: 0x0, symName: __ZN3tns6Worker19ConstructorCallbackERKN2v820FunctionCallbackInfoINS1_5ValueEEE, symObjAddr: 0xBBC, symBinAddr: 0x18D40, symSize: 0x734 }
  - { offsetInCU: 0x16DB0, offset: 0x17F715, size: 0x8, addend: 0x0, symName: __ZN3tns6Worker25PostMessageToMainCallbackERKN2v820FunctionCallbackInfoINS1_5ValueEEE, symObjAddr: 0x484, symBinAddr: 0x18608, symSize: 0x48C }
  - { offsetInCU: 0x19DF5, offset: 0x18275A, size: 0x8, addend: 0x0, symName: __ZNSt3__16vectorINS_12basic_stringIcNS_11char_traitsIcEENS_9allocatorIcEEEENS4_IS6_EEED1B7v160006Ev, symObjAddr: 0x0, symBinAddr: 0x18184, symSize: 0x4 }
  - { offsetInCU: 0x19E20, offset: 0x182785, size: 0x8, addend: 0x0, symName: __ZNSt3__16vectorINS_12basic_stringIcNS_11char_traitsIcEENS_9allocatorIcEEEENS4_IS6_EEED1B7v160006Ev, symObjAddr: 0x0, symBinAddr: 0x18184, symSize: 0x4 }
  - { offsetInCU: 0x19FE8, offset: 0x18294D, size: 0x8, addend: 0x0, symName: __ZN3tns6Worker4InitEPN2v87IsolateENS1_5LocalINS1_14ObjectTemplateEEE, symObjAddr: 0x4, symBinAddr: 0x18188, symSize: 0xB8 }
  - { offsetInCU: 0x1A25D, offset: 0x182BC2, size: 0x8, addend: 0x0, symName: __ZN3tns6Worker4InitEPN2v87IsolateENS1_5LocalINS1_14ObjectTemplateEEEb, symObjAddr: 0xBC, symBinAddr: 0x18240, symSize: 0x3C8 }
  - { offsetInCU: 0x1B0D8, offset: 0x183A3D, size: 0x8, addend: 0x0, symName: __ZNSt3__130__uninitialized_allocator_copyB7v160006INS_9allocatorINS_12basic_stringIcNS_11char_traitsIcEENS1_IcEEEEEEPKS6_S9_PS6_EET2_RT_T0_T1_SB_, symObjAddr: 0x2220, symBinAddr: 0x19EB8, symSize: 0xA0 }
  - { offsetInCU: 0x1BA53, offset: 0x1843B8, size: 0x8, addend: 0x0, symName: __ZN3tns6Worker11GetWorkerIdEPN2v87IsolateENS1_5LocalINS1_6ObjectEEE, symObjAddr: 0x1964, symBinAddr: 0x19A20, symSize: 0x11C }
  - { offsetInCU: 0x1BE64, offset: 0x1847C9, size: 0x8, addend: 0x0, symName: __ZNK10robin_hood6detail5TableILb1ELm80EiNSt3__110shared_ptrIN3tns6Caches11WorkerStateEEENS_4hashIivEENS2_8equal_toIiEEE7findIdxIiEEmRKT_, symObjAddr: 0x3388, symBinAddr: 0x1AFD4, symSize: 0xE8 }
  - { offsetInCU: 0x1BEC0, offset: 0x184825, size: 0x8, addend: 0x0, symName: __ZNK10robin_hood6detail5TableILb1ELm80EiNSt3__110shared_ptrIN3tns6Caches11WorkerStateEEENS_4hashIivEENS2_8equal_toIiEEE7findIdxIiEEmRKT_, symObjAddr: 0x3388, symBinAddr: 0x1AFD4, symSize: 0xE8 }
  - { offsetInCU: 0x1BEEE, offset: 0x184853, size: 0x8, addend: 0x0, symName: __ZNK10robin_hood6detail5TableILb1ELm80EiNSt3__110shared_ptrIN3tns6Caches11WorkerStateEEENS_4hashIivEENS2_8equal_toIiEEE7findIdxIiEEmRKT_, symObjAddr: 0x3388, symBinAddr: 0x1AFD4, symSize: 0xE8 }
  - { offsetInCU: 0x1BFFC, offset: 0x184961, size: 0x8, addend: 0x0, symName: __ZN3tns6Worker9SerializeEPN2v87IsolateENS1_5LocalINS1_5ValueEEERS6_, symObjAddr: 0x1A80, symBinAddr: 0x19B3C, symSize: 0x200 }
  - { offsetInCU: 0x1C927, offset: 0x18528C, size: 0x8, addend: 0x0, symName: '__ZZN3tns6Worker25PostMessageToMainCallbackERKN2v820FunctionCallbackInfoINS1_5ValueEEEEN3$_1D1Ev', symObjAddr: 0x1C80, symBinAddr: 0x19D3C, symSize: 0x30 }
  - { offsetInCU: 0x1CAC1, offset: 0x185426, size: 0x8, addend: 0x0, symName: __ZNSt3__110shared_ptrIN3tns6Caches11WorkerStateEED2B7v160006Ev, symObjAddr: 0x2920, symBinAddr: 0x1A5B8, symSize: 0x50 }
  - { offsetInCU: 0x1CB8B, offset: 0x1854F0, size: 0x8, addend: 0x0, symName: __ZN3tns6Worker19CloseWorkerCallbackERKN2v820FunctionCallbackInfoINS1_5ValueEEE, symObjAddr: 0x910, symBinAddr: 0x18A94, symSize: 0x2AC }
  - { offsetInCU: 0x1E0E2, offset: 0x186A47, size: 0x8, addend: 0x0, symName: __ZN10robin_hood6detail5TableILb1ELm80EiNSt3__110shared_ptrIN3tns6Caches11WorkerStateEEENS_4hashIivEENS2_8equal_toIiEEEixIS7_EENS2_9enable_ifIXntsr3std7is_voidIT_EE5valueERSF_E4typeERKi, symObjAddr: 0x2970, symBinAddr: 0x1A608, symSize: 0xDC }
  - { offsetInCU: 0x1E4A5, offset: 0x186E0A, size: 0x8, addend: 0x0, symName: __ZNSt3__110shared_ptrIN3tns6Caches11WorkerStateEEaSB7v160006ERKS4_, symObjAddr: 0x2A4C, symBinAddr: 0x1A6E4, symSize: 0x68 }
  - { offsetInCU: 0x1E6FF, offset: 0x187064, size: 0x8, addend: 0x0, symName: __ZN3tns6Worker19PostMessageCallbackERKN2v820FunctionCallbackInfoINS1_5ValueEEE, symObjAddr: 0x12F0, symBinAddr: 0x19474, symSize: 0x2C0 }
  - { offsetInCU: 0x1EF0E, offset: 0x187873, size: 0x8, addend: 0x0, symName: __ZN3tns6Worker17TerminateCallbackERKN2v820FunctionCallbackInfoINS1_5ValueEEE, symObjAddr: 0x15B0, symBinAddr: 0x19734, symSize: 0xA4 }
  - { offsetInCU: 0x1F566, offset: 0x187ECB, size: 0x8, addend: 0x0, symName: __ZN3tns6Worker17OnMessageCallbackEPN2v87IsolateENS1_5LocalINS1_5ValueEEENSt3__112basic_stringIcNS7_11char_traitsIcEENS7_9allocatorIcEEEE, symObjAddr: 0x1710, symBinAddr: 0x197D8, symSize: 0x248 }
  - { offsetInCU: 0x1FF38, offset: 0x18889D, size: 0x8, addend: 0x0, symName: __ZN3tns6Worker11SetWorkerIdEPN2v87IsolateEi, symObjAddr: 0x1CB0, symBinAddr: 0x19D6C, symSize: 0x120 }
  - { offsetInCU: 0x202B9, offset: 0x188C1E, size: 0x8, addend: 0x0, symName: __Z24_register_isolate_workerPN2v87IsolateENS_5LocalINS_16FunctionTemplateEEE, symObjAddr: 0x1DD0, symBinAddr: 0x19E8C, symSize: 0x2C }
  - { offsetInCU: 0x20B90, offset: 0x1894F5, size: 0x8, addend: 0x0, symName: __ZNSt3__128__exception_guard_exceptionsINS_29_AllocatorDestroyRangeReverseINS_9allocatorINS_12basic_stringIcNS_11char_traitsIcEENS2_IcEEEEEEPS7_EEED2B7v160006Ev, symObjAddr: 0x22C0, symBinAddr: 0x19F58, symSize: 0x34 }
  - { offsetInCU: 0x20BC9, offset: 0x18952E, size: 0x8, addend: 0x0, symName: __ZNKSt3__129_AllocatorDestroyRangeReverseINS_9allocatorINS_12basic_stringIcNS_11char_traitsIcEENS1_IcEEEEEEPS6_EclB7v160006Ev, symObjAddr: 0x22F4, symBinAddr: 0x19F8C, symSize: 0x4C }
  - { offsetInCU: 0x20E29, offset: 0x18978E, size: 0x8, addend: 0x0, symName: __ZNSt3__128__exception_guard_exceptionsINS_6vectorINS_12basic_stringIcNS_11char_traitsIcEENS_9allocatorIcEEEENS5_IS7_EEE16__destroy_vectorEED2B7v160006Ev, symObjAddr: 0x2340, symBinAddr: 0x19FD8, symSize: 0x34 }
  - { offsetInCU: 0x20E62, offset: 0x1897C7, size: 0x8, addend: 0x0, symName: __ZNSt3__110__function6__funcIPFvPN2v87IsolateENS2_5LocalINS2_5ValueEEENS_12basic_stringIcNS_11char_traitsIcEENS_9allocatorIcEEEEENSB_ISF_EEFvS4_NS5_INS2_6ObjectEEESD_EED1Ev, symObjAddr: 0x2374, symBinAddr: 0x1A00C, symSize: 0x4 }
  - { offsetInCU: 0x20E8D, offset: 0x1897F2, size: 0x8, addend: 0x0, symName: __ZNSt3__110__function6__funcIPFvPN2v87IsolateENS2_5LocalINS2_5ValueEEENS_12basic_stringIcNS_11char_traitsIcEENS_9allocatorIcEEEEENSB_ISF_EEFvS4_NS5_INS2_6ObjectEEESD_EED0Ev, symObjAddr: 0x2378, symBinAddr: 0x1A010, symSize: 0x4 }
  - { offsetInCU: 0x21091, offset: 0x1899F6, size: 0x8, addend: 0x0, symName: __ZNKSt3__110__function6__funcIPFvPN2v87IsolateENS2_5LocalINS2_5ValueEEENS_12basic_stringIcNS_11char_traitsIcEENS_9allocatorIcEEEEENSB_ISF_EEFvS4_NS5_INS2_6ObjectEEESD_EE7__cloneEv, symObjAddr: 0x237C, symBinAddr: 0x1A014, symSize: 0x38 }
  - { offsetInCU: 0x2138F, offset: 0x189CF4, size: 0x8, addend: 0x0, symName: __ZNKSt3__110__function6__funcIPFvPN2v87IsolateENS2_5LocalINS2_5ValueEEENS_12basic_stringIcNS_11char_traitsIcEENS_9allocatorIcEEEEENSB_ISF_EEFvS4_NS5_INS2_6ObjectEEESD_EE7__cloneEPNS0_6__baseISJ_EE, symObjAddr: 0x23B4, symBinAddr: 0x1A04C, symSize: 0x18 }
  - { offsetInCU: 0x213C6, offset: 0x189D2B, size: 0x8, addend: 0x0, symName: __ZNKSt3__110__function6__funcIPFvPN2v87IsolateENS2_5LocalINS2_5ValueEEENS_12basic_stringIcNS_11char_traitsIcEENS_9allocatorIcEEEEENSB_ISF_EEFvS4_NS5_INS2_6ObjectEEESD_EE7__cloneEPNS0_6__baseISJ_EE, symObjAddr: 0x23B4, symBinAddr: 0x1A04C, symSize: 0x18 }
  - { offsetInCU: 0x213F5, offset: 0x189D5A, size: 0x8, addend: 0x0, symName: __ZNKSt3__110__function6__funcIPFvPN2v87IsolateENS2_5LocalINS2_5ValueEEENS_12basic_stringIcNS_11char_traitsIcEENS_9allocatorIcEEEEENSB_ISF_EEFvS4_NS5_INS2_6ObjectEEESD_EE7__cloneEPNS0_6__baseISJ_EE, symObjAddr: 0x23B4, symBinAddr: 0x1A04C, symSize: 0x18 }
  - { offsetInCU: 0x2148F, offset: 0x189DF4, size: 0x8, addend: 0x0, symName: __ZNSt3__110__function6__funcIPFvPN2v87IsolateENS2_5LocalINS2_5ValueEEENS_12basic_stringIcNS_11char_traitsIcEENS_9allocatorIcEEEEENSB_ISF_EEFvS4_NS5_INS2_6ObjectEEESD_EE7destroyEv, symObjAddr: 0x23CC, symBinAddr: 0x1A064, symSize: 0x4 }
  - { offsetInCU: 0x214E0, offset: 0x189E45, size: 0x8, addend: 0x0, symName: __ZNSt3__110__function6__funcIPFvPN2v87IsolateENS2_5LocalINS2_5ValueEEENS_12basic_stringIcNS_11char_traitsIcEENS_9allocatorIcEEEEENSB_ISF_EEFvS4_NS5_INS2_6ObjectEEESD_EE18destroy_deallocateEv, symObjAddr: 0x23D0, symBinAddr: 0x1A068, symSize: 0x4 }
  - { offsetInCU: 0x21515, offset: 0x189E7A, size: 0x8, addend: 0x0, symName: __ZNSt3__110__function6__funcIPFvPN2v87IsolateENS2_5LocalINS2_5ValueEEENS_12basic_stringIcNS_11char_traitsIcEENS_9allocatorIcEEEEENSB_ISF_EEFvS4_NS5_INS2_6ObjectEEESD_EE18destroy_deallocateEv, symObjAddr: 0x23D0, symBinAddr: 0x1A068, symSize: 0x4 }
  - { offsetInCU: 0x21539, offset: 0x189E9E, size: 0x8, addend: 0x0, symName: __ZNSt3__110__function6__funcIPFvPN2v87IsolateENS2_5LocalINS2_5ValueEEENS_12basic_stringIcNS_11char_traitsIcEENS_9allocatorIcEEEEENSB_ISF_EEFvS4_NS5_INS2_6ObjectEEESD_EE18destroy_deallocateEv, symObjAddr: 0x23D0, symBinAddr: 0x1A068, symSize: 0x4 }
  - { offsetInCU: 0x21565, offset: 0x189ECA, size: 0x8, addend: 0x0, symName: __ZNSt3__110__function6__funcIPFvPN2v87IsolateENS2_5LocalINS2_5ValueEEENS_12basic_stringIcNS_11char_traitsIcEENS_9allocatorIcEEEEENSB_ISF_EEFvS4_NS5_INS2_6ObjectEEESD_EE18destroy_deallocateEv, symObjAddr: 0x23D0, symBinAddr: 0x1A068, symSize: 0x4 }
  - { offsetInCU: 0x2158C, offset: 0x189EF1, size: 0x8, addend: 0x0, symName: __ZNSt3__110__function6__funcIPFvPN2v87IsolateENS2_5LocalINS2_5ValueEEENS_12basic_stringIcNS_11char_traitsIcEENS_9allocatorIcEEEEENSB_ISF_EEFvS4_NS5_INS2_6ObjectEEESD_EE18destroy_deallocateEv, symObjAddr: 0x23D0, symBinAddr: 0x1A068, symSize: 0x4 }
  - { offsetInCU: 0x215ED, offset: 0x189F52, size: 0x8, addend: 0x0, symName: __ZNSt3__110__function6__funcIPFvPN2v87IsolateENS2_5LocalINS2_5ValueEEENS_12basic_stringIcNS_11char_traitsIcEENS_9allocatorIcEEEEENSB_ISF_EEFvS4_NS5_INS2_6ObjectEEESD_EEclEOS4_OSI_OSD_, symObjAddr: 0x23D4, symBinAddr: 0x1A06C, symSize: 0x8 }
  - { offsetInCU: 0x21684, offset: 0x189FE9, size: 0x8, addend: 0x0, symName: __ZNSt3__128__invoke_void_return_wrapperIvLb1EE6__callIJRPFvPN2v87IsolateENS3_5LocalINS3_5ValueEEENS_12basic_stringIcNS_11char_traitsIcEENS_9allocatorIcEEEEES5_NS6_INS3_6ObjectEEESE_EEEvDpOT_, symObjAddr: 0x23DC, symBinAddr: 0x1A074, symSize: 0x78 }
  - { offsetInCU: 0x21A87, offset: 0x18A3EC, size: 0x8, addend: 0x0, symName: '__ZNSt3__110__function6__funcIZN3tns6Worker19ConstructorCallbackERKN2v820FunctionCallbackInfoINS4_5ValueEEEE3$_0NS_9allocatorISA_EEFPNS4_7IsolateEvEED1Ev', symObjAddr: 0x2454, symBinAddr: 0x1A0EC, symSize: 0x3C }
  - { offsetInCU: 0x21CED, offset: 0x18A652, size: 0x8, addend: 0x0, symName: '__ZNSt3__110__function6__funcIZN3tns6Worker19ConstructorCallbackERKN2v820FunctionCallbackInfoINS4_5ValueEEEE3$_0NS_9allocatorISA_EEFPNS4_7IsolateEvEED0Ev', symObjAddr: 0x2490, symBinAddr: 0x1A128, symSize: 0x3C }
  - { offsetInCU: 0x2225D, offset: 0x18ABC2, size: 0x8, addend: 0x0, symName: '__ZNKSt3__110__function6__funcIZN3tns6Worker19ConstructorCallbackERKN2v820FunctionCallbackInfoINS4_5ValueEEEE3$_0NS_9allocatorISA_EEFPNS4_7IsolateEvEE7__cloneEv', symObjAddr: 0x24CC, symBinAddr: 0x1A164, symSize: 0x58 }
  - { offsetInCU: 0x226B6, offset: 0x18B01B, size: 0x8, addend: 0x0, symName: '__ZNKSt3__110__function6__funcIZN3tns6Worker19ConstructorCallbackERKN2v820FunctionCallbackInfoINS4_5ValueEEEE3$_0NS_9allocatorISA_EEFPNS4_7IsolateEvEE7__cloneEPNS0_6__baseISF_EE', symObjAddr: 0x2524, symBinAddr: 0x1A1BC, symSize: 0x20 }
  - { offsetInCU: 0x226F2, offset: 0x18B057, size: 0x8, addend: 0x0, symName: '__ZNKSt3__110__function6__funcIZN3tns6Worker19ConstructorCallbackERKN2v820FunctionCallbackInfoINS4_5ValueEEEE3$_0NS_9allocatorISA_EEFPNS4_7IsolateEvEE7__cloneEPNS0_6__baseISF_EE', symObjAddr: 0x2524, symBinAddr: 0x1A1BC, symSize: 0x20 }
  - { offsetInCU: 0x22726, offset: 0x18B08B, size: 0x8, addend: 0x0, symName: '__ZNKSt3__110__function6__funcIZN3tns6Worker19ConstructorCallbackERKN2v820FunctionCallbackInfoINS4_5ValueEEEE3$_0NS_9allocatorISA_EEFPNS4_7IsolateEvEE7__cloneEPNS0_6__baseISF_EE', symObjAddr: 0x2524, symBinAddr: 0x1A1BC, symSize: 0x20 }
  - { offsetInCU: 0x22886, offset: 0x18B1EB, size: 0x8, addend: 0x0, symName: '__ZNSt3__110__function6__funcIZN3tns6Worker19ConstructorCallbackERKN2v820FunctionCallbackInfoINS4_5ValueEEEE3$_0NS_9allocatorISA_EEFPNS4_7IsolateEvEE7destroyEv', symObjAddr: 0x2544, symBinAddr: 0x1A1DC, symSize: 0x14 }
  - { offsetInCU: 0x2296B, offset: 0x18B2D0, size: 0x8, addend: 0x0, symName: '__ZNSt3__110__function6__funcIZN3tns6Worker19ConstructorCallbackERKN2v820FunctionCallbackInfoINS4_5ValueEEEE3$_0NS_9allocatorISA_EEFPNS4_7IsolateEvEE7destroyEv', symObjAddr: 0x2544, symBinAddr: 0x1A1DC, symSize: 0x14 }
  - { offsetInCU: 0x22A50, offset: 0x18B3B5, size: 0x8, addend: 0x0, symName: '__ZNSt3__110__function6__funcIZN3tns6Worker19ConstructorCallbackERKN2v820FunctionCallbackInfoINS4_5ValueEEEE3$_0NS_9allocatorISA_EEFPNS4_7IsolateEvEE18destroy_deallocateEv', symObjAddr: 0x2558, symBinAddr: 0x1A1F0, symSize: 0x30 }
  - { offsetInCU: 0x22EC7, offset: 0x18B82C, size: 0x8, addend: 0x0, symName: '__ZNSt3__110__function6__funcIZN3tns6Worker19ConstructorCallbackERKN2v820FunctionCallbackInfoINS4_5ValueEEEE3$_0NS_9allocatorISA_EEFPNS4_7IsolateEvEEclEv', symObjAddr: 0x2588, symBinAddr: 0x1A220, symSize: 0x250 }
  - { offsetInCU: 0x2378C, offset: 0x18C0F1, size: 0x8, addend: 0x0, symName: __ZNSt3__120__shared_ptr_emplaceIN3tns6Caches11WorkerStateENS_9allocatorIS3_EEEC2B7v160006IJRPN2v87IsolateERNS_10shared_ptrINS8_10PersistentINS8_5ValueENS8_27NonCopyablePersistentTraitsISE_EEEEEERPNS1_13WorkerWrapperEEEES5_DpOT_, symObjAddr: 0x2848, symBinAddr: 0x1A4E0, symSize: 0x94 }
  - { offsetInCU: 0x23AD9, offset: 0x18C43E, size: 0x8, addend: 0x0, symName: __ZNSt3__120__shared_ptr_emplaceIN3tns6Caches11WorkerStateENS_9allocatorIS3_EEED1Ev, symObjAddr: 0x28DC, symBinAddr: 0x1A574, symSize: 0x14 }
  - { offsetInCU: 0x23AFA, offset: 0x18C45F, size: 0x8, addend: 0x0, symName: __ZNSt3__120__shared_ptr_emplaceIN3tns6Caches11WorkerStateENS_9allocatorIS3_EEED1Ev, symObjAddr: 0x28DC, symBinAddr: 0x1A574, symSize: 0x14 }
  - { offsetInCU: 0x23B32, offset: 0x18C497, size: 0x8, addend: 0x0, symName: __ZNSt3__120__shared_ptr_emplaceIN3tns6Caches11WorkerStateENS_9allocatorIS3_EEED0Ev, symObjAddr: 0x28F0, symBinAddr: 0x1A588, symSize: 0x24 }
  - { offsetInCU: 0x23BCD, offset: 0x18C532, size: 0x8, addend: 0x0, symName: __ZNSt3__120__shared_ptr_emplaceIN3tns6Caches11WorkerStateENS_9allocatorIS3_EEE16__on_zero_sharedEv, symObjAddr: 0x2914, symBinAddr: 0x1A5AC, symSize: 0x8 }
  - { offsetInCU: 0x23BF6, offset: 0x18C55B, size: 0x8, addend: 0x0, symName: __ZNSt3__120__shared_ptr_emplaceIN3tns6Caches11WorkerStateENS_9allocatorIS3_EEE16__on_zero_sharedEv, symObjAddr: 0x2914, symBinAddr: 0x1A5AC, symSize: 0x8 }
  - { offsetInCU: 0x23C16, offset: 0x18C57B, size: 0x8, addend: 0x0, symName: __ZNSt3__120__shared_ptr_emplaceIN3tns6Caches11WorkerStateENS_9allocatorIS3_EEE16__on_zero_sharedEv, symObjAddr: 0x2914, symBinAddr: 0x1A5AC, symSize: 0x8 }
  - { offsetInCU: 0x23C5E, offset: 0x18C5C3, size: 0x8, addend: 0x0, symName: __ZNSt3__120__shared_ptr_emplaceIN3tns6Caches11WorkerStateENS_9allocatorIS3_EEE21__on_zero_shared_weakEv, symObjAddr: 0x291C, symBinAddr: 0x1A5B4, symSize: 0x4 }
  - { offsetInCU: 0x23C91, offset: 0x18C5F6, size: 0x8, addend: 0x0, symName: __ZNSt3__120__shared_ptr_emplaceIN3tns6Caches11WorkerStateENS_9allocatorIS3_EEE21__on_zero_shared_weakEv, symObjAddr: 0x291C, symBinAddr: 0x1A5B4, symSize: 0x4 }
  - { offsetInCU: 0x23CB5, offset: 0x18C61A, size: 0x8, addend: 0x0, symName: __ZNSt3__120__shared_ptr_emplaceIN3tns6Caches11WorkerStateENS_9allocatorIS3_EEE21__on_zero_shared_weakEv, symObjAddr: 0x291C, symBinAddr: 0x1A5B4, symSize: 0x4 }
  - { offsetInCU: 0x23CD9, offset: 0x18C63E, size: 0x8, addend: 0x0, symName: __ZNSt3__120__shared_ptr_emplaceIN3tns6Caches11WorkerStateENS_9allocatorIS3_EEE21__on_zero_shared_weakEv, symObjAddr: 0x291C, symBinAddr: 0x1A5B4, symSize: 0x4 }
  - { offsetInCU: 0x23D06, offset: 0x18C66B, size: 0x8, addend: 0x0, symName: __ZNSt3__120__shared_ptr_emplaceIN3tns6Caches11WorkerStateENS_9allocatorIS3_EEE21__on_zero_shared_weakEv, symObjAddr: 0x291C, symBinAddr: 0x1A5B4, symSize: 0x4 }
  - { offsetInCU: 0x23D2E, offset: 0x18C693, size: 0x8, addend: 0x0, symName: __ZNSt3__120__shared_ptr_emplaceIN3tns6Caches11WorkerStateENS_9allocatorIS3_EEE21__on_zero_shared_weakEv, symObjAddr: 0x291C, symBinAddr: 0x1A5B4, symSize: 0x4 }
  - { offsetInCU: 0x24065, offset: 0x18C9CA, size: 0x8, addend: 0x0, symName: __ZN10robin_hood6detail5TableILb1ELm80EiNSt3__110shared_ptrIN3tns6Caches11WorkerStateEEENS_4hashIivEENS2_8equal_toIiEEE25insertKeyPrepareEmptySpotIRKiEENS2_4pairImNSC_14InsertionStateEEEOT_, symObjAddr: 0x2AB4, symBinAddr: 0x1A74C, symSize: 0x1A0 }
  - { offsetInCU: 0x24207, offset: 0x18CB6C, size: 0x8, addend: 0x0, symName: __ZNK10robin_hood6detail5TableILb1ELm80EiNSt3__110shared_ptrIN3tns6Caches11WorkerStateEEENS_4hashIivEENS2_8equal_toIiEEE18throwOverflowErrorEv, symObjAddr: 0x2C54, symBinAddr: 0x1A8EC, symSize: 0x50 }
  - { offsetInCU: 0x2423C, offset: 0x18CBA1, size: 0x8, addend: 0x0, symName: __ZNSt3__110shared_ptrIN3tns6Caches11WorkerStateEEaSB7v160006EOS4_, symObjAddr: 0x3308, symBinAddr: 0x1AF78, symSize: 0x5C }
  - { offsetInCU: 0x244D6, offset: 0x18CE3B, size: 0x8, addend: 0x0, symName: __ZN10robin_hood6detail5TableILb1ELm80EiNSt3__110shared_ptrIN3tns6Caches11WorkerStateEEENS_4hashIivEENS2_8equal_toIiEEE13increase_sizeEv, symObjAddr: 0x2CA4, symBinAddr: 0x1A93C, symSize: 0x12C }
  - { offsetInCU: 0x245A0, offset: 0x18CF05, size: 0x8, addend: 0x0, symName: __ZN10robin_hood6detail5TableILb1ELm80EiNSt3__110shared_ptrIN3tns6Caches11WorkerStateEEENS_4hashIivEENS2_8equal_toIiEEE7shiftUpEmm, symObjAddr: 0x2DD0, symBinAddr: 0x1AA68, symSize: 0xEC }
  - { offsetInCU: 0x24793, offset: 0x18D0F8, size: 0x8, addend: 0x0, symName: __ZN10robin_hood6detail5TableILb1ELm80EiNSt3__110shared_ptrIN3tns6Caches11WorkerStateEEENS_4hashIivEENS2_8equal_toIiEEE17try_increase_infoEv, symObjAddr: 0x2F98, symBinAddr: 0x1AC30, symSize: 0x100 }
  - { offsetInCU: 0x2489A, offset: 0x18D1FF, size: 0x8, addend: 0x0, symName: __ZN10robin_hood6detail5TableILb1ELm80EiNSt3__110shared_ptrIN3tns6Caches11WorkerStateEEENS_4hashIivEENS2_8equal_toIiEEE8initDataEm, symObjAddr: 0x2EBC, symBinAddr: 0x1AB54, symSize: 0xDC }
  - { offsetInCU: 0x249B3, offset: 0x18D318, size: 0x8, addend: 0x0, symName: __ZN10robin_hood6detail5TableILb1ELm80EiNSt3__110shared_ptrIN3tns6Caches11WorkerStateEEENS_4hashIivEENS2_8equal_toIiEEE17try_increase_infoEv, symObjAddr: 0x2F98, symBinAddr: 0x1AC30, symSize: 0x100 }
  - { offsetInCU: 0x249BF, offset: 0x18D324, size: 0x8, addend: 0x0, symName: __ZN10robin_hood6detail5TableILb1ELm80EiNSt3__110shared_ptrIN3tns6Caches11WorkerStateEEENS_4hashIivEENS2_8equal_toIiEEE16rehashPowerOfTwoEmb, symObjAddr: 0x3098, symBinAddr: 0x1AD30, symSize: 0xF8 }
  - { offsetInCU: 0x24C63, offset: 0x18D5C8, size: 0x8, addend: 0x0, symName: __ZN10robin_hood6detail5TableILb1ELm80EiNSt3__110shared_ptrIN3tns6Caches11WorkerStateEEENS_4hashIivEENS2_8equal_toIiEEE11insert_moveEONSC_8DataNodeISC_Lb1EEE, symObjAddr: 0x31B8, symBinAddr: 0x1AE28, symSize: 0x150 }
  - { offsetInCU: 0x24FE9, offset: 0x18D94E, size: 0x8, addend: 0x0, symName: '__ZNSt3__110__function6__funcIZN3tns6Worker25PostMessageToMainCallbackERKN2v820FunctionCallbackInfoINS4_5ValueEEEE3$_1NS_9allocatorISA_EEFvvEED1Ev', symObjAddr: 0x3470, symBinAddr: 0x1B0BC, symSize: 0x44 }
  - { offsetInCU: 0x25250, offset: 0x18DBB5, size: 0x8, addend: 0x0, symName: '__ZNSt3__110__function6__funcIZN3tns6Worker25PostMessageToMainCallbackERKN2v820FunctionCallbackInfoINS4_5ValueEEEE3$_1NS_9allocatorISA_EEFvvEED0Ev', symObjAddr: 0x34B4, symBinAddr: 0x1B100, symSize: 0x44 }
  - { offsetInCU: 0x25735, offset: 0x18E09A, size: 0x8, addend: 0x0, symName: '__ZNKSt3__110__function6__funcIZN3tns6Worker25PostMessageToMainCallbackERKN2v820FunctionCallbackInfoINS4_5ValueEEEE3$_1NS_9allocatorISA_EEFvvEE7__cloneEv', symObjAddr: 0x34F8, symBinAddr: 0x1B144, symSize: 0x54 }
  - { offsetInCU: 0x259D8, offset: 0x18E33D, size: 0x8, addend: 0x0, symName: '__ZNSt3__122__compressed_pair_elemIZN3tns6Worker25PostMessageToMainCallbackERKN2v820FunctionCallbackInfoINS3_5ValueEEEE3$_1Li0ELb0EEC2B7v160006IJRKS9_EJLm0EEEENS_21piecewise_construct_tENS_5tupleIJDpT_EEENS_15__tuple_indicesIJXspT0_EEEE', symObjAddr: 0x3760, symBinAddr: 0x1B3AC, symSize: 0x58 }
  - { offsetInCU: 0x25CB6, offset: 0x18E61B, size: 0x8, addend: 0x0, symName: '__ZNKSt3__110__function6__funcIZN3tns6Worker25PostMessageToMainCallbackERKN2v820FunctionCallbackInfoINS4_5ValueEEEE3$_1NS_9allocatorISA_EEFvvEE7__cloneEPNS0_6__baseISD_EE', symObjAddr: 0x354C, symBinAddr: 0x1B198, symSize: 0x1C }
  - { offsetInCU: 0x25E06, offset: 0x18E76B, size: 0x8, addend: 0x0, symName: '__ZNSt3__110__function6__funcIZN3tns6Worker25PostMessageToMainCallbackERKN2v820FunctionCallbackInfoINS4_5ValueEEEE3$_1NS_9allocatorISA_EEFvvEE7destroyEv', symObjAddr: 0x3568, symBinAddr: 0x1B1B4, symSize: 0x8 }
  - { offsetInCU: 0x25E3D, offset: 0x18E7A2, size: 0x8, addend: 0x0, symName: '__ZNSt3__110__function12__alloc_funcIZN3tns6Worker25PostMessageToMainCallbackERKN2v820FunctionCallbackInfoINS4_5ValueEEEE3$_1NS_9allocatorISA_EEFvvEE7destroyB7v160006Ev', symObjAddr: 0x37B8, symBinAddr: 0x1B404, symSize: 0x30 }
  - { offsetInCU: 0x26057, offset: 0x18E9BC, size: 0x8, addend: 0x0, symName: '__ZNSt3__110__function6__funcIZN3tns6Worker25PostMessageToMainCallbackERKN2v820FunctionCallbackInfoINS4_5ValueEEEE3$_1NS_9allocatorISA_EEFvvEE18destroy_deallocateEv', symObjAddr: 0x3570, symBinAddr: 0x1B1BC, symSize: 0x28 }
  - { offsetInCU: 0x2628A, offset: 0x18EBEF, size: 0x8, addend: 0x0, symName: '__ZNSt3__110__function6__funcIZN3tns6Worker25PostMessageToMainCallbackERKN2v820FunctionCallbackInfoINS4_5ValueEEEE3$_1NS_9allocatorISA_EEFvvEEclEv', symObjAddr: 0x3598, symBinAddr: 0x1B1E4, symSize: 0x1C8 }
  - { offsetInCU: 0x26, offset: 0x18F3F3, size: 0x8, addend: 0x0, symName: __ZN3tns15SimpleAllocatorC2Ev, symObjAddr: 0x0, symBinAddr: 0x1B5B0, symSize: 0x10 }
  - { offsetInCU: 0x29AA, offset: 0x191D77, size: 0x8, addend: 0x0, symName: __ZN3tns15SimpleAllocatorC2Ev, symObjAddr: 0x0, symBinAddr: 0x1B5B0, symSize: 0x10 }
  - { offsetInCU: 0x29E8, offset: 0x191DB5, size: 0x8, addend: 0x0, symName: __ZN3tns15SimpleAllocatorC1Ev, symObjAddr: 0x10, symBinAddr: 0x1B5C0, symSize: 0x10 }
  - { offsetInCU: 0x2A14, offset: 0x191DE1, size: 0x8, addend: 0x0, symName: __ZN3tns15SimpleAllocatorC1Ev, symObjAddr: 0x10, symBinAddr: 0x1B5C0, symSize: 0x10 }
  - { offsetInCU: 0x2A2D, offset: 0x191DFA, size: 0x8, addend: 0x0, symName: __ZN3tns15SimpleAllocatorD2Ev, symObjAddr: 0x20, symBinAddr: 0x1B5D0, symSize: 0x4 }
  - { offsetInCU: 0x2A56, offset: 0x191E23, size: 0x8, addend: 0x0, symName: __ZN3tns15SimpleAllocatorD1Ev, symObjAddr: 0x24, symBinAddr: 0x1B5D4, symSize: 0x4 }
  - { offsetInCU: 0x2A7F, offset: 0x191E4C, size: 0x8, addend: 0x0, symName: __ZN3tns15SimpleAllocatorD0Ev, symObjAddr: 0x28, symBinAddr: 0x1B5D8, symSize: 0x4 }
  - { offsetInCU: 0x2AA8, offset: 0x191E75, size: 0x8, addend: 0x0, symName: __ZN3tns15SimpleAllocator8AllocateEm, symObjAddr: 0x2C, symBinAddr: 0x1B5DC, symSize: 0xC }
  - { offsetInCU: 0x2AE8, offset: 0x191EB5, size: 0x8, addend: 0x0, symName: __ZN3tns15SimpleAllocator21AllocateUninitializedEm, symObjAddr: 0x38, symBinAddr: 0x1B5E8, symSize: 0x8 }
  - { offsetInCU: 0x2B27, offset: 0x191EF4, size: 0x8, addend: 0x0, symName: __ZN3tns15SimpleAllocator4FreeEPvm, symObjAddr: 0x40, symBinAddr: 0x1B5F0, symSize: 0x8 }
  - { offsetInCU: 0x52, offset: 0x191F85, size: 0x8, addend: 0x0, symName: __ZN3tns7Console9inspectorE, symObjAddr: 0x28AF70, symBinAddr: 0x158D700, symSize: 0x0 }
  - { offsetInCU: 0xB266, offset: 0x19D199, size: 0x8, addend: 0x0, symName: __ZN3tns7Console26VerbosityToInspectorMethodENSt3__112basic_stringIcNS1_11char_traitsIcEENS1_9allocatorIcEEEE.cold.1, symObjAddr: 0x45E0, symBinAddr: 0xB8FCE4, symSize: 0x28 }
  - { offsetInCU: 0x1498D, offset: 0x1A68C0, size: 0x8, addend: 0x0, symName: __ZN3tns7Console4InitEN2v85LocalINS1_7ContextEEE, symObjAddr: 0x0, symBinAddr: 0x1B5F8, symSize: 0x468 }
  - { offsetInCU: 0x1639C, offset: 0x1A82CF, size: 0x8, addend: 0x0, symName: __ZN3tns7Console17AttachLogFunctionEN2v85LocalINS1_7ContextEEENS2_INS1_6ObjectEEENSt3__112basic_stringIcNS7_11char_traitsIcEENS7_9allocatorIcEEEEPFvRKNS1_20FunctionCallbackInfoINS1_5ValueEEEE, symObjAddr: 0x468, symBinAddr: 0x1BA60, symSize: 0x178 }
  - { offsetInCU: 0x16C1C, offset: 0x1A8B4F, size: 0x8, addend: 0x0, symName: __ZN3tns7Console11LogCallbackERKN2v820FunctionCallbackInfoINS1_5ValueEEE, symObjAddr: 0x5E0, symBinAddr: 0x1BBD8, symSize: 0x4DC }
  - { offsetInCU: 0x1875F, offset: 0x1AA692, size: 0x8, addend: 0x0, symName: __ZN3tns7Console19BuildStringFromArgsERKN2v820FunctionCallbackInfoINS1_5ValueEEEi, symObjAddr: 0x1A30, symBinAddr: 0x1D028, symSize: 0x25C }
  - { offsetInCU: 0x19045, offset: 0x1AAF78, size: 0x8, addend: 0x0, symName: __ZN3tns7Console26VerbosityToInspectorMethodENSt3__112basic_stringIcNS1_11char_traitsIcEENS1_9allocatorIcEEEE, symObjAddr: 0x1E30, symBinAddr: 0x1D284, symSize: 0x1C0 }
  - { offsetInCU: 0x1961C, offset: 0x1AB54F, size: 0x8, addend: 0x0, symName: __ZN3tns7Console22SendToDevToolsFrontEndEN12v8_inspector14ConsoleAPITypeERKN2v820FunctionCallbackInfoINS3_5ValueEEE, symObjAddr: 0x1FF0, symBinAddr: 0x1D444, symSize: 0x1B0 }
  - { offsetInCU: 0x19628, offset: 0x1AB55B, size: 0x8, addend: 0x0, symName: __ZN3tns7Console22SendToDevToolsFrontEndEN12v8_inspector14ConsoleAPITypeERKN2v820FunctionCallbackInfoINS3_5ValueEEE, symObjAddr: 0x1FF0, symBinAddr: 0x1D444, symSize: 0x1B0 }
  - { offsetInCU: 0x19FA4, offset: 0x1ABED7, size: 0x8, addend: 0x0, symName: __ZN3tns7Console14AssertCallbackERKN2v820FunctionCallbackInfoINS1_5ValueEEE, symObjAddr: 0xABC, symBinAddr: 0x1C0B4, symSize: 0x1D8 }
  - { offsetInCU: 0x1A8FC, offset: 0x1AC82F, size: 0x8, addend: 0x0, symName: __ZN3tns7Console11DirCallbackERKN2v820FunctionCallbackInfoINS1_5ValueEEE, symObjAddr: 0xC94, symBinAddr: 0x1C28C, symSize: 0x818 }
  - { offsetInCU: 0x1C4A6, offset: 0x1AE3D9, size: 0x8, addend: 0x0, symName: __ZN3tns7Console18BuildStringFromArgEN2v85LocalINS1_7ContextEEERKNS2_INS1_5ValueEEE, symObjAddr: 0x2234, symBinAddr: 0x1D5F4, symSize: 0x3BC }
  - { offsetInCU: 0x1CC71, offset: 0x1AEBA4, size: 0x8, addend: 0x0, symName: __ZN3tns7Console17TransformJSObjectEN2v85LocalINS1_6ObjectEEE, symObjAddr: 0x25F0, symBinAddr: 0x1D9B0, symSize: 0x23C }
  - { offsetInCU: 0x1D842, offset: 0x1AF775, size: 0x8, addend: 0x0, symName: __ZN3tns7Console12TimeCallbackERKN2v820FunctionCallbackInfoINS1_5ValueEEE, symObjAddr: 0x14AC, symBinAddr: 0x1CAA4, symSize: 0x180 }
  - { offsetInCU: 0x1DFAB, offset: 0x1AFEDE, size: 0x8, addend: 0x0, symName: __ZN10robin_hood6detail5TableILb1ELm80ENSt3__112basic_stringIcNS2_11char_traitsIcEENS2_9allocatorIcEEEEdNS_4hashIS8_vEENS2_8equal_toIS8_EEE7emplaceIJRS8_RdEEENS2_4pairINSD_4IterILb0EEEbEEDpOT_, symObjAddr: 0x282C, symBinAddr: 0x1DBEC, symSize: 0x12C }
  - { offsetInCU: 0x1E8B0, offset: 0x1B07E3, size: 0x8, addend: 0x0, symName: __ZN3tns7Console15TimeEndCallbackERKN2v820FunctionCallbackInfoINS1_5ValueEEE, symObjAddr: 0x162C, symBinAddr: 0x1CC24, symSize: 0x3F8 }
  - { offsetInCU: 0x1FCA0, offset: 0x1B1BD3, size: 0x8, addend: 0x0, symName: __ZNK10robin_hood6detail5TableILb1ELm80ENSt3__112basic_stringIcNS2_11char_traitsIcEENS2_9allocatorIcEEEEdNS_4hashIS8_vEENS2_8equal_toIS8_EEE7findIdxIS8_EEmRKT_, symObjAddr: 0x43AC, symBinAddr: 0x1E6EC, symSize: 0x108 }
  - { offsetInCU: 0x1FDDC, offset: 0x1B1D0F, size: 0x8, addend: 0x0, symName: __ZN10robin_hood6detail5TableILb1ELm80ENSt3__112basic_stringIcNS2_11char_traitsIcEENS2_9allocatorIcEEEEdNS_4hashIS8_vEENS2_8equal_toIS8_EEE5eraseERKS8_, symObjAddr: 0x2958, symBinAddr: 0x1DD18, symSize: 0xCC }
  - { offsetInCU: 0x1FEA8, offset: 0x1B1DDB, size: 0x8, addend: 0x0, symName: __ZN3tns7Console22SendToDevToolsFrontEndEPN2v87IsolateEN12v8_inspector14ConsoleAPITypeERKNSt3__112basic_stringIcNS6_11char_traitsIcEENS6_9allocatorIcEEEE, symObjAddr: 0x2A24, symBinAddr: 0x1DDE4, symSize: 0xBC }
  - { offsetInCU: 0x2049C, offset: 0x1B23CF, size: 0x8, addend: 0x0, symName: __ZN3tns7Console21AttachInspectorClientEPN12v8_inspector19JsV8InspectorClientE, symObjAddr: 0x1A24, symBinAddr: 0x1D01C, symSize: 0xC }
  - { offsetInCU: 0x20839, offset: 0x1B276C, size: 0x8, addend: 0x0, symName: __ZN3tns7Console26VerbosityToInspectorMethodENSt3__112basic_stringIcNS1_11char_traitsIcEENS1_9allocatorIcEEEE.cold.1, symObjAddr: 0x45E0, symBinAddr: 0xB8FCE4, symSize: 0x28 }
  - { offsetInCU: 0x212A9, offset: 0x1B31DC, size: 0x8, addend: 0x0, symName: __ZN10robin_hood6detail5TableILb1ELm80ENSt3__112basic_stringIcNS2_11char_traitsIcEENS2_9allocatorIcEEEEdNS_4hashIS8_vEENS2_8equal_toIS8_EEE25insertKeyPrepareEmptySpotIRKS8_EENS2_4pairImNSD_14InsertionStateEEEOT_, symObjAddr: 0x3984, symBinAddr: 0x1DEA0, symSize: 0x188 }
  - { offsetInCU: 0x213F6, offset: 0x1B3329, size: 0x8, addend: 0x0, symName: __ZNK10robin_hood6detail5TableILb1ELm80ENSt3__112basic_stringIcNS2_11char_traitsIcEENS2_9allocatorIcEEEEdNS_4hashIS8_vEENS2_8equal_toIS8_EEE18throwOverflowErrorEv, symObjAddr: 0x3B0C, symBinAddr: 0x1E028, symSize: 0x50 }
  - { offsetInCU: 0x21663, offset: 0x1B3596, size: 0x8, addend: 0x0, symName: __ZN10robin_hood6detail5TableILb1ELm80ENSt3__112basic_stringIcNS2_11char_traitsIcEENS2_9allocatorIcEEEEdNS_4hashIS8_vEENS2_8equal_toIS8_EEE9shiftDownEm, symObjAddr: 0x44B4, symBinAddr: 0x1E7F4, symSize: 0xE4 }
  - { offsetInCU: 0x2255D, offset: 0x1B4490, size: 0x8, addend: 0x0, symName: __ZN10robin_hood6detail5TableILb1ELm80ENSt3__112basic_stringIcNS2_11char_traitsIcEENS2_9allocatorIcEEEEdNS_4hashIS8_vEENS2_8equal_toIS8_EEE25insertKeyPrepareEmptySpotIRKS8_EENS2_4pairImNSD_14InsertionStateEEEOT_, symObjAddr: 0x3984, symBinAddr: 0x1DEA0, symSize: 0x188 }
  - { offsetInCU: 0x22607, offset: 0x1B453A, size: 0x8, addend: 0x0, symName: __ZN10robin_hood6detail5TableILb1ELm80ENSt3__112basic_stringIcNS2_11char_traitsIcEENS2_9allocatorIcEEEEdNS_4hashIS8_vEENS2_8equal_toIS8_EEE13increase_sizeEv, symObjAddr: 0x3C0C, symBinAddr: 0x1E078, symSize: 0x12C }
  - { offsetInCU: 0x226D1, offset: 0x1B4604, size: 0x8, addend: 0x0, symName: __ZN10robin_hood6detail5TableILb1ELm80ENSt3__112basic_stringIcNS2_11char_traitsIcEENS2_9allocatorIcEEEEdNS_4hashIS8_vEENS2_8equal_toIS8_EEE7shiftUpEmm, symObjAddr: 0x3D38, symBinAddr: 0x1E1A4, symSize: 0x120 }
  - { offsetInCU: 0x229EE, offset: 0x1B4921, size: 0x8, addend: 0x0, symName: __ZN10robin_hood6detail5TableILb1ELm80ENSt3__112basic_stringIcNS2_11char_traitsIcEENS2_9allocatorIcEEEEdNS_4hashIS8_vEENS2_8equal_toIS8_EEE17try_increase_infoEv, symObjAddr: 0x4004, symBinAddr: 0x1E390, symSize: 0x100 }
  - { offsetInCU: 0x22AF5, offset: 0x1B4A28, size: 0x8, addend: 0x0, symName: __ZN10robin_hood6detail5TableILb1ELm80ENSt3__112basic_stringIcNS2_11char_traitsIcEENS2_9allocatorIcEEEEdNS_4hashIS8_vEENS2_8equal_toIS8_EEE8initDataEm, symObjAddr: 0x3F38, symBinAddr: 0x1E2C4, symSize: 0xCC }
  - { offsetInCU: 0x22C0E, offset: 0x1B4B41, size: 0x8, addend: 0x0, symName: __ZN10robin_hood6detail5TableILb1ELm80ENSt3__112basic_stringIcNS2_11char_traitsIcEENS2_9allocatorIcEEEEdNS_4hashIS8_vEENS2_8equal_toIS8_EEE17try_increase_infoEv, symObjAddr: 0x4004, symBinAddr: 0x1E390, symSize: 0x100 }
  - { offsetInCU: 0x22C1A, offset: 0x1B4B4D, size: 0x8, addend: 0x0, symName: __ZN10robin_hood6detail5TableILb1ELm80ENSt3__112basic_stringIcNS2_11char_traitsIcEENS2_9allocatorIcEEEEdNS_4hashIS8_vEENS2_8equal_toIS8_EEE16rehashPowerOfTwoEmb, symObjAddr: 0x4104, symBinAddr: 0x1E490, symSize: 0x100 }
  - { offsetInCU: 0x22F76, offset: 0x1B4EA9, size: 0x8, addend: 0x0, symName: __ZN10robin_hood6detail5TableILb1ELm80ENSt3__112basic_stringIcNS2_11char_traitsIcEENS2_9allocatorIcEEEEdNS_4hashIS8_vEENS2_8equal_toIS8_EEE11insert_moveEONSD_8DataNodeISD_Lb1EEE, symObjAddr: 0x422C, symBinAddr: 0x1E590, symSize: 0x15C }
  - { offsetInCU: 0x4A, offset: 0x1B5347, size: 0x8, addend: 0x0, symName: __ZN3tns9Constants14SwizzledPrefixE, symObjAddr: 0x2B730, symBinAddr: 0x158D708, symSize: 0x0 }
  - { offsetInCU: 0x33A9, offset: 0x1BCE34, size: 0x8, addend: 0x0, symName: __ZN3tns12SymbolLoader8instanceEv, symObjAddr: 0x0, symBinAddr: 0x1E91C, symSize: 0x94 }
  - { offsetInCU: 0x33CB, offset: 0x1BCE56, size: 0x8, addend: 0x0, symName: __ZZN3tns12SymbolLoader8instanceEvE6loader, symObjAddr: 0x9FAB8, symBinAddr: 0x15786F8, symSize: 0x0 }
  - { offsetInCU: 0x54C6, offset: 0x1BEF51, size: 0x8, addend: 0x0, symName: __ZN3tns12SymbolLoaderD1Ev, symObjAddr: 0x94, symBinAddr: 0x1E9B0, symSize: 0x28 }
  - { offsetInCU: 0x554A, offset: 0x1BEFD5, size: 0x8, addend: 0x0, symName: __ZN10robin_hood6detail5TableILb1ELm80EPKN3tns10ModuleMetaENSt3__110unique_ptrINS2_14SymbolResolverENS6_14default_deleteIS8_EEEENS_4hashIS5_vEENS6_8equal_toIS5_EEE7destroyEv, symObjAddr: 0x724, symBinAddr: 0x1F040, symSize: 0x4C }
  - { offsetInCU: 0x59A4, offset: 0x1BF42F, size: 0x8, addend: 0x0, symName: __ZN3tns12SymbolLoader13resolveModuleEPKNS_10ModuleMetaE, symObjAddr: 0xBC, symBinAddr: 0x1E9D8, symSize: 0x394 }
  - { offsetInCU: 0x660F, offset: 0x1C009A, size: 0x8, addend: 0x0, symName: __ZNK10robin_hood6detail5TableILb1ELm80EPKN3tns10ModuleMetaENSt3__110unique_ptrINS2_14SymbolResolverENS6_14default_deleteIS8_EEEENS_4hashIS5_vEENS6_8equal_toIS5_EEE7findIdxIS5_EEmRKT_, symObjAddr: 0x850, symBinAddr: 0x1F160, symSize: 0xD8 }
  - { offsetInCU: 0x666B, offset: 0x1C00F6, size: 0x8, addend: 0x0, symName: __ZNK10robin_hood6detail5TableILb1ELm80EPKN3tns10ModuleMetaENSt3__110unique_ptrINS2_14SymbolResolverENS6_14default_deleteIS8_EEEENS_4hashIS5_vEENS6_8equal_toIS5_EEE7findIdxIS5_EEmRKT_, symObjAddr: 0x850, symBinAddr: 0x1F160, symSize: 0xD8 }
  - { offsetInCU: 0x67A7, offset: 0x1C0232, size: 0x8, addend: 0x0, symName: __ZNK3tns10ModuleMeta7getNameEv, symObjAddr: 0x450, symBinAddr: 0x1ED6C, symSize: 0x78 }
  - { offsetInCU: 0x6A7A, offset: 0x1C0505, size: 0x8, addend: 0x0, symName: __ZNK3tns11LibraryMeta7getNameEv, symObjAddr: 0x4C8, symBinAddr: 0x1EDE4, symSize: 0x78 }
  - { offsetInCU: 0x6D28, offset: 0x1C07B3, size: 0x8, addend: 0x0, symName: __ZN10robin_hood6detail5TableILb1ELm80EPKN3tns10ModuleMetaENSt3__110unique_ptrINS2_14SymbolResolverENS6_14default_deleteIS8_EEEENS_4hashIS5_vEENS6_8equal_toIS5_EEE7emplaceIJRS5_SB_EEENS6_4pairINSG_4IterILb0EEEbEEDpOT_, symObjAddr: 0x540, symBinAddr: 0x1EE5C, symSize: 0x118 }
  - { offsetInCU: 0x784E, offset: 0x1C12D9, size: 0x8, addend: 0x0, symName: __ZN10robin_hood6detail5TableILb1ELm80EPKN3tns10ModuleMetaENSt3__110unique_ptrINS2_14SymbolResolverENS6_14default_deleteIS8_EEEENS_4hashIS5_vEENS6_8equal_toIS5_EEE25insertKeyPrepareEmptySpotIRKS5_EENS6_4pairImNSG_14InsertionStateEEEOT_, symObjAddr: 0xA74, symBinAddr: 0x1F384, symSize: 0x194 }
  - { offsetInCU: 0x79F0, offset: 0x1C147B, size: 0x8, addend: 0x0, symName: __ZNK10robin_hood6detail5TableILb1ELm80EPKN3tns10ModuleMetaENSt3__110unique_ptrINS2_14SymbolResolverENS6_14default_deleteIS8_EEEENS_4hashIS5_vEENS6_8equal_toIS5_EEE18throwOverflowErrorEv, symObjAddr: 0xC08, symBinAddr: 0x1F518, symSize: 0x50 }
  - { offsetInCU: 0x7A25, offset: 0x1C14B0, size: 0x8, addend: 0x0, symName: __ZN3tns12SymbolLoader18loadFunctionSymbolEPKNS_10ModuleMetaEPKc, symObjAddr: 0x658, symBinAddr: 0x1EF74, symSize: 0x44 }
  - { offsetInCU: 0x7AC3, offset: 0x1C154E, size: 0x8, addend: 0x0, symName: __ZN3tns12SymbolLoader14loadDataSymbolEPKNS_10ModuleMetaEPKc, symObjAddr: 0x69C, symBinAddr: 0x1EFB8, symSize: 0x44 }
  - { offsetInCU: 0x7B4B, offset: 0x1C15D6, size: 0x8, addend: 0x0, symName: __ZN3tns12SymbolLoader12ensureModuleEPKNS_10ModuleMetaE, symObjAddr: 0x6E0, symBinAddr: 0x1EFFC, symSize: 0x44 }
  - { offsetInCU: 0x7BBF, offset: 0x1C164A, size: 0x8, addend: 0x0, symName: __ZNK10robin_hood6detail5TableILb1ELm80EPKN3tns10ModuleMetaENSt3__110unique_ptrINS2_14SymbolResolverENS6_14default_deleteIS8_EEEENS_4hashIS5_vEENS6_8equal_toIS5_EEE9DestroyerISG_Lb0EE20nodesDoNotDeallocateERSG_, symObjAddr: 0x77C, symBinAddr: 0x1F08C, symSize: 0xD4 }
  - { offsetInCU: 0x7EFC, offset: 0x1C1987, size: 0x8, addend: 0x0, symName: __ZN3tns22CFBundleSymbolResolver18loadFunctionSymbolEPKc, symObjAddr: 0x928, symBinAddr: 0x1F238, symSize: 0x60 }
  - { offsetInCU: 0x7FC2, offset: 0x1C1A4D, size: 0x8, addend: 0x0, symName: __ZN3tns22CFBundleSymbolResolver14loadDataSymbolEPKc, symObjAddr: 0x988, symBinAddr: 0x1F298, symSize: 0x60 }
  - { offsetInCU: 0x805A, offset: 0x1C1AE5, size: 0x8, addend: 0x0, symName: __ZN3tns22CFBundleSymbolResolver4loadEv, symObjAddr: 0x9E8, symBinAddr: 0x1F2F8, symSize: 0x5C }
  - { offsetInCU: 0x80EE, offset: 0x1C1B79, size: 0x8, addend: 0x0, symName: __ZN3tns22CFBundleSymbolResolverD1Ev, symObjAddr: 0xA44, symBinAddr: 0x1F354, symSize: 0x4 }
  - { offsetInCU: 0x8117, offset: 0x1C1BA2, size: 0x8, addend: 0x0, symName: __ZN3tns22CFBundleSymbolResolverD0Ev, symObjAddr: 0xA48, symBinAddr: 0x1F358, symSize: 0x4 }
  - { offsetInCU: 0x8140, offset: 0x1C1BCB, size: 0x8, addend: 0x0, symName: __ZN3tns16DlSymbolResolver18loadFunctionSymbolEPKc, symObjAddr: 0xA4C, symBinAddr: 0x1F35C, symSize: 0x8 }
  - { offsetInCU: 0x8183, offset: 0x1C1C0E, size: 0x8, addend: 0x0, symName: __ZN3tns16DlSymbolResolver14loadDataSymbolEPKc, symObjAddr: 0xA54, symBinAddr: 0x1F364, symSize: 0x8 }
  - { offsetInCU: 0x81C6, offset: 0x1C1C51, size: 0x8, addend: 0x0, symName: __ZN3tns16DlSymbolResolver4loadEv, symObjAddr: 0xA5C, symBinAddr: 0x1F36C, symSize: 0x10 }
  - { offsetInCU: 0x81ED, offset: 0x1C1C78, size: 0x8, addend: 0x0, symName: __ZN3tns16DlSymbolResolverD1Ev, symObjAddr: 0xA6C, symBinAddr: 0x1F37C, symSize: 0x4 }
  - { offsetInCU: 0x8216, offset: 0x1C1CA1, size: 0x8, addend: 0x0, symName: __ZN3tns16DlSymbolResolverD0Ev, symObjAddr: 0xA70, symBinAddr: 0x1F380, symSize: 0x4 }
  - { offsetInCU: 0x826E, offset: 0x1C1CF9, size: 0x8, addend: 0x0, symName: __ZN10robin_hood6detail5TableILb1ELm80EPKN3tns10ModuleMetaENSt3__110unique_ptrINS2_14SymbolResolverENS6_14default_deleteIS8_EEEENS_4hashIS5_vEENS6_8equal_toIS5_EEE13increase_sizeEv, symObjAddr: 0xC58, symBinAddr: 0x1F568, symSize: 0x12C }
  - { offsetInCU: 0x8338, offset: 0x1C1DC3, size: 0x8, addend: 0x0, symName: __ZN10robin_hood6detail5TableILb1ELm80EPKN3tns10ModuleMetaENSt3__110unique_ptrINS2_14SymbolResolverENS6_14default_deleteIS8_EEEENS_4hashIS5_vEENS6_8equal_toIS5_EEE7shiftUpEmm, symObjAddr: 0xD84, symBinAddr: 0x1F694, symSize: 0xEC }
  - { offsetInCU: 0x8516, offset: 0x1C1FA1, size: 0x8, addend: 0x0, symName: __ZN10robin_hood6detail5TableILb1ELm80EPKN3tns10ModuleMetaENSt3__110unique_ptrINS2_14SymbolResolverENS6_14default_deleteIS8_EEEENS_4hashIS5_vEENS6_8equal_toIS5_EEE17try_increase_infoEv, symObjAddr: 0xF3C, symBinAddr: 0x1F84C, symSize: 0x100 }
  - { offsetInCU: 0x861D, offset: 0x1C20A8, size: 0x8, addend: 0x0, symName: __ZN10robin_hood6detail5TableILb1ELm80EPKN3tns10ModuleMetaENSt3__110unique_ptrINS2_14SymbolResolverENS6_14default_deleteIS8_EEEENS_4hashIS5_vEENS6_8equal_toIS5_EEE8initDataEm, symObjAddr: 0xE70, symBinAddr: 0x1F780, symSize: 0xCC }
  - { offsetInCU: 0x8737, offset: 0x1C21C2, size: 0x8, addend: 0x0, symName: __ZN10robin_hood6detail5TableILb1ELm80EPKN3tns10ModuleMetaENSt3__110unique_ptrINS2_14SymbolResolverENS6_14default_deleteIS8_EEEENS_4hashIS5_vEENS6_8equal_toIS5_EEE17try_increase_infoEv, symObjAddr: 0xF3C, symBinAddr: 0x1F84C, symSize: 0x100 }
  - { offsetInCU: 0x8742, offset: 0x1C21CD, size: 0x8, addend: 0x0, symName: __ZN10robin_hood6detail5TableILb1ELm80EPKN3tns10ModuleMetaENSt3__110unique_ptrINS2_14SymbolResolverENS6_14default_deleteIS8_EEEENS_4hashIS5_vEENS6_8equal_toIS5_EEE16rehashPowerOfTwoEmb, symObjAddr: 0x103C, symBinAddr: 0x1F94C, symSize: 0x108 }
  - { offsetInCU: 0x89E2, offset: 0x1C246D, size: 0x8, addend: 0x0, symName: __ZN10robin_hood6detail5TableILb1ELm80EPKN3tns10ModuleMetaENSt3__110unique_ptrINS2_14SymbolResolverENS6_14default_deleteIS8_EEEENS_4hashIS5_vEENS6_8equal_toIS5_EEE11insert_moveEONSG_8DataNodeISG_Lb1EEE, symObjAddr: 0x116C, symBinAddr: 0x1FA54, symSize: 0x160 }
  - { offsetInCU: 0x30DF, offset: 0x1C5DAE, size: 0x8, addend: 0x0, symName: __ZN3tns22FastEnumerationAdapterEPN2v87IsolateEP11objc_objectP22NSFastEnumerationStatePS4_mPNS0_10PersistentINS0_8FunctionENS0_27NonCopyablePersistentTraitsIS9_EEEE, symObjAddr: 0x0, symBinAddr: 0x1FBB4, symSize: 0x618 }
  - { offsetInCU: 0xDA, offset: 0x1C9B3F, size: 0x8, addend: 0x0, symName: __ZN3tns30collectInheritanceChainMembersEPKcmNS_10MemberTypeEbPKNS_13BaseClassMetaENSt3__18functionIFvPKNS_10MemberMetaEEEE, symObjAddr: 0x1108, symBinAddr: 0x21080, symSize: 0x6B4 }
  - { offsetInCU: 0x10C, offset: 0x1C9B71, size: 0x8, addend: 0x0, symName: __ZZN3tns30collectInheritanceChainMembersEPKcmNS_10MemberTypeEbPKNS_13BaseClassMetaENSt3__18functionIFvPKNS_10MemberMetaEEEEE11nsObjectLen, symObjAddr: 0x1E0390, symBinAddr: 0x1578778, symSize: 0x0 }
  - { offsetInCU: 0x1D3B, offset: 0x1CB7A0, size: 0x8, addend: 0x0, symName: __ZN3tnsL16metaFileInstanceE, symObjAddr: 0x1E03A0, symBinAddr: 0x1578788, symSize: 0x0 }
  - { offsetInCU: 0x28DB, offset: 0x1CC340, size: 0x8, addend: 0x0, symName: __ZN3tns22LogMetadataUnavailableEPKchhS1_, symObjAddr: 0x0, symBinAddr: 0x201CC, symSize: 0x34 }
  - { offsetInCU: 0x294E, offset: 0x1CC3B3, size: 0x8, addend: 0x0, symName: __ZN3tns17getMetasByJSNamesENSt3__13setIPKNS_10MemberMetaENS0_4lessIS4_EENS0_9allocatorIS4_EEEE, symObjAddr: 0x34, symBinAddr: 0x20200, symSize: 0x1C0 }
  - { offsetInCU: 0x13127, offset: 0x1DCB8C, size: 0x8, addend: 0x0, symName: __ZNSt3__119__allocate_at_leastB7v160006INS_9allocatorIPKN3tns12PropertyMetaEEEEENS_19__allocation_resultINS_16allocator_traitsIT_E7pointerEEERS9_m, symObjAddr: 0x3690, symBinAddr: 0x226D4, symSize: 0x34 }
  - { offsetInCU: 0x131CC, offset: 0x1DCC31, size: 0x8, addend: 0x0, symName: __ZNSt3__16vectorIPKN3tns12PropertyMetaENS_9allocatorIS4_EEEC2ERKS7_, symObjAddr: 0x36C4, symBinAddr: 0x22708, symSize: 0x80 }
  - { offsetInCU: 0x14DE4, offset: 0x1DE849, size: 0x8, addend: 0x0, symName: __ZNK3tns10MethodMeta20isImplementedInClassEP10objc_classb, symObjAddr: 0x3F0, symBinAddr: 0x205BC, symSize: 0x200 }
  - { offsetInCU: 0x14E09, offset: 0x1DE86E, size: 0x8, addend: 0x0, symName: __ZZNK3tns10MethodMeta20isImplementedInClassEP10objc_classbE15sampleInstances, symObjAddr: 0x1E0350, symBinAddr: 0x1578738, symSize: 0x0 }
  - { offsetInCU: 0x19085, offset: 0x1E2AEA, size: 0x8, addend: 0x0, symName: __ZNK3tns13BaseClassMeta7membersEPKcmNS_10MemberTypeEbbRKNSt3__16vectorIPKNS_12ProtocolMetaENS4_9allocatorIS8_EEEE, symObjAddr: 0xC98, symBinAddr: 0x20C10, symSize: 0x470 }
  - { offsetInCU: 0x1CD5C, offset: 0x1E67C1, size: 0x8, addend: 0x0, symName: __ZN10robin_hood6detail5TableILb1ELm80ENSt3__112basic_stringIcNS2_11char_traitsIcEENS2_9allocatorIcEEEENS2_3setIPKN3tns10MemberMetaENS2_4lessISD_EENS6_ISD_EEEENS_4hashIS8_vEENS2_8equal_toIS8_EEE25insertKeyPrepareEmptySpotIRS8_EENS2_4pairImNSM_14InsertionStateEEEOT_, symObjAddr: 0x3950, symBinAddr: 0x228F8, symSize: 0x18C }
  - { offsetInCU: 0x1CD73, offset: 0x1E67D8, size: 0x8, addend: 0x0, symName: __ZN10robin_hood6detail5TableILb1ELm80ENSt3__112basic_stringIcNS2_11char_traitsIcEENS2_9allocatorIcEEEENS2_3setIPKN3tns10MemberMetaENS2_4lessISD_EENS6_ISD_EEEENS_4hashIS8_vEENS2_8equal_toIS8_EEEixISH_EENS2_9enable_ifIXntsr3std7is_voidIT_EE5valueERSP_E4typeEOS8_, symObjAddr: 0x1F4, symBinAddr: 0x203C0, symSize: 0x15C }
  - { offsetInCU: 0x1D62C, offset: 0x1E7091, size: 0x8, addend: 0x0, symName: __ZNSt3__16__treeIPKN3tns10MemberMetaENS_4lessIS4_EENS_9allocatorIS4_EEE25__emplace_unique_key_argsIS4_JRKS4_EEENS_4pairINS_15__tree_iteratorIS4_PNS_11__tree_nodeIS4_PvEElEEbEERKT_DpOT0_, symObjAddr: 0x4468, symBinAddr: 0x23240, symSize: 0xB8 }
  - { offsetInCU: 0x1D89B, offset: 0x1E7300, size: 0x8, addend: 0x0, symName: __ZN10robin_hood6detail5TableILb1ELm80ENSt3__112basic_stringIcNS2_11char_traitsIcEENS2_9allocatorIcEEEENS2_3setIPKN3tns10MemberMetaENS2_4lessISD_EENS6_ISD_EEEENS_4hashIS8_vEENS2_8equal_toIS8_EEE7destroyEv, symObjAddr: 0x3784, symBinAddr: 0x227C8, symSize: 0x4C }
  - { offsetInCU: 0x1DEC4, offset: 0x1E7929, size: 0x8, addend: 0x0, symName: __ZN10robin_hood6detail5TableILb1ELm80ENSt3__112basic_stringIcNS2_11char_traitsIcEENS2_9allocatorIcEEEENS2_3setIPKN3tns10MemberMetaENS2_4lessISD_EENS6_ISD_EEEENS_4hashIS8_vEENS2_8equal_toIS8_EEE25insertKeyPrepareEmptySpotIRS8_EENS2_4pairImNSM_14InsertionStateEEEOT_, symObjAddr: 0x3950, symBinAddr: 0x228F8, symSize: 0x18C }
  - { offsetInCU: 0x1E011, offset: 0x1E7A76, size: 0x8, addend: 0x0, symName: __ZNK10robin_hood6detail5TableILb1ELm80ENSt3__112basic_stringIcNS2_11char_traitsIcEENS2_9allocatorIcEEEENS2_3setIPKN3tns10MemberMetaENS2_4lessISD_EENS6_ISD_EEEENS_4hashIS8_vEENS2_8equal_toIS8_EEE18throwOverflowErrorEv, symObjAddr: 0x3ADC, symBinAddr: 0x22A84, symSize: 0x50 }
  - { offsetInCU: 0x1E124, offset: 0x1E7B89, size: 0x8, addend: 0x0, symName: __ZNK3tns4Meta11isAvailableEv, symObjAddr: 0x350, symBinAddr: 0x2051C, symSize: 0xA0 }
  - { offsetInCU: 0x1E288, offset: 0x1E7CED, size: 0x8, addend: 0x0, symName: __ZNK10robin_hood6detail5TableILb1ELm80EP10objc_classP11objc_objectNS_4hashIS3_vEENSt3__18equal_toIS3_EEE7findIdxIS3_EEmRKT_, symObjAddr: 0x470C, symBinAddr: 0x2334C, symSize: 0xD8 }
  - { offsetInCU: 0x1E2E4, offset: 0x1E7D49, size: 0x8, addend: 0x0, symName: __ZNK10robin_hood6detail5TableILb1ELm80EP10objc_classP11objc_objectNS_4hashIS3_vEENSt3__18equal_toIS3_EEE7findIdxIS3_EEmRKT_, symObjAddr: 0x470C, symBinAddr: 0x2334C, symSize: 0xD8 }
  - { offsetInCU: 0x1E425, offset: 0x1E7E8A, size: 0x8, addend: 0x0, symName: __ZN10robin_hood6detail5TableILb1ELm80EP10objc_classP11objc_objectNS_4hashIS3_vEENSt3__18equal_toIS3_EEE7emplaceIJRS3_S5_EEENS8_4pairINSB_4IterILb0EEEbEEDpOT_, symObjAddr: 0x83C, symBinAddr: 0x207FC, symSize: 0x94 }
  - { offsetInCU: 0x1EA44, offset: 0x1E84A9, size: 0x8, addend: 0x0, symName: __ZN10robin_hood6detail5TableILb1ELm80EP10objc_classP11objc_objectNS_4hashIS3_vEENSt3__18equal_toIS3_EEED1Ev, symObjAddr: 0x7FC, symBinAddr: 0x207BC, symSize: 0x40 }
  - { offsetInCU: 0x1ECA3, offset: 0x1E8708, size: 0x8, addend: 0x0, symName: __ZN10robin_hood6detail5TableILb1ELm80EP10objc_classP11objc_objectNS_4hashIS3_vEENSt3__18equal_toIS3_EEE25insertKeyPrepareEmptySpotIRKS3_EENS8_4pairImNSB_14InsertionStateEEEOT_, symObjAddr: 0x47E4, symBinAddr: 0x23424, symSize: 0x194 }
  - { offsetInCU: 0x1EE45, offset: 0x1E88AA, size: 0x8, addend: 0x0, symName: __ZNK10robin_hood6detail5TableILb1ELm80EP10objc_classP11objc_objectNS_4hashIS3_vEENSt3__18equal_toIS3_EEE18throwOverflowErrorEv, symObjAddr: 0x4978, symBinAddr: 0x235B8, symSize: 0x50 }
  - { offsetInCU: 0x1EFC8, offset: 0x1E8A2D, size: 0x8, addend: 0x0, symName: __ZNK3tns13BaseClassMeta12protocolsSetEv, symObjAddr: 0x8D0, symBinAddr: 0x20890, symSize: 0x14C }
  - { offsetInCU: 0x1FA3B, offset: 0x1E94A0, size: 0x8, addend: 0x0, symName: __ZNK3tns11GlobalTableILNS_15GlobalTableTypeE0EE12findProtocolEPKc, symObjAddr: 0x25BC, symBinAddr: 0x22534, symSize: 0x50 }
  - { offsetInCU: 0x1FAF7, offset: 0x1E955C, size: 0x8, addend: 0x0, symName: __ZNSt3__16__treeIPKN3tns12ProtocolMetaENS_4lessIS4_EENS_9allocatorIS4_EEE25__emplace_unique_key_argsIS4_JRKS4_EEENS_4pairINS_15__tree_iteratorIS4_PNS_11__tree_nodeIS4_PvEElEEbEERKT_DpOT0_, symObjAddr: 0x4FB0, symBinAddr: 0x23BF0, symSize: 0xB8 }
  - { offsetInCU: 0x1FD66, offset: 0x1E97CB, size: 0x8, addend: 0x0, symName: __ZNSt3__16__treeIPKN3tns12ProtocolMetaENS_4lessIS4_EENS_9allocatorIS4_EEE7destroyEPNS_11__tree_nodeIS4_PvEE, symObjAddr: 0x4F70, symBinAddr: 0x23BB0, symSize: 0x40 }
  - { offsetInCU: 0x1FEA6, offset: 0x1E990B, size: 0x8, addend: 0x0, symName: __ZNK3tns13BaseClassMeta16deepProtocolsSetEv, symObjAddr: 0xA1C, symBinAddr: 0x209DC, symSize: 0x48 }
  - { offsetInCU: 0x20061, offset: 0x1E9AC6, size: 0x8, addend: 0x0, symName: __ZNK3tns13BaseClassMeta16deepProtocolsSetERNSt3__13setIPKNS_12ProtocolMetaENS1_4lessIS5_EENS1_9allocatorIS5_EEEE, symObjAddr: 0xA64, symBinAddr: 0x20A24, symSize: 0x19C }
  - { offsetInCU: 0x20D60, offset: 0x1EA7C5, size: 0x8, addend: 0x0, symName: __ZNK3tns13BaseClassMeta6memberEPKcmNS_10MemberTypeEbbRKNSt3__16vectorIPKNS_12ProtocolMetaENS4_9allocatorIS8_EEEE, symObjAddr: 0xC48, symBinAddr: 0x20BC0, symSize: 0x50 }
  - { offsetInCU: 0x21677, offset: 0x1EB0DC, size: 0x8, addend: 0x0, symName: __ZNSt3__16__treeINS_12__value_typeIiPKN3tns10MemberMetaEEENS_19__map_value_compareIiS6_NS_4lessIiEELb1EEENS_9allocatorIS6_EEE7destroyEPNS_11__tree_nodeIS6_PvEE, symObjAddr: 0x5380, symBinAddr: 0x23F74, symSize: 0x40 }
  - { offsetInCU: 0x217B7, offset: 0x1EB21C, size: 0x8, addend: 0x0, symName: __ZNSt3__13setIPKN3tns10MemberMetaENS_4lessIS4_EENS_9allocatorIS4_EEE6insertB7v160006INS_21__tree_const_iteratorIS4_PNS_11__tree_nodeIS4_PvEElEEEEvT_SH_, symObjAddr: 0x5640, symBinAddr: 0x24234, symSize: 0x84 }
  - { offsetInCU: 0x21E1E, offset: 0x1EB883, size: 0x8, addend: 0x0, symName: __ZNK3tns5ArrayINS_5PtrToINS_10MemberMetaEEEE20binarySearchLeftmostENSt3__18functionIFiRKS3_EEE, symObjAddr: 0x17BC, symBinAddr: 0x21734, symSize: 0x110 }
  - { offsetInCU: 0x22083, offset: 0x1EBAE8, size: 0x8, addend: 0x0, symName: __ZNSt3__110__function12__value_funcIFvPKN3tns10MemberMetaEEEC2B7v160006ERKS7_, symObjAddr: 0x531C, symBinAddr: 0x23F10, symSize: 0x64 }
  - { offsetInCU: 0x2219C, offset: 0x1EBC01, size: 0x8, addend: 0x0, symName: __ZNSt3__110__function12__value_funcIFiRKN3tns5PtrToINS2_10MemberMetaEEEEEC2B7v160006ERKS9_, symObjAddr: 0x5154, symBinAddr: 0x23D94, symSize: 0x64 }
  - { offsetInCU: 0x221F0, offset: 0x1EBC55, size: 0x8, addend: 0x0, symName: __ZNK3tns5ArrayINS_5PtrToINS_10MemberMetaEEEE12binarySearchENSt3__18functionIFiRKS3_EEE, symObjAddr: 0x50BC, symBinAddr: 0x23CFC, symSize: 0x98 }
  - { offsetInCU: 0x222ED, offset: 0x1EBD52, size: 0x8, addend: 0x0, symName: __ZNSt3__110__function12__value_funcIFiRKN3tns5PtrToINS2_10MemberMetaEEEEEC2B7v160006ERKS9_, symObjAddr: 0x5154, symBinAddr: 0x23D94, symSize: 0x64 }
  - { offsetInCU: 0x223EB, offset: 0x1EBE50, size: 0x8, addend: 0x0, symName: __ZNK3tns13BaseClassMeta31instancePropertiesWithProtocolsERNSt3__16vectorIPKNS_12PropertyMetaENS1_9allocatorIS5_EEEENS_21KnownUnknownClassPairERKNS2_IPKNS_12ProtocolMetaENS6_ISD_EEEE, symObjAddr: 0x18CC, symBinAddr: 0x21844, symSize: 0x218 }
  - { offsetInCU: 0x233AB, offset: 0x1ECE10, size: 0x8, addend: 0x0, symName: __ZNK3tns13BaseClassMeta18instancePropertiesERNSt3__16vectorIPKNS_12PropertyMetaENS1_9allocatorIS5_EEEENS_21KnownUnknownClassPairE, symObjAddr: 0x1AE4, symBinAddr: 0x21A5C, symSize: 0x288 }
  - { offsetInCU: 0x241D1, offset: 0x1EDC36, size: 0x8, addend: 0x0, symName: __ZNK3tns13BaseClassMeta29staticPropertiesWithProtocolsERNSt3__16vectorIPKNS_12PropertyMetaENS1_9allocatorIS5_EEEENS_21KnownUnknownClassPairERKNS2_IPKNS_12ProtocolMetaENS6_ISD_EEEE, symObjAddr: 0x1D6C, symBinAddr: 0x21CE4, symSize: 0x218 }
  - { offsetInCU: 0x241DD, offset: 0x1EDC42, size: 0x8, addend: 0x0, symName: __ZNSt3__16vectorIPKN3tns12PropertyMetaENS_9allocatorIS4_EEEC2ERKS7_, symObjAddr: 0x36C4, symBinAddr: 0x22708, symSize: 0x80 }
  - { offsetInCU: 0x2497B, offset: 0x1EE3E0, size: 0x8, addend: 0x0, symName: __ZNK3tns12PropertyMeta20isImplementedInClassEP10objc_classb, symObjAddr: 0x354C, symBinAddr: 0x22590, symSize: 0x130 }
  - { offsetInCU: 0x24DB3, offset: 0x1EE818, size: 0x8, addend: 0x0, symName: __ZNKSt3__16vectorIPKN3tns12PropertyMetaENS_9allocatorIS4_EEE20__throw_length_errorB7v160006Ev, symObjAddr: 0x367C, symBinAddr: 0x226C0, symSize: 0x14 }
  - { offsetInCU: 0x24DDC, offset: 0x1EE841, size: 0x8, addend: 0x0, symName: __ZNSt3__119__allocate_at_leastB7v160006INS_9allocatorIPKN3tns12PropertyMetaEEEEENS_19__allocation_resultINS_16allocator_traitsIT_E7pointerEEERS9_m, symObjAddr: 0x3690, symBinAddr: 0x226D4, symSize: 0x34 }
  - { offsetInCU: 0x24DE8, offset: 0x1EE84D, size: 0x8, addend: 0x0, symName: __ZNK3tns13BaseClassMeta29staticPropertiesWithProtocolsERNSt3__16vectorIPKNS_12PropertyMetaENS1_9allocatorIS5_EEEENS_21KnownUnknownClassPairERKNS2_IPKNS_12ProtocolMetaENS6_ISD_EEEE, symObjAddr: 0x1D6C, symBinAddr: 0x21CE4, symSize: 0x218 }
  - { offsetInCU: 0x25D80, offset: 0x1EF7E5, size: 0x8, addend: 0x0, symName: __ZNK3tns13BaseClassMeta16staticPropertiesERNSt3__16vectorIPKNS_12PropertyMetaENS1_9allocatorIS5_EEEENS_21KnownUnknownClassPairE, symObjAddr: 0x1F84, symBinAddr: 0x21EFC, symSize: 0x288 }
  - { offsetInCU: 0x26BA6, offset: 0x1F060B, size: 0x8, addend: 0x0, symName: __ZNK3tns13BaseClassMeta12initializersERNSt3__16vectorIPKNS_10MethodMetaENS1_9allocatorIS5_EEEENS_21KnownUnknownClassPairE, symObjAddr: 0x220C, symBinAddr: 0x22184, symSize: 0x1D4 }
  - { offsetInCU: 0x27022, offset: 0x1F0A87, size: 0x8, addend: 0x0, symName: __ZNK3tns13BaseClassMeta12initializersERNSt3__16vectorIPKNS_10MethodMetaENS1_9allocatorIS5_EEEENS_21KnownUnknownClassPairE, symObjAddr: 0x220C, symBinAddr: 0x22184, symSize: 0x1D4 }
  - { offsetInCU: 0x2790B, offset: 0x1F1370, size: 0x8, addend: 0x0, symName: __ZNK3tns13BaseClassMeta25initializersWithProtocolsERNSt3__16vectorIPKNS_10MethodMetaENS1_9allocatorIS5_EEEENS_21KnownUnknownClassPairERKNS2_IPKNS_12ProtocolMetaENS6_ISD_EEEE, symObjAddr: 0x23E0, symBinAddr: 0x22358, symSize: 0x1D0 }
  - { offsetInCU: 0x27BDC, offset: 0x1F1641, size: 0x8, addend: 0x0, symName: __ZNK3tns13BaseClassMeta25initializersWithProtocolsERNSt3__16vectorIPKNS_10MethodMetaENS1_9allocatorIS5_EEEENS_21KnownUnknownClassPairERKNS2_IPKNS_12ProtocolMetaENS6_ISD_EEEE, symObjAddr: 0x23E0, symBinAddr: 0x22358, symSize: 0x1D0 }
  - { offsetInCU: 0x28825, offset: 0x1F228A, size: 0x8, addend: 0x0, symName: __ZN3tns8MetaFile8instanceEv, symObjAddr: 0x25B0, symBinAddr: 0x22528, symSize: 0xC }
  - { offsetInCU: 0x28E63, offset: 0x1F28C8, size: 0x8, addend: 0x0, symName: __ZN3tns8MetaFile11setInstanceEPv, symObjAddr: 0x260C, symBinAddr: 0x22584, symSize: 0xC }
  - { offsetInCU: 0x2A365, offset: 0x1F3DCA, size: 0x8, addend: 0x0, symName: __ZNSt3__16vectorIPKN3tns12PropertyMetaENS_9allocatorIS4_EEE11__vallocateB7v160006Em, symObjAddr: 0x3744, symBinAddr: 0x22788, symSize: 0x40 }
  - { offsetInCU: 0x2A3DC, offset: 0x1F3E41, size: 0x8, addend: 0x0, symName: __ZN10robin_hood6detail5TableILb1ELm80ENSt3__112basic_stringIcNS2_11char_traitsIcEENS2_9allocatorIcEEEENS2_3setIPKN3tns10MemberMetaENS2_4lessISD_EENS6_ISD_EEEENS_4hashIS8_vEENS2_8equal_toIS8_EEE7destroyEv, symObjAddr: 0x3784, symBinAddr: 0x227C8, symSize: 0x4C }
  - { offsetInCU: 0x2A407, offset: 0x1F3E6C, size: 0x8, addend: 0x0, symName: __ZNK10robin_hood6detail5TableILb1ELm80ENSt3__112basic_stringIcNS2_11char_traitsIcEENS2_9allocatorIcEEEENS2_3setIPKN3tns10MemberMetaENS2_4lessISD_EENS6_ISD_EEEENS_4hashIS8_vEENS2_8equal_toIS8_EEE9DestroyerISM_Lb0EE20nodesDoNotDeallocateERSM_, symObjAddr: 0x37D0, symBinAddr: 0x22814, symSize: 0xE4 }
  - { offsetInCU: 0x2AA25, offset: 0x1F448A, size: 0x8, addend: 0x0, symName: __ZN10robin_hood6detail5TableILb1ELm80ENSt3__112basic_stringIcNS2_11char_traitsIcEENS2_9allocatorIcEEEENS2_3setIPKN3tns10MemberMetaENS2_4lessISD_EENS6_ISD_EEEENS_4hashIS8_vEENS2_8equal_toIS8_EEE13increase_sizeEv, symObjAddr: 0x3BDC, symBinAddr: 0x22AD4, symSize: 0x12C }
  - { offsetInCU: 0x2AAEF, offset: 0x1F4554, size: 0x8, addend: 0x0, symName: __ZN10robin_hood6detail5TableILb1ELm80ENSt3__112basic_stringIcNS2_11char_traitsIcEENS2_9allocatorIcEEEENS2_3setIPKN3tns10MemberMetaENS2_4lessISD_EENS6_ISD_EEEENS_4hashIS8_vEENS2_8equal_toIS8_EEE7shiftUpEmm, symObjAddr: 0x3D08, symBinAddr: 0x22C00, symSize: 0x154 }
  - { offsetInCU: 0x2AE88, offset: 0x1F48ED, size: 0x8, addend: 0x0, symName: __ZN10robin_hood6detail5TableILb1ELm80ENSt3__112basic_stringIcNS2_11char_traitsIcEENS2_9allocatorIcEEEENS2_3setIPKN3tns10MemberMetaENS2_4lessISD_EENS6_ISD_EEEENS_4hashIS8_vEENS2_8equal_toIS8_EEE17try_increase_infoEv, symObjAddr: 0x4018, symBinAddr: 0x22E30, symSize: 0x100 }
  - { offsetInCU: 0x2AF8F, offset: 0x1F49F4, size: 0x8, addend: 0x0, symName: __ZN10robin_hood6detail5TableILb1ELm80ENSt3__112basic_stringIcNS2_11char_traitsIcEENS2_9allocatorIcEEEENS2_3setIPKN3tns10MemberMetaENS2_4lessISD_EENS6_ISD_EEEENS_4hashIS8_vEENS2_8equal_toIS8_EEE8initDataEm, symObjAddr: 0x3F3C, symBinAddr: 0x22D54, symSize: 0xDC }
  - { offsetInCU: 0x2B0A8, offset: 0x1F4B0D, size: 0x8, addend: 0x0, symName: __ZN10robin_hood6detail5TableILb1ELm80ENSt3__112basic_stringIcNS2_11char_traitsIcEENS2_9allocatorIcEEEENS2_3setIPKN3tns10MemberMetaENS2_4lessISD_EENS6_ISD_EEEENS_4hashIS8_vEENS2_8equal_toIS8_EEE17try_increase_infoEv, symObjAddr: 0x4018, symBinAddr: 0x22E30, symSize: 0x100 }
  - { offsetInCU: 0x2B0B4, offset: 0x1F4B19, size: 0x8, addend: 0x0, symName: __ZN10robin_hood6detail5TableILb1ELm80ENSt3__112basic_stringIcNS2_11char_traitsIcEENS2_9allocatorIcEEEENS2_3setIPKN3tns10MemberMetaENS2_4lessISD_EENS6_ISD_EEEENS_4hashIS8_vEENS2_8equal_toIS8_EEE16rehashPowerOfTwoEmb, symObjAddr: 0x4118, symBinAddr: 0x22F30, symSize: 0x10C }
  - { offsetInCU: 0x2B52B, offset: 0x1F4F90, size: 0x8, addend: 0x0, symName: __ZNSt3__16__treeIPKN3tns10MemberMetaENS_4lessIS4_EENS_9allocatorIS4_EEE13__move_assignERS9_NS_17integral_constantIbLb1EEE, symObjAddr: 0x43C0, symBinAddr: 0x231D8, symSize: 0x68 }
  - { offsetInCU: 0x2B5BA, offset: 0x1F501F, size: 0x8, addend: 0x0, symName: __ZN10robin_hood6detail5TableILb1ELm80ENSt3__112basic_stringIcNS2_11char_traitsIcEENS2_9allocatorIcEEEENS2_3setIPKN3tns10MemberMetaENS2_4lessISD_EENS6_ISD_EEEENS_4hashIS8_vEENS2_8equal_toIS8_EEE11insert_moveEONSM_8DataNodeISM_Lb1EEE, symObjAddr: 0x4224, symBinAddr: 0x2303C, symSize: 0x19C }
  - { offsetInCU: 0x2BC42, offset: 0x1F56A7, size: 0x8, addend: 0x0, symName: __ZNSt3__16__treeIPKN3tns10MemberMetaENS_4lessIS4_EENS_9allocatorIS4_EEE16__insert_node_atEPNS_15__tree_end_nodeIPNS_16__tree_node_baseIPvEEEERSE_SE_, symObjAddr: 0x4520, symBinAddr: 0x232F8, symSize: 0x54 }
  - { offsetInCU: 0x2BDF8, offset: 0x1F585D, size: 0x8, addend: 0x0, symName: __ZN10robin_hood6detail5TableILb1ELm80EP10objc_classP11objc_objectNS_4hashIS3_vEENSt3__18equal_toIS3_EEE13increase_sizeEv, symObjAddr: 0x49C8, symBinAddr: 0x23608, symSize: 0x12C }
  - { offsetInCU: 0x2BEC2, offset: 0x1F5927, size: 0x8, addend: 0x0, symName: __ZN10robin_hood6detail5TableILb1ELm80EP10objc_classP11objc_objectNS_4hashIS3_vEENSt3__18equal_toIS3_EEE7shiftUpEmm, symObjAddr: 0x4AF4, symBinAddr: 0x23734, symSize: 0x98 }
  - { offsetInCU: 0x2BF4E, offset: 0x1F59B3, size: 0x8, addend: 0x0, symName: __ZN10robin_hood6detail5TableILb1ELm80EP10objc_classP11objc_objectNS_4hashIS3_vEENSt3__18equal_toIS3_EEE17try_increase_infoEv, symObjAddr: 0x4C58, symBinAddr: 0x23898, symSize: 0x100 }
  - { offsetInCU: 0x2C055, offset: 0x1F5ABA, size: 0x8, addend: 0x0, symName: __ZN10robin_hood6detail5TableILb1ELm80EP10objc_classP11objc_objectNS_4hashIS3_vEENSt3__18equal_toIS3_EEE8initDataEm, symObjAddr: 0x4B8C, symBinAddr: 0x237CC, symSize: 0xCC }
  - { offsetInCU: 0x2C16E, offset: 0x1F5BD3, size: 0x8, addend: 0x0, symName: __ZN10robin_hood6detail5TableILb1ELm80EP10objc_classP11objc_objectNS_4hashIS3_vEENSt3__18equal_toIS3_EEE17try_increase_infoEv, symObjAddr: 0x4C58, symBinAddr: 0x23898, symSize: 0x100 }
  - { offsetInCU: 0x2C17A, offset: 0x1F5BDF, size: 0x8, addend: 0x0, symName: __ZN10robin_hood6detail5TableILb1ELm80EP10objc_classP11objc_objectNS_4hashIS3_vEENSt3__18equal_toIS3_EEE16rehashPowerOfTwoEmb, symObjAddr: 0x4D58, symBinAddr: 0x23998, symSize: 0xF0 }
  - { offsetInCU: 0x2C2FB, offset: 0x1F5D60, size: 0x8, addend: 0x0, symName: __ZN10robin_hood6detail5TableILb1ELm80EP10objc_classP11objc_objectNS_4hashIS3_vEENSt3__18equal_toIS3_EEE11insert_moveEONSB_8DataNodeISB_Lb1EEE, symObjAddr: 0x4E48, symBinAddr: 0x23A88, symSize: 0x128 }
  - { offsetInCU: 0x2C66D, offset: 0x1F60D2, size: 0x8, addend: 0x0, symName: __ZNSt3__16__treeIPKN3tns12ProtocolMetaENS_4lessIS4_EENS_9allocatorIS4_EEE16__insert_node_atEPNS_15__tree_end_nodeIPNS_16__tree_node_baseIPvEEEERSE_SE_, symObjAddr: 0x5068, symBinAddr: 0x23CA8, symSize: 0x54 }
  - { offsetInCU: 0x2C715, offset: 0x1F617A, size: 0x8, addend: 0x0, symName: '__ZNSt3__110__function6__funcIZN3tns30collectInheritanceChainMembersEPKcmNS2_10MemberTypeEbPKNS2_13BaseClassMetaENS_8functionIFvPKNS2_10MemberMetaEEEEE3$_2NS_9allocatorISF_EEFiRKNS2_5PtrToISA_EEEED1Ev', symObjAddr: 0x5204, symBinAddr: 0x23DF8, symSize: 0x4 }
  - { offsetInCU: 0x2C740, offset: 0x1F61A5, size: 0x8, addend: 0x0, symName: '__ZNSt3__110__function6__funcIZN3tns30collectInheritanceChainMembersEPKcmNS2_10MemberTypeEbPKNS2_13BaseClassMetaENS_8functionIFvPKNS2_10MemberMetaEEEEE3$_2NS_9allocatorISF_EEFiRKNS2_5PtrToISA_EEEED0Ev', symObjAddr: 0x5208, symBinAddr: 0x23DFC, symSize: 0x4 }
  - { offsetInCU: 0x2C944, offset: 0x1F63A9, size: 0x8, addend: 0x0, symName: '__ZNKSt3__110__function6__funcIZN3tns30collectInheritanceChainMembersEPKcmNS2_10MemberTypeEbPKNS2_13BaseClassMetaENS_8functionIFvPKNS2_10MemberMetaEEEEE3$_2NS_9allocatorISF_EEFiRKNS2_5PtrToISA_EEEE7__cloneEv', symObjAddr: 0x520C, symBinAddr: 0x23E00, symSize: 0x38 }
  - { offsetInCU: 0x2CC6F, offset: 0x1F66D4, size: 0x8, addend: 0x0, symName: '__ZNKSt3__110__function6__funcIZN3tns30collectInheritanceChainMembersEPKcmNS2_10MemberTypeEbPKNS2_13BaseClassMetaENS_8functionIFvPKNS2_10MemberMetaEEEEE3$_2NS_9allocatorISF_EEFiRKNS2_5PtrToISA_EEEE7__cloneEPNS0_6__baseISM_EE', symObjAddr: 0x5244, symBinAddr: 0x23E38, symSize: 0x18 }
  - { offsetInCU: 0x2CCA6, offset: 0x1F670B, size: 0x8, addend: 0x0, symName: '__ZNKSt3__110__function6__funcIZN3tns30collectInheritanceChainMembersEPKcmNS2_10MemberTypeEbPKNS2_13BaseClassMetaENS_8functionIFvPKNS2_10MemberMetaEEEEE3$_2NS_9allocatorISF_EEFiRKNS2_5PtrToISA_EEEE7__cloneEPNS0_6__baseISM_EE', symObjAddr: 0x5244, symBinAddr: 0x23E38, symSize: 0x18 }
  - { offsetInCU: 0x2CCD5, offset: 0x1F673A, size: 0x8, addend: 0x0, symName: '__ZNKSt3__110__function6__funcIZN3tns30collectInheritanceChainMembersEPKcmNS2_10MemberTypeEbPKNS2_13BaseClassMetaENS_8functionIFvPKNS2_10MemberMetaEEEEE3$_2NS_9allocatorISF_EEFiRKNS2_5PtrToISA_EEEE7__cloneEPNS0_6__baseISM_EE', symObjAddr: 0x5244, symBinAddr: 0x23E38, symSize: 0x18 }
  - { offsetInCU: 0x2CDED, offset: 0x1F6852, size: 0x8, addend: 0x0, symName: '__ZNSt3__110__function6__funcIZN3tns30collectInheritanceChainMembersEPKcmNS2_10MemberTypeEbPKNS2_13BaseClassMetaENS_8functionIFvPKNS2_10MemberMetaEEEEE3$_2NS_9allocatorISF_EEFiRKNS2_5PtrToISA_EEEE7destroyEv', symObjAddr: 0x525C, symBinAddr: 0x23E50, symSize: 0x4 }
  - { offsetInCU: 0x2CE3C, offset: 0x1F68A1, size: 0x8, addend: 0x0, symName: '__ZNSt3__110__function6__funcIZN3tns30collectInheritanceChainMembersEPKcmNS2_10MemberTypeEbPKNS2_13BaseClassMetaENS_8functionIFvPKNS2_10MemberMetaEEEEE3$_2NS_9allocatorISF_EEFiRKNS2_5PtrToISA_EEEE18destroy_deallocateEv', symObjAddr: 0x5260, symBinAddr: 0x23E54, symSize: 0x4 }
  - { offsetInCU: 0x2CE71, offset: 0x1F68D6, size: 0x8, addend: 0x0, symName: '__ZNSt3__110__function6__funcIZN3tns30collectInheritanceChainMembersEPKcmNS2_10MemberTypeEbPKNS2_13BaseClassMetaENS_8functionIFvPKNS2_10MemberMetaEEEEE3$_2NS_9allocatorISF_EEFiRKNS2_5PtrToISA_EEEE18destroy_deallocateEv', symObjAddr: 0x5260, symBinAddr: 0x23E54, symSize: 0x4 }
  - { offsetInCU: 0x2CE95, offset: 0x1F68FA, size: 0x8, addend: 0x0, symName: '__ZNSt3__110__function6__funcIZN3tns30collectInheritanceChainMembersEPKcmNS2_10MemberTypeEbPKNS2_13BaseClassMetaENS_8functionIFvPKNS2_10MemberMetaEEEEE3$_2NS_9allocatorISF_EEFiRKNS2_5PtrToISA_EEEE18destroy_deallocateEv', symObjAddr: 0x5260, symBinAddr: 0x23E54, symSize: 0x4 }
  - { offsetInCU: 0x2CEC1, offset: 0x1F6926, size: 0x8, addend: 0x0, symName: '__ZNSt3__110__function6__funcIZN3tns30collectInheritanceChainMembersEPKcmNS2_10MemberTypeEbPKNS2_13BaseClassMetaENS_8functionIFvPKNS2_10MemberMetaEEEEE3$_2NS_9allocatorISF_EEFiRKNS2_5PtrToISA_EEEE18destroy_deallocateEv', symObjAddr: 0x5260, symBinAddr: 0x23E54, symSize: 0x4 }
  - { offsetInCU: 0x2CEE8, offset: 0x1F694D, size: 0x8, addend: 0x0, symName: '__ZNSt3__110__function6__funcIZN3tns30collectInheritanceChainMembersEPKcmNS2_10MemberTypeEbPKNS2_13BaseClassMetaENS_8functionIFvPKNS2_10MemberMetaEEEEE3$_2NS_9allocatorISF_EEFiRKNS2_5PtrToISA_EEEE18destroy_deallocateEv', symObjAddr: 0x5260, symBinAddr: 0x23E54, symSize: 0x4 }
  - { offsetInCU: 0x2CFA5, offset: 0x1F6A0A, size: 0x8, addend: 0x0, symName: '__ZNSt3__110__function6__funcIZN3tns30collectInheritanceChainMembersEPKcmNS2_10MemberTypeEbPKNS2_13BaseClassMetaENS_8functionIFvPKNS2_10MemberMetaEEEEE3$_2NS_9allocatorISF_EEFiRKNS2_5PtrToISA_EEEEclESL_', symObjAddr: 0x5264, symBinAddr: 0x23E58, symSize: 0xB8 }
  - { offsetInCU: 0x2D495, offset: 0x1F6EFA, size: 0x8, addend: 0x0, symName: '__ZNSt3__110__function6__funcIZNK3tns13BaseClassMeta7membersEPKcmNS2_10MemberTypeEbbRKNS_6vectorIPKNS2_12ProtocolMetaENS_9allocatorISA_EEEEE3$_3NSB_ISG_EEFvPKNS2_10MemberMetaEEED1Ev', symObjAddr: 0x53C0, symBinAddr: 0x23FB4, symSize: 0x4 }
  - { offsetInCU: 0x2D4C0, offset: 0x1F6F25, size: 0x8, addend: 0x0, symName: '__ZNSt3__110__function6__funcIZNK3tns13BaseClassMeta7membersEPKcmNS2_10MemberTypeEbbRKNS_6vectorIPKNS2_12ProtocolMetaENS_9allocatorISA_EEEEE3$_3NSB_ISG_EEFvPKNS2_10MemberMetaEEED0Ev', symObjAddr: 0x53C4, symBinAddr: 0x23FB8, symSize: 0x4 }
  - { offsetInCU: 0x2D6C4, offset: 0x1F7129, size: 0x8, addend: 0x0, symName: '__ZNKSt3__110__function6__funcIZNK3tns13BaseClassMeta7membersEPKcmNS2_10MemberTypeEbbRKNS_6vectorIPKNS2_12ProtocolMetaENS_9allocatorISA_EEEEE3$_3NSB_ISG_EEFvPKNS2_10MemberMetaEEE7__cloneEv', symObjAddr: 0x53C8, symBinAddr: 0x23FBC, symSize: 0x34 }
  - { offsetInCU: 0x2D9C2, offset: 0x1F7427, size: 0x8, addend: 0x0, symName: '__ZNKSt3__110__function6__funcIZNK3tns13BaseClassMeta7membersEPKcmNS2_10MemberTypeEbbRKNS_6vectorIPKNS2_12ProtocolMetaENS_9allocatorISA_EEEEE3$_3NSB_ISG_EEFvPKNS2_10MemberMetaEEE7__cloneEPNS0_6__baseISL_EE', symObjAddr: 0x53FC, symBinAddr: 0x23FF0, symSize: 0x14 }
  - { offsetInCU: 0x2D9F9, offset: 0x1F745E, size: 0x8, addend: 0x0, symName: '__ZNKSt3__110__function6__funcIZNK3tns13BaseClassMeta7membersEPKcmNS2_10MemberTypeEbbRKNS_6vectorIPKNS2_12ProtocolMetaENS_9allocatorISA_EEEEE3$_3NSB_ISG_EEFvPKNS2_10MemberMetaEEE7__cloneEPNS0_6__baseISL_EE', symObjAddr: 0x53FC, symBinAddr: 0x23FF0, symSize: 0x14 }
  - { offsetInCU: 0x2DA28, offset: 0x1F748D, size: 0x8, addend: 0x0, symName: '__ZNKSt3__110__function6__funcIZNK3tns13BaseClassMeta7membersEPKcmNS2_10MemberTypeEbbRKNS_6vectorIPKNS2_12ProtocolMetaENS_9allocatorISA_EEEEE3$_3NSB_ISG_EEFvPKNS2_10MemberMetaEEE7__cloneEPNS0_6__baseISL_EE', symObjAddr: 0x53FC, symBinAddr: 0x23FF0, symSize: 0x14 }
  - { offsetInCU: 0x2DA57, offset: 0x1F74BC, size: 0x8, addend: 0x0, symName: '__ZNKSt3__110__function6__funcIZNK3tns13BaseClassMeta7membersEPKcmNS2_10MemberTypeEbbRKNS_6vectorIPKNS2_12ProtocolMetaENS_9allocatorISA_EEEEE3$_3NSB_ISG_EEFvPKNS2_10MemberMetaEEE7__cloneEPNS0_6__baseISL_EE', symObjAddr: 0x53FC, symBinAddr: 0x23FF0, symSize: 0x14 }
  - { offsetInCU: 0x2DA6D, offset: 0x1F74D2, size: 0x8, addend: 0x0, symName: '__ZNKSt3__110__function6__funcIZNK3tns13BaseClassMeta7membersEPKcmNS2_10MemberTypeEbbRKNS_6vectorIPKNS2_12ProtocolMetaENS_9allocatorISA_EEEEE3$_3NSB_ISG_EEFvPKNS2_10MemberMetaEEE7__cloneEPNS0_6__baseISL_EE', symObjAddr: 0x53FC, symBinAddr: 0x23FF0, symSize: 0x14 }
  - { offsetInCU: 0x2DA81, offset: 0x1F74E6, size: 0x8, addend: 0x0, symName: '__ZNKSt3__110__function6__funcIZNK3tns13BaseClassMeta7membersEPKcmNS2_10MemberTypeEbbRKNS_6vectorIPKNS2_12ProtocolMetaENS_9allocatorISA_EEEEE3$_3NSB_ISG_EEFvPKNS2_10MemberMetaEEE7__cloneEPNS0_6__baseISL_EE', symObjAddr: 0x53FC, symBinAddr: 0x23FF0, symSize: 0x14 }
  - { offsetInCU: 0x2DA95, offset: 0x1F74FA, size: 0x8, addend: 0x0, symName: '__ZNKSt3__110__function6__funcIZNK3tns13BaseClassMeta7membersEPKcmNS2_10MemberTypeEbbRKNS_6vectorIPKNS2_12ProtocolMetaENS_9allocatorISA_EEEEE3$_3NSB_ISG_EEFvPKNS2_10MemberMetaEEE7__cloneEPNS0_6__baseISL_EE', symObjAddr: 0x53FC, symBinAddr: 0x23FF0, symSize: 0x14 }
  - { offsetInCU: 0x2DAAA, offset: 0x1F750F, size: 0x8, addend: 0x0, symName: '__ZNKSt3__110__function6__funcIZNK3tns13BaseClassMeta7membersEPKcmNS2_10MemberTypeEbbRKNS_6vectorIPKNS2_12ProtocolMetaENS_9allocatorISA_EEEEE3$_3NSB_ISG_EEFvPKNS2_10MemberMetaEEE7__cloneEPNS0_6__baseISL_EE', symObjAddr: 0x53FC, symBinAddr: 0x23FF0, symSize: 0x14 }
  - { offsetInCU: 0x2DAC2, offset: 0x1F7527, size: 0x8, addend: 0x0, symName: '__ZNSt3__110__function6__funcIZNK3tns13BaseClassMeta7membersEPKcmNS2_10MemberTypeEbbRKNS_6vectorIPKNS2_12ProtocolMetaENS_9allocatorISA_EEEEE3$_3NSB_ISG_EEFvPKNS2_10MemberMetaEEE7destroyEv', symObjAddr: 0x5410, symBinAddr: 0x24004, symSize: 0x4 }
  - { offsetInCU: 0x2DB11, offset: 0x1F7576, size: 0x8, addend: 0x0, symName: '__ZNSt3__110__function6__funcIZNK3tns13BaseClassMeta7membersEPKcmNS2_10MemberTypeEbbRKNS_6vectorIPKNS2_12ProtocolMetaENS_9allocatorISA_EEEEE3$_3NSB_ISG_EEFvPKNS2_10MemberMetaEEE18destroy_deallocateEv', symObjAddr: 0x5414, symBinAddr: 0x24008, symSize: 0x4 }
  - { offsetInCU: 0x2DB46, offset: 0x1F75AB, size: 0x8, addend: 0x0, symName: '__ZNSt3__110__function6__funcIZNK3tns13BaseClassMeta7membersEPKcmNS2_10MemberTypeEbbRKNS_6vectorIPKNS2_12ProtocolMetaENS_9allocatorISA_EEEEE3$_3NSB_ISG_EEFvPKNS2_10MemberMetaEEE18destroy_deallocateEv', symObjAddr: 0x5414, symBinAddr: 0x24008, symSize: 0x4 }
  - { offsetInCU: 0x2DB6A, offset: 0x1F75CF, size: 0x8, addend: 0x0, symName: '__ZNSt3__110__function6__funcIZNK3tns13BaseClassMeta7membersEPKcmNS2_10MemberTypeEbbRKNS_6vectorIPKNS2_12ProtocolMetaENS_9allocatorISA_EEEEE3$_3NSB_ISG_EEFvPKNS2_10MemberMetaEEE18destroy_deallocateEv', symObjAddr: 0x5414, symBinAddr: 0x24008, symSize: 0x4 }
  - { offsetInCU: 0x2DB96, offset: 0x1F75FB, size: 0x8, addend: 0x0, symName: '__ZNSt3__110__function6__funcIZNK3tns13BaseClassMeta7membersEPKcmNS2_10MemberTypeEbbRKNS_6vectorIPKNS2_12ProtocolMetaENS_9allocatorISA_EEEEE3$_3NSB_ISG_EEFvPKNS2_10MemberMetaEEE18destroy_deallocateEv', symObjAddr: 0x5414, symBinAddr: 0x24008, symSize: 0x4 }
  - { offsetInCU: 0x2DBBD, offset: 0x1F7622, size: 0x8, addend: 0x0, symName: '__ZNSt3__110__function6__funcIZNK3tns13BaseClassMeta7membersEPKcmNS2_10MemberTypeEbbRKNS_6vectorIPKNS2_12ProtocolMetaENS_9allocatorISA_EEEEE3$_3NSB_ISG_EEFvPKNS2_10MemberMetaEEE18destroy_deallocateEv', symObjAddr: 0x5414, symBinAddr: 0x24008, symSize: 0x4 }
  - { offsetInCU: 0x2DD49, offset: 0x1F77AE, size: 0x8, addend: 0x0, symName: '__ZNSt3__110__function6__funcIZNK3tns13BaseClassMeta7membersEPKcmNS2_10MemberTypeEbbRKNS_6vectorIPKNS2_12ProtocolMetaENS_9allocatorISA_EEEEE3$_3NSB_ISG_EEFvPKNS2_10MemberMetaEEEclEOSK_', symObjAddr: 0x5418, symBinAddr: 0x2400C, symSize: 0x88 }
  - { offsetInCU: 0x2E132, offset: 0x1F7B97, size: 0x8, addend: 0x0, symName: __ZNSt3__16__treeINS_12__value_typeIiPKN3tns10MemberMetaEEENS_19__map_value_compareIiS6_NS_4lessIiEELb1EEENS_9allocatorIS6_EEE25__emplace_unique_key_argsIiJRiRS5_EEENS_4pairINS_15__tree_iteratorIS6_PNS_11__tree_nodeIS6_PvEElEEbEERKT_DpOT0_, symObjAddr: 0x54A0, symBinAddr: 0x24094, symSize: 0xC4 }
  - { offsetInCU: 0x2E6E6, offset: 0x1F814B, size: 0x8, addend: 0x0, symName: __ZNSt3__16__treeINS_12__value_typeIiPKN3tns10MemberMetaEEENS_19__map_value_compareIiS6_NS_4lessIiEELb1EEENS_9allocatorIS6_EEE16__insert_node_atEPNS_15__tree_end_nodeIPNS_16__tree_node_baseIPvEEEERSI_SI_, symObjAddr: 0x5564, symBinAddr: 0x24158, symSize: 0x54 }
  - { offsetInCU: 0x2E750, offset: 0x1F81B5, size: 0x8, addend: 0x0, symName: '__ZNSt3__110__function6__funcIZNK3tns13BaseClassMeta7membersEPKcmNS2_10MemberTypeEbbRKNS_6vectorIPKNS2_12ProtocolMetaENS_9allocatorISA_EEEEE3$_4NSB_ISG_EEFvPKNS2_10MemberMetaEEED1Ev', symObjAddr: 0x55B8, symBinAddr: 0x241AC, symSize: 0x4 }
  - { offsetInCU: 0x2E77B, offset: 0x1F81E0, size: 0x8, addend: 0x0, symName: '__ZNSt3__110__function6__funcIZNK3tns13BaseClassMeta7membersEPKcmNS2_10MemberTypeEbbRKNS_6vectorIPKNS2_12ProtocolMetaENS_9allocatorISA_EEEEE3$_4NSB_ISG_EEFvPKNS2_10MemberMetaEEED0Ev', symObjAddr: 0x55BC, symBinAddr: 0x241B0, symSize: 0x4 }
  - { offsetInCU: 0x2E97F, offset: 0x1F83E4, size: 0x8, addend: 0x0, symName: '__ZNKSt3__110__function6__funcIZNK3tns13BaseClassMeta7membersEPKcmNS2_10MemberTypeEbbRKNS_6vectorIPKNS2_12ProtocolMetaENS_9allocatorISA_EEEEE3$_4NSB_ISG_EEFvPKNS2_10MemberMetaEEE7__cloneEv', symObjAddr: 0x55C0, symBinAddr: 0x241B4, symSize: 0x34 }
  - { offsetInCU: 0x2EC7D, offset: 0x1F86E2, size: 0x8, addend: 0x0, symName: '__ZNKSt3__110__function6__funcIZNK3tns13BaseClassMeta7membersEPKcmNS2_10MemberTypeEbbRKNS_6vectorIPKNS2_12ProtocolMetaENS_9allocatorISA_EEEEE3$_4NSB_ISG_EEFvPKNS2_10MemberMetaEEE7__cloneEPNS0_6__baseISL_EE', symObjAddr: 0x55F4, symBinAddr: 0x241E8, symSize: 0x14 }
  - { offsetInCU: 0x2ECB4, offset: 0x1F8719, size: 0x8, addend: 0x0, symName: '__ZNKSt3__110__function6__funcIZNK3tns13BaseClassMeta7membersEPKcmNS2_10MemberTypeEbbRKNS_6vectorIPKNS2_12ProtocolMetaENS_9allocatorISA_EEEEE3$_4NSB_ISG_EEFvPKNS2_10MemberMetaEEE7__cloneEPNS0_6__baseISL_EE', symObjAddr: 0x55F4, symBinAddr: 0x241E8, symSize: 0x14 }
  - { offsetInCU: 0x2ECE3, offset: 0x1F8748, size: 0x8, addend: 0x0, symName: '__ZNKSt3__110__function6__funcIZNK3tns13BaseClassMeta7membersEPKcmNS2_10MemberTypeEbbRKNS_6vectorIPKNS2_12ProtocolMetaENS_9allocatorISA_EEEEE3$_4NSB_ISG_EEFvPKNS2_10MemberMetaEEE7__cloneEPNS0_6__baseISL_EE', symObjAddr: 0x55F4, symBinAddr: 0x241E8, symSize: 0x14 }
  - { offsetInCU: 0x2ED12, offset: 0x1F8777, size: 0x8, addend: 0x0, symName: '__ZNKSt3__110__function6__funcIZNK3tns13BaseClassMeta7membersEPKcmNS2_10MemberTypeEbbRKNS_6vectorIPKNS2_12ProtocolMetaENS_9allocatorISA_EEEEE3$_4NSB_ISG_EEFvPKNS2_10MemberMetaEEE7__cloneEPNS0_6__baseISL_EE', symObjAddr: 0x55F4, symBinAddr: 0x241E8, symSize: 0x14 }
  - { offsetInCU: 0x2ED28, offset: 0x1F878D, size: 0x8, addend: 0x0, symName: '__ZNKSt3__110__function6__funcIZNK3tns13BaseClassMeta7membersEPKcmNS2_10MemberTypeEbbRKNS_6vectorIPKNS2_12ProtocolMetaENS_9allocatorISA_EEEEE3$_4NSB_ISG_EEFvPKNS2_10MemberMetaEEE7__cloneEPNS0_6__baseISL_EE', symObjAddr: 0x55F4, symBinAddr: 0x241E8, symSize: 0x14 }
  - { offsetInCU: 0x2ED3C, offset: 0x1F87A1, size: 0x8, addend: 0x0, symName: '__ZNKSt3__110__function6__funcIZNK3tns13BaseClassMeta7membersEPKcmNS2_10MemberTypeEbbRKNS_6vectorIPKNS2_12ProtocolMetaENS_9allocatorISA_EEEEE3$_4NSB_ISG_EEFvPKNS2_10MemberMetaEEE7__cloneEPNS0_6__baseISL_EE', symObjAddr: 0x55F4, symBinAddr: 0x241E8, symSize: 0x14 }
  - { offsetInCU: 0x2ED50, offset: 0x1F87B5, size: 0x8, addend: 0x0, symName: '__ZNKSt3__110__function6__funcIZNK3tns13BaseClassMeta7membersEPKcmNS2_10MemberTypeEbbRKNS_6vectorIPKNS2_12ProtocolMetaENS_9allocatorISA_EEEEE3$_4NSB_ISG_EEFvPKNS2_10MemberMetaEEE7__cloneEPNS0_6__baseISL_EE', symObjAddr: 0x55F4, symBinAddr: 0x241E8, symSize: 0x14 }
  - { offsetInCU: 0x2ED65, offset: 0x1F87CA, size: 0x8, addend: 0x0, symName: '__ZNKSt3__110__function6__funcIZNK3tns13BaseClassMeta7membersEPKcmNS2_10MemberTypeEbbRKNS_6vectorIPKNS2_12ProtocolMetaENS_9allocatorISA_EEEEE3$_4NSB_ISG_EEFvPKNS2_10MemberMetaEEE7__cloneEPNS0_6__baseISL_EE', symObjAddr: 0x55F4, symBinAddr: 0x241E8, symSize: 0x14 }
  - { offsetInCU: 0x2ED7D, offset: 0x1F87E2, size: 0x8, addend: 0x0, symName: '__ZNSt3__110__function6__funcIZNK3tns13BaseClassMeta7membersEPKcmNS2_10MemberTypeEbbRKNS_6vectorIPKNS2_12ProtocolMetaENS_9allocatorISA_EEEEE3$_4NSB_ISG_EEFvPKNS2_10MemberMetaEEE7destroyEv', symObjAddr: 0x5608, symBinAddr: 0x241FC, symSize: 0x4 }
  - { offsetInCU: 0x2EDCC, offset: 0x1F8831, size: 0x8, addend: 0x0, symName: '__ZNSt3__110__function6__funcIZNK3tns13BaseClassMeta7membersEPKcmNS2_10MemberTypeEbbRKNS_6vectorIPKNS2_12ProtocolMetaENS_9allocatorISA_EEEEE3$_4NSB_ISG_EEFvPKNS2_10MemberMetaEEE18destroy_deallocateEv', symObjAddr: 0x560C, symBinAddr: 0x24200, symSize: 0x4 }
  - { offsetInCU: 0x2EE01, offset: 0x1F8866, size: 0x8, addend: 0x0, symName: '__ZNSt3__110__function6__funcIZNK3tns13BaseClassMeta7membersEPKcmNS2_10MemberTypeEbbRKNS_6vectorIPKNS2_12ProtocolMetaENS_9allocatorISA_EEEEE3$_4NSB_ISG_EEFvPKNS2_10MemberMetaEEE18destroy_deallocateEv', symObjAddr: 0x560C, symBinAddr: 0x24200, symSize: 0x4 }
  - { offsetInCU: 0x2EE25, offset: 0x1F888A, size: 0x8, addend: 0x0, symName: '__ZNSt3__110__function6__funcIZNK3tns13BaseClassMeta7membersEPKcmNS2_10MemberTypeEbbRKNS_6vectorIPKNS2_12ProtocolMetaENS_9allocatorISA_EEEEE3$_4NSB_ISG_EEFvPKNS2_10MemberMetaEEE18destroy_deallocateEv', symObjAddr: 0x560C, symBinAddr: 0x24200, symSize: 0x4 }
  - { offsetInCU: 0x2EE51, offset: 0x1F88B6, size: 0x8, addend: 0x0, symName: '__ZNSt3__110__function6__funcIZNK3tns13BaseClassMeta7membersEPKcmNS2_10MemberTypeEbbRKNS_6vectorIPKNS2_12ProtocolMetaENS_9allocatorISA_EEEEE3$_4NSB_ISG_EEFvPKNS2_10MemberMetaEEE18destroy_deallocateEv', symObjAddr: 0x560C, symBinAddr: 0x24200, symSize: 0x4 }
  - { offsetInCU: 0x2EE78, offset: 0x1F88DD, size: 0x8, addend: 0x0, symName: '__ZNSt3__110__function6__funcIZNK3tns13BaseClassMeta7membersEPKcmNS2_10MemberTypeEbbRKNS_6vectorIPKNS2_12ProtocolMetaENS_9allocatorISA_EEEEE3$_4NSB_ISG_EEFvPKNS2_10MemberMetaEEE18destroy_deallocateEv', symObjAddr: 0x560C, symBinAddr: 0x24200, symSize: 0x4 }
  - { offsetInCU: 0x2EF20, offset: 0x1F8985, size: 0x8, addend: 0x0, symName: '__ZNSt3__110__function6__funcIZNK3tns13BaseClassMeta7membersEPKcmNS2_10MemberTypeEbbRKNS_6vectorIPKNS2_12ProtocolMetaENS_9allocatorISA_EEEEE3$_4NSB_ISG_EEFvPKNS2_10MemberMetaEEEclEOSK_', symObjAddr: 0x5610, symBinAddr: 0x24204, symSize: 0x30 }
  - { offsetInCU: 0x2F0A7, offset: 0x1F8B0C, size: 0x8, addend: 0x0, symName: __ZNSt3__16__treeIPKN3tns10MemberMetaENS_4lessIS4_EENS_9allocatorIS4_EEE30__emplace_hint_unique_key_argsIS4_JRKS4_EEENS_4pairINS_15__tree_iteratorIS4_PNS_11__tree_nodeIS4_PvEElEEbEENS_21__tree_const_iteratorIS4_SI_lEERKT_DpOT0_, symObjAddr: 0x56C4, symBinAddr: 0x242B8, symSize: 0x84 }
  - { offsetInCU: 0x2F2C8, offset: 0x1F8D2D, size: 0x8, addend: 0x0, symName: __ZNSt3__16__treeIPKN3tns10MemberMetaENS_4lessIS4_EENS_9allocatorIS4_EEE12__find_equalIS4_EERPNS_16__tree_node_baseIPvEENS_21__tree_const_iteratorIS4_PNS_11__tree_nodeIS4_SC_EElEERPNS_15__tree_end_nodeISE_EESF_RKT_, symObjAddr: 0x5748, symBinAddr: 0x2433C, symSize: 0x1AC }
  - { offsetInCU: 0x2F331, offset: 0x1F8D96, size: 0x8, addend: 0x0, symName: __ZNSt3__16__treeIPKN3tns10MemberMetaENS_4lessIS4_EENS_9allocatorIS4_EEE12__find_equalIS4_EERPNS_16__tree_node_baseIPvEENS_21__tree_const_iteratorIS4_PNS_11__tree_nodeIS4_SC_EElEERPNS_15__tree_end_nodeISE_EESF_RKT_, symObjAddr: 0x5748, symBinAddr: 0x2433C, symSize: 0x1AC }
  - { offsetInCU: 0x2F34E, offset: 0x1F8DB3, size: 0x8, addend: 0x0, symName: __ZNSt3__16__treeIPKN3tns10MemberMetaENS_4lessIS4_EENS_9allocatorIS4_EEE12__find_equalIS4_EERPNS_16__tree_node_baseIPvEENS_21__tree_const_iteratorIS4_PNS_11__tree_nodeIS4_SC_EElEERPNS_15__tree_end_nodeISE_EESF_RKT_, symObjAddr: 0x5748, symBinAddr: 0x2433C, symSize: 0x1AC }
  - { offsetInCU: 0x26, offset: 0x1F94E3, size: 0x8, addend: 0x0, symName: __ZN4rnv815createV8RuntimeEv, symObjAddr: 0x0, symBinAddr: 0x244E8, symSize: 0x44 }
  - { offsetInCU: 0x4809, offset: 0x1FDCC6, size: 0x8, addend: 0x0, symName: __ZN4rnv815createV8RuntimeEv, symObjAddr: 0x0, symBinAddr: 0x244E8, symSize: 0x44 }
  - { offsetInCU: 0x11951, offset: 0x2116BF, size: 0x8, addend: 0x0, symName: '-[DictionaryAdapterMapKeysEnumerator initWithMap:isolate:cache:]', symObjAddr: 0x0, symBinAddr: 0x2452C, symSize: 0x100 }
  - { offsetInCU: 0x11C2E, offset: 0x21199C, size: 0x8, addend: 0x0, symName: __ZNSt3__110shared_ptrIN2v810PersistentINS1_5ValueENS1_27NonCopyablePersistentTraitsIS3_EEEEEaSB7v160006ERKS7_, symObjAddr: 0x100, symBinAddr: 0x2462C, symSize: 0x68 }
  - { offsetInCU: 0x12185, offset: 0x211EF3, size: 0x8, addend: 0x0, symName: '-[DictionaryAdapterMapKeysEnumerator nextObject]', symObjAddr: 0x168, symBinAddr: 0x24694, symSize: 0x234 }
  - { offsetInCU: 0x12A5C, offset: 0x2127CA, size: 0x8, addend: 0x0, symName: '-[DictionaryAdapterMapKeysEnumerator dealloc]', symObjAddr: 0x468, symBinAddr: 0x248C8, symSize: 0x9C }
  - { offsetInCU: 0x12C9A, offset: 0x212A08, size: 0x8, addend: 0x0, symName: '-[DictionaryAdapterMapKeysEnumerator .cxx_destruct]', symObjAddr: 0x560, symBinAddr: 0x24964, symSize: 0x10 }
  - { offsetInCU: 0x12D74, offset: 0x212AE2, size: 0x8, addend: 0x0, symName: '-[DictionaryAdapterMapKeysEnumerator .cxx_construct]', symObjAddr: 0x570, symBinAddr: 0x24974, symSize: 0x14 }
  - { offsetInCU: 0x12DE1, offset: 0x212B4F, size: 0x8, addend: 0x0, symName: '-[DictionaryAdapterObjectKeysEnumerator initWithProperties:isolate:cache:]', symObjAddr: 0x584, symBinAddr: 0x24988, symSize: 0x100 }
  - { offsetInCU: 0x13189, offset: 0x212EF7, size: 0x8, addend: 0x0, symName: '-[DictionaryAdapterObjectKeysEnumerator getProperties]', symObjAddr: 0x684, symBinAddr: 0x24A88, symSize: 0x1D4 }
  - { offsetInCU: 0x139DA, offset: 0x213748, size: 0x8, addend: 0x0, symName: '-[DictionaryAdapterObjectKeysEnumerator nextObject]', symObjAddr: 0x858, symBinAddr: 0x24C5C, symSize: 0x240 }
  - { offsetInCU: 0x143A1, offset: 0x21410F, size: 0x8, addend: 0x0, symName: '-[DictionaryAdapterObjectKeysEnumerator allObjects]', symObjAddr: 0xB54, symBinAddr: 0x24E9C, symSize: 0x25C }
  - { offsetInCU: 0x14B55, offset: 0x2148C3, size: 0x8, addend: 0x0, symName: '-[DictionaryAdapterObjectKeysEnumerator dealloc]', symObjAddr: 0xDB0, symBinAddr: 0x250F8, symSize: 0x9C }
  - { offsetInCU: 0x14C81, offset: 0x2149EF, size: 0x8, addend: 0x0, symName: '-[DictionaryAdapterObjectKeysEnumerator .cxx_destruct]', symObjAddr: 0xE4C, symBinAddr: 0x25194, symSize: 0x10 }
  - { offsetInCU: 0x14CDD, offset: 0x214A4B, size: 0x8, addend: 0x0, symName: '-[DictionaryAdapterObjectKeysEnumerator .cxx_construct]', symObjAddr: 0xE5C, symBinAddr: 0x251A4, symSize: 0x14 }
  - { offsetInCU: 0x14DD0, offset: 0x214B3E, size: 0x8, addend: 0x0, symName: '-[DictionaryAdapter initWithJSObject:isolate:]', symObjAddr: 0xE70, symBinAddr: 0x251B8, symSize: 0x220 }
  - { offsetInCU: 0x15471, offset: 0x2151DF, size: 0x8, addend: 0x0, symName: __ZN10robin_hood6detail5TableILb1ELm80EP11objc_objectNSt3__110shared_ptrIN2v810PersistentINS6_5ValueENS6_27NonCopyablePersistentTraitsIS8_EEEEEENS_4hashIS3_vEENS4_8equal_toIS3_EEE7emplaceIJRP17DictionaryAdapterRSC_EEENS4_4pairINSH_4IterILb0EEEbEEDpOT_, symObjAddr: 0x1090, symBinAddr: 0x253D8, symSize: 0x138 }
  - { offsetInCU: 0x15DF6, offset: 0x215B64, size: 0x8, addend: 0x0, symName: '-[DictionaryAdapter count]', symObjAddr: 0x11C8, symBinAddr: 0x25510, symSize: 0x210 }
  - { offsetInCU: 0x16593, offset: 0x216301, size: 0x8, addend: 0x0, symName: '-[DictionaryAdapter objectForKey:]', symObjAddr: 0x13D8, symBinAddr: 0x25720, symSize: 0x36C }
  - { offsetInCU: 0x171FA, offset: 0x216F68, size: 0x8, addend: 0x0, symName: '-[DictionaryAdapter keyEnumerator]', symObjAddr: 0x1744, symBinAddr: 0x25A8C, symSize: 0x2E4 }
  - { offsetInCU: 0x17A8C, offset: 0x2177FA, size: 0x8, addend: 0x0, symName: '-[DictionaryAdapter dealloc]', symObjAddr: 0x1A28, symBinAddr: 0x25D70, symSize: 0x248 }
  - { offsetInCU: 0x18269, offset: 0x217FD7, size: 0x8, addend: 0x0, symName: '-[DictionaryAdapter .cxx_destruct]', symObjAddr: 0x1D34, symBinAddr: 0x25FB8, symSize: 0x10 }
  - { offsetInCU: 0x182C5, offset: 0x218033, size: 0x8, addend: 0x0, symName: '-[DictionaryAdapter .cxx_construct]', symObjAddr: 0x1D44, symBinAddr: 0x25FC8, symSize: 0x14 }
  - { offsetInCU: 0x7E58, offset: 0x220EDF, size: 0x8, addend: 0x0, symName: __ZNSt3__119__allocate_at_leastB7v160006INS_9allocatorINS_10unique_ptrIvPFvPKvEEEEEEENS_19__allocation_resultINS_16allocator_traitsIT_E7pointerEEERSB_m, symObjAddr: 0x1EAC, symBinAddr: 0x27B98, symSize: 0x34 }
  - { offsetInCU: 0x7EFD, offset: 0x220F84, size: 0x8, addend: 0x0, symName: __ZNSt3__142__uninitialized_allocator_move_if_noexceptB7v160006INS_9allocatorINS_10unique_ptrIvPFvPKvEEEEENS_16reverse_iteratorIPS7_EESB_SB_EET2_RT_T0_T1_SC_, symObjAddr: 0x1EE0, symBinAddr: 0x27BCC, symSize: 0x94 }
  - { offsetInCU: 0x80C9, offset: 0x221150, size: 0x8, addend: 0x0, symName: __ZNSt3__115allocate_sharedB7v160006INS_6vectorINS_10shared_ptrIN2v810PersistentINS3_5ValueENS3_27NonCopyablePersistentTraitsIS5_EEEEEENS_9allocatorIS9_EEEENSA_ISC_EEJRiEvEENS2_IT_EERKT0_DpOT1_, symObjAddr: 0x22E0, symBinAddr: 0x27FCC, symSize: 0x58 }
  - { offsetInCU: 0x8347, offset: 0x2213CE, size: 0x8, addend: 0x0, symName: __ZNSt3__115allocate_sharedB7v160006IN2v810PersistentINS1_5ValueENS1_27NonCopyablePersistentTraitsIS3_EEEENS_9allocatorIS6_EEJRPNS1_7IsolateENS1_5LocalIS3_EEEvEENS_10shared_ptrIT_EERKT0_DpOT1_, symObjAddr: 0x25BC, symBinAddr: 0x282A8, symSize: 0x60 }
  - { offsetInCU: 0x85E3, offset: 0x22166A, size: 0x8, addend: 0x0, symName: __ZNSt3__115allocate_sharedB7v160006IN3tns9TimerTaskENS_9allocatorIS2_EEJRPN2v87IsolateERNS5_5LocalINS5_8FunctionEEERlRbRNS_10shared_ptrINS_6vectorINSF_INS5_10PersistentINS5_5ValueENS5_27NonCopyablePersistentTraitsISI_EEEEEENS3_ISM_EEEEEERidEvEENSF_IT_EERKT0_DpOT1_, symObjAddr: 0x26C4, symBinAddr: 0x28370, symSize: 0xA0 }
  - { offsetInCU: 0x8CDA, offset: 0x221D61, size: 0x8, addend: 0x0, symName: __ZNSt3__142__uninitialized_allocator_move_if_noexceptB7v160006INS_9allocatorINS_10unique_ptrIvPFvPKvEEEEENS_16reverse_iteratorIPS7_EESB_SB_EET2_RT_T0_T1_SC_, symObjAddr: 0x1EE0, symBinAddr: 0x27BCC, symSize: 0x94 }
  - { offsetInCU: 0x8FAD, offset: 0x222034, size: 0x8, addend: 0x0, symName: __ZNSt3__119__allocator_destroyB7v160006INS_9allocatorINS_10unique_ptrIvPFvPKvEEEEENS_16reverse_iteratorINS9_IPS7_EEEESC_EEvRT_T0_T1_, symObjAddr: 0x201C, symBinAddr: 0x27D08, symSize: 0x60 }
  - { offsetInCU: 0x9180, offset: 0x222207, size: 0x8, addend: 0x0, symName: __ZNSt3__120__throw_out_of_rangeB7v160006EPKc, symObjAddr: 0x226C, symBinAddr: 0x27F58, symSize: 0x50 }
  - { offsetInCU: 0x943A, offset: 0x2224C1, size: 0x8, addend: 0x0, symName: __ZNSt3__119__allocate_at_leastB7v160006INS_9allocatorINS_10shared_ptrIN2v810PersistentINS3_5ValueENS3_27NonCopyablePersistentTraitsIS5_EEEEEEEEEENS_19__allocation_resultINS_16allocator_traitsIT_E7pointerEEERSD_m, symObjAddr: 0x24AC, symBinAddr: 0x28198, symSize: 0x34 }
  - { offsetInCU: 0x94DF, offset: 0x222566, size: 0x8, addend: 0x0, symName: __ZNSt3__128__exception_guard_exceptionsINS_6vectorINS_10shared_ptrIN2v810PersistentINS3_5ValueENS3_27NonCopyablePersistentTraitsIS5_EEEEEENS_9allocatorIS9_EEE16__destroy_vectorEED2B7v160006Ev, symObjAddr: 0x24E0, symBinAddr: 0x281CC, symSize: 0x34 }
  - { offsetInCU: 0xA2C6, offset: 0x22334D, size: 0x8, addend: 0x0, symName: __ZN3tns13TimerCallbackEP16__CFRunLoopTimerPv, symObjAddr: 0x4D8, symBinAddr: 0x264B4, symSize: 0x2C0 }
  - { offsetInCU: 0x10E98, offset: 0x229F1F, size: 0x8, addend: 0x0, symName: __ZNSt3__16vectorINS_10unique_ptrIvPFvPKvEEENS_9allocatorIS6_EEE26__swap_out_circular_bufferERNS_14__split_bufferIS6_RS8_EE, symObjAddr: 0x1DB0, symBinAddr: 0x27B10, symSize: 0x74 }
  - { offsetInCU: 0x13224, offset: 0x22C2AB, size: 0x8, addend: 0x0, symName: __ZN3tns6Timers4InitEPN2v87IsolateENS1_5LocalINS1_14ObjectTemplateEEE, symObjAddr: 0x0, symBinAddr: 0x25FDC, symSize: 0x2D8 }
  - { offsetInCU: 0x13A84, offset: 0x22CB0B, size: 0x8, addend: 0x0, symName: __ZN3tns6Caches24registerCacheBoundObjectINS_10TimerStateEEEvPT_, symObjAddr: 0x2D8, symBinAddr: 0x262B4, symSize: 0x114 }
  - { offsetInCU: 0x1449D, offset: 0x22D524, size: 0x8, addend: 0x0, symName: __ZNSt3__114__split_bufferINS_10unique_ptrIvPFvPKvEEERNS_9allocatorIS6_EEED2Ev, symObjAddr: 0x207C, symBinAddr: 0x27D68, symSize: 0x34 }
  - { offsetInCU: 0x145A9, offset: 0x22D630, size: 0x8, addend: 0x0, symName: __ZNKSt3__16vectorINS_10unique_ptrIvPFvPKvEEENS_9allocatorIS6_EEE20__throw_length_errorB7v160006Ev, symObjAddr: 0x1E24, symBinAddr: 0x27B84, symSize: 0x14 }
  - { offsetInCU: 0x14607, offset: 0x22D68E, size: 0x8, addend: 0x0, symName: __ZZN3tns6Caches11unique_voidINS_10TimerStateEEENSt3__110unique_ptrIvPFvPKvEEEPT_ENUlS6_E_8__invokeES6_, symObjAddr: 0x2108, symBinAddr: 0x27DF4, symSize: 0x40 }
  - { offsetInCU: 0x146C1, offset: 0x22D748, size: 0x8, addend: 0x0, symName: __ZN3tns6Timers18SetTimeoutCallbackERKN2v820FunctionCallbackInfoINS1_5ValueEEE, symObjAddr: 0x3EC, symBinAddr: 0x263C8, symSize: 0x8 }
  - { offsetInCU: 0x146F4, offset: 0x22D77B, size: 0x8, addend: 0x0, symName: __ZN3tns6Timers8SetTimerERKN2v820FunctionCallbackInfoINS1_5ValueEEEb, symObjAddr: 0x798, symBinAddr: 0x26774, symSize: 0x4C8 }
  - { offsetInCU: 0x155FC, offset: 0x22E683, size: 0x8, addend: 0x0, symName: __ZN3tns6Timers19SetIntervalCallbackERKN2v820FunctionCallbackInfoINS1_5ValueEEE, symObjAddr: 0x3F4, symBinAddr: 0x263D0, symSize: 0x8 }
  - { offsetInCU: 0x158B8, offset: 0x22E93F, size: 0x8, addend: 0x0, symName: __ZN3tns6Timers20ClearTimeoutCallbackERKN2v820FunctionCallbackInfoINS1_5ValueEEE, symObjAddr: 0x3FC, symBinAddr: 0x263D8, symSize: 0xDC }
  - { offsetInCU: 0x15BFF, offset: 0x22EC86, size: 0x8, addend: 0x0, symName: __ZN3tns10TimerState10removeTaskERKi, symObjAddr: 0xD60, symBinAddr: 0x26CE0, symSize: 0xAC }
  - { offsetInCU: 0x160FD, offset: 0x22F184, size: 0x8, addend: 0x0, symName: __ZNKSt3__16vectorINS_10shared_ptrIN2v810PersistentINS2_5ValueENS2_27NonCopyablePersistentTraitsIS4_EEEEEENS_9allocatorIS8_EEE20__throw_out_of_rangeB7v160006Ev, symObjAddr: 0x2258, symBinAddr: 0x27F44, symSize: 0x14 }
  - { offsetInCU: 0x16127, offset: 0x22F1AE, size: 0x8, addend: 0x0, symName: __ZNSt3__120__throw_out_of_rangeB7v160006EPKc, symObjAddr: 0x226C, symBinAddr: 0x27F58, symSize: 0x50 }
  - { offsetInCU: 0x16132, offset: 0x22F1B9, size: 0x8, addend: 0x0, symName: __ZNSt3__110shared_ptrIN3tns9TimerTaskEED2B7v160006Ev, symObjAddr: 0x1D60, symBinAddr: 0x27AC0, symSize: 0x50 }
  - { offsetInCU: 0x1656B, offset: 0x22F5F2, size: 0x8, addend: 0x0, symName: __ZNSt3__110shared_ptrIN3tns9TimerTaskEEaSB7v160006ERKS3_, symObjAddr: 0xCBC, symBinAddr: 0x26C3C, symSize: 0x68 }
  - { offsetInCU: 0x167FE, offset: 0x22F885, size: 0x8, addend: 0x0, symName: __ZN10robin_hood6detail5TableILb1ELm80EiNSt3__110shared_ptrIN3tns9TimerTaskEEENS_4hashIivEENS2_8equal_toIiEEE7emplaceIJRiRS6_EEENS2_4pairINSB_4IterILb0EEEbEEDpOT_, symObjAddr: 0x1034, symBinAddr: 0x26E80, symSize: 0x140 }
  - { offsetInCU: 0x16D65, offset: 0x22FDEC, size: 0x8, addend: 0x0, symName: __ZN3tns12TimerContext12TimerReleaseEPKv, symObjAddr: 0xD30, symBinAddr: 0x26CB0, symSize: 0x30 }
  - { offsetInCU: 0x16E34, offset: 0x22FEBB, size: 0x8, addend: 0x0, symName: __ZNSt3__110shared_ptrINS_6vectorINS0_IN2v810PersistentINS2_5ValueENS2_27NonCopyablePersistentTraitsIS4_EEEEEENS_9allocatorIS8_EEEEED2B7v160006Ev, symObjAddr: 0x1D10, symBinAddr: 0x27A70, symSize: 0x50 }
  - { offsetInCU: 0x16F51, offset: 0x22FFD8, size: 0x8, addend: 0x0, symName: __ZN3tns12TimerContext11TimerRetainEPKv, symObjAddr: 0xD24, symBinAddr: 0x26CA4, symSize: 0xC }
  - { offsetInCU: 0x1704C, offset: 0x2300D3, size: 0x8, addend: 0x0, symName: __ZN3tns12TimerContextD2Ev, symObjAddr: 0xF6C, symBinAddr: 0x26DB8, symSize: 0x74 }
  - { offsetInCU: 0x171CB, offset: 0x230252, size: 0x8, addend: 0x0, symName: __ZNK10robin_hood6detail5TableILb1ELm80EiNSt3__110shared_ptrIN3tns9TimerTaskEEENS_4hashIivEENS2_8equal_toIiEEE7findIdxIiEEmRKT_, symObjAddr: 0x1AE8, symBinAddr: 0x278E8, symSize: 0xE8 }
  - { offsetInCU: 0x17228, offset: 0x2302AF, size: 0x8, addend: 0x0, symName: __ZNK10robin_hood6detail5TableILb1ELm80EiNSt3__110shared_ptrIN3tns9TimerTaskEEENS_4hashIivEENS2_8equal_toIiEEE7findIdxIiEEmRKT_, symObjAddr: 0x1AE8, symBinAddr: 0x278E8, symSize: 0xE8 }
  - { offsetInCU: 0x17256, offset: 0x2302DD, size: 0x8, addend: 0x0, symName: __ZNK10robin_hood6detail5TableILb1ELm80EiNSt3__110shared_ptrIN3tns9TimerTaskEEENS_4hashIivEENS2_8equal_toIiEEE7findIdxIiEEmRKT_, symObjAddr: 0x1AE8, symBinAddr: 0x278E8, symSize: 0xE8 }
  - { offsetInCU: 0x17363, offset: 0x2303EA, size: 0x8, addend: 0x0, symName: __ZNSt3__110shared_ptrINS_6vectorINS0_IN2v810PersistentINS2_5ValueENS2_27NonCopyablePersistentTraitsIS4_EEEEEENS_9allocatorIS8_EEEEE5resetB7v160006Ev, symObjAddr: 0xFE0, symBinAddr: 0x26E2C, symSize: 0x54 }
  - { offsetInCU: 0x1745A, offset: 0x2304E1, size: 0x8, addend: 0x0, symName: __ZN10robin_hood6detail5TableILb1ELm80EiNSt3__110shared_ptrIN3tns9TimerTaskEEENS_4hashIivEENS2_8equal_toIiEEE5eraseENSB_4IterILb0EEE, symObjAddr: 0x1A48, symBinAddr: 0x27848, symSize: 0xA0 }
  - { offsetInCU: 0x17511, offset: 0x230598, size: 0x8, addend: 0x0, symName: __Z24_register_isolate_timersPN2v87IsolateENS_5LocalINS_16FunctionTemplateEEE, symObjAddr: 0xE0C, symBinAddr: 0x26D8C, symSize: 0x2C }
  - { offsetInCU: 0x17B73, offset: 0x230BFA, size: 0x8, addend: 0x0, symName: __ZN10robin_hood6detail5TableILb1ELm80EiNSt3__110shared_ptrIN3tns9TimerTaskEEENS_4hashIivEENS2_8equal_toIiEEE25insertKeyPrepareEmptySpotIRKiEENS2_4pairImNSB_14InsertionStateEEEOT_, symObjAddr: 0x1174, symBinAddr: 0x26FC0, symSize: 0x1A0 }
  - { offsetInCU: 0x17D15, offset: 0x230D9C, size: 0x8, addend: 0x0, symName: __ZNSt3__110shared_ptrIN3tns9TimerTaskEEaSB7v160006EOS3_, symObjAddr: 0x19C8, symBinAddr: 0x277EC, symSize: 0x5C }
  - { offsetInCU: 0x17E73, offset: 0x230EFA, size: 0x8, addend: 0x0, symName: __ZNK10robin_hood6detail5TableILb1ELm80EiNSt3__110shared_ptrIN3tns9TimerTaskEEENS_4hashIivEENS2_8equal_toIiEEE18throwOverflowErrorEv, symObjAddr: 0x1314, symBinAddr: 0x27160, symSize: 0x50 }
  - { offsetInCU: 0x17FB8, offset: 0x23103F, size: 0x8, addend: 0x0, symName: __ZN10robin_hood6detail5TableILb1ELm80EiNSt3__110shared_ptrIN3tns9TimerTaskEEENS_4hashIivEENS2_8equal_toIiEEE13increase_sizeEv, symObjAddr: 0x1364, symBinAddr: 0x271B0, symSize: 0x12C }
  - { offsetInCU: 0x18082, offset: 0x231109, size: 0x8, addend: 0x0, symName: __ZN10robin_hood6detail5TableILb1ELm80EiNSt3__110shared_ptrIN3tns9TimerTaskEEENS_4hashIivEENS2_8equal_toIiEEE7shiftUpEmm, symObjAddr: 0x1490, symBinAddr: 0x272DC, symSize: 0xEC }
  - { offsetInCU: 0x18275, offset: 0x2312FC, size: 0x8, addend: 0x0, symName: __ZN10robin_hood6detail5TableILb1ELm80EiNSt3__110shared_ptrIN3tns9TimerTaskEEENS_4hashIivEENS2_8equal_toIiEEE17try_increase_infoEv, symObjAddr: 0x1658, symBinAddr: 0x274A4, symSize: 0x100 }
  - { offsetInCU: 0x1837C, offset: 0x231403, size: 0x8, addend: 0x0, symName: __ZN10robin_hood6detail5TableILb1ELm80EiNSt3__110shared_ptrIN3tns9TimerTaskEEENS_4hashIivEENS2_8equal_toIiEEE8initDataEm, symObjAddr: 0x157C, symBinAddr: 0x273C8, symSize: 0xDC }
  - { offsetInCU: 0x18496, offset: 0x23151D, size: 0x8, addend: 0x0, symName: __ZN10robin_hood6detail5TableILb1ELm80EiNSt3__110shared_ptrIN3tns9TimerTaskEEENS_4hashIivEENS2_8equal_toIiEEE17try_increase_infoEv, symObjAddr: 0x1658, symBinAddr: 0x274A4, symSize: 0x100 }
  - { offsetInCU: 0x184A1, offset: 0x231528, size: 0x8, addend: 0x0, symName: __ZN10robin_hood6detail5TableILb1ELm80EiNSt3__110shared_ptrIN3tns9TimerTaskEEENS_4hashIivEENS2_8equal_toIiEEE16rehashPowerOfTwoEmb, symObjAddr: 0x1758, symBinAddr: 0x275A4, symSize: 0xF8 }
  - { offsetInCU: 0x18703, offset: 0x23178A, size: 0x8, addend: 0x0, symName: __ZN10robin_hood6detail5TableILb1ELm80EiNSt3__110shared_ptrIN3tns9TimerTaskEEENS_4hashIivEENS2_8equal_toIiEEE11insert_moveEONSB_8DataNodeISB_Lb1EEE, symObjAddr: 0x1878, symBinAddr: 0x2769C, symSize: 0x150 }
  - { offsetInCU: 0x18A34, offset: 0x231ABB, size: 0x8, addend: 0x0, symName: __ZN10robin_hood6detail5TableILb1ELm80EiNSt3__110shared_ptrIN3tns9TimerTaskEEENS_4hashIivEENS2_8equal_toIiEEE9shiftDownEm, symObjAddr: 0x1BD0, symBinAddr: 0x279D0, symSize: 0xA0 }
  - { offsetInCU: 0x18CA9, offset: 0x231D30, size: 0x8, addend: 0x0, symName: __ZNSt3__128__exception_guard_exceptionsINS_29_AllocatorDestroyRangeReverseINS_9allocatorINS_10unique_ptrIvPFvPKvEEEEENS_16reverse_iteratorIPS8_EEEEED2B7v160006Ev, symObjAddr: 0x1F74, symBinAddr: 0x27C60, symSize: 0x34 }
  - { offsetInCU: 0x18CE2, offset: 0x231D69, size: 0x8, addend: 0x0, symName: __ZNKSt3__129_AllocatorDestroyRangeReverseINS_9allocatorINS_10unique_ptrIvPFvPKvEEEEENS_16reverse_iteratorIPS7_EEEclB7v160006Ev, symObjAddr: 0x1FA8, symBinAddr: 0x27C94, symSize: 0x74 }
  - { offsetInCU: 0x18EF7, offset: 0x231F7E, size: 0x8, addend: 0x0, symName: __ZNSt3__114__split_bufferINS_10unique_ptrIvPFvPKvEEERNS_9allocatorIS6_EEE17__destruct_at_endB7v160006EPS6_, symObjAddr: 0x20B0, symBinAddr: 0x27D9C, symSize: 0x58 }
  - { offsetInCU: 0x19086, offset: 0x23210D, size: 0x8, addend: 0x0, symName: __ZN10robin_hood6detail5TableILb1ELm80EiNSt3__110shared_ptrIN3tns9TimerTaskEEENS_4hashIivEENS2_8equal_toIiEEE7destroyEv, symObjAddr: 0x2148, symBinAddr: 0x27E34, symSize: 0x4C }
  - { offsetInCU: 0x190C5, offset: 0x23214C, size: 0x8, addend: 0x0, symName: __ZNK10robin_hood6detail5TableILb1ELm80EiNSt3__110shared_ptrIN3tns9TimerTaskEEENS_4hashIivEENS2_8equal_toIiEEE9DestroyerISB_Lb0EE20nodesDoNotDeallocateERSB_, symObjAddr: 0x2194, symBinAddr: 0x27E80, symSize: 0xC4 }
  - { offsetInCU: 0x19271, offset: 0x2322F8, size: 0x8, addend: 0x0, symName: __ZNSt12out_of_rangeC1B7v160006EPKc, symObjAddr: 0x22BC, symBinAddr: 0x27FA8, symSize: 0x24 }
  - { offsetInCU: 0x1950C, offset: 0x232593, size: 0x8, addend: 0x0, symName: __ZNSt3__120__shared_ptr_emplaceINS_6vectorINS_10shared_ptrIN2v810PersistentINS3_5ValueENS3_27NonCopyablePersistentTraitsIS5_EEEEEENS_9allocatorIS9_EEEENSA_ISC_EEEC2B7v160006IJRiEEESD_DpOT_, symObjAddr: 0x2338, symBinAddr: 0x28024, symSize: 0x50 }
  - { offsetInCU: 0x19605, offset: 0x23268C, size: 0x8, addend: 0x0, symName: __ZNSt3__16vectorINS_10shared_ptrIN2v810PersistentINS2_5ValueENS2_27NonCopyablePersistentTraitsIS4_EEEEEENS_9allocatorIS8_EEEC2Em, symObjAddr: 0x23CC, symBinAddr: 0x280B8, symSize: 0x8C }
  - { offsetInCU: 0x19888, offset: 0x23290F, size: 0x8, addend: 0x0, symName: __ZNSt3__120__shared_ptr_emplaceINS_6vectorINS_10shared_ptrIN2v810PersistentINS3_5ValueENS3_27NonCopyablePersistentTraitsIS5_EEEEEENS_9allocatorIS9_EEEENSA_ISC_EEED1Ev, symObjAddr: 0x2388, symBinAddr: 0x28074, symSize: 0x14 }
  - { offsetInCU: 0x198AA, offset: 0x232931, size: 0x8, addend: 0x0, symName: __ZNSt3__120__shared_ptr_emplaceINS_6vectorINS_10shared_ptrIN2v810PersistentINS3_5ValueENS3_27NonCopyablePersistentTraitsIS5_EEEEEENS_9allocatorIS9_EEEENSA_ISC_EEED1Ev, symObjAddr: 0x2388, symBinAddr: 0x28074, symSize: 0x14 }
  - { offsetInCU: 0x198E1, offset: 0x232968, size: 0x8, addend: 0x0, symName: __ZNSt3__120__shared_ptr_emplaceINS_6vectorINS_10shared_ptrIN2v810PersistentINS3_5ValueENS3_27NonCopyablePersistentTraitsIS5_EEEEEENS_9allocatorIS9_EEEENSA_ISC_EEED0Ev, symObjAddr: 0x239C, symBinAddr: 0x28088, symSize: 0x24 }
  - { offsetInCU: 0x19960, offset: 0x2329E7, size: 0x8, addend: 0x0, symName: __ZNSt3__120__shared_ptr_emplaceINS_6vectorINS_10shared_ptrIN2v810PersistentINS3_5ValueENS3_27NonCopyablePersistentTraitsIS5_EEEEEENS_9allocatorIS9_EEEENSA_ISC_EEE16__on_zero_sharedEv, symObjAddr: 0x23C0, symBinAddr: 0x280AC, symSize: 0x8 }
  - { offsetInCU: 0x1998A, offset: 0x232A11, size: 0x8, addend: 0x0, symName: __ZNSt3__120__shared_ptr_emplaceINS_6vectorINS_10shared_ptrIN2v810PersistentINS3_5ValueENS3_27NonCopyablePersistentTraitsIS5_EEEEEENS_9allocatorIS9_EEEENSA_ISC_EEE16__on_zero_sharedEv, symObjAddr: 0x23C0, symBinAddr: 0x280AC, symSize: 0x8 }
  - { offsetInCU: 0x199D1, offset: 0x232A58, size: 0x8, addend: 0x0, symName: __ZNSt3__16vectorINS_10shared_ptrIN2v810PersistentINS2_5ValueENS2_27NonCopyablePersistentTraitsIS4_EEEEEENS_9allocatorIS8_EEED2B7v160006Ev, symObjAddr: 0x2584, symBinAddr: 0x28270, symSize: 0x38 }
  - { offsetInCU: 0x19A58, offset: 0x232ADF, size: 0x8, addend: 0x0, symName: __ZNSt3__120__shared_ptr_emplaceINS_6vectorINS_10shared_ptrIN2v810PersistentINS3_5ValueENS3_27NonCopyablePersistentTraitsIS5_EEEEEENS_9allocatorIS9_EEEENSA_ISC_EEE21__on_zero_shared_weakEv, symObjAddr: 0x23C8, symBinAddr: 0x280B4, symSize: 0x4 }
  - { offsetInCU: 0x19A8C, offset: 0x232B13, size: 0x8, addend: 0x0, symName: __ZNSt3__120__shared_ptr_emplaceINS_6vectorINS_10shared_ptrIN2v810PersistentINS3_5ValueENS3_27NonCopyablePersistentTraitsIS5_EEEEEENS_9allocatorIS9_EEEENSA_ISC_EEE21__on_zero_shared_weakEv, symObjAddr: 0x23C8, symBinAddr: 0x280B4, symSize: 0x4 }
  - { offsetInCU: 0x19AB0, offset: 0x232B37, size: 0x8, addend: 0x0, symName: __ZNSt3__120__shared_ptr_emplaceINS_6vectorINS_10shared_ptrIN2v810PersistentINS3_5ValueENS3_27NonCopyablePersistentTraitsIS5_EEEEEENS_9allocatorIS9_EEEENSA_ISC_EEE21__on_zero_shared_weakEv, symObjAddr: 0x23C8, symBinAddr: 0x280B4, symSize: 0x4 }
  - { offsetInCU: 0x19AD4, offset: 0x232B5B, size: 0x8, addend: 0x0, symName: __ZNSt3__120__shared_ptr_emplaceINS_6vectorINS_10shared_ptrIN2v810PersistentINS3_5ValueENS3_27NonCopyablePersistentTraitsIS5_EEEEEENS_9allocatorIS9_EEEENSA_ISC_EEE21__on_zero_shared_weakEv, symObjAddr: 0x23C8, symBinAddr: 0x280B4, symSize: 0x4 }
  - { offsetInCU: 0x19B01, offset: 0x232B88, size: 0x8, addend: 0x0, symName: __ZNSt3__120__shared_ptr_emplaceINS_6vectorINS_10shared_ptrIN2v810PersistentINS3_5ValueENS3_27NonCopyablePersistentTraitsIS5_EEEEEENS_9allocatorIS9_EEEENSA_ISC_EEE21__on_zero_shared_weakEv, symObjAddr: 0x23C8, symBinAddr: 0x280B4, symSize: 0x4 }
  - { offsetInCU: 0x19B29, offset: 0x232BB0, size: 0x8, addend: 0x0, symName: __ZNSt3__120__shared_ptr_emplaceINS_6vectorINS_10shared_ptrIN2v810PersistentINS3_5ValueENS3_27NonCopyablePersistentTraitsIS5_EEEEEENS_9allocatorIS9_EEEENSA_ISC_EEE21__on_zero_shared_weakEv, symObjAddr: 0x23C8, symBinAddr: 0x280B4, symSize: 0x4 }
  - { offsetInCU: 0x19D63, offset: 0x232DEA, size: 0x8, addend: 0x0, symName: __ZNSt3__16vectorINS_10shared_ptrIN2v810PersistentINS2_5ValueENS2_27NonCopyablePersistentTraitsIS4_EEEEEENS_9allocatorIS8_EEE11__vallocateB7v160006Em, symObjAddr: 0x2458, symBinAddr: 0x28144, symSize: 0x40 }
  - { offsetInCU: 0x19DDB, offset: 0x232E62, size: 0x8, addend: 0x0, symName: __ZNKSt3__16vectorINS_10shared_ptrIN2v810PersistentINS2_5ValueENS2_27NonCopyablePersistentTraitsIS4_EEEEEENS_9allocatorIS8_EEE20__throw_length_errorB7v160006Ev, symObjAddr: 0x2498, symBinAddr: 0x28184, symSize: 0x14 }
  - { offsetInCU: 0x19DE6, offset: 0x232E6D, size: 0x8, addend: 0x0, symName: __ZNSt3__128__exception_guard_exceptionsINS_6vectorINS_10shared_ptrIN2v810PersistentINS3_5ValueENS3_27NonCopyablePersistentTraitsIS5_EEEEEENS_9allocatorIS9_EEE16__destroy_vectorEED2B7v160006Ev, symObjAddr: 0x24E0, symBinAddr: 0x281CC, symSize: 0x34 }
  - { offsetInCU: 0x19E34, offset: 0x232EBB, size: 0x8, addend: 0x0, symName: __ZNKSt3__16vectorINS_10shared_ptrIN2v810PersistentINS2_5ValueENS2_27NonCopyablePersistentTraitsIS4_EEEEEENS_9allocatorIS8_EEE20__throw_length_errorB7v160006Ev, symObjAddr: 0x2498, symBinAddr: 0x28184, symSize: 0x14 }
  - { offsetInCU: 0x19E5E, offset: 0x232EE5, size: 0x8, addend: 0x0, symName: __ZNSt3__119__allocate_at_leastB7v160006INS_9allocatorINS_10shared_ptrIN2v810PersistentINS3_5ValueENS3_27NonCopyablePersistentTraitsIS5_EEEEEEEEEENS_19__allocation_resultINS_16allocator_traitsIT_E7pointerEEERSD_m, symObjAddr: 0x24AC, symBinAddr: 0x28198, symSize: 0x34 }
  - { offsetInCU: 0x19E89, offset: 0x232F10, size: 0x8, addend: 0x0, symName: __ZNSt3__16vectorINS_10shared_ptrIN2v810PersistentINS2_5ValueENS2_27NonCopyablePersistentTraitsIS4_EEEEEENS_9allocatorIS8_EEE16__destroy_vectorclB7v160006Ev, symObjAddr: 0x2514, symBinAddr: 0x28200, symSize: 0x70 }
  - { offsetInCU: 0x1A34C, offset: 0x2333D3, size: 0x8, addend: 0x0, symName: __ZNSt3__120__shared_ptr_emplaceIN2v810PersistentINS1_5ValueENS1_27NonCopyablePersistentTraitsIS3_EEEENS_9allocatorIS6_EEEC2B7v160006IJRPNS1_7IsolateENS1_5LocalIS3_EEEEES8_DpOT_, symObjAddr: 0x261C, symBinAddr: 0x28308, symSize: 0x68 }
  - { offsetInCU: 0x1A7FE, offset: 0x233885, size: 0x8, addend: 0x0, symName: __ZNSt3__120__shared_ptr_emplaceIN3tns9TimerTaskENS_9allocatorIS2_EEEC2B7v160006IJRPN2v87IsolateERNS7_5LocalINS7_8FunctionEEERlRbRNS_10shared_ptrINS_6vectorINSH_INS7_10PersistentINS7_5ValueENS7_27NonCopyablePersistentTraitsISK_EEEEEENS3_ISO_EEEEEERidEEES4_DpOT_, symObjAddr: 0x2764, symBinAddr: 0x28410, symSize: 0x6C }
  - { offsetInCU: 0x1A9D4, offset: 0x233A5B, size: 0x8, addend: 0x0, symName: __ZN3tns9TimerTaskC2EPN2v87IsolateERKNS1_5LocalINS1_8FunctionEEEdbRKNSt3__110shared_ptrINS9_6vectorINSA_INS1_10PersistentINS1_5ValueENS1_27NonCopyablePersistentTraitsISD_EEEEEENS9_9allocatorISH_EEEEEEid, symObjAddr: 0x2814, symBinAddr: 0x284C0, symSize: 0x14C }
  - { offsetInCU: 0x1AE79, offset: 0x233F00, size: 0x8, addend: 0x0, symName: __ZNSt3__120__shared_ptr_emplaceIN3tns9TimerTaskENS_9allocatorIS2_EEED1Ev, symObjAddr: 0x27D0, symBinAddr: 0x2847C, symSize: 0x14 }
  - { offsetInCU: 0x1AE9B, offset: 0x233F22, size: 0x8, addend: 0x0, symName: __ZNSt3__120__shared_ptr_emplaceIN3tns9TimerTaskENS_9allocatorIS2_EEED1Ev, symObjAddr: 0x27D0, symBinAddr: 0x2847C, symSize: 0x14 }
  - { offsetInCU: 0x1AED2, offset: 0x233F59, size: 0x8, addend: 0x0, symName: __ZNSt3__120__shared_ptr_emplaceIN3tns9TimerTaskENS_9allocatorIS2_EEED0Ev, symObjAddr: 0x27E4, symBinAddr: 0x28490, symSize: 0x24 }
  - { offsetInCU: 0x1AF6D, offset: 0x233FF4, size: 0x8, addend: 0x0, symName: __ZNSt3__120__shared_ptr_emplaceIN3tns9TimerTaskENS_9allocatorIS2_EEE16__on_zero_sharedEv, symObjAddr: 0x2808, symBinAddr: 0x284B4, symSize: 0x8 }
  - { offsetInCU: 0x1AF97, offset: 0x23401E, size: 0x8, addend: 0x0, symName: __ZNSt3__120__shared_ptr_emplaceIN3tns9TimerTaskENS_9allocatorIS2_EEE16__on_zero_sharedEv, symObjAddr: 0x2808, symBinAddr: 0x284B4, symSize: 0x8 }
  - { offsetInCU: 0x1AFB7, offset: 0x23403E, size: 0x8, addend: 0x0, symName: __ZNSt3__120__shared_ptr_emplaceIN3tns9TimerTaskENS_9allocatorIS2_EEE16__on_zero_sharedEv, symObjAddr: 0x2808, symBinAddr: 0x284B4, symSize: 0x8 }
  - { offsetInCU: 0x1AFFE, offset: 0x234085, size: 0x8, addend: 0x0, symName: __ZNSt3__120__shared_ptr_emplaceIN3tns9TimerTaskENS_9allocatorIS2_EEE21__on_zero_shared_weakEv, symObjAddr: 0x2810, symBinAddr: 0x284BC, symSize: 0x4 }
  - { offsetInCU: 0x1B032, offset: 0x2340B9, size: 0x8, addend: 0x0, symName: __ZNSt3__120__shared_ptr_emplaceIN3tns9TimerTaskENS_9allocatorIS2_EEE21__on_zero_shared_weakEv, symObjAddr: 0x2810, symBinAddr: 0x284BC, symSize: 0x4 }
  - { offsetInCU: 0x1B056, offset: 0x2340DD, size: 0x8, addend: 0x0, symName: __ZNSt3__120__shared_ptr_emplaceIN3tns9TimerTaskENS_9allocatorIS2_EEE21__on_zero_shared_weakEv, symObjAddr: 0x2810, symBinAddr: 0x284BC, symSize: 0x4 }
  - { offsetInCU: 0x1B07A, offset: 0x234101, size: 0x8, addend: 0x0, symName: __ZNSt3__120__shared_ptr_emplaceIN3tns9TimerTaskENS_9allocatorIS2_EEE21__on_zero_shared_weakEv, symObjAddr: 0x2810, symBinAddr: 0x284BC, symSize: 0x4 }
  - { offsetInCU: 0x1B0A6, offset: 0x23412D, size: 0x8, addend: 0x0, symName: __ZNSt3__120__shared_ptr_emplaceIN3tns9TimerTaskENS_9allocatorIS2_EEE21__on_zero_shared_weakEv, symObjAddr: 0x2810, symBinAddr: 0x284BC, symSize: 0x4 }
  - { offsetInCU: 0x1B0CD, offset: 0x234154, size: 0x8, addend: 0x0, symName: __ZNSt3__120__shared_ptr_emplaceIN3tns9TimerTaskENS_9allocatorIS2_EEE21__on_zero_shared_weakEv, symObjAddr: 0x2810, symBinAddr: 0x284BC, symSize: 0x4 }
  - { offsetInCU: 0x26, offset: 0x234356, size: 0x8, addend: 0x0, symName: __ZN3tns9TSHelpers4InitEN2v85LocalINS1_7ContextEEE, symObjAddr: 0x0, symBinAddr: 0x2860C, symSize: 0x214 }
  - { offsetInCU: 0xCEFC, offset: 0x24122C, size: 0x8, addend: 0x0, symName: __ZN3tns9TSHelpers4InitEN2v85LocalINS1_7ContextEEE, symObjAddr: 0x0, symBinAddr: 0x2860C, symSize: 0x214 }
  - { offsetInCU: 0x9F72, offset: 0x24BF1A, size: 0x8, addend: 0x0, symName: __ZNSt3__1eqB7v160006IcNS_11char_traitsIcEENS_9allocatorIcEEEEbRKNS_12basic_stringIT_T0_T1_EEPKS6_, symObjAddr: 0x4F4, symBinAddr: 0x28D14, symSize: 0xA0 }
  - { offsetInCU: 0xCF37, offset: 0x24EEDF, size: 0x8, addend: 0x0, symName: __ZN3tns15InlineFunctions4InitEN2v85LocalINS1_7ContextEEE, symObjAddr: 0x0, symBinAddr: 0x28820, symSize: 0x174 }
  - { offsetInCU: 0xDA7B, offset: 0x24FA23, size: 0x8, addend: 0x0, symName: __ZN3tns15InlineFunctions16IsGlobalFunctionENSt3__112basic_stringIcNS1_11char_traitsIcEENS1_9allocatorIcEEEE, symObjAddr: 0x174, symBinAddr: 0x28994, symSize: 0x380 }
  - { offsetInCU: 0xE1DD, offset: 0x250185, size: 0x8, addend: 0x0, symName: __ZNKSt3__112basic_stringIcNS_11char_traitsIcEENS_9allocatorIcEEE20__throw_out_of_rangeB7v160006Ev, symObjAddr: 0x6C4, symBinAddr: 0x28DB4, symSize: 0x14 }
  - { offsetInCU: 0x11C7D, offset: 0x2620B0, size: 0x8, addend: 0x0, symName: __ZNSt3__111make_uniqueB7v160006IN2v810PersistentINS1_8FunctionENS1_27NonCopyablePersistentTraitsIS3_EEEEJRPNS1_7IsolateERNS1_5LocalIS3_EEEEENS_11__unique_ifIT_E15__unique_singleEDpOT0_, symObjAddr: 0x17D4, symBinAddr: 0x2A4E0, symSize: 0x6C }
  - { offsetInCU: 0x128E6, offset: 0x262D19, size: 0x8, addend: 0x0, symName: __ZNSt3__114__split_bufferINS_10shared_ptrIN2v810PersistentINS2_5ValueENS2_27NonCopyablePersistentTraitsIS4_EEEEEERNS_9allocatorIS8_EEED2Ev, symObjAddr: 0x10A40, symBinAddr: 0x36E1C, symSize: 0x4C }
  - { offsetInCU: 0x13213, offset: 0x263646, size: 0x8, addend: 0x0, symName: __ZNSt3__115allocate_sharedB7v160006IN2v810PersistentINS1_5ValueENS1_27NonCopyablePersistentTraitsIS3_EEEENS_9allocatorIS6_EEJRPNS1_7IsolateERNS1_5LocalIS3_EEEvEENS_10shared_ptrIT_EERKT0_DpOT1_, symObjAddr: 0x113E0, symBinAddr: 0x375FC, symSize: 0x60 }
  - { offsetInCU: 0x134AF, offset: 0x2638E2, size: 0x8, addend: 0x0, symName: __ZNSt3__1plB7v160006IcNS_11char_traitsIcEENS_9allocatorIcEEEENS_12basic_stringIT_T0_T1_EERKS9_SB_, symObjAddr: 0xA370, symBinAddr: 0x32C40, symSize: 0xB4 }
  - { offsetInCU: 0x140FF, offset: 0x264532, size: 0x8, addend: 0x0, symName: __ZNSt3__115allocate_sharedB7v160006IN2v810PersistentINS1_8FunctionENS1_27NonCopyablePersistentTraitsIS3_EEEENS_9allocatorIS6_EEJRPNS1_7IsolateENS1_5LocalIS3_EEEvEENS_10shared_ptrIT_EERKT0_DpOT1_, symObjAddr: 0x11788, symBinAddr: 0x37930, symSize: 0x60 }
  - { offsetInCU: 0x14671, offset: 0x264AA4, size: 0x8, addend: 0x0, symName: __ZNSt3__119__allocate_at_leastB7v160006INS_9allocatorINS_12basic_stringIcNS_11char_traitsIcEENS1_IcEEEEEEEENS_19__allocation_resultINS_16allocator_traitsIT_E7pointerEEERSA_m, symObjAddr: 0x101C4, symBinAddr: 0x36B24, symSize: 0x44 }
  - { offsetInCU: 0x14716, offset: 0x264B49, size: 0x8, addend: 0x0, symName: __ZNSt3__142__uninitialized_allocator_move_if_noexceptB7v160006INS_9allocatorINS_12basic_stringIcNS_11char_traitsIcEENS1_IcEEEEEENS_16reverse_iteratorIPS6_EESA_SA_EET2_RT_T0_T1_SB_, symObjAddr: 0x10208, symBinAddr: 0x36B68, symSize: 0x9C }
  - { offsetInCU: 0x1564C, offset: 0x265A7F, size: 0x8, addend: 0x0, symName: __ZNSt3__142__uninitialized_allocator_move_if_noexceptB7v160006INS_9allocatorINS_12basic_stringIcNS_11char_traitsIcEENS1_IcEEEEEENS_16reverse_iteratorIPS6_EESA_SA_EET2_RT_T0_T1_SB_, symObjAddr: 0x10208, symBinAddr: 0x36B68, symSize: 0x9C }
  - { offsetInCU: 0x1F944, offset: 0x26FD77, size: 0x8, addend: 0x0, symName: __ZNSt3__16vectorINS_12basic_stringIcNS_11char_traitsIcEENS_9allocatorIcEEEENS4_IS6_EEE26__swap_out_circular_bufferERNS_14__split_bufferIS6_RS7_EE, symObjAddr: 0x1013C, symBinAddr: 0x36A9C, symSize: 0x74 }
  - { offsetInCU: 0x1FC3A, offset: 0x27006D, size: 0x8, addend: 0x0, symName: __ZN3tns15MetadataBuilder17CFunctionCallbackERKN2v820FunctionCallbackInfoINS1_5ValueEEE, symObjAddr: 0x115C, symBinAddr: 0x29E68, symSize: 0x4D0 }
  - { offsetInCU: 0x211D7, offset: 0x27160A, size: 0x8, addend: 0x0, symName: __ZN3tns15MetadataBuilder30SwizzledInstanceMethodCallbackEN2v85LocalINS1_4NameEEENS2_INS1_5ValueEEERKNS1_20PropertyCallbackInfoIS5_EE, symObjAddr: 0x5C34, symBinAddr: 0x2E7D8, symSize: 0x74C }
  - { offsetInCU: 0x23C23, offset: 0x274056, size: 0x8, addend: 0x0, symName: __ZN3tns15MetadataBuilder24SwizzledPropertyCallbackEN2v85LocalINS1_4NameEEERKNS1_18PropertyDescriptorERKNS1_20PropertyCallbackInfoINS1_5ValueEEE, symObjAddr: 0x6380, symBinAddr: 0x2EF24, symSize: 0xC10 }
  - { offsetInCU: 0x299EE, offset: 0x279E21, size: 0x8, addend: 0x0, symName: __ZN3tns15MetadataBuilder31RegisterConstantsOnGlobalObjectEPN2v87IsolateENS1_5LocalINS1_14ObjectTemplateEEEb, symObjAddr: 0x0, symBinAddr: 0x28DC8, symSize: 0x108 }
  - { offsetInCU: 0x29D8A, offset: 0x27A1BD, size: 0x8, addend: 0x0, symName: __ZN3tns6Caches24registerCacheBoundObjectINS_15MetadataBuilder20GlobalHandlerContextEEEvPT_, symObjAddr: 0x154, symBinAddr: 0x28F1C, symSize: 0x110 }
  - { offsetInCU: 0x2A2D2, offset: 0x27A705, size: 0x8, addend: 0x0, symName: __ZN3tns6Caches3GetEPN2v87IsolateE, symObjAddr: 0x108, symBinAddr: 0x28ED0, symSize: 0x4C }
  - { offsetInCU: 0x2B3F4, offset: 0x27B827, size: 0x8, addend: 0x0, symName: __ZN3tns15MetadataBuilder20GlobalPropertyGetterEN2v85LocalINS1_4NameEEERKNS1_20PropertyCallbackInfoINS1_5ValueEEE, symObjAddr: 0x264, symBinAddr: 0x2902C, symSize: 0xB0C }
  - { offsetInCU: 0x2E4DA, offset: 0x27E90D, size: 0x8, addend: 0x0, symName: __ZNK10robin_hood6detail5TableILb1ELm80ENSt3__112basic_stringIcNS2_11char_traitsIcEENS2_9allocatorIcEEEENS2_10unique_ptrIN2v810PersistentINSA_8FunctionENSA_27NonCopyablePersistentTraitsISC_EEEENS2_14default_deleteISF_EEEENS_4hashIS8_vEENS2_8equal_toIS8_EEE7findIdxIS8_EEmRKT_, symObjAddr: 0xCA00, symBinAddr: 0x33B6C, symSize: 0x108 }
  - { offsetInCU: 0x2E4F1, offset: 0x27E924, size: 0x8, addend: 0x0, symName: __ZN3tns10StructInfoC1ERKS0_, symObjAddr: 0x1ED0, symBinAddr: 0x2AB8C, symSize: 0x58 }
  - { offsetInCU: 0x2E682, offset: 0x27EAB5, size: 0x8, addend: 0x0, symName: __ZN3tns15MetadataBuilder29GetOrCreateStructCtorFunctionEN2v85LocalINS1_7ContextEEENS_10StructInfoE, symObjAddr: 0x1AC8, symBinAddr: 0x2A784, symSize: 0x408 }
  - { offsetInCU: 0x2FBF0, offset: 0x280023, size: 0x8, addend: 0x0, symName: __ZNK3tns4Meta4nameEv, symObjAddr: 0xE2C, symBinAddr: 0x29B38, symSize: 0xE8 }
  - { offsetInCU: 0x2FF10, offset: 0x280343, size: 0x8, addend: 0x0, symName: __ZNK10robin_hood6detail5TableILb1ELm80ENSt3__112basic_stringIcNS2_11char_traitsIcEENS2_9allocatorIcEEEENS2_10unique_ptrIN2v810PersistentINSA_8FunctionENSA_27NonCopyablePersistentTraitsISC_EEEENS2_14default_deleteISF_EEEENS_4hashIS8_vEENS2_8equal_toIS8_EEE7findIdxIS8_EEmRKT_, symObjAddr: 0xCA00, symBinAddr: 0x33B6C, symSize: 0x108 }
  - { offsetInCU: 0x3004C, offset: 0x28047F, size: 0x8, addend: 0x0, symName: __ZNK3tns10JsCodeMeta6jsCodeEv, symObjAddr: 0x1A00, symBinAddr: 0x2A70C, symSize: 0x78 }
  - { offsetInCU: 0x302DF, offset: 0x280712, size: 0x8, addend: 0x0, symName: __ZNK3tns4Meta14topLevelModuleEv, symObjAddr: 0xFD0, symBinAddr: 0x29CDC, symSize: 0x78 }
  - { offsetInCU: 0x3056E, offset: 0x2809A1, size: 0x8, addend: 0x0, symName: __ZNK3tns7VarMeta8encodingEv, symObjAddr: 0x1988, symBinAddr: 0x2A694, symSize: 0x78 }
  - { offsetInCU: 0x30863, offset: 0x280C96, size: 0x8, addend: 0x0, symName: __ZN3tns6Caches24registerCacheBoundObjectINS_15MetadataBuilder9CacheItemINS_12FunctionMetaEEEEEvPT_, symObjAddr: 0x1048, symBinAddr: 0x29D54, symSize: 0x114 }
  - { offsetInCU: 0x30D31, offset: 0x281164, size: 0x8, addend: 0x0, symName: __ZNK3tns12FunctionMeta9encodingsEv, symObjAddr: 0x175C, symBinAddr: 0x2A468, symSize: 0x78 }
  - { offsetInCU: 0x30FC4, offset: 0x2813F7, size: 0x8, addend: 0x0, symName: __ZN3tns15MetadataBuilder28DefineFunctionLengthPropertyEN2v85LocalINS1_7ContextEEEPKNS_17TypeEncodingsListIiEENS2_INS1_8FunctionEEE, symObjAddr: 0x162C, symBinAddr: 0x2A338, symSize: 0x130 }
  - { offsetInCU: 0x3140E, offset: 0x281841, size: 0x8, addend: 0x0, symName: __ZN10robin_hood6detail5TableILb1ELm80ENSt3__112basic_stringIcNS2_11char_traitsIcEENS2_9allocatorIcEEEENS2_10unique_ptrIN2v810PersistentINSA_8FunctionENSA_27NonCopyablePersistentTraitsISC_EEEENS2_14default_deleteISF_EEEENS_4hashIS8_vEENS2_8equal_toIS8_EEE7emplaceIJRS8_SI_EEENS2_4pairINSN_4IterILb0EEEbEEDpOT_, symObjAddr: 0x1840, symBinAddr: 0x2A54C, symSize: 0x148 }
  - { offsetInCU: 0x31CA8, offset: 0x2820DB, size: 0x8, addend: 0x0, symName: __ZN3tns15MetadataBuilder38GetOrCreateConstructorFunctionTemplateEN2v85LocalINS1_7ContextEEEPKNS_13BaseClassMetaENS_21KnownUnknownClassPairERKNSt3__16vectorINS9_12basic_stringIcNS9_11char_traitsIcEENS9_9allocatorIcEEEENSE_ISG_EEEE, symObjAddr: 0xF14, symBinAddr: 0x29C20, symSize: 0xBC }
  - { offsetInCU: 0x322A5, offset: 0x2826D8, size: 0x8, addend: 0x0, symName: __ZN3tns15MetadataBuilder46GetOrCreateConstructorFunctionTemplateInternalEN2v85LocalINS1_7ContextEEEPKNS_13BaseClassMetaENS_21KnownUnknownClassPairERN10robin_hood6detail5TableILb1ELm80ENSt3__112basic_stringIcNSC_11char_traitsIcEENSC_9allocatorIcEEEEhNS9_4hashISI_vEENSC_8equal_toISI_EEEESO_RKNSC_6vectorISI_NSG_ISI_EEEE, symObjAddr: 0x2BA0, symBinAddr: 0x2B7BC, symSize: 0x16B8 }
  - { offsetInCU: 0x3840E, offset: 0x288841, size: 0x8, addend: 0x0, symName: __ZN10robin_hood6detail5TableILb1ELm80ENSt3__112basic_stringIcNS2_11char_traitsIcEENS2_9allocatorIcEEEEhNS_4hashIS8_vEENS2_8equal_toIS8_EEE7destroyEv, symObjAddr: 0xE4E4, symBinAddr: 0x34E44, symSize: 0x4C }
  - { offsetInCU: 0x38496, offset: 0x2888C9, size: 0x8, addend: 0x0, symName: __ZZN3tns6Caches11unique_voidINS_15MetadataBuilder9CacheItemINS_12FunctionMetaEEEEENSt3__110unique_ptrIvPFvPKvEEEPT_ENUlS9_E_8__invokeES9_, symObjAddr: 0xCC98, symBinAddr: 0x33C74, symSize: 0x38 }
  - { offsetInCU: 0x384C1, offset: 0x2888F4, size: 0x8, addend: 0x0, symName: __ZZN3tns6Caches11unique_voidINS_15MetadataBuilder9CacheItemINS_12FunctionMetaEEEEENSt3__110unique_ptrIvPFvPKvEEEPT_ENUlS9_E_8__invokeES9_, symObjAddr: 0xCC98, symBinAddr: 0x33C74, symSize: 0x38 }
  - { offsetInCU: 0x3927A, offset: 0x2896AD, size: 0x8, addend: 0x0, symName: __ZNSt3__114__split_bufferINS_10shared_ptrIN2v810PersistentINS2_5ValueENS2_27NonCopyablePersistentTraitsIS4_EEEEEERNS_9allocatorIS8_EEED2Ev, symObjAddr: 0x10A40, symBinAddr: 0x36E1C, symSize: 0x4C }
  - { offsetInCU: 0x39424, offset: 0x289857, size: 0x8, addend: 0x0, symName: __ZNSt3__16vectorINS_10shared_ptrIN2v810PersistentINS2_5ValueENS2_27NonCopyablePersistentTraitsIS4_EEEEEENS_9allocatorIS8_EEEC2ERKSB_, symObjAddr: 0x10A8C, symBinAddr: 0x36E68, symSize: 0xBC }
  - { offsetInCU: 0x39FA3, offset: 0x28A3D6, size: 0x8, addend: 0x0, symName: __ZN10robin_hood6detail5TableILb1ELm80ENSt3__112basic_stringIcNS2_11char_traitsIcEENS2_9allocatorIcEEEENS2_10unique_ptrIN2v810PersistentINSA_8FunctionENSA_27NonCopyablePersistentTraitsISC_EEEENS2_14default_deleteISF_EEEENS_4hashIS8_vEENS2_8equal_toIS8_EEE25insertKeyPrepareEmptySpotIRKS8_EENS2_4pairImNSN_14InsertionStateEEEOT_, symObjAddr: 0xCCD0, symBinAddr: 0x33CAC, symSize: 0x188 }
  - { offsetInCU: 0x3A0F0, offset: 0x28A523, size: 0x8, addend: 0x0, symName: __ZNK10robin_hood6detail5TableILb1ELm80ENSt3__112basic_stringIcNS2_11char_traitsIcEENS2_9allocatorIcEEEENS2_10unique_ptrIN2v810PersistentINSA_8FunctionENSA_27NonCopyablePersistentTraitsISC_EEEENS2_14default_deleteISF_EEEENS_4hashIS8_vEENS2_8equal_toIS8_EEE18throwOverflowErrorEv, symObjAddr: 0xCE58, symBinAddr: 0x33E34, symSize: 0x50 }
  - { offsetInCU: 0x3A125, offset: 0x28A558, size: 0x8, addend: 0x0, symName: __ZN10robin_hood6detail5TableILb1ELm80ENSt3__112basic_stringIcNS2_11char_traitsIcEENS2_9allocatorIcEEEENS2_10unique_ptrIN2v810PersistentINSA_8FunctionENSA_27NonCopyablePersistentTraitsISC_EEEENS2_14default_deleteISF_EEEENS_4hashIS8_vEENS2_8equal_toIS8_EEE8DataNodeISN_Lb1EED1Ev, symObjAddr: 0xCEA8, symBinAddr: 0x33E84, symSize: 0x40 }
  - { offsetInCU: 0x3A605, offset: 0x28AA38, size: 0x8, addend: 0x0, symName: __ZN3tns17StructTypeWrapperC2ENS_10StructInfoE, symObjAddr: 0xAA6C, symBinAddr: 0x32D9C, symSize: 0x7C }
  - { offsetInCU: 0x3A83A, offset: 0x28AC6D, size: 0x8, addend: 0x0, symName: __ZN10robin_hood6detail5TableILb1ELm80ENSt3__112basic_stringIcNS2_11char_traitsIcEENS2_9allocatorIcEEEENS2_10unique_ptrIN2v810PersistentINSA_8FunctionENSA_27NonCopyablePersistentTraitsISC_EEEENS2_14default_deleteISF_EEEENS_4hashIS8_vEENS2_8equal_toIS8_EEE7emplaceIJS8_SI_EEENS2_4pairINSN_4IterILb0EEEbEEDpOT_, symObjAddr: 0x2708, symBinAddr: 0x2B38C, symSize: 0x14C }
  - { offsetInCU: 0x3B3A8, offset: 0x28B7DB, size: 0x8, addend: 0x0, symName: __ZN3tns15MetadataBuilder25StructConstructorCallbackERKN2v820FunctionCallbackInfoINS1_5ValueEEE, symObjAddr: 0x1F60, symBinAddr: 0x2ABE4, symSize: 0x4D4 }
  - { offsetInCU: 0x3C8C9, offset: 0x28CCFC, size: 0x8, addend: 0x0, symName: __ZN3tns13StructWrapperC2ENS_10StructInfoEPvNSt3__110shared_ptrIN2v810PersistentINS5_5ValueENS5_27NonCopyablePersistentTraitsIS7_EEEEEE, symObjAddr: 0xAB78, symBinAddr: 0x32EA8, symSize: 0xE8 }
  - { offsetInCU: 0x3CD23, offset: 0x28D156, size: 0x8, addend: 0x0, symName: __ZN10robin_hood6detail5TableILb1ELm80ENSt3__14pairIPvNS2_12basic_stringIcNS2_11char_traitsIcEENS2_9allocatorIcEEEEEENS2_10shared_ptrIN2v810PersistentINSD_5ValueENSD_27NonCopyablePersistentTraitsISF_EEEEEEN3tns9pair_hashENS2_8equal_toISB_EEE7emplaceIJRSB_RSJ_EEENS3_INSO_4IterILb0EEEbEEDpOT_, symObjAddr: 0x28B0, symBinAddr: 0x2B4D8, symSize: 0x1B0 }
  - { offsetInCU: 0x3D6FD, offset: 0x28DB30, size: 0x8, addend: 0x0, symName: __ZN3tns15MetadataBuilder20StructEqualsCallbackERKN2v820FunctionCallbackInfoINS1_5ValueEEE, symObjAddr: 0x2434, symBinAddr: 0x2B0B8, symSize: 0x2D4 }
  - { offsetInCU: 0x3E0DC, offset: 0x28E50F, size: 0x8, addend: 0x0, symName: __ZN3tns15MetadataBuilder13GetStructDataEN2v85LocalINS1_7ContextEEENS2_INS1_6ObjectEEENS_10StructInfoE, symObjAddr: 0x2A6C, symBinAddr: 0x2B688, symSize: 0x134 }
  - { offsetInCU: 0x3EAA5, offset: 0x28EED8, size: 0x8, addend: 0x0, symName: __ZN10robin_hood6detail5TableILb1ELm80ENSt3__14pairIPvNS2_12basic_stringIcNS2_11char_traitsIcEENS2_9allocatorIcEEEEEENS2_10shared_ptrIN2v810PersistentINSD_5ValueENSD_27NonCopyablePersistentTraitsISF_EEEEEEN3tns9pair_hashENS2_8equal_toISB_EEE25insertKeyPrepareEmptySpotIRKSB_EENS3_ImNSO_14InsertionStateEEEOT_, symObjAddr: 0xD58C, symBinAddr: 0x34568, symSize: 0x18C }
  - { offsetInCU: 0x3ECBA, offset: 0x28F0ED, size: 0x8, addend: 0x0, symName: __ZNK10robin_hood6detail5TableILb1ELm80ENSt3__14pairIPvNS2_12basic_stringIcNS2_11char_traitsIcEENS2_9allocatorIcEEEEEENS2_10shared_ptrIN2v810PersistentINSD_5ValueENSD_27NonCopyablePersistentTraitsISF_EEEEEEN3tns9pair_hashENS2_8equal_toISB_EEE18throwOverflowErrorEv, symObjAddr: 0xD718, symBinAddr: 0x346F4, symSize: 0x50 }
  - { offsetInCU: 0x3ECEF, offset: 0x28F122, size: 0x8, addend: 0x0, symName: __ZN10robin_hood6detail5TableILb1ELm80ENSt3__14pairIPvNS2_12basic_stringIcNS2_11char_traitsIcEENS2_9allocatorIcEEEEEENS2_10shared_ptrIN2v810PersistentINSD_5ValueENSD_27NonCopyablePersistentTraitsISF_EEEEEEN3tns9pair_hashENS2_8equal_toISB_EEE8DataNodeISO_Lb1EED1Ev, symObjAddr: 0xD768, symBinAddr: 0x34744, symSize: 0x38 }
  - { offsetInCU: 0x3F636, offset: 0x28FA69, size: 0x8, addend: 0x0, symName: __ZNK10robin_hood6detail5TableILb1ELm80EPKN3tns13BaseClassMetaENSt3__110unique_ptrIN2v810PersistentINS8_16FunctionTemplateENS8_27NonCopyablePersistentTraitsISA_EEEENS6_14default_deleteISD_EEEENS_4hashIS5_vEENS6_8equal_toIS5_EEE7findIdxIS5_EEmRKT_, symObjAddr: 0xE600, symBinAddr: 0x34F60, symSize: 0xD8 }
  - { offsetInCU: 0x3F692, offset: 0x28FAC5, size: 0x8, addend: 0x0, symName: __ZNK10robin_hood6detail5TableILb1ELm80EPKN3tns13BaseClassMetaENSt3__110unique_ptrIN2v810PersistentINS8_16FunctionTemplateENS8_27NonCopyablePersistentTraitsISA_EEEENS6_14default_deleteISD_EEEENS_4hashIS5_vEENS6_8equal_toIS5_EEE7findIdxIS5_EEmRKT_, symObjAddr: 0xE600, symBinAddr: 0x34F60, symSize: 0xD8 }
  - { offsetInCU: 0x3F7CE, offset: 0x28FC01, size: 0x8, addend: 0x0, symName: __ZN3tns6Caches24registerCacheBoundObjectINS_15MetadataBuilder9CacheItemINS_13BaseClassMetaEEEEEvPT_, symObjAddr: 0x4258, symBinAddr: 0x2CE74, symSize: 0x114 }
  - { offsetInCU: 0x3FE0C, offset: 0x29023F, size: 0x8, addend: 0x0, symName: __ZN3tns15MetadataBuilder26RegisterInstancePropertiesEN2v85LocalINS1_7ContextEEENS2_INS1_16FunctionTemplateEEEPKNS_13BaseClassMetaENSt3__112basic_stringIcNSA_11char_traitsIcEENSA_9allocatorIcEEEENS_21KnownUnknownClassPairERN10robin_hood6detail5TableILb1ELm80ESG_hNSI_4hashISG_vEENSA_8equal_toISG_EEEE, symObjAddr: 0x45D8, symBinAddr: 0x2D17C, symSize: 0x5FC }
  - { offsetInCU: 0x41971, offset: 0x291DA4, size: 0x8, addend: 0x0, symName: __ZN3tns15MetadataBuilder23RegisterInstanceMethodsEN2v85LocalINS1_7ContextEEENS2_INS1_16FunctionTemplateEEEPKNS_13BaseClassMetaENS_21KnownUnknownClassPairERN10robin_hood6detail5TableILb1ELm80ENSt3__112basic_stringIcNSE_11char_traitsIcEENSE_9allocatorIcEEEEhNSB_4hashISK_vEENSE_8equal_toISK_EEEE, symObjAddr: 0x4BD4, symBinAddr: 0x2D778, symSize: 0x668 }
  - { offsetInCU: 0x43829, offset: 0x293C5C, size: 0x8, addend: 0x0, symName: __ZN3tns15MetadataBuilder25RegisterInstanceProtocolsEN2v85LocalINS1_7ContextEEENS2_INS1_16FunctionTemplateEEEPKNS_13BaseClassMetaENSt3__112basic_stringIcNSA_11char_traitsIcEENSA_9allocatorIcEEEENS_21KnownUnknownClassPairERN10robin_hood6detail5TableILb1ELm80ESG_hNSI_4hashISG_vEENSA_8equal_toISG_EEEE, symObjAddr: 0x523C, symBinAddr: 0x2DDE0, symSize: 0x2E0 }
  - { offsetInCU: 0x448CB, offset: 0x294CFE, size: 0x8, addend: 0x0, symName: __ZN3tns15MetadataBuilder27RegisterAdditionalProtocolsEN2v85LocalINS1_7ContextEEENS2_INS1_16FunctionTemplateEEENS_21KnownUnknownClassPairERKNSt3__16vectorINS8_12basic_stringIcNS8_11char_traitsIcEENS8_9allocatorIcEEEENSD_ISF_EEEERN10robin_hood6detail5TableILb1ELm80ESF_hNSK_4hashISF_vEENS8_8equal_toISF_EEEE, symObjAddr: 0x551C, symBinAddr: 0x2E0C0, symSize: 0x3EC }
  - { offsetInCU: 0x45FC9, offset: 0x2963FC, size: 0x8, addend: 0x0, symName: __ZN3tns15MetadataBuilder19RegisterAllocMethodEPN2v87IsolateENS1_5LocalINS1_16FunctionTemplateEEEPKNS_13InterfaceMetaE, symObjAddr: 0x5A10, symBinAddr: 0x2E5B4, symSize: 0x224 }
  - { offsetInCU: 0x46ABE, offset: 0x296EF1, size: 0x8, addend: 0x0, symName: __ZN10robin_hood6detail5TableILb1ELm80EPKN3tns13BaseClassMetaENSt3__110unique_ptrIN2v810PersistentINS8_16FunctionTemplateENS8_27NonCopyablePersistentTraitsISA_EEEENS6_14default_deleteISD_EEEENS_4hashIS5_vEENS6_8equal_toIS5_EEE7emplaceIJRS5_SG_EEENS6_4pairINSL_4IterILb0EEEbEEDpOT_, symObjAddr: 0x6F90, symBinAddr: 0x2FB34, symSize: 0x100 }
  - { offsetInCU: 0x4713B, offset: 0x29756E, size: 0x8, addend: 0x0, symName: __ZN10robin_hood6detail5TableILb1ELm80ENSt3__112basic_stringIcNS2_11char_traitsIcEENS2_9allocatorIcEEEENS2_10unique_ptrIN2v810PersistentINSA_8FunctionENSA_27NonCopyablePersistentTraitsISC_EEEENS2_14default_deleteISF_EEEENS_4hashIS8_vEENS2_8equal_toIS8_EEE7emplaceIJPKcPSF_EEENS2_4pairINSN_4IterILb0EEEbEEDpOT_, symObjAddr: 0x7090, symBinAddr: 0x2FC34, symSize: 0x148 }
  - { offsetInCU: 0x479D0, offset: 0x297E03, size: 0x8, addend: 0x0, symName: __ZN10robin_hood6detail5TableILb1ELm80ENSt3__112basic_stringIcNS2_11char_traitsIcEENS2_9allocatorIcEEEENS2_10unique_ptrIN2v810PersistentINSA_8FunctionENSA_27NonCopyablePersistentTraitsISC_EEEENS2_14default_deleteISF_EEEENS_4hashIS8_vEENS2_8equal_toIS8_EEE7emplaceIJPKcSI_EEENS2_4pairINSN_4IterILb0EEEbEEDpOT_, symObjAddr: 0x71D8, symBinAddr: 0x2FD7C, symSize: 0x14C }
  - { offsetInCU: 0x4828B, offset: 0x2986BE, size: 0x8, addend: 0x0, symName: __ZN3tns15MetadataBuilder21RegisterStaticMethodsEN2v85LocalINS1_7ContextEEENS2_INS1_8FunctionEEEPKNS_13BaseClassMetaENS_21KnownUnknownClassPairERN10robin_hood6detail5TableILb1ELm80ENSt3__112basic_stringIcNSE_11char_traitsIcEENSE_9allocatorIcEEEEhNSB_4hashISK_vEENSE_8equal_toISK_EEEE, symObjAddr: 0x7324, symBinAddr: 0x2FEC8, symSize: 0x8A0 }
  - { offsetInCU: 0x4AC44, offset: 0x29B077, size: 0x8, addend: 0x0, symName: __ZN3tns15MetadataBuilder24RegisterStaticPropertiesEN2v85LocalINS1_7ContextEEENS2_INS1_8FunctionEEEPKNS_13BaseClassMetaENSt3__112basic_stringIcNSA_11char_traitsIcEENSA_9allocatorIcEEEENS_21KnownUnknownClassPairERN10robin_hood6detail5TableILb1ELm80ESG_hNSI_4hashISG_vEENSA_8equal_toISG_EEEE, symObjAddr: 0x7BC4, symBinAddr: 0x30768, symSize: 0x5D8 }
  - { offsetInCU: 0x4C8DA, offset: 0x29CD0D, size: 0x8, addend: 0x0, symName: __ZN3tns15MetadataBuilder23RegisterStaticProtocolsEN2v85LocalINS1_7ContextEEENS2_INS1_8FunctionEEEPKNS_13BaseClassMetaENSt3__112basic_stringIcNSA_11char_traitsIcEENSA_9allocatorIcEEEENS_21KnownUnknownClassPairERN10robin_hood6detail5TableILb1ELm80ESG_hNSI_4hashISG_vEENSA_8equal_toISG_EEEE, symObjAddr: 0x819C, symBinAddr: 0x30D40, symSize: 0x2B0 }
  - { offsetInCU: 0x4D875, offset: 0x29DCA8, size: 0x8, addend: 0x0, symName: __ZN10robin_hood6detail5TableILb1ELm80EPKN3tns4MetaENSt3__110unique_ptrIN2v810PersistentINS8_5ValueENS8_27NonCopyablePersistentTraitsISA_EEEENS6_14default_deleteISD_EEEENS_4hashIS5_vEENS6_8equal_toIS5_EEE7emplaceIJRPKNS2_13BaseClassMetaERPSD_EEENS6_4pairINSL_4IterILb0EEEbEEDpOT_, symObjAddr: 0x844C, symBinAddr: 0x30FF0, symSize: 0xFC }
  - { offsetInCU: 0x4DEB9, offset: 0x29E2EC, size: 0x8, addend: 0x0, symName: __ZZN3tns6Caches11unique_voidINS_15MetadataBuilder9CacheItemINS_13BaseClassMetaEEEEENSt3__110unique_ptrIvPFvPKvEEEPT_ENUlS9_E_8__invokeES9_, symObjAddr: 0xE6D8, symBinAddr: 0x35038, symSize: 0x38 }
  - { offsetInCU: 0x4DEE4, offset: 0x29E317, size: 0x8, addend: 0x0, symName: __ZZN3tns6Caches11unique_voidINS_15MetadataBuilder9CacheItemINS_13BaseClassMetaEEEEENSt3__110unique_ptrIvPFvPKvEEEPT_ENUlS9_E_8__invokeES9_, symObjAddr: 0xE6D8, symBinAddr: 0x35038, symSize: 0x38 }
  - { offsetInCU: 0x4E06E, offset: 0x29E4A1, size: 0x8, addend: 0x0, symName: __ZN3tns15MetadataBuilder24ClassConstructorCallbackERKN2v820FunctionCallbackInfoINS1_5ValueEEE, symObjAddr: 0x436C, symBinAddr: 0x2CF88, symSize: 0x1F4 }
  - { offsetInCU: 0x4ED24, offset: 0x29F157, size: 0x8, addend: 0x0, symName: __ZNK10robin_hood6detail5TableILb1ELm80ENSt3__112basic_stringIcNS2_11char_traitsIcEENS2_9allocatorIcEEEEhNS_4hashIS8_vEENS2_8equal_toIS8_EEE7findIdxIS8_EEmRKT_, symObjAddr: 0xF778, symBinAddr: 0x360D8, symSize: 0x108 }
  - { offsetInCU: 0x4EE60, offset: 0x29F293, size: 0x8, addend: 0x0, symName: __ZN3tns6Caches24registerCacheBoundObjectINS_15MetadataBuilder9CacheItemINS_12PropertyMetaEEEEEvPT_, symObjAddr: 0x8CD4, symBinAddr: 0x31878, symSize: 0x114 }
  - { offsetInCU: 0x4F32E, offset: 0x29F761, size: 0x8, addend: 0x0, symName: __ZN10robin_hood6detail5TableILb1ELm80ENSt3__112basic_stringIcNS2_11char_traitsIcEENS2_9allocatorIcEEEEhNS_4hashIS8_vEENS2_8equal_toIS8_EEE7emplaceIJRS8_RhEEENS2_4pairINSD_4IterILb0EEEbEEDpOT_, symObjAddr: 0x91B4, symBinAddr: 0x31D58, symSize: 0x12C }
  - { offsetInCU: 0x4FC9A, offset: 0x2A00CD, size: 0x8, addend: 0x0, symName: __ZN3tns6Caches24registerCacheBoundObjectINS_15MetadataBuilder9CacheItemINS_10MethodMetaEEEEEvPT_, symObjAddr: 0x88D0, symBinAddr: 0x31474, symSize: 0x114 }
  - { offsetInCU: 0x50168, offset: 0x2A059B, size: 0x8, addend: 0x0, symName: __ZN10robin_hood6detail5TableILb1ELm80ENSt3__112basic_stringIcNS2_11char_traitsIcEENS2_9allocatorIcEEEEhNS_4hashIS8_vEENS2_8equal_toIS8_EEE7emplaceIJRS8_iEEENS2_4pairINSD_4IterILb0EEEbEEDpOT_, symObjAddr: 0x8BA8, symBinAddr: 0x3174C, symSize: 0x12C }
  - { offsetInCU: 0x50A0B, offset: 0x2A0E3E, size: 0x8, addend: 0x0, symName: __ZNSt3__16vectorINS_12basic_stringIcNS_11char_traitsIcEENS_9allocatorIcEEEENS4_IS6_EEE9push_backB7v160006ERKS6_, symObjAddr: 0x92E0, symBinAddr: 0x31E84, symSize: 0x118 }
  - { offsetInCU: 0x50DBE, offset: 0x2A11F1, size: 0x8, addend: 0x0, symName: __ZN3tns15MetadataBuilder24ToStringFunctionCallbackERKN2v820FunctionCallbackInfoINS1_5ValueEEE, symObjAddr: 0x5908, symBinAddr: 0x2E4AC, symSize: 0x108 }
  - { offsetInCU: 0x5132E, offset: 0x2A1761, size: 0x8, addend: 0x0, symName: __ZN3tns6Caches24registerCacheBoundObjectINS_15MetadataBuilder9CacheItemINS_13InterfaceMetaEEEEEvPT_, symObjAddr: 0x8548, symBinAddr: 0x310EC, symSize: 0x114 }
  - { offsetInCU: 0x51D68, offset: 0x2A219B, size: 0x8, addend: 0x0, symName: __ZNK3tns5ArrayINS_5PtrToINS_10MethodMetaEEEE12binarySearchENSt3__18functionIFiRKS3_EEE, symObjAddr: 0xA0BC, symBinAddr: 0x32BA8, symSize: 0x98 }
  - { offsetInCU: 0x51E71, offset: 0x2A22A4, size: 0x8, addend: 0x0, symName: __ZN3tns21MethodCallbackWrapperC2EPN2v87IsolateENSt3__110shared_ptrINS1_10PersistentINS1_5ValueENS1_27NonCopyablePersistentTraitsIS7_EEEEEEhhPKNS_12TypeEncodingE, symObjAddr: 0xAEE0, symBinAddr: 0x330D0, symSize: 0xEC }
  - { offsetInCU: 0x528E3, offset: 0x2A2D16, size: 0x8, addend: 0x0, symName: __ZNK3tns5ArrayINS_5PtrToINS_12PropertyMetaEEEE12binarySearchENSt3__18functionIFiRKS3_EEE, symObjAddr: 0xA424, symBinAddr: 0x32CF4, symSize: 0x98 }
  - { offsetInCU: 0x529EC, offset: 0x2A2E1F, size: 0x8, addend: 0x0, symName: __ZNSt3__110shared_ptrIN2v810PersistentINS1_8FunctionENS1_27NonCopyablePersistentTraitsIS3_EEEEED2B7v160006Ev, symObjAddr: 0xC480, symBinAddr: 0x33B10, symSize: 0x50 }
  - { offsetInCU: 0x52ED3, offset: 0x2A3306, size: 0x8, addend: 0x0, symName: __ZN10robin_hood6detail5TableILb1ELm80EPKN3tns13BaseClassMetaENSt3__110unique_ptrIN2v810PersistentINS8_16FunctionTemplateENS8_27NonCopyablePersistentTraitsISA_EEEENS6_14default_deleteISD_EEEENS_4hashIS5_vEENS6_8equal_toIS5_EEE25insertKeyPrepareEmptySpotIRKS5_EENS6_4pairImNSL_14InsertionStateEEEOT_, symObjAddr: 0xE710, symBinAddr: 0x35070, symSize: 0x194 }
  - { offsetInCU: 0x53075, offset: 0x2A34A8, size: 0x8, addend: 0x0, symName: __ZNK10robin_hood6detail5TableILb1ELm80EPKN3tns13BaseClassMetaENSt3__110unique_ptrIN2v810PersistentINS8_16FunctionTemplateENS8_27NonCopyablePersistentTraitsISA_EEEENS6_14default_deleteISD_EEEENS_4hashIS5_vEENS6_8equal_toIS5_EEE18throwOverflowErrorEv, symObjAddr: 0xE8A4, symBinAddr: 0x35204, symSize: 0x50 }
  - { offsetInCU: 0x5388F, offset: 0x2A3CC2, size: 0x8, addend: 0x0, symName: __ZN10robin_hood6detail5TableILb1ELm80EPKN3tns4MetaENSt3__110unique_ptrIN2v810PersistentINS8_5ValueENS8_27NonCopyablePersistentTraitsISA_EEEENS6_14default_deleteISD_EEEENS_4hashIS5_vEENS6_8equal_toIS5_EEE25insertKeyPrepareEmptySpotIRKS5_EENS6_4pairImNSL_14InsertionStateEEEOT_, symObjAddr: 0xEF28, symBinAddr: 0x35888, symSize: 0x194 }
  - { offsetInCU: 0x53A31, offset: 0x2A3E64, size: 0x8, addend: 0x0, symName: __ZNK10robin_hood6detail5TableILb1ELm80EPKN3tns4MetaENSt3__110unique_ptrIN2v810PersistentINS8_5ValueENS8_27NonCopyablePersistentTraitsISA_EEEENS6_14default_deleteISD_EEEENS_4hashIS5_vEENS6_8equal_toIS5_EEE18throwOverflowErrorEv, symObjAddr: 0xF0BC, symBinAddr: 0x35A1C, symSize: 0x50 }
  - { offsetInCU: 0x53A8F, offset: 0x2A3EC2, size: 0x8, addend: 0x0, symName: __ZZN3tns6Caches11unique_voidINS_15MetadataBuilder9CacheItemINS_13InterfaceMetaEEEEENSt3__110unique_ptrIvPFvPKvEEEPT_ENUlS9_E_8__invokeES9_, symObjAddr: 0xF740, symBinAddr: 0x360A0, symSize: 0x38 }
  - { offsetInCU: 0x53ABA, offset: 0x2A3EED, size: 0x8, addend: 0x0, symName: __ZZN3tns6Caches11unique_voidINS_15MetadataBuilder9CacheItemINS_13InterfaceMetaEEEEENSt3__110unique_ptrIvPFvPKvEEEPT_ENUlS9_E_8__invokeES9_, symObjAddr: 0xF740, symBinAddr: 0x360A0, symSize: 0x38 }
  - { offsetInCU: 0x53CAD, offset: 0x2A40E0, size: 0x8, addend: 0x0, symName: __ZN3tns15MetadataBuilder13AllocCallbackERKN2v820FunctionCallbackInfoINS1_5ValueEEE, symObjAddr: 0x865C, symBinAddr: 0x31200, symSize: 0x274 }
  - { offsetInCU: 0x54617, offset: 0x2A4A4A, size: 0x8, addend: 0x0, symName: __ZZN3tns6Caches11unique_voidINS_15MetadataBuilder9CacheItemINS_10MethodMetaEEEEENSt3__110unique_ptrIvPFvPKvEEEPT_ENUlS9_E_8__invokeES9_, symObjAddr: 0xF880, symBinAddr: 0x361E0, symSize: 0x38 }
  - { offsetInCU: 0x54642, offset: 0x2A4A75, size: 0x8, addend: 0x0, symName: __ZZN3tns6Caches11unique_voidINS_15MetadataBuilder9CacheItemINS_10MethodMetaEEEEENSt3__110unique_ptrIvPFvPKvEEEPT_ENUlS9_E_8__invokeES9_, symObjAddr: 0xF880, symBinAddr: 0x361E0, symSize: 0x38 }
  - { offsetInCU: 0x547EE, offset: 0x2A4C21, size: 0x8, addend: 0x0, symName: __ZN3tns15MetadataBuilder14MethodCallbackERKN2v820FunctionCallbackInfoINS1_5ValueEEE, symObjAddr: 0x89E4, symBinAddr: 0x31588, symSize: 0x1C4 }
  - { offsetInCU: 0x54ECE, offset: 0x2A5301, size: 0x8, addend: 0x0, symName: __ZN3tns15MetadataBuilder12InvokeMethodEN2v85LocalINS1_7ContextEEEPKNS_10MethodMetaENS2_INS1_6ObjectEEERNS_6V8ArgsENSt3__112basic_stringIcNSC_11char_traitsIcEENSC_9allocatorIcEEEEb, symObjAddr: 0x97D0, symBinAddr: 0x32324, symSize: 0xB8 }
  - { offsetInCU: 0x55354, offset: 0x2A5787, size: 0x8, addend: 0x0, symName: __ZN10robin_hood6detail5TableILb1ELm80ENSt3__112basic_stringIcNS2_11char_traitsIcEENS2_9allocatorIcEEEEhNS_4hashIS8_vEENS2_8equal_toIS8_EEE25insertKeyPrepareEmptySpotIRKS8_EENS2_4pairImNSD_14InsertionStateEEEOT_, symObjAddr: 0xF8B8, symBinAddr: 0x36218, symSize: 0x188 }
  - { offsetInCU: 0x554A1, offset: 0x2A58D4, size: 0x8, addend: 0x0, symName: __ZNK10robin_hood6detail5TableILb1ELm80ENSt3__112basic_stringIcNS2_11char_traitsIcEENS2_9allocatorIcEEEEhNS_4hashIS8_vEENS2_8equal_toIS8_EEE18throwOverflowErrorEv, symObjAddr: 0xFA40, symBinAddr: 0x363A0, symSize: 0x50 }
  - { offsetInCU: 0x554FF, offset: 0x2A5932, size: 0x8, addend: 0x0, symName: __ZZN3tns6Caches11unique_voidINS_15MetadataBuilder9CacheItemINS_12PropertyMetaEEEEENSt3__110unique_ptrIvPFvPKvEEEPT_ENUlS9_E_8__invokeES9_, symObjAddr: 0x10104, symBinAddr: 0x36A64, symSize: 0x38 }
  - { offsetInCU: 0x5552A, offset: 0x2A595D, size: 0x8, addend: 0x0, symName: __ZZN3tns6Caches11unique_voidINS_15MetadataBuilder9CacheItemINS_12PropertyMetaEEEEENSt3__110unique_ptrIvPFvPKvEEEPT_ENUlS9_E_8__invokeES9_, symObjAddr: 0x10104, symBinAddr: 0x36A64, symSize: 0x38 }
  - { offsetInCU: 0x556FC, offset: 0x2A5B2F, size: 0x8, addend: 0x0, symName: __ZN3tns15MetadataBuilder22PropertyGetterCallbackERKN2v820FunctionCallbackInfoINS1_5ValueEEE, symObjAddr: 0x8DE8, symBinAddr: 0x3198C, symSize: 0x1E4 }
  - { offsetInCU: 0x56014, offset: 0x2A6447, size: 0x8, addend: 0x0, symName: __ZN3tns15MetadataBuilder22PropertySetterCallbackERKN2v820FunctionCallbackInfoINS1_5ValueEEE, symObjAddr: 0x8FCC, symBinAddr: 0x31B70, symSize: 0x1E8 }
  - { offsetInCU: 0x56B84, offset: 0x2A6FB7, size: 0x8, addend: 0x0, symName: __ZNSt3__114__split_bufferINS_12basic_stringIcNS_11char_traitsIcEENS_9allocatorIcEEEERNS4_IS6_EEED2Ev, symObjAddr: 0x1031C, symBinAddr: 0x36C7C, symSize: 0x34 }
  - { offsetInCU: 0x56C90, offset: 0x2A70C3, size: 0x8, addend: 0x0, symName: __ZNKSt3__16vectorINS_12basic_stringIcNS_11char_traitsIcEENS_9allocatorIcEEEENS4_IS6_EEE20__throw_length_errorB7v160006Ev, symObjAddr: 0x101B0, symBinAddr: 0x36B10, symSize: 0x14 }
  - { offsetInCU: 0x56CB9, offset: 0x2A70EC, size: 0x8, addend: 0x0, symName: __ZNSt3__119__allocate_at_leastB7v160006INS_9allocatorINS_12basic_stringIcNS_11char_traitsIcEENS1_IcEEEEEEEENS_19__allocation_resultINS_16allocator_traitsIT_E7pointerEEERSA_m, symObjAddr: 0x101C4, symBinAddr: 0x36B24, symSize: 0x44 }
  - { offsetInCU: 0x56CC5, offset: 0x2A70F8, size: 0x8, addend: 0x0, symName: __ZN3tns15MetadataBuilder26PropertyNameGetterCallbackEN2v85LocalINS1_4NameEEERKNS1_20PropertyCallbackInfoINS1_5ValueEEE, symObjAddr: 0x93F8, symBinAddr: 0x31F9C, symSize: 0x1C4 }
  - { offsetInCU: 0x57594, offset: 0x2A79C7, size: 0x8, addend: 0x0, symName: __ZN3tns15MetadataBuilder26PropertyNameSetterCallbackEN2v85LocalINS1_4NameEEENS2_INS1_5ValueEEERKNS1_20PropertyCallbackInfoIvEE, symObjAddr: 0x95BC, symBinAddr: 0x32160, symSize: 0x1C4 }
  - { offsetInCU: 0x5815E, offset: 0x2A8591, size: 0x8, addend: 0x0, symName: __ZN3tns15MetadataBuilder28StructPropertyGetterCallbackEN2v85LocalINS1_4NameEEERKNS1_20PropertyCallbackInfoINS1_5ValueEEE, symObjAddr: 0x9888, symBinAddr: 0x323DC, symSize: 0x4C4 }
  - { offsetInCU: 0x59EBB, offset: 0x2AA2EE, size: 0x8, addend: 0x0, symName: __ZNK10robin_hood6detail5TableILb1ELm80ENSt3__14pairIPvNS2_12basic_stringIcNS2_11char_traitsIcEENS2_9allocatorIcEEEEEENS2_10shared_ptrIN2v810PersistentINSD_5ValueENSD_27NonCopyablePersistentTraitsISF_EEEEEEN3tns9pair_hashENS2_8equal_toISB_EEE7findIdxISB_EEmRKT_, symObjAddr: 0x10730, symBinAddr: 0x36D04, symSize: 0x118 }
  - { offsetInCU: 0x5A11D, offset: 0x2AA550, size: 0x8, addend: 0x0, symName: __ZN3tns15MetadataBuilder28StructPropertySetterCallbackEN2v85LocalINS1_4NameEEENS2_INS1_5ValueEEERKNS1_20PropertyCallbackInfoIS5_EE, symObjAddr: 0x9DB4, symBinAddr: 0x328A0, symSize: 0x308 }
  - { offsetInCU: 0x5B9AA, offset: 0x2ABDDD, size: 0x8, addend: 0x0, symName: '__ZNSt3__110__function6__funcIZN3tns15MetadataBuilder24SwizzledPropertyCallbackEN2v85LocalINS4_4NameEEERKNS4_18PropertyDescriptorERKNS4_20PropertyCallbackInfoINS4_5ValueEEEE3$_4NS_9allocatorISG_EEFiRKNS2_5PtrToINS2_12PropertyMetaEEEEED1Ev', symObjAddr: 0x1151C, symBinAddr: 0x376C4, symSize: 0x3C }
  - { offsetInCU: 0x5BDEF, offset: 0x2AC222, size: 0x8, addend: 0x0, symName: __ZN3tns15FunctionWrapperD1Ev, symObjAddr: 0xA700, symBinAddr: 0x32D8C, symSize: 0x4 }
  - { offsetInCU: 0x5BE1A, offset: 0x2AC24D, size: 0x8, addend: 0x0, symName: __ZN3tns15FunctionWrapperD0Ev, symObjAddr: 0xA704, symBinAddr: 0x32D90, symSize: 0x4 }
  - { offsetInCU: 0x5BE45, offset: 0x2AC278, size: 0x8, addend: 0x0, symName: __ZN3tns15FunctionWrapper4TypeEv, symObjAddr: 0xA708, symBinAddr: 0x32D94, symSize: 0x8 }
  - { offsetInCU: 0x5C657, offset: 0x2ACA8A, size: 0x8, addend: 0x0, symName: __ZN3tns17StructTypeWrapperD1Ev, symObjAddr: 0xAAE8, symBinAddr: 0x32E18, symSize: 0x44 }
  - { offsetInCU: 0x5C847, offset: 0x2ACC7A, size: 0x8, addend: 0x0, symName: __ZN3tns17StructTypeWrapperD0Ev, symObjAddr: 0xAB2C, symBinAddr: 0x32E5C, symSize: 0x44 }
  - { offsetInCU: 0x5CA44, offset: 0x2ACE77, size: 0x8, addend: 0x0, symName: __ZN3tns17StructTypeWrapper4TypeEv, symObjAddr: 0xAB70, symBinAddr: 0x32EA0, symSize: 0x8 }
  - { offsetInCU: 0x5CA87, offset: 0x2ACEBA, size: 0x8, addend: 0x0, symName: __ZN3tns13StructWrapperD1Ev, symObjAddr: 0xAC60, symBinAddr: 0x32F90, symSize: 0x5C }
  - { offsetInCU: 0x5CCC1, offset: 0x2AD0F4, size: 0x8, addend: 0x0, symName: __ZN3tns13StructWrapperD0Ev, symObjAddr: 0xACBC, symBinAddr: 0x32FEC, symSize: 0x5C }
  - { offsetInCU: 0x5CF08, offset: 0x2AD33B, size: 0x8, addend: 0x0, symName: __ZN3tns13StructWrapper4TypeEv, symObjAddr: 0xAD18, symBinAddr: 0x33048, symSize: 0x8 }
  - { offsetInCU: 0x5CF2F, offset: 0x2AD362, size: 0x8, addend: 0x0, symName: __ZN3tns19ObjCProtocolWrapperD1Ev, symObjAddr: 0xAD20, symBinAddr: 0x33050, symSize: 0x4 }
  - { offsetInCU: 0x5CF5A, offset: 0x2AD38D, size: 0x8, addend: 0x0, symName: __ZN3tns19ObjCProtocolWrapperD0Ev, symObjAddr: 0xAD24, symBinAddr: 0x33054, symSize: 0x4 }
  - { offsetInCU: 0x5CF85, offset: 0x2AD3B8, size: 0x8, addend: 0x0, symName: __ZN3tns19ObjCProtocolWrapper4TypeEv, symObjAddr: 0xAD28, symBinAddr: 0x33058, symSize: 0x8 }
  - { offsetInCU: 0x5CFAC, offset: 0x2AD3DF, size: 0x8, addend: 0x0, symName: __ZN3tns20ObjCAllocDataWrapperD1Ev, symObjAddr: 0xAE70, symBinAddr: 0x33060, symSize: 0x4 }
  - { offsetInCU: 0x5CFD7, offset: 0x2AD40A, size: 0x8, addend: 0x0, symName: __ZN3tns20ObjCAllocDataWrapperD0Ev, symObjAddr: 0xAE74, symBinAddr: 0x33064, symSize: 0x4 }
  - { offsetInCU: 0x5D002, offset: 0x2AD435, size: 0x8, addend: 0x0, symName: __ZN3tns20ObjCAllocDataWrapper4TypeEv, symObjAddr: 0xAE78, symBinAddr: 0x33068, symSize: 0x8 }
  - { offsetInCU: 0x5D029, offset: 0x2AD45C, size: 0x8, addend: 0x0, symName: __ZNK3tns22V8FunctionCallbackArgsixEi, symObjAddr: 0xAE80, symBinAddr: 0x33070, symSize: 0x30 }
  - { offsetInCU: 0x5D0E1, offset: 0x2AD514, size: 0x8, addend: 0x0, symName: __ZNK3tns22V8FunctionCallbackArgs6LengthEv, symObjAddr: 0xAEB0, symBinAddr: 0x330A0, symSize: 0xC }
  - { offsetInCU: 0x5D124, offset: 0x2AD557, size: 0x8, addend: 0x0, symName: __ZNK3tns16V8EmptyValueArgsixEi, symObjAddr: 0xAEBC, symBinAddr: 0x330AC, symSize: 0x8 }
  - { offsetInCU: 0x5D159, offset: 0x2AD58C, size: 0x8, addend: 0x0, symName: __ZNK3tns16V8EmptyValueArgs6LengthEv, symObjAddr: 0xAEC4, symBinAddr: 0x330B4, symSize: 0x8 }
  - { offsetInCU: 0x5D180, offset: 0x2AD5B3, size: 0x8, addend: 0x0, symName: __ZNK3tns17V8SimpleValueArgsixEi, symObjAddr: 0xAECC, symBinAddr: 0x330BC, symSize: 0xC }
  - { offsetInCU: 0x5D1B5, offset: 0x2AD5E8, size: 0x8, addend: 0x0, symName: __ZNK3tns17V8SimpleValueArgs6LengthEv, symObjAddr: 0xAED8, symBinAddr: 0x330C8, symSize: 0x8 }
  - { offsetInCU: 0x5DEBA, offset: 0x2AE2ED, size: 0x8, addend: 0x0, symName: '__ZZN3tns15MetadataBuilder24SwizzledPropertyCallbackEN2v85LocalINS1_4NameEEERKNS1_18PropertyDescriptorERKNS1_20PropertyCallbackInfoINS1_5ValueEEEEN3$_58__invokeEP7ffi_cifPvPSG_SG_', symObjAddr: 0xB950, symBinAddr: 0x331BC, symSize: 0x464 }
  - { offsetInCU: 0x5F45E, offset: 0x2AF891, size: 0x8, addend: 0x0, symName: '__ZZN3tns15MetadataBuilder24SwizzledPropertyCallbackEN2v85LocalINS1_4NameEEERKNS1_18PropertyDescriptorERKNS1_20PropertyCallbackInfoINS1_5ValueEEEEN3$_68__invokeEP7ffi_cifPvPSG_SG_', symObjAddr: 0xBEAC, symBinAddr: 0x33620, symSize: 0x4F0 }
  - { offsetInCU: 0x60DBF, offset: 0x2B11F2, size: 0x8, addend: 0x0, symName: __ZZN3tns6Caches11unique_voidINS_15MetadataBuilder20GlobalHandlerContextEEENSt3__110unique_ptrIvPFvPKvEEEPT_ENUlS7_E_8__invokeES7_, symObjAddr: 0xC958, symBinAddr: 0x33B60, symSize: 0xC }
  - { offsetInCU: 0x60DDD, offset: 0x2B1210, size: 0x8, addend: 0x0, symName: __ZZN3tns6Caches11unique_voidINS_15MetadataBuilder20GlobalHandlerContextEEENSt3__110unique_ptrIvPFvPKvEEEPT_ENUlS7_E_8__invokeES7_, symObjAddr: 0xC958, symBinAddr: 0x33B60, symSize: 0xC }
  - { offsetInCU: 0x610F5, offset: 0x2B1528, size: 0x8, addend: 0x0, symName: __ZN10robin_hood6detail5TableILb1ELm80ENSt3__112basic_stringIcNS2_11char_traitsIcEENS2_9allocatorIcEEEENS2_10unique_ptrIN2v810PersistentINSA_8FunctionENSA_27NonCopyablePersistentTraitsISC_EEEENS2_14default_deleteISF_EEEENS_4hashIS8_vEENS2_8equal_toIS8_EEE13increase_sizeEv, symObjAddr: 0xCEE8, symBinAddr: 0x33EC4, symSize: 0x12C }
  - { offsetInCU: 0x611BF, offset: 0x2B15F2, size: 0x8, addend: 0x0, symName: __ZN10robin_hood6detail5TableILb1ELm80ENSt3__112basic_stringIcNS2_11char_traitsIcEENS2_9allocatorIcEEEENS2_10unique_ptrIN2v810PersistentINSA_8FunctionENSA_27NonCopyablePersistentTraitsISC_EEEENS2_14default_deleteISF_EEEENS_4hashIS8_vEENS2_8equal_toIS8_EEE7shiftUpEmm, symObjAddr: 0xD014, symBinAddr: 0x33FF0, symSize: 0x128 }
  - { offsetInCU: 0x614B3, offset: 0x2B18E6, size: 0x8, addend: 0x0, symName: __ZN10robin_hood6detail5TableILb1ELm80ENSt3__112basic_stringIcNS2_11char_traitsIcEENS2_9allocatorIcEEEENS2_10unique_ptrIN2v810PersistentINSA_8FunctionENSA_27NonCopyablePersistentTraitsISC_EEEENS2_14default_deleteISF_EEEENS_4hashIS8_vEENS2_8equal_toIS8_EEE17try_increase_infoEv, symObjAddr: 0xD208, symBinAddr: 0x341E4, symSize: 0x100 }
  - { offsetInCU: 0x615BA, offset: 0x2B19ED, size: 0x8, addend: 0x0, symName: __ZN10robin_hood6detail5TableILb1ELm80ENSt3__112basic_stringIcNS2_11char_traitsIcEENS2_9allocatorIcEEEENS2_10unique_ptrIN2v810PersistentINSA_8FunctionENSA_27NonCopyablePersistentTraitsISC_EEEENS2_14default_deleteISF_EEEENS_4hashIS8_vEENS2_8equal_toIS8_EEE8initDataEm, symObjAddr: 0xD13C, symBinAddr: 0x34118, symSize: 0xCC }
  - { offsetInCU: 0x616D3, offset: 0x2B1B06, size: 0x8, addend: 0x0, symName: __ZN10robin_hood6detail5TableILb1ELm80ENSt3__112basic_stringIcNS2_11char_traitsIcEENS2_9allocatorIcEEEENS2_10unique_ptrIN2v810PersistentINSA_8FunctionENSA_27NonCopyablePersistentTraitsISC_EEEENS2_14default_deleteISF_EEEENS_4hashIS8_vEENS2_8equal_toIS8_EEE17try_increase_infoEv, symObjAddr: 0xD208, symBinAddr: 0x341E4, symSize: 0x100 }
  - { offsetInCU: 0x616DF, offset: 0x2B1B12, size: 0x8, addend: 0x0, symName: __ZN10robin_hood6detail5TableILb1ELm80ENSt3__112basic_stringIcNS2_11char_traitsIcEENS2_9allocatorIcEEEENS2_10unique_ptrIN2v810PersistentINSA_8FunctionENSA_27NonCopyablePersistentTraitsISC_EEEENS2_14default_deleteISF_EEEENS_4hashIS8_vEENS2_8equal_toIS8_EEE16rehashPowerOfTwoEmb, symObjAddr: 0xD308, symBinAddr: 0x342E4, symSize: 0x110 }
  - { offsetInCU: 0x61ABD, offset: 0x2B1EF0, size: 0x8, addend: 0x0, symName: __ZN10robin_hood6detail5TableILb1ELm80ENSt3__112basic_stringIcNS2_11char_traitsIcEENS2_9allocatorIcEEEENS2_10unique_ptrIN2v810PersistentINSA_8FunctionENSA_27NonCopyablePersistentTraitsISC_EEEENS2_14default_deleteISF_EEEENS_4hashIS8_vEENS2_8equal_toIS8_EEE11insert_moveEONSN_8DataNodeISN_Lb1EEE, symObjAddr: 0xD418, symBinAddr: 0x343F4, symSize: 0x174 }
  - { offsetInCU: 0x6227E, offset: 0x2B26B1, size: 0x8, addend: 0x0, symName: __ZN10robin_hood6detail5TableILb1ELm80ENSt3__14pairIPvNS2_12basic_stringIcNS2_11char_traitsIcEENS2_9allocatorIcEEEEEENS2_10shared_ptrIN2v810PersistentINSD_5ValueENSD_27NonCopyablePersistentTraitsISF_EEEEEEN3tns9pair_hashENS2_8equal_toISB_EEE13increase_sizeEv, symObjAddr: 0xD860, symBinAddr: 0x3477C, symSize: 0x12C }
  - { offsetInCU: 0x62348, offset: 0x2B277B, size: 0x8, addend: 0x0, symName: __ZN10robin_hood6detail5TableILb1ELm80ENSt3__14pairIPvNS2_12basic_stringIcNS2_11char_traitsIcEENS2_9allocatorIcEEEEEENS2_10shared_ptrIN2v810PersistentINSD_5ValueENSD_27NonCopyablePersistentTraitsISF_EEEEEEN3tns9pair_hashENS2_8equal_toISB_EEE7shiftUpEmm, symObjAddr: 0xD98C, symBinAddr: 0x348A8, symSize: 0x134 }
  - { offsetInCU: 0x626A7, offset: 0x2B2ADA, size: 0x8, addend: 0x0, symName: __ZN10robin_hood6detail5TableILb1ELm80ENSt3__14pairIPvNS2_12basic_stringIcNS2_11char_traitsIcEENS2_9allocatorIcEEEEEENS2_10shared_ptrIN2v810PersistentINSD_5ValueENSD_27NonCopyablePersistentTraitsISF_EEEEEEN3tns9pair_hashENS2_8equal_toISB_EEE17try_increase_infoEv, symObjAddr: 0xE0FC, symBinAddr: 0x34AB8, symSize: 0x100 }
  - { offsetInCU: 0x627AE, offset: 0x2B2BE1, size: 0x8, addend: 0x0, symName: __ZN10robin_hood6detail5TableILb1ELm80ENSt3__14pairIPvNS2_12basic_stringIcNS2_11char_traitsIcEENS2_9allocatorIcEEEEEENS2_10shared_ptrIN2v810PersistentINSD_5ValueENSD_27NonCopyablePersistentTraitsISF_EEEEEEN3tns9pair_hashENS2_8equal_toISB_EEE8initDataEm, symObjAddr: 0xE020, symBinAddr: 0x349DC, symSize: 0xDC }
  - { offsetInCU: 0x628C7, offset: 0x2B2CFA, size: 0x8, addend: 0x0, symName: __ZN10robin_hood6detail5TableILb1ELm80ENSt3__14pairIPvNS2_12basic_stringIcNS2_11char_traitsIcEENS2_9allocatorIcEEEEEENS2_10shared_ptrIN2v810PersistentINSD_5ValueENSD_27NonCopyablePersistentTraitsISF_EEEEEEN3tns9pair_hashENS2_8equal_toISB_EEE17try_increase_infoEv, symObjAddr: 0xE0FC, symBinAddr: 0x34AB8, symSize: 0x100 }
  - { offsetInCU: 0x628D3, offset: 0x2B2D06, size: 0x8, addend: 0x0, symName: __ZN10robin_hood6detail5TableILb1ELm80ENSt3__14pairIPvNS2_12basic_stringIcNS2_11char_traitsIcEENS2_9allocatorIcEEEEEENS2_10shared_ptrIN2v810PersistentINSD_5ValueENSD_27NonCopyablePersistentTraitsISF_EEEEEEN3tns9pair_hashENS2_8equal_toISB_EEE16rehashPowerOfTwoEmb, symObjAddr: 0xE1FC, symBinAddr: 0x34BB8, symSize: 0x108 }
  - { offsetInCU: 0x6360F, offset: 0x2B3A42, size: 0x8, addend: 0x0, symName: __ZN10robin_hood6detail5TableILb1ELm80ENSt3__14pairIPvNS2_12basic_stringIcNS2_11char_traitsIcEENS2_9allocatorIcEEEEEENS2_10shared_ptrIN2v810PersistentINSD_5ValueENSD_27NonCopyablePersistentTraitsISF_EEEEEEN3tns9pair_hashENS2_8equal_toISB_EEE11insert_moveEONSO_8DataNodeISO_Lb1EEE, symObjAddr: 0xE304, symBinAddr: 0x34CC0, symSize: 0x184 }
  - { offsetInCU: 0x63AEC, offset: 0x2B3F1F, size: 0x8, addend: 0x0, symName: __ZNK10robin_hood6detail5TableILb1ELm80ENSt3__112basic_stringIcNS2_11char_traitsIcEENS2_9allocatorIcEEEEhNS_4hashIS8_vEENS2_8equal_toIS8_EEE9DestroyerISD_Lb0EE20nodesDoNotDeallocateERSD_, symObjAddr: 0xE530, symBinAddr: 0x34E90, symSize: 0xD0 }
  - { offsetInCU: 0x63F52, offset: 0x2B4385, size: 0x8, addend: 0x0, symName: __ZN10robin_hood6detail5TableILb1ELm80EPKN3tns13BaseClassMetaENSt3__110unique_ptrIN2v810PersistentINS8_16FunctionTemplateENS8_27NonCopyablePersistentTraitsISA_EEEENS6_14default_deleteISD_EEEENS_4hashIS5_vEENS6_8equal_toIS5_EEE13increase_sizeEv, symObjAddr: 0xE8F4, symBinAddr: 0x35254, symSize: 0x12C }
  - { offsetInCU: 0x6401C, offset: 0x2B444F, size: 0x8, addend: 0x0, symName: __ZN10robin_hood6detail5TableILb1ELm80EPKN3tns13BaseClassMetaENSt3__110unique_ptrIN2v810PersistentINS8_16FunctionTemplateENS8_27NonCopyablePersistentTraitsISA_EEEENS6_14default_deleteISD_EEEENS_4hashIS5_vEENS6_8equal_toIS5_EEE7shiftUpEmm, symObjAddr: 0xEA20, symBinAddr: 0x35380, symSize: 0xE4 }
  - { offsetInCU: 0x641D7, offset: 0x2B460A, size: 0x8, addend: 0x0, symName: __ZN10robin_hood6detail5TableILb1ELm80EPKN3tns13BaseClassMetaENSt3__110unique_ptrIN2v810PersistentINS8_16FunctionTemplateENS8_27NonCopyablePersistentTraitsISA_EEEENS6_14default_deleteISD_EEEENS_4hashIS5_vEENS6_8equal_toIS5_EEE17try_increase_infoEv, symObjAddr: 0xEBD0, symBinAddr: 0x35530, symSize: 0x100 }
  - { offsetInCU: 0x642DE, offset: 0x2B4711, size: 0x8, addend: 0x0, symName: __ZN10robin_hood6detail5TableILb1ELm80EPKN3tns13BaseClassMetaENSt3__110unique_ptrIN2v810PersistentINS8_16FunctionTemplateENS8_27NonCopyablePersistentTraitsISA_EEEENS6_14default_deleteISD_EEEENS_4hashIS5_vEENS6_8equal_toIS5_EEE8initDataEm, symObjAddr: 0xEB04, symBinAddr: 0x35464, symSize: 0xCC }
  - { offsetInCU: 0x643F7, offset: 0x2B482A, size: 0x8, addend: 0x0, symName: __ZN10robin_hood6detail5TableILb1ELm80EPKN3tns13BaseClassMetaENSt3__110unique_ptrIN2v810PersistentINS8_16FunctionTemplateENS8_27NonCopyablePersistentTraitsISA_EEEENS6_14default_deleteISD_EEEENS_4hashIS5_vEENS6_8equal_toIS5_EEE17try_increase_infoEv, symObjAddr: 0xEBD0, symBinAddr: 0x35530, symSize: 0x100 }
  - { offsetInCU: 0x64403, offset: 0x2B4836, size: 0x8, addend: 0x0, symName: __ZN10robin_hood6detail5TableILb1ELm80EPKN3tns13BaseClassMetaENSt3__110unique_ptrIN2v810PersistentINS8_16FunctionTemplateENS8_27NonCopyablePersistentTraitsISA_EEEENS6_14default_deleteISD_EEEENS_4hashIS5_vEENS6_8equal_toIS5_EEE16rehashPowerOfTwoEmb, symObjAddr: 0xECD0, symBinAddr: 0x35630, symSize: 0x100 }
  - { offsetInCU: 0x646C6, offset: 0x2B4AF9, size: 0x8, addend: 0x0, symName: __ZN10robin_hood6detail5TableILb1ELm80EPKN3tns13BaseClassMetaENSt3__110unique_ptrIN2v810PersistentINS8_16FunctionTemplateENS8_27NonCopyablePersistentTraitsISA_EEEENS6_14default_deleteISD_EEEENS_4hashIS5_vEENS6_8equal_toIS5_EEE11insert_moveEONSL_8DataNodeISL_Lb1EEE, symObjAddr: 0xEDD0, symBinAddr: 0x35730, symSize: 0x158 }
  - { offsetInCU: 0x64B9A, offset: 0x2B4FCD, size: 0x8, addend: 0x0, symName: __ZN10robin_hood6detail5TableILb1ELm80EPKN3tns4MetaENSt3__110unique_ptrIN2v810PersistentINS8_5ValueENS8_27NonCopyablePersistentTraitsISA_EEEENS6_14default_deleteISD_EEEENS_4hashIS5_vEENS6_8equal_toIS5_EEE13increase_sizeEv, symObjAddr: 0xF10C, symBinAddr: 0x35A6C, symSize: 0x12C }
  - { offsetInCU: 0x64C64, offset: 0x2B5097, size: 0x8, addend: 0x0, symName: __ZN10robin_hood6detail5TableILb1ELm80EPKN3tns4MetaENSt3__110unique_ptrIN2v810PersistentINS8_5ValueENS8_27NonCopyablePersistentTraitsISA_EEEENS6_14default_deleteISD_EEEENS_4hashIS5_vEENS6_8equal_toIS5_EEE7shiftUpEmm, symObjAddr: 0xF238, symBinAddr: 0x35B98, symSize: 0xE4 }
  - { offsetInCU: 0x64E24, offset: 0x2B5257, size: 0x8, addend: 0x0, symName: __ZN10robin_hood6detail5TableILb1ELm80EPKN3tns4MetaENSt3__110unique_ptrIN2v810PersistentINS8_5ValueENS8_27NonCopyablePersistentTraitsISA_EEEENS6_14default_deleteISD_EEEENS_4hashIS5_vEENS6_8equal_toIS5_EEE17try_increase_infoEv, symObjAddr: 0xF3E8, symBinAddr: 0x35D48, symSize: 0x100 }
  - { offsetInCU: 0x64F2B, offset: 0x2B535E, size: 0x8, addend: 0x0, symName: __ZN10robin_hood6detail5TableILb1ELm80EPKN3tns4MetaENSt3__110unique_ptrIN2v810PersistentINS8_5ValueENS8_27NonCopyablePersistentTraitsISA_EEEENS6_14default_deleteISD_EEEENS_4hashIS5_vEENS6_8equal_toIS5_EEE8initDataEm, symObjAddr: 0xF31C, symBinAddr: 0x35C7C, symSize: 0xCC }
  - { offsetInCU: 0x65044, offset: 0x2B5477, size: 0x8, addend: 0x0, symName: __ZN10robin_hood6detail5TableILb1ELm80EPKN3tns4MetaENSt3__110unique_ptrIN2v810PersistentINS8_5ValueENS8_27NonCopyablePersistentTraitsISA_EEEENS6_14default_deleteISD_EEEENS_4hashIS5_vEENS6_8equal_toIS5_EEE17try_increase_infoEv, symObjAddr: 0xF3E8, symBinAddr: 0x35D48, symSize: 0x100 }
  - { offsetInCU: 0x65050, offset: 0x2B5483, size: 0x8, addend: 0x0, symName: __ZN10robin_hood6detail5TableILb1ELm80EPKN3tns4MetaENSt3__110unique_ptrIN2v810PersistentINS8_5ValueENS8_27NonCopyablePersistentTraitsISA_EEEENS6_14default_deleteISD_EEEENS_4hashIS5_vEENS6_8equal_toIS5_EEE16rehashPowerOfTwoEmb, symObjAddr: 0xF4E8, symBinAddr: 0x35E48, symSize: 0x100 }
  - { offsetInCU: 0x65313, offset: 0x2B5746, size: 0x8, addend: 0x0, symName: __ZN10robin_hood6detail5TableILb1ELm80EPKN3tns4MetaENSt3__110unique_ptrIN2v810PersistentINS8_5ValueENS8_27NonCopyablePersistentTraitsISA_EEEENS6_14default_deleteISD_EEEENS_4hashIS5_vEENS6_8equal_toIS5_EEE11insert_moveEONSL_8DataNodeISL_Lb1EEE, symObjAddr: 0xF5E8, symBinAddr: 0x35F48, symSize: 0x158 }
  - { offsetInCU: 0x65870, offset: 0x2B5CA3, size: 0x8, addend: 0x0, symName: __ZN10robin_hood6detail5TableILb1ELm80ENSt3__112basic_stringIcNS2_11char_traitsIcEENS2_9allocatorIcEEEEhNS_4hashIS8_vEENS2_8equal_toIS8_EEE13increase_sizeEv, symObjAddr: 0xFA90, symBinAddr: 0x363F0, symSize: 0x12C }
  - { offsetInCU: 0x6593A, offset: 0x2B5D6D, size: 0x8, addend: 0x0, symName: __ZN10robin_hood6detail5TableILb1ELm80ENSt3__112basic_stringIcNS2_11char_traitsIcEENS2_9allocatorIcEEEEhNS_4hashIS8_vEENS2_8equal_toIS8_EEE7shiftUpEmm, symObjAddr: 0xFBBC, symBinAddr: 0x3651C, symSize: 0x120 }
  - { offsetInCU: 0x65C08, offset: 0x2B603B, size: 0x8, addend: 0x0, symName: __ZN10robin_hood6detail5TableILb1ELm80ENSt3__112basic_stringIcNS2_11char_traitsIcEENS2_9allocatorIcEEEEhNS_4hashIS8_vEENS2_8equal_toIS8_EEE17try_increase_infoEv, symObjAddr: 0xFDA8, symBinAddr: 0x36708, symSize: 0x100 }
  - { offsetInCU: 0x65D0F, offset: 0x2B6142, size: 0x8, addend: 0x0, symName: __ZN10robin_hood6detail5TableILb1ELm80ENSt3__112basic_stringIcNS2_11char_traitsIcEENS2_9allocatorIcEEEEhNS_4hashIS8_vEENS2_8equal_toIS8_EEE8initDataEm, symObjAddr: 0xFCDC, symBinAddr: 0x3663C, symSize: 0xCC }
  - { offsetInCU: 0x65E28, offset: 0x2B625B, size: 0x8, addend: 0x0, symName: __ZN10robin_hood6detail5TableILb1ELm80ENSt3__112basic_stringIcNS2_11char_traitsIcEENS2_9allocatorIcEEEEhNS_4hashIS8_vEENS2_8equal_toIS8_EEE17try_increase_infoEv, symObjAddr: 0xFDA8, symBinAddr: 0x36708, symSize: 0x100 }
  - { offsetInCU: 0x65E34, offset: 0x2B6267, size: 0x8, addend: 0x0, symName: __ZN10robin_hood6detail5TableILb1ELm80ENSt3__112basic_stringIcNS2_11char_traitsIcEENS2_9allocatorIcEEEEhNS_4hashIS8_vEENS2_8equal_toIS8_EEE16rehashPowerOfTwoEmb, symObjAddr: 0xFEA8, symBinAddr: 0x36808, symSize: 0x100 }
  - { offsetInCU: 0x66157, offset: 0x2B658A, size: 0x8, addend: 0x0, symName: __ZN10robin_hood6detail5TableILb1ELm80ENSt3__112basic_stringIcNS2_11char_traitsIcEENS2_9allocatorIcEEEEhNS_4hashIS8_vEENS2_8equal_toIS8_EEE11insert_moveEONSD_8DataNodeISD_Lb1EEE, symObjAddr: 0xFFA8, symBinAddr: 0x36908, symSize: 0x15C }
  - { offsetInCU: 0x66706, offset: 0x2B6B39, size: 0x8, addend: 0x0, symName: __ZNSt3__128__exception_guard_exceptionsINS_29_AllocatorDestroyRangeReverseINS_9allocatorINS_12basic_stringIcNS_11char_traitsIcEENS2_IcEEEEEENS_16reverse_iteratorIPS7_EEEEED2B7v160006Ev, symObjAddr: 0x102A4, symBinAddr: 0x36C04, symSize: 0x34 }
  - { offsetInCU: 0x6673F, offset: 0x2B6B72, size: 0x8, addend: 0x0, symName: __ZNKSt3__129_AllocatorDestroyRangeReverseINS_9allocatorINS_12basic_stringIcNS_11char_traitsIcEENS1_IcEEEEEENS_16reverse_iteratorIPS6_EEEclB7v160006Ev, symObjAddr: 0x102D8, symBinAddr: 0x36C38, symSize: 0x44 }
  - { offsetInCU: 0x6694D, offset: 0x2B6D80, size: 0x8, addend: 0x0, symName: __ZNSt3__114__split_bufferINS_12basic_stringIcNS_11char_traitsIcEENS_9allocatorIcEEEERNS4_IS6_EEE17__destruct_at_endB7v160006EPS6_, symObjAddr: 0x10350, symBinAddr: 0x36CB0, symSize: 0x54 }
  - { offsetInCU: 0x67889, offset: 0x2B7CBC, size: 0x8, addend: 0x0, symName: '__ZNSt3__110__function6__funcIZN3tns15MetadataBuilder17CFunctionCallbackERKN2v820FunctionCallbackInfoINS4_5ValueEEEE3$_2NS_9allocatorISA_EEFvvEED1Ev', symObjAddr: 0x10BBC, symBinAddr: 0x36F24, symSize: 0x30 }
  - { offsetInCU: 0x679E8, offset: 0x2B7E1B, size: 0x8, addend: 0x0, symName: '__ZNSt3__110__function6__funcIZN3tns15MetadataBuilder17CFunctionCallbackERKN2v820FunctionCallbackInfoINS4_5ValueEEEE3$_2NS_9allocatorISA_EEFvvEED0Ev', symObjAddr: 0x10BEC, symBinAddr: 0x36F54, symSize: 0x30 }
  - { offsetInCU: 0x67E55, offset: 0x2B8288, size: 0x8, addend: 0x0, symName: '__ZNKSt3__110__function6__funcIZN3tns15MetadataBuilder17CFunctionCallbackERKN2v820FunctionCallbackInfoINS4_5ValueEEEE3$_2NS_9allocatorISA_EEFvvEE7__cloneEv', symObjAddr: 0x10C1C, symBinAddr: 0x36F84, symSize: 0x60 }
  - { offsetInCU: 0x6830E, offset: 0x2B8741, size: 0x8, addend: 0x0, symName: '__ZNKSt3__110__function6__funcIZN3tns15MetadataBuilder17CFunctionCallbackERKN2v820FunctionCallbackInfoINS4_5ValueEEEE3$_2NS_9allocatorISA_EEFvvEE7__cloneEPNS0_6__baseISD_EE', symObjAddr: 0x10C7C, symBinAddr: 0x36FE4, symSize: 0x24 }
  - { offsetInCU: 0x6834A, offset: 0x2B877D, size: 0x8, addend: 0x0, symName: '__ZNKSt3__110__function6__funcIZN3tns15MetadataBuilder17CFunctionCallbackERKN2v820FunctionCallbackInfoINS4_5ValueEEEE3$_2NS_9allocatorISA_EEFvvEE7__cloneEPNS0_6__baseISD_EE', symObjAddr: 0x10C7C, symBinAddr: 0x36FE4, symSize: 0x24 }
  - { offsetInCU: 0x6837E, offset: 0x2B87B1, size: 0x8, addend: 0x0, symName: '__ZNKSt3__110__function6__funcIZN3tns15MetadataBuilder17CFunctionCallbackERKN2v820FunctionCallbackInfoINS4_5ValueEEEE3$_2NS_9allocatorISA_EEFvvEE7__cloneEPNS0_6__baseISD_EE', symObjAddr: 0x10C7C, symBinAddr: 0x36FE4, symSize: 0x24 }
  - { offsetInCU: 0x68545, offset: 0x2B8978, size: 0x8, addend: 0x0, symName: '__ZNSt3__110__function6__funcIZN3tns15MetadataBuilder17CFunctionCallbackERKN2v820FunctionCallbackInfoINS4_5ValueEEEE3$_2NS_9allocatorISA_EEFvvEE7destroyEv', symObjAddr: 0x10CA0, symBinAddr: 0x37008, symSize: 0x8 }
  - { offsetInCU: 0x68570, offset: 0x2B89A3, size: 0x8, addend: 0x0, symName: '__ZNSt3__110__function6__funcIZN3tns15MetadataBuilder17CFunctionCallbackERKN2v820FunctionCallbackInfoINS4_5ValueEEEE3$_2NS_9allocatorISA_EEFvvEE7destroyEv', symObjAddr: 0x10CA0, symBinAddr: 0x37008, symSize: 0x8 }
  - { offsetInCU: 0x68590, offset: 0x2B89C3, size: 0x8, addend: 0x0, symName: '__ZNSt3__110__function6__funcIZN3tns15MetadataBuilder17CFunctionCallbackERKN2v820FunctionCallbackInfoINS4_5ValueEEEE3$_2NS_9allocatorISA_EEFvvEE7destroyEv', symObjAddr: 0x10CA0, symBinAddr: 0x37008, symSize: 0x8 }
  - { offsetInCU: 0x685AE, offset: 0x2B89E1, size: 0x8, addend: 0x0, symName: '__ZNSt3__110__function6__funcIZN3tns15MetadataBuilder17CFunctionCallbackERKN2v820FunctionCallbackInfoINS4_5ValueEEEE3$_2NS_9allocatorISA_EEFvvEE7destroyEv', symObjAddr: 0x10CA0, symBinAddr: 0x37008, symSize: 0x8 }
  - { offsetInCU: 0x685CC, offset: 0x2B89FF, size: 0x8, addend: 0x0, symName: '__ZNSt3__110__function6__funcIZN3tns15MetadataBuilder17CFunctionCallbackERKN2v820FunctionCallbackInfoINS4_5ValueEEEE3$_2NS_9allocatorISA_EEFvvEE7destroyEv', symObjAddr: 0x10CA0, symBinAddr: 0x37008, symSize: 0x8 }
  - { offsetInCU: 0x685EA, offset: 0x2B8A1D, size: 0x8, addend: 0x0, symName: '__ZNSt3__110__function6__funcIZN3tns15MetadataBuilder17CFunctionCallbackERKN2v820FunctionCallbackInfoINS4_5ValueEEEE3$_2NS_9allocatorISA_EEFvvEE7destroyEv', symObjAddr: 0x10CA0, symBinAddr: 0x37008, symSize: 0x8 }
  - { offsetInCU: 0x68608, offset: 0x2B8A3B, size: 0x8, addend: 0x0, symName: '__ZNSt3__110__function6__funcIZN3tns15MetadataBuilder17CFunctionCallbackERKN2v820FunctionCallbackInfoINS4_5ValueEEEE3$_2NS_9allocatorISA_EEFvvEE7destroyEv', symObjAddr: 0x10CA0, symBinAddr: 0x37008, symSize: 0x8 }
  - { offsetInCU: 0x68658, offset: 0x2B8A8B, size: 0x8, addend: 0x0, symName: '__ZNSt3__110__function6__funcIZN3tns15MetadataBuilder17CFunctionCallbackERKN2v820FunctionCallbackInfoINS4_5ValueEEEE3$_2NS_9allocatorISA_EEFvvEE18destroy_deallocateEv', symObjAddr: 0x10CA8, symBinAddr: 0x37010, symSize: 0x28 }
  - { offsetInCU: 0x68E0A, offset: 0x2B923D, size: 0x8, addend: 0x0, symName: '__ZNSt3__110__function6__funcIZN3tns15MetadataBuilder17CFunctionCallbackERKN2v820FunctionCallbackInfoINS4_5ValueEEEE3$_2NS_9allocatorISA_EEFvvEEclEv', symObjAddr: 0x10CD0, symBinAddr: 0x37038, symSize: 0x358 }
  - { offsetInCU: 0x69F84, offset: 0x2BA3B7, size: 0x8, addend: 0x0, symName: '__ZNSt3__110__function6__funcIZN3tns15MetadataBuilder30SwizzledInstanceMethodCallbackEN2v85LocalINS4_4NameEEENS5_INS4_5ValueEEERKNS4_20PropertyCallbackInfoIS8_EEE3$_3NS_9allocatorISE_EEFiRKNS2_5PtrToINS2_10MethodMetaEEEEED1Ev', symObjAddr: 0x11174, symBinAddr: 0x37390, symSize: 0x3C }
  - { offsetInCU: 0x6A1E4, offset: 0x2BA617, size: 0x8, addend: 0x0, symName: '__ZNSt3__110__function6__funcIZN3tns15MetadataBuilder30SwizzledInstanceMethodCallbackEN2v85LocalINS4_4NameEEENS5_INS4_5ValueEEERKNS4_20PropertyCallbackInfoIS8_EEE3$_3NS_9allocatorISE_EEFiRKNS2_5PtrToINS2_10MethodMetaEEEEED0Ev', symObjAddr: 0x111B0, symBinAddr: 0x373CC, symSize: 0x3C }
  - { offsetInCU: 0x6A752, offset: 0x2BAB85, size: 0x8, addend: 0x0, symName: '__ZNKSt3__110__function6__funcIZN3tns15MetadataBuilder30SwizzledInstanceMethodCallbackEN2v85LocalINS4_4NameEEENS5_INS4_5ValueEEERKNS4_20PropertyCallbackInfoIS8_EEE3$_3NS_9allocatorISE_EEFiRKNS2_5PtrToINS2_10MethodMetaEEEEE7__cloneEv', symObjAddr: 0x111EC, symBinAddr: 0x37408, symSize: 0x54 }
  - { offsetInCU: 0x6ABB8, offset: 0x2BAFEB, size: 0x8, addend: 0x0, symName: '__ZNKSt3__110__function6__funcIZN3tns15MetadataBuilder30SwizzledInstanceMethodCallbackEN2v85LocalINS4_4NameEEENS5_INS4_5ValueEEERKNS4_20PropertyCallbackInfoIS8_EEE3$_3NS_9allocatorISE_EEFiRKNS2_5PtrToINS2_10MethodMetaEEEEE7__cloneEPNS0_6__baseISM_EE', symObjAddr: 0x11240, symBinAddr: 0x3745C, symSize: 0x1C }
  - { offsetInCU: 0x6AD7A, offset: 0x2BB1AD, size: 0x8, addend: 0x0, symName: '__ZNSt3__110__function6__funcIZN3tns15MetadataBuilder30SwizzledInstanceMethodCallbackEN2v85LocalINS4_4NameEEENS5_INS4_5ValueEEERKNS4_20PropertyCallbackInfoIS8_EEE3$_3NS_9allocatorISE_EEFiRKNS2_5PtrToINS2_10MethodMetaEEEEE7destroyEv', symObjAddr: 0x1125C, symBinAddr: 0x37478, symSize: 0x14 }
  - { offsetInCU: 0x6AE61, offset: 0x2BB294, size: 0x8, addend: 0x0, symName: '__ZNSt3__110__function6__funcIZN3tns15MetadataBuilder30SwizzledInstanceMethodCallbackEN2v85LocalINS4_4NameEEENS5_INS4_5ValueEEERKNS4_20PropertyCallbackInfoIS8_EEE3$_3NS_9allocatorISE_EEFiRKNS2_5PtrToINS2_10MethodMetaEEEEE7destroyEv', symObjAddr: 0x1125C, symBinAddr: 0x37478, symSize: 0x14 }
  - { offsetInCU: 0x6AF42, offset: 0x2BB375, size: 0x8, addend: 0x0, symName: '__ZNSt3__110__function6__funcIZN3tns15MetadataBuilder30SwizzledInstanceMethodCallbackEN2v85LocalINS4_4NameEEENS5_INS4_5ValueEEERKNS4_20PropertyCallbackInfoIS8_EEE3$_3NS_9allocatorISE_EEFiRKNS2_5PtrToINS2_10MethodMetaEEEEE18destroy_deallocateEv', symObjAddr: 0x11270, symBinAddr: 0x3748C, symSize: 0x30 }
  - { offsetInCU: 0x6B299, offset: 0x2BB6CC, size: 0x8, addend: 0x0, symName: '__ZNSt3__110__function6__funcIZN3tns15MetadataBuilder30SwizzledInstanceMethodCallbackEN2v85LocalINS4_4NameEEENS5_INS4_5ValueEEERKNS4_20PropertyCallbackInfoIS8_EEE3$_3NS_9allocatorISE_EEFiRKNS2_5PtrToINS2_10MethodMetaEEEEEclESL_', symObjAddr: 0x112A0, symBinAddr: 0x374BC, symSize: 0x140 }
  - { offsetInCU: 0x6B99E, offset: 0x2BBDD1, size: 0x8, addend: 0x0, symName: __ZNSt3__120__shared_ptr_emplaceIN2v810PersistentINS1_5ValueENS1_27NonCopyablePersistentTraitsIS3_EEEENS_9allocatorIS6_EEEC2B7v160006IJRPNS1_7IsolateERNS1_5LocalIS3_EEEEES8_DpOT_, symObjAddr: 0x11440, symBinAddr: 0x3765C, symSize: 0x68 }
  - { offsetInCU: 0x6BBBE, offset: 0x2BBFF1, size: 0x8, addend: 0x0, symName: '__ZNSt3__110__function6__funcIZN3tns15MetadataBuilder24SwizzledPropertyCallbackEN2v85LocalINS4_4NameEEERKNS4_18PropertyDescriptorERKNS4_20PropertyCallbackInfoINS4_5ValueEEEE3$_4NS_9allocatorISG_EEFiRKNS2_5PtrToINS2_12PropertyMetaEEEEED1Ev', symObjAddr: 0x1151C, symBinAddr: 0x376C4, symSize: 0x3C }
  - { offsetInCU: 0x6BE1E, offset: 0x2BC251, size: 0x8, addend: 0x0, symName: '__ZNSt3__110__function6__funcIZN3tns15MetadataBuilder24SwizzledPropertyCallbackEN2v85LocalINS4_4NameEEERKNS4_18PropertyDescriptorERKNS4_20PropertyCallbackInfoINS4_5ValueEEEE3$_4NS_9allocatorISG_EEFiRKNS2_5PtrToINS2_12PropertyMetaEEEEED0Ev', symObjAddr: 0x11558, symBinAddr: 0x37700, symSize: 0x3C }
  - { offsetInCU: 0x6C38C, offset: 0x2BC7BF, size: 0x8, addend: 0x0, symName: '__ZNKSt3__110__function6__funcIZN3tns15MetadataBuilder24SwizzledPropertyCallbackEN2v85LocalINS4_4NameEEERKNS4_18PropertyDescriptorERKNS4_20PropertyCallbackInfoINS4_5ValueEEEE3$_4NS_9allocatorISG_EEFiRKNS2_5PtrToINS2_12PropertyMetaEEEEE7__cloneEv', symObjAddr: 0x11594, symBinAddr: 0x3773C, symSize: 0x54 }
  - { offsetInCU: 0x6C7F2, offset: 0x2BCC25, size: 0x8, addend: 0x0, symName: '__ZNKSt3__110__function6__funcIZN3tns15MetadataBuilder24SwizzledPropertyCallbackEN2v85LocalINS4_4NameEEERKNS4_18PropertyDescriptorERKNS4_20PropertyCallbackInfoINS4_5ValueEEEE3$_4NS_9allocatorISG_EEFiRKNS2_5PtrToINS2_12PropertyMetaEEEEE7__cloneEPNS0_6__baseISO_EE', symObjAddr: 0x115E8, symBinAddr: 0x37790, symSize: 0x1C }
  - { offsetInCU: 0x6C9B4, offset: 0x2BCDE7, size: 0x8, addend: 0x0, symName: '__ZNSt3__110__function6__funcIZN3tns15MetadataBuilder24SwizzledPropertyCallbackEN2v85LocalINS4_4NameEEERKNS4_18PropertyDescriptorERKNS4_20PropertyCallbackInfoINS4_5ValueEEEE3$_4NS_9allocatorISG_EEFiRKNS2_5PtrToINS2_12PropertyMetaEEEEE7destroyEv', symObjAddr: 0x11604, symBinAddr: 0x377AC, symSize: 0x14 }
  - { offsetInCU: 0x6CA9B, offset: 0x2BCECE, size: 0x8, addend: 0x0, symName: '__ZNSt3__110__function6__funcIZN3tns15MetadataBuilder24SwizzledPropertyCallbackEN2v85LocalINS4_4NameEEERKNS4_18PropertyDescriptorERKNS4_20PropertyCallbackInfoINS4_5ValueEEEE3$_4NS_9allocatorISG_EEFiRKNS2_5PtrToINS2_12PropertyMetaEEEEE7destroyEv', symObjAddr: 0x11604, symBinAddr: 0x377AC, symSize: 0x14 }
  - { offsetInCU: 0x6CB7C, offset: 0x2BCFAF, size: 0x8, addend: 0x0, symName: '__ZNSt3__110__function6__funcIZN3tns15MetadataBuilder24SwizzledPropertyCallbackEN2v85LocalINS4_4NameEEERKNS4_18PropertyDescriptorERKNS4_20PropertyCallbackInfoINS4_5ValueEEEE3$_4NS_9allocatorISG_EEFiRKNS2_5PtrToINS2_12PropertyMetaEEEEE18destroy_deallocateEv', symObjAddr: 0x11618, symBinAddr: 0x377C0, symSize: 0x30 }
  - { offsetInCU: 0x6CED3, offset: 0x2BD306, size: 0x8, addend: 0x0, symName: '__ZNSt3__110__function6__funcIZN3tns15MetadataBuilder24SwizzledPropertyCallbackEN2v85LocalINS4_4NameEEERKNS4_18PropertyDescriptorERKNS4_20PropertyCallbackInfoINS4_5ValueEEEE3$_4NS_9allocatorISG_EEFiRKNS2_5PtrToINS2_12PropertyMetaEEEEEclESN_', symObjAddr: 0x11648, symBinAddr: 0x377F0, symSize: 0x140 }
  - { offsetInCU: 0x6D7AE, offset: 0x2BDBE1, size: 0x8, addend: 0x0, symName: __ZNSt3__120__shared_ptr_emplaceIN2v810PersistentINS1_8FunctionENS1_27NonCopyablePersistentTraitsIS3_EEEENS_9allocatorIS6_EEEC2B7v160006IJRPNS1_7IsolateENS1_5LocalIS3_EEEEES8_DpOT_, symObjAddr: 0x117E8, symBinAddr: 0x37990, symSize: 0x68 }
  - { offsetInCU: 0x6D92A, offset: 0x2BDD5D, size: 0x8, addend: 0x0, symName: __ZNSt3__120__shared_ptr_emplaceIN2v810PersistentINS1_8FunctionENS1_27NonCopyablePersistentTraitsIS3_EEEENS_9allocatorIS6_EEED1Ev, symObjAddr: 0x11850, symBinAddr: 0x379F8, symSize: 0x14 }
  - { offsetInCU: 0x6D94B, offset: 0x2BDD7E, size: 0x8, addend: 0x0, symName: __ZNSt3__120__shared_ptr_emplaceIN2v810PersistentINS1_8FunctionENS1_27NonCopyablePersistentTraitsIS3_EEEENS_9allocatorIS6_EEED1Ev, symObjAddr: 0x11850, symBinAddr: 0x379F8, symSize: 0x14 }
  - { offsetInCU: 0x6D983, offset: 0x2BDDB6, size: 0x8, addend: 0x0, symName: __ZNSt3__120__shared_ptr_emplaceIN2v810PersistentINS1_8FunctionENS1_27NonCopyablePersistentTraitsIS3_EEEENS_9allocatorIS6_EEED0Ev, symObjAddr: 0x11864, symBinAddr: 0x37A0C, symSize: 0x24 }
  - { offsetInCU: 0x6D9EA, offset: 0x2BDE1D, size: 0x8, addend: 0x0, symName: __ZNSt3__120__shared_ptr_emplaceIN2v810PersistentINS1_8FunctionENS1_27NonCopyablePersistentTraitsIS3_EEEENS_9allocatorIS6_EEE16__on_zero_sharedEv, symObjAddr: 0x11888, symBinAddr: 0x37A30, symSize: 0x4 }
  - { offsetInCU: 0x6DA0E, offset: 0x2BDE41, size: 0x8, addend: 0x0, symName: __ZNSt3__120__shared_ptr_emplaceIN2v810PersistentINS1_8FunctionENS1_27NonCopyablePersistentTraitsIS3_EEEENS_9allocatorIS6_EEE21__on_zero_shared_weakEv, symObjAddr: 0x1188C, symBinAddr: 0x37A34, symSize: 0x4 }
  - { offsetInCU: 0x6DA41, offset: 0x2BDE74, size: 0x8, addend: 0x0, symName: __ZNSt3__120__shared_ptr_emplaceIN2v810PersistentINS1_8FunctionENS1_27NonCopyablePersistentTraitsIS3_EEEENS_9allocatorIS6_EEE21__on_zero_shared_weakEv, symObjAddr: 0x1188C, symBinAddr: 0x37A34, symSize: 0x4 }
  - { offsetInCU: 0x6DA65, offset: 0x2BDE98, size: 0x8, addend: 0x0, symName: __ZNSt3__120__shared_ptr_emplaceIN2v810PersistentINS1_8FunctionENS1_27NonCopyablePersistentTraitsIS3_EEEENS_9allocatorIS6_EEE21__on_zero_shared_weakEv, symObjAddr: 0x1188C, symBinAddr: 0x37A34, symSize: 0x4 }
  - { offsetInCU: 0x6DA89, offset: 0x2BDEBC, size: 0x8, addend: 0x0, symName: __ZNSt3__120__shared_ptr_emplaceIN2v810PersistentINS1_8FunctionENS1_27NonCopyablePersistentTraitsIS3_EEEENS_9allocatorIS6_EEE21__on_zero_shared_weakEv, symObjAddr: 0x1188C, symBinAddr: 0x37A34, symSize: 0x4 }
  - { offsetInCU: 0x6DAB5, offset: 0x2BDEE8, size: 0x8, addend: 0x0, symName: __ZNSt3__120__shared_ptr_emplaceIN2v810PersistentINS1_8FunctionENS1_27NonCopyablePersistentTraitsIS3_EEEENS_9allocatorIS6_EEE21__on_zero_shared_weakEv, symObjAddr: 0x1188C, symBinAddr: 0x37A34, symSize: 0x4 }
  - { offsetInCU: 0x6DADC, offset: 0x2BDF0F, size: 0x8, addend: 0x0, symName: __ZNSt3__120__shared_ptr_emplaceIN2v810PersistentINS1_8FunctionENS1_27NonCopyablePersistentTraitsIS3_EEEENS_9allocatorIS6_EEE21__on_zero_shared_weakEv, symObjAddr: 0x1188C, symBinAddr: 0x37A34, symSize: 0x4 }
  - { offsetInCU: 0xDFC4, offset: 0x2CBFAA, size: 0x8, addend: 0x0, symName: __ZN3tns9Reference8RegisterEN2v85LocalINS1_7ContextEEENS2_INS1_6ObjectEEE, symObjAddr: 0x0, symBinAddr: 0x37A38, symSize: 0x118 }
  - { offsetInCU: 0xE3EA, offset: 0x2CC3D0, size: 0x8, addend: 0x0, symName: __ZN3tns9Reference27GetInteropReferenceCtorFuncEN2v85LocalINS1_7ContextEEE, symObjAddr: 0x118, symBinAddr: 0x37B50, symSize: 0x440 }
  - { offsetInCU: 0xFBAF, offset: 0x2CDB95, size: 0x8, addend: 0x0, symName: __ZN3tns9Reference22RegisterToStringMethodEN2v85LocalINS1_7ContextEEENS2_INS1_6ObjectEEE, symObjAddr: 0xBD4, symBinAddr: 0x3860C, symSize: 0x174 }
  - { offsetInCU: 0x102A1, offset: 0x2CE287, size: 0x8, addend: 0x0, symName: __ZN3tns9Reference11FromPointerEN2v85LocalINS1_7ContextEEENS2_INS1_5ValueEEEPv, symObjAddr: 0x558, symBinAddr: 0x37F90, symSize: 0x16C }
  - { offsetInCU: 0x10A95, offset: 0x2CEA7B, size: 0x8, addend: 0x0, symName: __ZN3tns9Reference28ReferenceConstructorCallbackERKN2v820FunctionCallbackInfoINS1_5ValueEEE, symObjAddr: 0x6C4, symBinAddr: 0x380FC, symSize: 0x260 }
  - { offsetInCU: 0x11665, offset: 0x2CF64B, size: 0x8, addend: 0x0, symName: __ZN3tns9Reference26IndexedPropertyGetCallbackEjRKN2v820PropertyCallbackInfoINS1_5ValueEEE, symObjAddr: 0x924, symBinAddr: 0x3835C, symSize: 0xEC }
  - { offsetInCU: 0x1193E, offset: 0x2CF924, size: 0x8, addend: 0x0, symName: __ZN3tns9Reference23GetTypeEncodingDataPairEN2v85LocalINS1_6ObjectEEE, symObjAddr: 0xD48, symBinAddr: 0x38780, symSize: 0x210 }
  - { offsetInCU: 0x125E6, offset: 0x2D05CC, size: 0x8, addend: 0x0, symName: __ZN3tns9Reference26IndexedPropertySetCallbackEjN2v85LocalINS1_5ValueEEERKNS1_20PropertyCallbackInfoIS3_EE, symObjAddr: 0xA10, symBinAddr: 0x38448, symSize: 0x6C }
  - { offsetInCU: 0x12725, offset: 0x2D070B, size: 0x8, addend: 0x0, symName: __ZN3tns9Reference16GetValueCallbackEN2v85LocalINS1_4NameEEERKNS1_20PropertyCallbackInfoINS1_5ValueEEE, symObjAddr: 0xA7C, symBinAddr: 0x384B4, symSize: 0x4C }
  - { offsetInCU: 0x12823, offset: 0x2D0809, size: 0x8, addend: 0x0, symName: __ZN3tns9Reference16GetReferredValueEN2v85LocalINS1_7ContextEEENS2_INS1_5ValueEEE, symObjAddr: 0xF58, symBinAddr: 0x38990, symSize: 0x2DC }
  - { offsetInCU: 0x13135, offset: 0x2D111B, size: 0x8, addend: 0x0, symName: __ZN3tns9Reference16SetValueCallbackEN2v85LocalINS1_4NameEEENS2_INS1_5ValueEEERKNS1_20PropertyCallbackInfoIvEE, symObjAddr: 0xAC8, symBinAddr: 0x38500, symSize: 0x10C }
  - { offsetInCU: 0x138C6, offset: 0x2D18AC, size: 0x8, addend: 0x0, symName: __ZN3tns9Reference17GetWrappedPointerEN2v85LocalINS1_7ContextEEENS2_INS1_5ValueEEEPKNS_12TypeEncodingE, symObjAddr: 0x1234, symBinAddr: 0x38C6C, symSize: 0x2F0 }
  - { offsetInCU: 0x14859, offset: 0x2D283F, size: 0x8, addend: 0x0, symName: __ZN3tns20ReferenceTypeWrapperD1Ev, symObjAddr: 0x16EC, symBinAddr: 0x38F5C, symSize: 0x4 }
  - { offsetInCU: 0x14882, offset: 0x2D2868, size: 0x8, addend: 0x0, symName: __ZN3tns20ReferenceTypeWrapperD0Ev, symObjAddr: 0x16F0, symBinAddr: 0x38F60, symSize: 0x4 }
  - { offsetInCU: 0x148AB, offset: 0x2D2891, size: 0x8, addend: 0x0, symName: __ZN3tns20ReferenceTypeWrapper4TypeEv, symObjAddr: 0x16F4, symBinAddr: 0x38F64, symSize: 0x8 }
  - { offsetInCU: 0x148D2, offset: 0x2D28B8, size: 0x8, addend: 0x0, symName: __ZN3tns16ReferenceWrapperD1Ev, symObjAddr: 0x16FC, symBinAddr: 0x38F6C, symSize: 0x4 }
  - { offsetInCU: 0x148F4, offset: 0x2D28DA, size: 0x8, addend: 0x0, symName: __ZN3tns16ReferenceWrapperD1Ev, symObjAddr: 0x16FC, symBinAddr: 0x38F6C, symSize: 0x4 }
  - { offsetInCU: 0x148FF, offset: 0x2D28E5, size: 0x8, addend: 0x0, symName: __ZN3tns16ReferenceWrapperD2Ev, symObjAddr: 0x171C, symBinAddr: 0x38F8C, symSize: 0x68 }
  - { offsetInCU: 0x1498C, offset: 0x2D2972, size: 0x8, addend: 0x0, symName: __ZN3tns16ReferenceWrapperD0Ev, symObjAddr: 0x1700, symBinAddr: 0x38F70, symSize: 0x14 }
  - { offsetInCU: 0x149E0, offset: 0x2D29C6, size: 0x8, addend: 0x0, symName: __ZN3tns16ReferenceWrapper4TypeEv, symObjAddr: 0x1714, symBinAddr: 0x38F84, symSize: 0x8 }
  - { offsetInCU: 0x15379, offset: 0x2D335F, size: 0x8, addend: 0x0, symName: '__ZZN3tns9Reference22RegisterToStringMethodEN2v85LocalINS1_7ContextEEENS2_INS1_6ObjectEEEEN3$_08__invokeERKNS1_20FunctionCallbackInfoINS1_5ValueEEE', symObjAddr: 0x1B54, symBinAddr: 0x38FF4, symSize: 0x180 }
  - { offsetInCU: 0x56, offset: 0x2D3C13, size: 0x8, addend: 0x0, symName: __ZN3tns10SetTimeout6cache_E, symObjAddr: 0x170500, symBinAddr: 0x158D728, symSize: 0x0 }
  - { offsetInCU: 0x120, offset: 0x2D3CDD, size: 0x8, addend: 0x0, symName: __ZN3tns10SetTimeout6count_E, symObjAddr: 0x1704F8, symBinAddr: 0x158D720, symSize: 0x0 }
  - { offsetInCU: 0xDB99, offset: 0x2E1756, size: 0x8, addend: 0x0, symName: __ZN3tns10SetTimeout4InitEPN2v87IsolateENS1_5LocalINS1_14ObjectTemplateEEE, symObjAddr: 0x0, symBinAddr: 0x39174, symSize: 0x194 }
  - { offsetInCU: 0xE560, offset: 0x2E211D, size: 0x8, addend: 0x0, symName: __ZN3tns10SetTimeout18SetTimeoutCallbackERKN2v820FunctionCallbackInfoINS1_5ValueEEE, symObjAddr: 0x194, symBinAddr: 0x39308, symSize: 0x258 }
  - { offsetInCU: 0xED26, offset: 0x2E28E3, size: 0x8, addend: 0x0, symName: __ZN10robin_hood6detail5TableILb1ELm80EjN3tns10SetTimeout10CacheEntryENS_4hashIjvEENSt3__18equal_toIjEEE7emplaceIJRjRS4_EEENS7_4pairINSA_4IterILb0EEEbEEDpOT_, symObjAddr: 0x704, symBinAddr: 0x39878, symSize: 0xAC }
  - { offsetInCU: 0xEF38, offset: 0x2E2AF5, size: 0x8, addend: 0x0, symName: __ZN3tns10SetTimeout20ClearTimeoutCallbackERKN2v820FunctionCallbackInfoINS1_5ValueEEE, symObjAddr: 0x3EC, symBinAddr: 0x39560, symSize: 0x12C }
  - { offsetInCU: 0xF41E, offset: 0x2E2FDB, size: 0x8, addend: 0x0, symName: __ZNK10robin_hood6detail5TableILb1ELm80EjN3tns10SetTimeout10CacheEntryENS_4hashIjvEENSt3__18equal_toIjEEE7findIdxIjEEmRKT_, symObjAddr: 0x13AC, symBinAddr: 0x3A254, symSize: 0xE4 }
  - { offsetInCU: 0xF47B, offset: 0x2E3038, size: 0x8, addend: 0x0, symName: __ZNK10robin_hood6detail5TableILb1ELm80EjN3tns10SetTimeout10CacheEntryENS_4hashIjvEENSt3__18equal_toIjEEE7findIdxIjEEmRKT_, symObjAddr: 0x13AC, symBinAddr: 0x3A254, symSize: 0xE4 }
  - { offsetInCU: 0xF4A9, offset: 0x2E3066, size: 0x8, addend: 0x0, symName: __ZNK10robin_hood6detail5TableILb1ELm80EjN3tns10SetTimeout10CacheEntryENS_4hashIjvEENSt3__18equal_toIjEEE7findIdxIjEEmRKT_, symObjAddr: 0x13AC, symBinAddr: 0x3A254, symSize: 0xE4 }
  - { offsetInCU: 0xF5B6, offset: 0x2E3173, size: 0x8, addend: 0x0, symName: __ZN3tns10SetTimeout9RemoveKeyEj, symObjAddr: 0x7B0, symBinAddr: 0x39924, symSize: 0x84 }
  - { offsetInCU: 0xF693, offset: 0x2E3250, size: 0x8, addend: 0x0, symName: ____ZN3tns10SetTimeout18SetTimeoutCallbackERKN2v820FunctionCallbackInfoINS1_5ValueEEE_block_invoke, symObjAddr: 0x518, symBinAddr: 0x3968C, symSize: 0x8 }
  - { offsetInCU: 0xF6DC, offset: 0x2E3299, size: 0x8, addend: 0x0, symName: __ZN3tns10SetTimeout7ElapsedEj, symObjAddr: 0x520, symBinAddr: 0x39694, symSize: 0x1E4 }
  - { offsetInCU: 0x10314, offset: 0x2E3ED1, size: 0x8, addend: 0x0, symName: __ZN10robin_hood6detail5TableILb1ELm80EjN3tns10SetTimeout10CacheEntryENS_4hashIjvEENSt3__18equal_toIjEEE25insertKeyPrepareEmptySpotIRKjEENS7_4pairImNSA_14InsertionStateEEEOT_, symObjAddr: 0xB94, symBinAddr: 0x39A88, symSize: 0x19C }
  - { offsetInCU: 0x104B6, offset: 0x2E4073, size: 0x8, addend: 0x0, symName: __ZNK10robin_hood6detail5TableILb1ELm80EjN3tns10SetTimeout10CacheEntryENS_4hashIjvEENSt3__18equal_toIjEEE18throwOverflowErrorEv, symObjAddr: 0xD30, symBinAddr: 0x39C24, symSize: 0x50 }
  - { offsetInCU: 0x10517, offset: 0x2E40D4, size: 0x8, addend: 0x0, symName: __ZN10robin_hood6detail5TableILb1ELm80EjN3tns10SetTimeout10CacheEntryENS_4hashIjvEENSt3__18equal_toIjEEE5eraseENSA_4IterILb0EEE, symObjAddr: 0x834, symBinAddr: 0x399A8, symSize: 0xA0 }
  - { offsetInCU: 0x1060A, offset: 0x2E41C7, size: 0x8, addend: 0x0, symName: __ZN10robin_hood6detail5TableILb1ELm80EjN3tns10SetTimeout10CacheEntryENS_4hashIjvEENSt3__18equal_toIjEEE9shiftDownEm, symObjAddr: 0x1490, symBinAddr: 0x3A338, symSize: 0x68 }
  - { offsetInCU: 0x1069D, offset: 0x2E425A, size: 0x8, addend: 0x0, symName: __ZN10robin_hood6detail5TableILb1ELm80EjN3tns10SetTimeout10CacheEntryENS_4hashIjvEENSt3__18equal_toIjEEED1Ev, symObjAddr: 0x8D4, symBinAddr: 0x39A48, symSize: 0x40 }
  - { offsetInCU: 0x10CF0, offset: 0x2E48AD, size: 0x8, addend: 0x0, symName: __ZN10robin_hood6detail5TableILb1ELm80EjN3tns10SetTimeout10CacheEntryENS_4hashIjvEENSt3__18equal_toIjEEE13increase_sizeEv, symObjAddr: 0xD80, symBinAddr: 0x39C74, symSize: 0x12C }
  - { offsetInCU: 0x10DBA, offset: 0x2E4977, size: 0x8, addend: 0x0, symName: __ZN10robin_hood6detail5TableILb1ELm80EjN3tns10SetTimeout10CacheEntryENS_4hashIjvEENSt3__18equal_toIjEEE7shiftUpEmm, symObjAddr: 0xEAC, symBinAddr: 0x39DA0, symSize: 0xB4 }
  - { offsetInCU: 0x10E7F, offset: 0x2E4A3C, size: 0x8, addend: 0x0, symName: __ZN10robin_hood6detail5TableILb1ELm80EjN3tns10SetTimeout10CacheEntryENS_4hashIjvEENSt3__18equal_toIjEEE17try_increase_infoEv, symObjAddr: 0x103C, symBinAddr: 0x39F30, symSize: 0x100 }
  - { offsetInCU: 0x10F86, offset: 0x2E4B43, size: 0x8, addend: 0x0, symName: __ZN10robin_hood6detail5TableILb1ELm80EjN3tns10SetTimeout10CacheEntryENS_4hashIjvEENSt3__18equal_toIjEEE8initDataEm, symObjAddr: 0xF60, symBinAddr: 0x39E54, symSize: 0xDC }
  - { offsetInCU: 0x110A0, offset: 0x2E4C5D, size: 0x8, addend: 0x0, symName: __ZN10robin_hood6detail5TableILb1ELm80EjN3tns10SetTimeout10CacheEntryENS_4hashIjvEENSt3__18equal_toIjEEE17try_increase_infoEv, symObjAddr: 0x103C, symBinAddr: 0x39F30, symSize: 0x100 }
  - { offsetInCU: 0x110AB, offset: 0x2E4C68, size: 0x8, addend: 0x0, symName: __ZN10robin_hood6detail5TableILb1ELm80EjN3tns10SetTimeout10CacheEntryENS_4hashIjvEENSt3__18equal_toIjEEE16rehashPowerOfTwoEmb, symObjAddr: 0x113C, symBinAddr: 0x3A030, symSize: 0xF0 }
  - { offsetInCU: 0x1122C, offset: 0x2E4DE9, size: 0x8, addend: 0x0, symName: __ZN10robin_hood6detail5TableILb1ELm80EjN3tns10SetTimeout10CacheEntryENS_4hashIjvEENSt3__18equal_toIjEEE11insert_moveEONSA_8DataNodeISA_Lb1EEE, symObjAddr: 0x1254, symBinAddr: 0x3A120, symSize: 0x134 }
  - { offsetInCU: 0x41, offset: 0x2E5072, size: 0x8, addend: 0x0, symName: __ZL2rt, symObjAddr: 0xAB120, symBinAddr: 0x1578798, symSize: 0x0 }
  - { offsetInCU: 0x320D, offset: 0x2E823E, size: 0x8, addend: 0x0, symName: __ZNSt3__115allocate_sharedB7v160006IN4rnv89V8RuntimeENS_9allocatorIS2_EEJEvEENS_10shared_ptrIT_EERKT0_DpOT1_, symObjAddr: 0x154, symBinAddr: 0x3A540, symSize: 0x48 }
  - { offsetInCU: 0x6E3E, offset: 0x2EBE6F, size: 0x8, addend: 0x0, symName: __ZNSt3__110shared_ptrIN8facebook3jsi7RuntimeEED1B7v160006Ev, symObjAddr: 0x0, symBinAddr: 0x3A3EC, symSize: 0x4 }
  - { offsetInCU: 0x6E60, offset: 0x2EBE91, size: 0x8, addend: 0x0, symName: __ZNSt3__110shared_ptrIN8facebook3jsi7RuntimeEED1B7v160006Ev, symObjAddr: 0x0, symBinAddr: 0x3A3EC, symSize: 0x4 }
  - { offsetInCU: 0x6E6B, offset: 0x2EBE9C, size: 0x8, addend: 0x0, symName: __ZNSt3__110shared_ptrIN8facebook3jsi7RuntimeEED2B7v160006Ev, symObjAddr: 0x104, symBinAddr: 0x3A4F0, symSize: 0x50 }
  - { offsetInCU: 0x7024, offset: 0x2EC055, size: 0x8, addend: 0x0, symName: '+[JSIRuntime runtime]', symObjAddr: 0x4, symBinAddr: 0x3A3F0, symSize: 0xA4 }
  - { offsetInCU: 0x71ED, offset: 0x2EC21E, size: 0x8, addend: 0x0, symName: __ZNSt3__110shared_ptrIN8facebook3jsi7RuntimeEEaSB7v160006IN4rnv89V8RuntimeEvEERS4_ONS0_IT_EE, symObjAddr: 0xA8, symBinAddr: 0x3A494, symSize: 0x5C }
  - { offsetInCU: 0x761D, offset: 0x2EC64E, size: 0x8, addend: 0x0, symName: __ZNSt3__120__shared_ptr_emplaceIN4rnv89V8RuntimeENS_9allocatorIS2_EEEC2B7v160006IJEEES4_DpOT_, symObjAddr: 0x19C, symBinAddr: 0x3A588, symSize: 0x4C }
  - { offsetInCU: 0x76F6, offset: 0x2EC727, size: 0x8, addend: 0x0, symName: __ZNSt3__120__shared_ptr_emplaceIN4rnv89V8RuntimeENS_9allocatorIS2_EEED1Ev, symObjAddr: 0x1E8, symBinAddr: 0x3A5D4, symSize: 0x14 }
  - { offsetInCU: 0x7717, offset: 0x2EC748, size: 0x8, addend: 0x0, symName: __ZNSt3__120__shared_ptr_emplaceIN4rnv89V8RuntimeENS_9allocatorIS2_EEED1Ev, symObjAddr: 0x1E8, symBinAddr: 0x3A5D4, symSize: 0x14 }
  - { offsetInCU: 0x774F, offset: 0x2EC780, size: 0x8, addend: 0x0, symName: __ZNSt3__120__shared_ptr_emplaceIN4rnv89V8RuntimeENS_9allocatorIS2_EEED0Ev, symObjAddr: 0x1FC, symBinAddr: 0x3A5E8, symSize: 0x24 }
  - { offsetInCU: 0x77B6, offset: 0x2EC7E7, size: 0x8, addend: 0x0, symName: __ZNSt3__120__shared_ptr_emplaceIN4rnv89V8RuntimeENS_9allocatorIS2_EEE16__on_zero_sharedEv, symObjAddr: 0x220, symBinAddr: 0x3A60C, symSize: 0xC }
  - { offsetInCU: 0x77E9, offset: 0x2EC81A, size: 0x8, addend: 0x0, symName: __ZNSt3__120__shared_ptr_emplaceIN4rnv89V8RuntimeENS_9allocatorIS2_EEE21__on_zero_shared_weakEv, symObjAddr: 0x22C, symBinAddr: 0x3A618, symSize: 0x4 }
  - { offsetInCU: 0x781C, offset: 0x2EC84D, size: 0x8, addend: 0x0, symName: __ZNSt3__120__shared_ptr_emplaceIN4rnv89V8RuntimeENS_9allocatorIS2_EEE21__on_zero_shared_weakEv, symObjAddr: 0x22C, symBinAddr: 0x3A618, symSize: 0x4 }
  - { offsetInCU: 0x7840, offset: 0x2EC871, size: 0x8, addend: 0x0, symName: __ZNSt3__120__shared_ptr_emplaceIN4rnv89V8RuntimeENS_9allocatorIS2_EEE21__on_zero_shared_weakEv, symObjAddr: 0x22C, symBinAddr: 0x3A618, symSize: 0x4 }
  - { offsetInCU: 0x7864, offset: 0x2EC895, size: 0x8, addend: 0x0, symName: __ZNSt3__120__shared_ptr_emplaceIN4rnv89V8RuntimeENS_9allocatorIS2_EEE21__on_zero_shared_weakEv, symObjAddr: 0x22C, symBinAddr: 0x3A618, symSize: 0x4 }
  - { offsetInCU: 0x7890, offset: 0x2EC8C1, size: 0x8, addend: 0x0, symName: __ZNSt3__120__shared_ptr_emplaceIN4rnv89V8RuntimeENS_9allocatorIS2_EEE21__on_zero_shared_weakEv, symObjAddr: 0x22C, symBinAddr: 0x3A618, symSize: 0x4 }
  - { offsetInCU: 0x78B7, offset: 0x2EC8E8, size: 0x8, addend: 0x0, symName: __ZNSt3__120__shared_ptr_emplaceIN4rnv89V8RuntimeENS_9allocatorIS2_EEE21__on_zero_shared_weakEv, symObjAddr: 0x22C, symBinAddr: 0x3A618, symSize: 0x4 }
  - { offsetInCU: 0x27, offset: 0x2EC94D, size: 0x8, addend: 0x0, symName: __ZN12v8_inspector15InspectorServer4InitENSt3__18functionIFvNS2_IFvNS1_12basic_stringIcNS1_11char_traitsIcEENS1_9allocatorIcEEEEEEEEEESA_, symObjAddr: 0x0, symBinAddr: 0x3A638, symSize: 0x304 }
  - { offsetInCU: 0x47B3, offset: 0x2F10D9, size: 0x8, addend: 0x0, symName: ____ZN12v8_inspector15InspectorServer4InitENSt3__18functionIFvNS2_IFvNS1_12basic_stringIcNS1_11char_traitsIcEENS1_9allocatorIcEEEEEEEEEESA__block_invoke, symObjAddr: 0x304, symBinAddr: 0x3A93C, symSize: 0x2F8 }
  - { offsetInCU: 0x6F9C, offset: 0x2F38C2, size: 0x8, addend: 0x0, symName: __ZN12v8_inspector15InspectorServer4InitENSt3__18functionIFvNS2_IFvNS1_12basic_stringIcNS1_11char_traitsIcEENS1_9allocatorIcEEEEEEEEEESA_, symObjAddr: 0x0, symBinAddr: 0x3A638, symSize: 0x304 }
  - { offsetInCU: 0x744C, offset: 0x2F3D72, size: 0x8, addend: 0x0, symName: __ZNSt3__110__function12__value_funcIFvNS_8functionIFvNS_12basic_stringIcNS_11char_traitsIcEENS_9allocatorIcEEEEEEEEEC2B7v160006ERKSC_, symObjAddr: 0x10DC, symBinAddr: 0x3B540, symSize: 0x64 }
  - { offsetInCU: 0x7524, offset: 0x2F3E4A, size: 0x8, addend: 0x0, symName: __ZN12v8_inspector15InspectorServer4InitENSt3__18functionIFvNS2_IFvNS1_12basic_stringIcNS1_11char_traitsIcEENS1_9allocatorIcEEEEEEEEEESA_.cold.1, symObjAddr: 0x1140, symBinAddr: 0xB8FD0C, symSize: 0x28 }
  - { offsetInCU: 0x753C, offset: 0x2F3E62, size: 0x8, addend: 0x0, symName: __ZN12v8_inspector15InspectorServer4InitENSt3__18functionIFvNS2_IFvNS1_12basic_stringIcNS1_11char_traitsIcEENS1_9allocatorIcEEEEEEEEEESA_.cold.2, symObjAddr: 0x1168, symBinAddr: 0xB8FD34, symSize: 0x40 }
  - { offsetInCU: 0x7ADC, offset: 0x2F4402, size: 0x8, addend: 0x0, symName: ____ZN12v8_inspector15InspectorServer4InitENSt3__18functionIFvNS2_IFvNS1_12basic_stringIcNS1_11char_traitsIcEENS1_9allocatorIcEEEEEEEEEESA__block_invoke_2, symObjAddr: 0x5FC, symBinAddr: 0x3AC34, symSize: 0x44 }
  - { offsetInCU: 0x7B43, offset: 0x2F4469, size: 0x8, addend: 0x0, symName: ___Block_byref_object_copy_, symObjAddr: 0x640, symBinAddr: 0x3AC78, symSize: 0x28 }
  - { offsetInCU: 0x7B6C, offset: 0x2F4492, size: 0x8, addend: 0x0, symName: ___Block_byref_object_dispose_, symObjAddr: 0x668, symBinAddr: 0x3ACA0, symSize: 0x8 }
  - { offsetInCU: 0x7B8B, offset: 0x2F44B1, size: 0x8, addend: 0x0, symName: ____ZN12v8_inspector15InspectorServer4InitENSt3__18functionIFvNS2_IFvNS1_12basic_stringIcNS1_11char_traitsIcEENS1_9allocatorIcEEEEEEEEEESA__block_invoke.5, symObjAddr: 0x670, symBinAddr: 0x3ACA8, symSize: 0x194 }
  - { offsetInCU: 0x7EE4, offset: 0x2F480A, size: 0x8, addend: 0x0, symName: ____ZN12v8_inspector15InspectorServer4InitENSt3__18functionIFvNS2_IFvNS1_12basic_stringIcNS1_11char_traitsIcEENS1_9allocatorIcEEEEEEEEEESA__block_invoke_2.6, symObjAddr: 0x804, symBinAddr: 0x3AE3C, symSize: 0x148 }
  - { offsetInCU: 0x852E, offset: 0x2F4E54, size: 0x8, addend: 0x0, symName: ___copy_helper_block_ea8_32s40s48r56c84_ZTSNSt3__18functionIFvNS_12basic_stringIcNS_11char_traitsIcEENS_9allocatorIcEEEEEEE, symObjAddr: 0x94C, symBinAddr: 0x3AF84, symSize: 0x74 }
  - { offsetInCU: 0x85D2, offset: 0x2F4EF8, size: 0x8, addend: 0x0, symName: ___destroy_helper_block_ea8_32s40s48r56c84_ZTSNSt3__18functionIFvNS_12basic_stringIcNS_11char_traitsIcEENS_9allocatorIcEEEEEEE, symObjAddr: 0x9C0, symBinAddr: 0x3AFF8, symSize: 0x64 }
  - { offsetInCU: 0x867F, offset: 0x2F4FA5, size: 0x8, addend: 0x0, symName: ___copy_helper_block_ea8_32s40s48c94_ZTSNSt3__18functionIFvNS0_IFvNS_12basic_stringIcNS_11char_traitsIcEENS_9allocatorIcEEEEEEEEEE80c84_ZTSNSt3__18functionIFvNS_12basic_stringIcNS_11char_traitsIcEENS_9allocatorIcEEEEEEE, symObjAddr: 0xA24, symBinAddr: 0x3B05C, symSize: 0xA8 }
  - { offsetInCU: 0x882C, offset: 0x2F5152, size: 0x8, addend: 0x0, symName: ___destroy_helper_block_ea8_32s40s48c94_ZTSNSt3__18functionIFvNS0_IFvNS_12basic_stringIcNS_11char_traitsIcEENS_9allocatorIcEEEEEEEEEE80c84_ZTSNSt3__18functionIFvNS_12basic_stringIcNS_11char_traitsIcEENS_9allocatorIcEEEEEEE, symObjAddr: 0xACC, symBinAddr: 0x3B104, symSize: 0x88 }
  - { offsetInCU: 0x89BB, offset: 0x2F52E1, size: 0x8, addend: 0x0, symName: __ZN12v8_inspector15InspectorServer4SendEPU25objcproto14OS_dispatch_io8NSObjectPU28objcproto17OS_dispatch_queueS1_NSt3__112basic_stringIcNS6_11char_traitsIcEENS6_9allocatorIcEEEE, symObjAddr: 0xB54, symBinAddr: 0x3B18C, symSize: 0x180 }
  - { offsetInCU: 0x8B34, offset: 0x2F545A, size: 0x8, addend: 0x0, symName: ____ZN12v8_inspector15InspectorServer4SendEPU25objcproto14OS_dispatch_io8NSObjectPU28objcproto17OS_dispatch_queueS1_NSt3__112basic_stringIcNS6_11char_traitsIcEENS6_9allocatorIcEEEE_block_invoke, symObjAddr: 0xCD4, symBinAddr: 0x3B30C, symSize: 0x8 }
  - { offsetInCU: 0x8B6F, offset: 0x2F5495, size: 0x8, addend: 0x0, symName: ____ZN12v8_inspector15InspectorServer4SendEPU25objcproto14OS_dispatch_io8NSObjectPU28objcproto17OS_dispatch_queueS1_NSt3__112basic_stringIcNS6_11char_traitsIcEENS6_9allocatorIcEEEE_block_invoke_2, symObjAddr: 0xCDC, symBinAddr: 0x3B314, symSize: 0x34 }
  - { offsetInCU: 0x8CDA, offset: 0x2F5600, size: 0x8, addend: 0x0, symName: '__ZNSt3__110__function6__funcIZZN12v8_inspector15InspectorServer4InitENS_8functionIFvNS4_IFvNS_12basic_stringIcNS_11char_traitsIcEENS_9allocatorIcEEEEEEEEEESC_EUb_E3$_0NS8_ISF_EESB_ED1Ev', symObjAddr: 0xD5C, symBinAddr: 0x3B348, symSize: 0x30 }
  - { offsetInCU: 0x8E0B, offset: 0x2F5731, size: 0x8, addend: 0x0, symName: '__ZNSt3__110__function6__funcIZZN12v8_inspector15InspectorServer4InitENS_8functionIFvNS4_IFvNS_12basic_stringIcNS_11char_traitsIcEENS_9allocatorIcEEEEEEEEEESC_EUb_E3$_0NS8_ISF_EESB_ED0Ev', symObjAddr: 0xD8C, symBinAddr: 0x3B378, symSize: 0x30 }
  - { offsetInCU: 0x9160, offset: 0x2F5A86, size: 0x8, addend: 0x0, symName: '__ZNKSt3__110__function6__funcIZZN12v8_inspector15InspectorServer4InitENS_8functionIFvNS4_IFvNS_12basic_stringIcNS_11char_traitsIcEENS_9allocatorIcEEEEEEEEEESC_EUb_E3$_0NS8_ISF_EESB_E7__cloneEv', symObjAddr: 0xDBC, symBinAddr: 0x3B3A8, symSize: 0x50 }
  - { offsetInCU: 0x94D9, offset: 0x2F5DFF, size: 0x8, addend: 0x0, symName: '__ZNKSt3__110__function6__funcIZZN12v8_inspector15InspectorServer4InitENS_8functionIFvNS4_IFvNS_12basic_stringIcNS_11char_traitsIcEENS_9allocatorIcEEEEEEEEEESC_EUb_E3$_0NS8_ISF_EESB_E7__cloneEPNS0_6__baseISB_EE', symObjAddr: 0xE0C, symBinAddr: 0x3B3F8, symSize: 0x44 }
  - { offsetInCU: 0x96BF, offset: 0x2F5FE5, size: 0x8, addend: 0x0, symName: '__ZNSt3__110__function6__funcIZZN12v8_inspector15InspectorServer4InitENS_8functionIFvNS4_IFvNS_12basic_stringIcNS_11char_traitsIcEENS_9allocatorIcEEEEEEEEEESC_EUb_E3$_0NS8_ISF_EESB_E7destroyEv', symObjAddr: 0xE50, symBinAddr: 0x3B43C, symSize: 0x28 }
  - { offsetInCU: 0x97CF, offset: 0x2F60F5, size: 0x8, addend: 0x0, symName: '__ZNSt3__110__function6__funcIZZN12v8_inspector15InspectorServer4InitENS_8functionIFvNS4_IFvNS_12basic_stringIcNS_11char_traitsIcEENS_9allocatorIcEEEEEEEEEESC_EUb_E3$_0NS8_ISF_EESB_E18destroy_deallocateEv', symObjAddr: 0xE78, symBinAddr: 0x3B464, symSize: 0x30 }
  - { offsetInCU: 0x9A44, offset: 0x2F636A, size: 0x8, addend: 0x0, symName: '__ZNSt3__110__function6__funcIZZN12v8_inspector15InspectorServer4InitENS_8functionIFvNS4_IFvNS_12basic_stringIcNS_11char_traitsIcEENS_9allocatorIcEEEEEEEEEESC_EUb_E3$_0NS8_ISF_EESB_EclEOSA_', symObjAddr: 0xEA8, symBinAddr: 0x3B494, symSize: 0xAC }
  - { offsetInCU: 0x967B, offset: 0x300630, size: 0x8, addend: 0x0, symName: __ZN4rnv815HostObjectProxyC2ERNS_9V8RuntimeEPN2v87IsolateENSt3__110shared_ptrIN8facebook3jsi10HostObjectEEE, symObjAddr: 0x0, symBinAddr: 0x3B5A4, symSize: 0x24 }
  - { offsetInCU: 0x97F8, offset: 0x3007AD, size: 0x8, addend: 0x0, symName: __ZN4rnv815HostObjectProxyC1ERNS_9V8RuntimeEPN2v87IsolateENSt3__110shared_ptrIN8facebook3jsi10HostObjectEEE, symObjAddr: 0x24, symBinAddr: 0x3B5C8, symSize: 0x24 }
  - { offsetInCU: 0x984F, offset: 0x300804, size: 0x8, addend: 0x0, symName: __ZN4rnv815HostObjectProxyC1ERNS_9V8RuntimeEPN2v87IsolateENSt3__110shared_ptrIN8facebook3jsi10HostObjectEEE, symObjAddr: 0x24, symBinAddr: 0x3B5C8, symSize: 0x24 }
  - { offsetInCU: 0x9A7A, offset: 0x300A2F, size: 0x8, addend: 0x0, symName: __ZN4rnv815HostObjectProxy13BindFinalizerERKN2v85LocalINS1_6ObjectEEE, symObjAddr: 0x48, symBinAddr: 0x3B5EC, symSize: 0x9C }
  - { offsetInCU: 0x9C87, offset: 0x300C3C, size: 0x8, addend: 0x0, symName: __ZN4rnv815HostObjectProxy9FinalizerERKN2v816WeakCallbackInfoIS0_EE, symObjAddr: 0xE4, symBinAddr: 0x3B688, symSize: 0x54 }
  - { offsetInCU: 0x9E0A, offset: 0x300DBF, size: 0x8, addend: 0x0, symName: __ZNSt3__110shared_ptrIN8facebook3jsi10HostObjectEE5resetB7v160006Ev, symObjAddr: 0x1308, symBinAddr: 0x3C8A0, symSize: 0x54 }
  - { offsetInCU: 0x9F01, offset: 0x300EB6, size: 0x8, addend: 0x0, symName: __ZNSt3__110shared_ptrIN8facebook3jsi10HostObjectEED2B7v160006Ev, symObjAddr: 0x1C38, symBinAddr: 0x3D1D0, symSize: 0x50 }
  - { offsetInCU: 0x9F86, offset: 0x300F3B, size: 0x8, addend: 0x0, symName: __ZN4rnv815HostObjectProxy13GetHostObjectEv, symObjAddr: 0x138, symBinAddr: 0x3B6DC, symSize: 0x1C }
  - { offsetInCU: 0x9FAF, offset: 0x300F64, size: 0x8, addend: 0x0, symName: __ZN4rnv815HostObjectProxy13GetHostObjectEv, symObjAddr: 0x138, symBinAddr: 0x3B6DC, symSize: 0x1C }
  - { offsetInCU: 0x9FD6, offset: 0x300F8B, size: 0x8, addend: 0x0, symName: __ZN4rnv815HostObjectProxy13GetHostObjectEv, symObjAddr: 0x138, symBinAddr: 0x3B6DC, symSize: 0x1C }
  - { offsetInCU: 0xA625, offset: 0x3015DA, size: 0x8, addend: 0x0, symName: __ZN4rnv815HostObjectProxy6GetterEN2v85LocalINS1_4NameEEERKNS1_20PropertyCallbackInfoINS1_5ValueEEE, symObjAddr: 0x154, symBinAddr: 0x3B6F8, symSize: 0x790 }
  - { offsetInCU: 0xD1E6, offset: 0x30419B, size: 0x8, addend: 0x0, symName: __ZNK8facebook3jsi8Function4callIJNSt3__112basic_stringIcNS3_11char_traitsIcEENS3_9allocatorIcEEEEEEENS0_5ValueERNS0_7RuntimeEDpOT_, symObjAddr: 0x8E4, symBinAddr: 0x3BE88, symSize: 0xEC }
  - { offsetInCU: 0xD4FD, offset: 0x3044B2, size: 0x8, addend: 0x0, symName: __ZN4rnv815HostObjectProxy6SetterEN2v85LocalINS1_4NameEEENS2_INS1_5ValueEEERKNS1_20PropertyCallbackInfoIS5_EE, symObjAddr: 0x9DC, symBinAddr: 0x3BF74, symSize: 0x758 }
  - { offsetInCU: 0xFEDE, offset: 0x306E93, size: 0x8, addend: 0x0, symName: __ZN4rnv815HostObjectProxy10EnumeratorERKN2v820PropertyCallbackInfoINS1_5ArrayEEE, symObjAddr: 0x1134, symBinAddr: 0x3C6CC, symSize: 0x1D4 }
  - { offsetInCU: 0x1028D, offset: 0x307242, size: 0x8, addend: 0x0, symName: __ZNSt3__16vectorIN8facebook3jsi10PropNameIDENS_9allocatorIS3_EEED2B7v160006Ev, symObjAddr: 0x1E10, symBinAddr: 0x3D284, symSize: 0x38 }
  - { offsetInCU: 0x10406, offset: 0x3073BB, size: 0x8, addend: 0x0, symName: __ZN4rnv817HostFunctionProxyC2ERNS_9V8RuntimeEPN2v87IsolateEONSt3__18functionIFN8facebook3jsi5ValueERNS9_7RuntimeERKSA_PSD_mEEE, symObjAddr: 0x135C, symBinAddr: 0x3C8F4, symSize: 0x30 }
  - { offsetInCU: 0x10527, offset: 0x3074DC, size: 0x8, addend: 0x0, symName: __ZNSt3__110__function12__value_funcIFN8facebook3jsi5ValueERNS3_7RuntimeERKS4_PS7_mEEC2B7v160006EOSB_, symObjAddr: 0x1DAC, symBinAddr: 0x3D220, symSize: 0x64 }
  - { offsetInCU: 0x105AA, offset: 0x30755F, size: 0x8, addend: 0x0, symName: __ZN4rnv817HostFunctionProxyC1ERNS_9V8RuntimeEPN2v87IsolateEONSt3__18functionIFN8facebook3jsi5ValueERNS9_7RuntimeERKSA_PSD_mEEE, symObjAddr: 0x138C, symBinAddr: 0x3C924, symSize: 0x30 }
  - { offsetInCU: 0x10762, offset: 0x307717, size: 0x8, addend: 0x0, symName: __ZN4rnv817HostFunctionProxy13BindFinalizerERKN2v85LocalINS1_6ObjectEEE, symObjAddr: 0x13BC, symBinAddr: 0x3C954, symSize: 0x9C }
  - { offsetInCU: 0x10965, offset: 0x30791A, size: 0x8, addend: 0x0, symName: __ZN4rnv817HostFunctionProxy9FinalizerERKN2v816WeakCallbackInfoIS0_EE, symObjAddr: 0x1458, symBinAddr: 0x3C9F0, symSize: 0x60 }
  - { offsetInCU: 0x10ACA, offset: 0x307A7F, size: 0x8, addend: 0x0, symName: __ZN4rnv817HostFunctionProxy15GetHostFunctionEv, symObjAddr: 0x14B8, symBinAddr: 0x3CA50, symSize: 0x8 }
  - { offsetInCU: 0x10DAE, offset: 0x307D63, size: 0x8, addend: 0x0, symName: __ZN4rnv817HostFunctionProxy16FunctionCallbackERKN2v820FunctionCallbackInfoINS1_5ValueEEE, symObjAddr: 0x14C0, symBinAddr: 0x3CA58, symSize: 0x650 }
  - { offsetInCU: 0x11D91, offset: 0x308D46, size: 0x8, addend: 0x0, symName: __ZNKSt3__18functionIFN8facebook3jsi5ValueERNS2_7RuntimeERKS3_PS6_mEEclES5_S7_S8_m, symObjAddr: 0x1B10, symBinAddr: 0x3D0A8, symSize: 0x3C }
  - { offsetInCU: 0x11E3A, offset: 0x308DEF, size: 0x8, addend: 0x0, symName: __ZNK8facebook3jsi8Function4callIJRNSt3__112basic_stringIcNS3_11char_traitsIcEENS3_9allocatorIcEEEEEEENS0_5ValueERNS0_7RuntimeEDpOT_, symObjAddr: 0x1B4C, symBinAddr: 0x3D0E4, symSize: 0xEC }
  - { offsetInCU: 0x11E4A, offset: 0x308DFF, size: 0x8, addend: 0x0, symName: __ZNKSt3__114default_deleteIA_N8facebook3jsi5ValueEEclB7v160006IS3_EENS5_20_EnableIfConvertibleIT_E4typeEPS8_, symObjAddr: 0x1EE0, symBinAddr: 0x3D354, symSize: 0x44 }
  - { offsetInCU: 0x11E8F, offset: 0x308E44, size: 0x8, addend: 0x0, symName: __ZNK8facebook3jsi8Function4callIJRNSt3__112basic_stringIcNS3_11char_traitsIcEENS3_9allocatorIcEEEEEEENS0_5ValueERNS0_7RuntimeEDpOT_, symObjAddr: 0x1B4C, symBinAddr: 0x3D0E4, symSize: 0xEC }
  - { offsetInCU: 0x123AE, offset: 0x309363, size: 0x8, addend: 0x0, symName: __ZNSt3__16vectorIN8facebook3jsi10PropNameIDENS_9allocatorIS3_EEE16__destroy_vectorclB7v160006Ev, symObjAddr: 0x1E48, symBinAddr: 0x3D2BC, symSize: 0x40 }
  - { offsetInCU: 0x12528, offset: 0x3094DD, size: 0x8, addend: 0x0, symName: __ZNSt3__16vectorIN8facebook3jsi10PropNameIDENS_9allocatorIS3_EEE22__base_destruct_at_endB7v160006EPS3_, symObjAddr: 0x1E88, symBinAddr: 0x3D2FC, symSize: 0x58 }
  - { offsetInCU: 0x1CE5, offset: 0x30B360, size: 0x8, addend: 0x0, symName: __ZN8facebook3jsi12_GLOBAL__N_112kindToStringERKNS0_5ValueEPNS0_7RuntimeE, symObjAddr: 0xA4C, symBinAddr: 0x3DDE4, symSize: 0x168 }
  - { offsetInCU: 0x1F8B, offset: 0x30B606, size: 0x8, addend: 0x0, symName: __ZN8facebook3jsi12_GLOBAL__N_118callGlobalFunctionERNS0_7RuntimeEPKcRKNS0_5ValueE, symObjAddr: 0x3BAC, symBinAddr: 0x40EB4, symSize: 0x624 }
  - { offsetInCU: 0x9FCB, offset: 0x313646, size: 0x8, addend: 0x0, symName: __ZNSt3__115allocate_sharedB7v160006IN8facebook3jsi5ValueENS_9allocatorIS3_EEJS3_EvEENS_10shared_ptrIT_EERKT0_DpOT1_, symObjAddr: 0x4CB0, symBinAddr: 0x41E88, symSize: 0x58 }
  - { offsetInCU: 0xAD2C, offset: 0x3143A7, size: 0x8, addend: 0x0, symName: __ZN8facebook3jsi7Runtime15instrumentationEv, symObjAddr: 0x180, symBinAddr: 0x3D518, symSize: 0x48 }
  - { offsetInCU: 0xAD52, offset: 0x3143CD, size: 0x8, addend: 0x0, symName: __ZZN8facebook3jsi7Runtime15instrumentationEvE14sharedInstance, symObjAddr: 0x61F0, symBinAddr: 0xD02BB0, symSize: 0x0 }
  - { offsetInCU: 0xCD16, offset: 0x316391, size: 0x8, addend: 0x0, symName: __ZN8facebook3jsi6BufferD2Ev, symObjAddr: 0x0, symBinAddr: 0x3D398, symSize: 0x4 }
  - { offsetInCU: 0xCD3F, offset: 0x3163BA, size: 0x8, addend: 0x0, symName: __ZN8facebook3jsi6BufferD1Ev, symObjAddr: 0x4, symBinAddr: 0x3D39C, symSize: 0x4 }
  - { offsetInCU: 0xCD66, offset: 0x3163E1, size: 0x8, addend: 0x0, symName: __ZN8facebook3jsi6BufferD0Ev, symObjAddr: 0x8, symBinAddr: 0x3D3A0, symSize: 0x4 }
  - { offsetInCU: 0xCD92, offset: 0x31640D, size: 0x8, addend: 0x0, symName: __ZN8facebook3jsi18PreparedJavaScriptD2Ev, symObjAddr: 0xC, symBinAddr: 0x3D3A4, symSize: 0x4 }
  - { offsetInCU: 0xCDBB, offset: 0x316436, size: 0x8, addend: 0x0, symName: __ZN8facebook3jsi18PreparedJavaScriptD1Ev, symObjAddr: 0x10, symBinAddr: 0x3D3A8, symSize: 0x4 }
  - { offsetInCU: 0xCDE4, offset: 0x31645F, size: 0x8, addend: 0x0, symName: __ZN8facebook3jsi18PreparedJavaScriptD0Ev, symObjAddr: 0x14, symBinAddr: 0x3D3AC, symSize: 0x4 }
  - { offsetInCU: 0xCE6F, offset: 0x3164EA, size: 0x8, addend: 0x0, symName: __ZN8facebook3jsi10HostObject3getERNS0_7RuntimeERKNS0_10PropNameIDE, symObjAddr: 0x18, symBinAddr: 0x3D3B0, symSize: 0x8 }
  - { offsetInCU: 0xCEA5, offset: 0x316520, size: 0x8, addend: 0x0, symName: __ZN8facebook3jsi10HostObject3getERNS0_7RuntimeERKNS0_10PropNameIDE, symObjAddr: 0x18, symBinAddr: 0x3D3B0, symSize: 0x8 }
  - { offsetInCU: 0xCEC0, offset: 0x31653B, size: 0x8, addend: 0x0, symName: __ZN8facebook3jsi10HostObject3getERNS0_7RuntimeERKNS0_10PropNameIDE, symObjAddr: 0x18, symBinAddr: 0x3D3B0, symSize: 0x8 }
  - { offsetInCU: 0xCEE4, offset: 0x31655F, size: 0x8, addend: 0x0, symName: __ZN8facebook3jsi10HostObject3getERNS0_7RuntimeERKNS0_10PropNameIDE, symObjAddr: 0x18, symBinAddr: 0x3D3B0, symSize: 0x8 }
  - { offsetInCU: 0xD108, offset: 0x316783, size: 0x8, addend: 0x0, symName: __ZN8facebook3jsi10HostObject3setERNS0_7RuntimeERKNS0_10PropNameIDERKNS0_5ValueE, symObjAddr: 0x20, symBinAddr: 0x3D3B8, symSize: 0x140 }
  - { offsetInCU: 0xD9AF, offset: 0x31702A, size: 0x8, addend: 0x0, symName: __ZN8facebook3jsi7JSErrorC2ERNS0_7RuntimeENSt3__112basic_stringIcNS4_11char_traitsIcEENS4_9allocatorIcEEEE, symObjAddr: 0x3760, symBinAddr: 0x40A68, symSize: 0x44C }
  - { offsetInCU: 0xEF98, offset: 0x318613, size: 0x8, addend: 0x0, symName: __ZN8facebook3jsi7JSErrorC1ERNS0_7RuntimeENSt3__112basic_stringIcNS4_11char_traitsIcEENS4_9allocatorIcEEEE, symObjAddr: 0x160, symBinAddr: 0x3D4F8, symSize: 0x4 }
  - { offsetInCU: 0xEFC8, offset: 0x318643, size: 0x8, addend: 0x0, symName: __ZN8facebook3jsi7JSErrorC1ERNS0_7RuntimeENSt3__112basic_stringIcNS4_11char_traitsIcEENS4_9allocatorIcEEEE, symObjAddr: 0x160, symBinAddr: 0x3D4F8, symSize: 0x4 }
  - { offsetInCU: 0xEFD4, offset: 0x31864F, size: 0x8, addend: 0x0, symName: __ZN8facebook3jsi7JSErrorD1Ev, symObjAddr: 0x164, symBinAddr: 0x3D4FC, symSize: 0x4 }
  - { offsetInCU: 0xEFF5, offset: 0x318670, size: 0x8, addend: 0x0, symName: __ZN8facebook3jsi7JSErrorD1Ev, symObjAddr: 0x164, symBinAddr: 0x3D4FC, symSize: 0x4 }
  - { offsetInCU: 0xF001, offset: 0x31867C, size: 0x8, addend: 0x0, symName: __ZN8facebook3jsi7JSErrorD2Ev, symObjAddr: 0x484C, symBinAddr: 0x41B48, symSize: 0x54 }
  - { offsetInCU: 0xF2C9, offset: 0x318944, size: 0x8, addend: 0x0, symName: __ZN8facebook3jsi10HostObjectD2Ev, symObjAddr: 0x168, symBinAddr: 0x3D500, symSize: 0x4 }
  - { offsetInCU: 0xF2F2, offset: 0x31896D, size: 0x8, addend: 0x0, symName: __ZN8facebook3jsi10HostObjectD1Ev, symObjAddr: 0x16C, symBinAddr: 0x3D504, symSize: 0x4 }
  - { offsetInCU: 0xF31B, offset: 0x318996, size: 0x8, addend: 0x0, symName: __ZN8facebook3jsi10HostObjectD0Ev, symObjAddr: 0x170, symBinAddr: 0x3D508, symSize: 0x4 }
  - { offsetInCU: 0xF344, offset: 0x3189BF, size: 0x8, addend: 0x0, symName: __ZN8facebook3jsi7RuntimeD2Ev, symObjAddr: 0x174, symBinAddr: 0x3D50C, symSize: 0x4 }
  - { offsetInCU: 0xF36D, offset: 0x3189E8, size: 0x8, addend: 0x0, symName: __ZN8facebook3jsi7RuntimeD1Ev, symObjAddr: 0x178, symBinAddr: 0x3D510, symSize: 0x4 }
  - { offsetInCU: 0xF394, offset: 0x318A0F, size: 0x8, addend: 0x0, symName: __ZN8facebook3jsi7RuntimeD0Ev, symObjAddr: 0x17C, symBinAddr: 0x3D514, symSize: 0x4 }
  - { offsetInCU: 0xF3BB, offset: 0x318A36, size: 0x8, addend: 0x0, symName: __ZZN8facebook3jsi7Runtime15instrumentationEvEN17NoInstrumentationD1Ev, symObjAddr: 0x1C8, symBinAddr: 0x3D560, symSize: 0x4 }
  - { offsetInCU: 0xF4E7, offset: 0x318B62, size: 0x8, addend: 0x0, symName: __ZN8facebook3jsi7Runtime23createValueFromJsonUtf8EPKhm, symObjAddr: 0x1CC, symBinAddr: 0x3D564, symSize: 0x18C }
  - { offsetInCU: 0xF8E7, offset: 0x318F62, size: 0x8, addend: 0x0, symName: __ZNK8facebook3jsi6Object19getPropertyAsObjectERNS0_7RuntimeEPKc, symObjAddr: 0x358, symBinAddr: 0x3D6F0, symSize: 0x2E8 }
  - { offsetInCU: 0x10681, offset: 0x319CFC, size: 0x8, addend: 0x0, symName: __ZNK8facebook3jsi6Object21getPropertyAsFunctionERNS0_7RuntimeEPKc, symObjAddr: 0x640, symBinAddr: 0x3D9D8, symSize: 0x2B4 }
  - { offsetInCU: 0x113C2, offset: 0x31AA3D, size: 0x8, addend: 0x0, symName: __ZNK8facebook3jsi8Function4callIJNS0_6StringEEEENS0_5ValueERNS0_7RuntimeEDpOT_, symObjAddr: 0x8F4, symBinAddr: 0x3DC8C, symSize: 0x114 }
  - { offsetInCU: 0x11913, offset: 0x31AF8E, size: 0x8, addend: 0x0, symName: __ZN8facebook3jsi5ValueD2Ev, symObjAddr: 0x139C, symBinAddr: 0x3E6EC, symSize: 0x44 }
  - { offsetInCU: 0x11B8F, offset: 0x31B20A, size: 0x8, addend: 0x0, symName: __ZN8facebook3jsi7PointeraSEOS1_, symObjAddr: 0xA08, symBinAddr: 0x3DDA0, symSize: 0x44 }
  - { offsetInCU: 0x11C79, offset: 0x31B2F4, size: 0x8, addend: 0x0, symName: __ZN8facebook3jsi5ValueD1Ev, symObjAddr: 0xBFC, symBinAddr: 0x3DF4C, symSize: 0x4 }
  - { offsetInCU: 0x11C85, offset: 0x31B300, size: 0x8, addend: 0x0, symName: __ZN8facebook3jsi12_GLOBAL__N_112kindToStringERKNS0_5ValueEPNS0_7RuntimeE.cold.1, symObjAddr: 0x4E20, symBinAddr: 0xB8FD74, symSize: 0x28 }
  - { offsetInCU: 0x11CA7, offset: 0x31B322, size: 0x8, addend: 0x0, symName: __ZN8facebook3jsi5ValueD1Ev, symObjAddr: 0xBFC, symBinAddr: 0x3DF4C, symSize: 0x4 }
  - { offsetInCU: 0x11CC8, offset: 0x31B343, size: 0x8, addend: 0x0, symName: __ZN8facebook3jsi5ValueD1Ev, symObjAddr: 0xBFC, symBinAddr: 0x3DF4C, symSize: 0x4 }
  - { offsetInCU: 0x11D99, offset: 0x31B414, size: 0x8, addend: 0x0, symName: __ZNKR8facebook3jsi6Object7asArrayERNS0_7RuntimeE, symObjAddr: 0xC00, symBinAddr: 0x3DF50, symSize: 0x1DC }
  - { offsetInCU: 0x124EE, offset: 0x31BB69, size: 0x8, addend: 0x0, symName: __ZNKR8facebook3jsi6Object7asArrayERNS0_7RuntimeE.cold.1, symObjAddr: 0x4E70, symBinAddr: 0xB8FD9C, symSize: 0x28 }
  - { offsetInCU: 0x1254A, offset: 0x31BBC5, size: 0x8, addend: 0x0, symName: __ZNO8facebook3jsi6Object7asArrayERNS0_7RuntimeE, symObjAddr: 0xDDC, symBinAddr: 0x3E12C, symSize: 0x1CC }
  - { offsetInCU: 0x12C9A, offset: 0x31C315, size: 0x8, addend: 0x0, symName: __ZNO8facebook3jsi6Object7asArrayERNS0_7RuntimeE.cold.1, symObjAddr: 0x4E98, symBinAddr: 0xB8FDC4, symSize: 0x28 }
  - { offsetInCU: 0x12CEA, offset: 0x31C365, size: 0x8, addend: 0x0, symName: __ZNKR8facebook3jsi6Object10asFunctionERNS0_7RuntimeE, symObjAddr: 0xFA8, symBinAddr: 0x3E2F8, symSize: 0x1DC }
  - { offsetInCU: 0x1343F, offset: 0x31CABA, size: 0x8, addend: 0x0, symName: __ZNKR8facebook3jsi6Object10asFunctionERNS0_7RuntimeE.cold.1, symObjAddr: 0x4EC0, symBinAddr: 0xB8FDEC, symSize: 0x28 }
  - { offsetInCU: 0x1346D, offset: 0x31CAE8, size: 0x8, addend: 0x0, symName: __ZNO8facebook3jsi6Object10asFunctionERNS0_7RuntimeE, symObjAddr: 0x1184, symBinAddr: 0x3E4D4, symSize: 0x1CC }
  - { offsetInCU: 0x13BBD, offset: 0x31D238, size: 0x8, addend: 0x0, symName: __ZNO8facebook3jsi6Object10asFunctionERNS0_7RuntimeE.cold.1, symObjAddr: 0x4EE8, symBinAddr: 0xB8FE14, symSize: 0x28 }
  - { offsetInCU: 0x13C10, offset: 0x31D28B, size: 0x8, addend: 0x0, symName: __ZN8facebook3jsi5ValueC2EOS1_, symObjAddr: 0x1350, symBinAddr: 0x3E6A0, symSize: 0x4C }
  - { offsetInCU: 0x13CBA, offset: 0x31D335, size: 0x8, addend: 0x0, symName: __ZN8facebook3jsi5ValueC1EOS1_, symObjAddr: 0x13E0, symBinAddr: 0x3E730, symSize: 0x4C }
  - { offsetInCU: 0x13D78, offset: 0x31D3F3, size: 0x8, addend: 0x0, symName: __ZN8facebook3jsi5ValueC2ERNS0_7RuntimeERKS1_, symObjAddr: 0x142C, symBinAddr: 0x3E77C, symSize: 0xF0 }
  - { offsetInCU: 0x13E26, offset: 0x31D4A1, size: 0x8, addend: 0x0, symName: __ZN8facebook3jsi5ValueC1ERNS0_7RuntimeERKS1_, symObjAddr: 0x151C, symBinAddr: 0x3E86C, symSize: 0xF0 }
  - { offsetInCU: 0x13F15, offset: 0x31D590, size: 0x8, addend: 0x0, symName: __ZN8facebook3jsi5Value12strictEqualsERNS0_7RuntimeERKS1_S5_, symObjAddr: 0x160C, symBinAddr: 0x3E95C, symSize: 0xB4 }
  - { offsetInCU: 0x1401A, offset: 0x31D695, size: 0x8, addend: 0x0, symName: __ZNK8facebook3jsi5Value6asBoolEv, symObjAddr: 0x16C0, symBinAddr: 0x3EA10, symSize: 0x198 }
  - { offsetInCU: 0x144B6, offset: 0x31DB31, size: 0x8, addend: 0x0, symName: __ZN8facebook3jsi18JSINativeExceptionD1Ev, symObjAddr: 0x1858, symBinAddr: 0x3EBA8, symSize: 0x4 }
  - { offsetInCU: 0x144D7, offset: 0x31DB52, size: 0x8, addend: 0x0, symName: __ZN8facebook3jsi18JSINativeExceptionD1Ev, symObjAddr: 0x1858, symBinAddr: 0x3EBA8, symSize: 0x4 }
  - { offsetInCU: 0x144F5, offset: 0x31DB70, size: 0x8, addend: 0x0, symName: __ZN8facebook3jsi18JSINativeExceptionD1Ev, symObjAddr: 0x1858, symBinAddr: 0x3EBA8, symSize: 0x4 }
  - { offsetInCU: 0x14501, offset: 0x31DB7C, size: 0x8, addend: 0x0, symName: __ZN8facebook3jsi12JSIExceptionD2Ev, symObjAddr: 0x3720, symBinAddr: 0x40A28, symSize: 0x3C }
  - { offsetInCU: 0x14686, offset: 0x31DD01, size: 0x8, addend: 0x0, symName: __ZNK8facebook3jsi5Value8asNumberEv, symObjAddr: 0x185C, symBinAddr: 0x3EBAC, symSize: 0x198 }
  - { offsetInCU: 0x14B06, offset: 0x31E181, size: 0x8, addend: 0x0, symName: __ZNKR8facebook3jsi5Value8asObjectERNS0_7RuntimeE, symObjAddr: 0x19F4, symBinAddr: 0x3ED44, symSize: 0x160 }
  - { offsetInCU: 0x15052, offset: 0x31E6CD, size: 0x8, addend: 0x0, symName: __ZNO8facebook3jsi5Value8asObjectERNS0_7RuntimeE, symObjAddr: 0x1B54, symBinAddr: 0x3EEA4, symSize: 0x168 }
  - { offsetInCU: 0x15625, offset: 0x31ECA0, size: 0x8, addend: 0x0, symName: __ZNKR8facebook3jsi5Value8asSymbolERNS0_7RuntimeE, symObjAddr: 0x1CBC, symBinAddr: 0x3F00C, symSize: 0x160 }
  - { offsetInCU: 0x15B71, offset: 0x31F1EC, size: 0x8, addend: 0x0, symName: __ZNKR8facebook3jsi5Value9getSymbolERNS0_7RuntimeE, symObjAddr: 0x1E1C, symBinAddr: 0x3F16C, symSize: 0x48 }
  - { offsetInCU: 0x15C44, offset: 0x31F2BF, size: 0x8, addend: 0x0, symName: __ZNO8facebook3jsi5Value8asSymbolERNS0_7RuntimeE, symObjAddr: 0x1E64, symBinAddr: 0x3F1B4, symSize: 0x168 }
  - { offsetInCU: 0x15C97, offset: 0x31F312, size: 0x8, addend: 0x0, symName: __ZNKR8facebook3jsi5Value9getSymbolERNS0_7RuntimeE.cold.1, symObjAddr: 0x4F10, symBinAddr: 0xB8FE3C, symSize: 0x28 }
  - { offsetInCU: 0x15CDA, offset: 0x31F355, size: 0x8, addend: 0x0, symName: __ZNO8facebook3jsi5Value8asSymbolERNS0_7RuntimeE, symObjAddr: 0x1E64, symBinAddr: 0x3F1B4, symSize: 0x168 }
  - { offsetInCU: 0x162C4, offset: 0x31F93F, size: 0x8, addend: 0x0, symName: __ZNKR8facebook3jsi5Value8asBigIntERNS0_7RuntimeE, symObjAddr: 0x1FCC, symBinAddr: 0x3F31C, symSize: 0x160 }
  - { offsetInCU: 0x16810, offset: 0x31FE8B, size: 0x8, addend: 0x0, symName: __ZNKR8facebook3jsi5Value9getBigIntERNS0_7RuntimeE, symObjAddr: 0x212C, symBinAddr: 0x3F47C, symSize: 0x48 }
  - { offsetInCU: 0x168E3, offset: 0x31FF5E, size: 0x8, addend: 0x0, symName: __ZNO8facebook3jsi5Value8asBigIntERNS0_7RuntimeE, symObjAddr: 0x2174, symBinAddr: 0x3F4C4, symSize: 0x168 }
  - { offsetInCU: 0x16936, offset: 0x31FFB1, size: 0x8, addend: 0x0, symName: __ZNKR8facebook3jsi5Value9getBigIntERNS0_7RuntimeE.cold.1, symObjAddr: 0x4F38, symBinAddr: 0xB8FE64, symSize: 0x28 }
  - { offsetInCU: 0x16979, offset: 0x31FFF4, size: 0x8, addend: 0x0, symName: __ZNO8facebook3jsi5Value8asBigIntERNS0_7RuntimeE, symObjAddr: 0x2174, symBinAddr: 0x3F4C4, symSize: 0x168 }
  - { offsetInCU: 0x16F63, offset: 0x3205DE, size: 0x8, addend: 0x0, symName: __ZNKR8facebook3jsi5Value8asStringERNS0_7RuntimeE, symObjAddr: 0x22DC, symBinAddr: 0x3F62C, symSize: 0x160 }
  - { offsetInCU: 0x1752A, offset: 0x320BA5, size: 0x8, addend: 0x0, symName: __ZNO8facebook3jsi5Value8asStringERNS0_7RuntimeE, symObjAddr: 0x2484, symBinAddr: 0x3F78C, symSize: 0x168 }
  - { offsetInCU: 0x1756B, offset: 0x320BE6, size: 0x8, addend: 0x0, symName: __ZNO8facebook3jsi5Value8asStringERNS0_7RuntimeE, symObjAddr: 0x2484, symBinAddr: 0x3F78C, symSize: 0x168 }
  - { offsetInCU: 0x17B78, offset: 0x3211F3, size: 0x8, addend: 0x0, symName: __ZNK8facebook3jsi5Value8toStringERNS0_7RuntimeE, symObjAddr: 0x25EC, symBinAddr: 0x3F8F4, symSize: 0x1F4 }
  - { offsetInCU: 0x1819D, offset: 0x321818, size: 0x8, addend: 0x0, symName: __ZN8facebook3jsi5Array18createWithElementsERNS0_7RuntimeESt16initializer_listINS0_5ValueEE, symObjAddr: 0x27E0, symBinAddr: 0x3FAE8, symSize: 0xB0 }
  - { offsetInCU: 0x183B0, offset: 0x321A2B, size: 0x8, addend: 0x0, symName: __ZN8facebook3jsi5Array15setValueAtIndexIRKNS0_5ValueEEEvRNS0_7RuntimeEmOT_, symObjAddr: 0x2890, symBinAddr: 0x3FB98, symSize: 0x94 }
  - { offsetInCU: 0x18571, offset: 0x321BEC, size: 0x8, addend: 0x0, symName: __ZN8facebook3jsi10HostObject16getPropertyNamesERNS0_7RuntimeE, symObjAddr: 0x2924, symBinAddr: 0x3FC2C, symSize: 0xC }
  - { offsetInCU: 0x185A1, offset: 0x321C1C, size: 0x8, addend: 0x0, symName: __ZN8facebook3jsi10HostObject16getPropertyNamesERNS0_7RuntimeE, symObjAddr: 0x2924, symBinAddr: 0x3FC2C, symSize: 0xC }
  - { offsetInCU: 0x185BE, offset: 0x321C39, size: 0x8, addend: 0x0, symName: __ZN8facebook3jsi10HostObject16getPropertyNamesERNS0_7RuntimeE, symObjAddr: 0x2924, symBinAddr: 0x3FC2C, symSize: 0xC }
  - { offsetInCU: 0x185DB, offset: 0x321C56, size: 0x8, addend: 0x0, symName: __ZN8facebook3jsi7Runtime9pushScopeEv, symObjAddr: 0x2930, symBinAddr: 0x3FC38, symSize: 0x8 }
  - { offsetInCU: 0x18600, offset: 0x321C7B, size: 0x8, addend: 0x0, symName: __ZN8facebook3jsi7Runtime8popScopeEPNS1_10ScopeStateE, symObjAddr: 0x2938, symBinAddr: 0x3FC40, symSize: 0x4 }
  - { offsetInCU: 0x18693, offset: 0x321D0E, size: 0x8, addend: 0x0, symName: __ZN8facebook3jsi7JSErrorC2ERNS0_7RuntimeEONS0_5ValueE, symObjAddr: 0x293C, symBinAddr: 0x3FC44, symSize: 0x8C }
  - { offsetInCU: 0x18A49, offset: 0x3220C4, size: 0x8, addend: 0x0, symName: __ZN8facebook3jsi7JSError8setValueERNS0_7RuntimeEONS0_5ValueE, symObjAddr: 0x29C8, symBinAddr: 0x3FCD0, symSize: 0xD58 }
  - { offsetInCU: 0x1CEE5, offset: 0x326560, size: 0x8, addend: 0x0, symName: __ZNSt3__110shared_ptrIN8facebook3jsi5ValueEED2B7v160006Ev, symObjAddr: 0x4BB4, symBinAddr: 0x41D8C, symSize: 0x50 }
  - { offsetInCU: 0x1D21E, offset: 0x326899, size: 0x8, addend: 0x0, symName: __ZNSt3__110shared_ptrIN8facebook3jsi5ValueEEaSB7v160006EOS4_, symObjAddr: 0x4758, symBinAddr: 0x41A54, symSize: 0x5C }
  - { offsetInCU: 0x1D37C, offset: 0x3269F7, size: 0x8, addend: 0x0, symName: __ZN8facebook3jsi5ValueaSEOS1_, symObjAddr: 0x47B4, symBinAddr: 0x41AB0, symSize: 0x68 }
  - { offsetInCU: 0x1D5A0, offset: 0x326C1B, size: 0x8, addend: 0x0, symName: __ZN8facebook3jsi12_GLOBAL__N_112kindToStringERKNS0_5ValueEPNS0_7RuntimeE.cold.1, symObjAddr: 0x4E20, symBinAddr: 0xB8FD74, symSize: 0x28 }
  - { offsetInCU: 0x1D5AC, offset: 0x326C27, size: 0x8, addend: 0x0, symName: __ZN8facebook3jsi7JSErrorC1ERNS0_7RuntimeEONS0_5ValueE, symObjAddr: 0x375C, symBinAddr: 0x40A64, symSize: 0x4 }
  - { offsetInCU: 0x1D5F7, offset: 0x326C72, size: 0x8, addend: 0x0, symName: __ZN8facebook3jsi7JSErrorC1ERNS0_7RuntimeEONS0_5ValueE, symObjAddr: 0x375C, symBinAddr: 0x40A64, symSize: 0x4 }
  - { offsetInCU: 0x1D6F2, offset: 0x326D6D, size: 0x8, addend: 0x0, symName: __ZN8facebook3jsi7JSErrorC2ERNS0_7RuntimeENSt3__112basic_stringIcNS4_11char_traitsIcEENS4_9allocatorIcEEEESA_, symObjAddr: 0x41DC, symBinAddr: 0x414D8, symSize: 0x3D4 }
  - { offsetInCU: 0x1E70F, offset: 0x327D8A, size: 0x8, addend: 0x0, symName: __ZN8facebook3jsi6Object11setPropertyINS0_6StringEEEvRNS0_7RuntimeEPKcOT_, symObjAddr: 0x45B0, symBinAddr: 0x418AC, symSize: 0xAC }
  - { offsetInCU: 0x1E898, offset: 0x327F13, size: 0x8, addend: 0x0, symName: __ZN8facebook3jsi6Object11setPropertyINS0_6StringEEEvRNS0_7RuntimeERKS3_OT_, symObjAddr: 0x4C04, symBinAddr: 0x41DDC, symSize: 0xAC }
  - { offsetInCU: 0x1EAB8, offset: 0x328133, size: 0x8, addend: 0x0, symName: __ZN8facebook3jsi7JSErrorC1ERNS0_7RuntimeENSt3__112basic_stringIcNS4_11char_traitsIcEENS4_9allocatorIcEEEESA_, symObjAddr: 0x465C, symBinAddr: 0x41958, symSize: 0x4 }
  - { offsetInCU: 0x1EB14, offset: 0x32818F, size: 0x8, addend: 0x0, symName: __ZN8facebook3jsi7JSErrorC1ERNS0_7RuntimeENSt3__112basic_stringIcNS4_11char_traitsIcEENS4_9allocatorIcEEEESA_, symObjAddr: 0x465C, symBinAddr: 0x41958, symSize: 0x4 }
  - { offsetInCU: 0x1EB20, offset: 0x32819B, size: 0x8, addend: 0x0, symName: __ZN8facebook3jsi7JSErrorC2ENSt3__112basic_stringIcNS2_11char_traitsIcEENS2_9allocatorIcEEEERNS0_7RuntimeEONS0_5ValueE, symObjAddr: 0x4660, symBinAddr: 0x4195C, symSize: 0xF4 }
  - { offsetInCU: 0x1EF41, offset: 0x3285BC, size: 0x8, addend: 0x0, symName: __ZN8facebook3jsi7JSErrorC1ENSt3__112basic_stringIcNS2_11char_traitsIcEENS2_9allocatorIcEEEERNS0_7RuntimeEONS0_5ValueE, symObjAddr: 0x4754, symBinAddr: 0x41A50, symSize: 0x4 }
  - { offsetInCU: 0x1EF9C, offset: 0x328617, size: 0x8, addend: 0x0, symName: __ZN8facebook3jsi7JSErrorC1ENSt3__112basic_stringIcNS2_11char_traitsIcEENS2_9allocatorIcEEEERNS0_7RuntimeEONS0_5ValueE, symObjAddr: 0x4754, symBinAddr: 0x41A50, symSize: 0x4 }
  - { offsetInCU: 0x1F043, offset: 0x3286BE, size: 0x8, addend: 0x0, symName: __ZN8facebook3jsi12JSIExceptionD1Ev, symObjAddr: 0x481C, symBinAddr: 0x41B18, symSize: 0x4 }
  - { offsetInCU: 0x1F064, offset: 0x3286DF, size: 0x8, addend: 0x0, symName: __ZN8facebook3jsi12JSIExceptionD1Ev, symObjAddr: 0x481C, symBinAddr: 0x41B18, symSize: 0x4 }
  - { offsetInCU: 0x1F08C, offset: 0x328707, size: 0x8, addend: 0x0, symName: __ZN8facebook3jsi12JSIExceptionD0Ev, symObjAddr: 0x4820, symBinAddr: 0x41B1C, symSize: 0x14 }
  - { offsetInCU: 0x1F0E3, offset: 0x32875E, size: 0x8, addend: 0x0, symName: __ZN8facebook3jsi18JSINativeExceptionD2Ev, symObjAddr: 0x4834, symBinAddr: 0x41B30, symSize: 0x4 }
  - { offsetInCU: 0x1F104, offset: 0x32877F, size: 0x8, addend: 0x0, symName: __ZN8facebook3jsi18JSINativeExceptionD2Ev, symObjAddr: 0x4834, symBinAddr: 0x41B30, symSize: 0x4 }
  - { offsetInCU: 0x1F12C, offset: 0x3287A7, size: 0x8, addend: 0x0, symName: __ZN8facebook3jsi18JSINativeExceptionD0Ev, symObjAddr: 0x4838, symBinAddr: 0x41B34, symSize: 0x14 }
  - { offsetInCU: 0x1F1BD, offset: 0x328838, size: 0x8, addend: 0x0, symName: __ZN8facebook3jsi7JSErrorD0Ev, symObjAddr: 0x48A0, symBinAddr: 0x41B9C, symSize: 0x14 }
  - { offsetInCU: 0x1F23E, offset: 0x3288B9, size: 0x8, addend: 0x0, symName: __ZNK8facebook3jsi12JSIException4whatEv, symObjAddr: 0x48B4, symBinAddr: 0x41BB0, symSize: 0x1C }
  - { offsetInCU: 0x1F2EC, offset: 0x328967, size: 0x8, addend: 0x0, symName: __ZZN8facebook3jsi7Runtime15instrumentationEvEN17NoInstrumentationD0Ev, symObjAddr: 0x48D0, symBinAddr: 0x41BCC, symSize: 0x4 }
  - { offsetInCU: 0x1F315, offset: 0x328990, size: 0x8, addend: 0x0, symName: __ZZN8facebook3jsi7Runtime15instrumentationEvEN17NoInstrumentation18getRecordedGCStatsEv, symObjAddr: 0x48D4, symBinAddr: 0x41BD0, symSize: 0x10 }
  - { offsetInCU: 0x1F52F, offset: 0x328BAA, size: 0x8, addend: 0x0, symName: __ZZN8facebook3jsi7Runtime15instrumentationEvEN17NoInstrumentation11getHeapInfoEb, symObjAddr: 0x48E4, symBinAddr: 0x41BE0, symSize: 0x14 }
  - { offsetInCU: 0x1F55F, offset: 0x328BDA, size: 0x8, addend: 0x0, symName: __ZZN8facebook3jsi7Runtime15instrumentationEvEN17NoInstrumentation11getHeapInfoEb, symObjAddr: 0x48E4, symBinAddr: 0x41BE0, symSize: 0x14 }
  - { offsetInCU: 0x1F57A, offset: 0x328BF5, size: 0x8, addend: 0x0, symName: __ZZN8facebook3jsi7Runtime15instrumentationEvEN17NoInstrumentation11getHeapInfoEb, symObjAddr: 0x48E4, symBinAddr: 0x41BE0, symSize: 0x14 }
  - { offsetInCU: 0x1F597, offset: 0x328C12, size: 0x8, addend: 0x0, symName: __ZZN8facebook3jsi7Runtime15instrumentationEvEN17NoInstrumentation11getHeapInfoEb, symObjAddr: 0x48E4, symBinAddr: 0x41BE0, symSize: 0x14 }
  - { offsetInCU: 0x1F5B4, offset: 0x328C2F, size: 0x8, addend: 0x0, symName: __ZZN8facebook3jsi7Runtime15instrumentationEvEN17NoInstrumentation11getHeapInfoEb, symObjAddr: 0x48E4, symBinAddr: 0x41BE0, symSize: 0x14 }
  - { offsetInCU: 0x1F5D1, offset: 0x328C4C, size: 0x8, addend: 0x0, symName: __ZZN8facebook3jsi7Runtime15instrumentationEvEN17NoInstrumentation11getHeapInfoEb, symObjAddr: 0x48E4, symBinAddr: 0x41BE0, symSize: 0x14 }
  - { offsetInCU: 0x1F5F0, offset: 0x328C6B, size: 0x8, addend: 0x0, symName: __ZZN8facebook3jsi7Runtime15instrumentationEvEN17NoInstrumentation11getHeapInfoEb, symObjAddr: 0x48E4, symBinAddr: 0x41BE0, symSize: 0x14 }
  - { offsetInCU: 0x1F60D, offset: 0x328C88, size: 0x8, addend: 0x0, symName: __ZZN8facebook3jsi7Runtime15instrumentationEvEN17NoInstrumentation11getHeapInfoEb, symObjAddr: 0x48E4, symBinAddr: 0x41BE0, symSize: 0x14 }
  - { offsetInCU: 0x1F62A, offset: 0x328CA5, size: 0x8, addend: 0x0, symName: __ZZN8facebook3jsi7Runtime15instrumentationEvEN17NoInstrumentation11getHeapInfoEb, symObjAddr: 0x48E4, symBinAddr: 0x41BE0, symSize: 0x14 }
  - { offsetInCU: 0x1F647, offset: 0x328CC2, size: 0x8, addend: 0x0, symName: __ZZN8facebook3jsi7Runtime15instrumentationEvEN17NoInstrumentation11getHeapInfoEb, symObjAddr: 0x48E4, symBinAddr: 0x41BE0, symSize: 0x14 }
  - { offsetInCU: 0x1F6C7, offset: 0x328D42, size: 0x8, addend: 0x0, symName: __ZZN8facebook3jsi7Runtime15instrumentationEvEN17NoInstrumentation14collectGarbageENSt3__112basic_stringIcNS3_11char_traitsIcEENS3_9allocatorIcEEEE, symObjAddr: 0x48F8, symBinAddr: 0x41BF4, symSize: 0x4 }
  - { offsetInCU: 0x1F6F5, offset: 0x328D70, size: 0x8, addend: 0x0, symName: __ZZN8facebook3jsi7Runtime15instrumentationEvEN17NoInstrumentation34startTrackingHeapObjectStackTracesENSt3__18functionIFvyNS3_6chrono8durationIxNS3_5ratioILl1ELl1000000EEEEENS3_6vectorINS3_5tupleIJyyyEEENS3_9allocatorISC_EEEEEEE, symObjAddr: 0x48FC, symBinAddr: 0x41BF8, symSize: 0x4 }
  - { offsetInCU: 0x1F723, offset: 0x328D9E, size: 0x8, addend: 0x0, symName: __ZZN8facebook3jsi7Runtime15instrumentationEvEN17NoInstrumentation33stopTrackingHeapObjectStackTracesEv, symObjAddr: 0x4900, symBinAddr: 0x41BFC, symSize: 0x4 }
  - { offsetInCU: 0x1F749, offset: 0x328DC4, size: 0x8, addend: 0x0, symName: __ZZN8facebook3jsi7Runtime15instrumentationEvEN17NoInstrumentation17startHeapSamplingEm, symObjAddr: 0x4904, symBinAddr: 0x41C00, symSize: 0x4 }
  - { offsetInCU: 0x1F777, offset: 0x328DF2, size: 0x8, addend: 0x0, symName: __ZZN8facebook3jsi7Runtime15instrumentationEvEN17NoInstrumentation16stopHeapSamplingERNSt3__113basic_ostreamIcNS3_11char_traitsIcEEEE, symObjAddr: 0x4908, symBinAddr: 0x41C04, symSize: 0x4 }
  - { offsetInCU: 0x1F7A5, offset: 0x328E20, size: 0x8, addend: 0x0, symName: __ZZN8facebook3jsi7Runtime15instrumentationEvEN17NoInstrumentation20createSnapshotToFileERKNSt3__112basic_stringIcNS3_11char_traitsIcEENS3_9allocatorIcEEEE, symObjAddr: 0x490C, symBinAddr: 0x41C08, symSize: 0xB0 }
  - { offsetInCU: 0x1FA20, offset: 0x32909B, size: 0x8, addend: 0x0, symName: __ZZN8facebook3jsi7Runtime15instrumentationEvEN17NoInstrumentation22createSnapshotToStreamERNSt3__113basic_ostreamIcNS3_11char_traitsIcEEEE, symObjAddr: 0x49BC, symBinAddr: 0x41CB8, symSize: 0xB0 }
  - { offsetInCU: 0x1FC9B, offset: 0x329316, size: 0x8, addend: 0x0, symName: __ZZN8facebook3jsi7Runtime15instrumentationEvEN17NoInstrumentation33flushAndDisableBridgeTrafficTraceEv, symObjAddr: 0x4A6C, symBinAddr: 0x41D68, symSize: 0xC }
  - { offsetInCU: 0x1FCC1, offset: 0x32933C, size: 0x8, addend: 0x0, symName: __ZZN8facebook3jsi7Runtime15instrumentationEvENK17NoInstrumentation33writeBasicBlockProfileTraceToFileERKNSt3__112basic_stringIcNS3_11char_traitsIcEENS3_9allocatorIcEEEE, symObjAddr: 0x4A78, symBinAddr: 0x41D74, symSize: 0xC }
  - { offsetInCU: 0x1FCEF, offset: 0x32936A, size: 0x8, addend: 0x0, symName: __ZZN8facebook3jsi7Runtime15instrumentationEvENK17NoInstrumentation25dumpProfilerSymbolsToFileERKNSt3__112basic_stringIcNS3_11char_traitsIcEENS3_9allocatorIcEEEE, symObjAddr: 0x4A84, symBinAddr: 0x41D80, symSize: 0xC }
  - { offsetInCU: 0x200D8, offset: 0x329753, size: 0x8, addend: 0x0, symName: __ZNSt3__120__shared_ptr_emplaceIN8facebook3jsi5ValueENS_9allocatorIS3_EEEC2B7v160006IJS3_EEES5_DpOT_, symObjAddr: 0x4D08, symBinAddr: 0x41EE0, symSize: 0x60 }
  - { offsetInCU: 0x20287, offset: 0x329902, size: 0x8, addend: 0x0, symName: __ZNSt3__120__shared_ptr_emplaceIN8facebook3jsi5ValueENS_9allocatorIS3_EEED1Ev, symObjAddr: 0x4D68, symBinAddr: 0x41F40, symSize: 0x14 }
  - { offsetInCU: 0x202A8, offset: 0x329923, size: 0x8, addend: 0x0, symName: __ZNSt3__120__shared_ptr_emplaceIN8facebook3jsi5ValueENS_9allocatorIS3_EEED1Ev, symObjAddr: 0x4D68, symBinAddr: 0x41F40, symSize: 0x14 }
  - { offsetInCU: 0x202E0, offset: 0x32995B, size: 0x8, addend: 0x0, symName: __ZNSt3__120__shared_ptr_emplaceIN8facebook3jsi5ValueENS_9allocatorIS3_EEED0Ev, symObjAddr: 0x4D7C, symBinAddr: 0x41F54, symSize: 0x24 }
  - { offsetInCU: 0x20347, offset: 0x3299C2, size: 0x8, addend: 0x0, symName: __ZNSt3__120__shared_ptr_emplaceIN8facebook3jsi5ValueENS_9allocatorIS3_EEE16__on_zero_sharedEv, symObjAddr: 0x4DA0, symBinAddr: 0x41F78, symSize: 0x8 }
  - { offsetInCU: 0x20370, offset: 0x3299EB, size: 0x8, addend: 0x0, symName: __ZNSt3__120__shared_ptr_emplaceIN8facebook3jsi5ValueENS_9allocatorIS3_EEE16__on_zero_sharedEv, symObjAddr: 0x4DA0, symBinAddr: 0x41F78, symSize: 0x8 }
  - { offsetInCU: 0x203B8, offset: 0x329A33, size: 0x8, addend: 0x0, symName: __ZNSt3__120__shared_ptr_emplaceIN8facebook3jsi5ValueENS_9allocatorIS3_EEE21__on_zero_shared_weakEv, symObjAddr: 0x4DA8, symBinAddr: 0x41F80, symSize: 0x4 }
  - { offsetInCU: 0x203EB, offset: 0x329A66, size: 0x8, addend: 0x0, symName: __ZNSt3__120__shared_ptr_emplaceIN8facebook3jsi5ValueENS_9allocatorIS3_EEE21__on_zero_shared_weakEv, symObjAddr: 0x4DA8, symBinAddr: 0x41F80, symSize: 0x4 }
  - { offsetInCU: 0x2040F, offset: 0x329A8A, size: 0x8, addend: 0x0, symName: __ZNSt3__120__shared_ptr_emplaceIN8facebook3jsi5ValueENS_9allocatorIS3_EEE21__on_zero_shared_weakEv, symObjAddr: 0x4DA8, symBinAddr: 0x41F80, symSize: 0x4 }
  - { offsetInCU: 0x20433, offset: 0x329AAE, size: 0x8, addend: 0x0, symName: __ZNSt3__120__shared_ptr_emplaceIN8facebook3jsi5ValueENS_9allocatorIS3_EEE21__on_zero_shared_weakEv, symObjAddr: 0x4DA8, symBinAddr: 0x41F80, symSize: 0x4 }
  - { offsetInCU: 0x20460, offset: 0x329ADB, size: 0x8, addend: 0x0, symName: __ZNSt3__120__shared_ptr_emplaceIN8facebook3jsi5ValueENS_9allocatorIS3_EEE21__on_zero_shared_weakEv, symObjAddr: 0x4DA8, symBinAddr: 0x41F80, symSize: 0x4 }
  - { offsetInCU: 0x20488, offset: 0x329B03, size: 0x8, addend: 0x0, symName: __ZNSt3__120__shared_ptr_emplaceIN8facebook3jsi5ValueENS_9allocatorIS3_EEE21__on_zero_shared_weakEv, symObjAddr: 0x4DA8, symBinAddr: 0x41F80, symSize: 0x4 }
  - { offsetInCU: 0x53, offset: 0x329BCB, size: 0x8, addend: 0x0, symName: __ZN3tns12ClassBuilder17classNameCounter_E, symObjAddr: 0x31E8B0, symBinAddr: 0x158D760, symSize: 0x0 }
  - { offsetInCU: 0xA5A9, offset: 0x334121, size: 0x8, addend: 0x0, symName: __ZNSt3__119__allocate_at_leastB7v160006INS_9allocatorIPKN3tns12ProtocolMetaEEEEENS_19__allocation_resultINS_16allocator_traitsIT_E7pointerEEERS9_m, symObjAddr: 0xA354, symBinAddr: 0x48D08, symSize: 0x34 }
  - { offsetInCU: 0xAFA4, offset: 0x334B1C, size: 0x8, addend: 0x0, symName: __ZNSt3__115allocate_sharedB7v160006IN2v810PersistentINS1_6ObjectENS1_27NonCopyablePersistentTraitsIS3_EEEENS_9allocatorIS6_EEJRPNS1_7IsolateERNS1_5LocalIS3_EEEvEENS_10shared_ptrIT_EERKT0_DpOT1_, symObjAddr: 0xA620, symBinAddr: 0x48DFC, symSize: 0x60 }
  - { offsetInCU: 0xB6BF, offset: 0x335237, size: 0x8, addend: 0x0, symName: __ZNSt3__115allocate_sharedB7v160006IN2v810PersistentINS1_6ObjectENS1_27NonCopyablePersistentTraitsIS3_EEEENS_9allocatorIS6_EEJRPNS1_7IsolateERNS1_5LocalIS3_EEEvEENS_10shared_ptrIT_EERKT0_DpOT1_, symObjAddr: 0xA620, symBinAddr: 0x48DFC, symSize: 0x60 }
  - { offsetInCU: 0x15DBE, offset: 0x33F936, size: 0x8, addend: 0x0, symName: __ZN3tns12ClassBuilder17GetExtendFunctionEPN2v87IsolateEPKNS_13InterfaceMetaE, symObjAddr: 0x0, symBinAddr: 0x41F84, symSize: 0x104 }
  - { offsetInCU: 0x160B1, offset: 0x33FC29, size: 0x8, addend: 0x0, symName: __ZN3tns6Caches24registerCacheBoundObjectINS_12ClassBuilder9CacheItemEEEvPT_, symObjAddr: 0x104, symBinAddr: 0x42088, symSize: 0x110 }
  - { offsetInCU: 0x17A7A, offset: 0x3415F2, size: 0x8, addend: 0x0, symName: __ZN3tns12ClassBuilder14ExtendCallbackERKN2v820FunctionCallbackInfoINS1_5ValueEEE, symObjAddr: 0x214, symBinAddr: 0x42198, symSize: 0xD30 }
  - { offsetInCU: 0x1BDDF, offset: 0x345957, size: 0x8, addend: 0x0, symName: __ZN3tns12ClassBuilder20ExposeDynamicMembersEN2v85LocalINS1_7ContextEEEP10objc_classNS2_INS1_6ObjectEEES8_, symObjAddr: 0x1000, symBinAddr: 0x42EC8, symSize: 0x1C8 }
  - { offsetInCU: 0x1C62D, offset: 0x3461A5, size: 0x8, addend: 0x0, symName: __ZN3tns12ClassBuilder20ExposeDynamicMethodsEN2v85LocalINS1_7ContextEEEP10objc_classNS2_INS1_5ValueEEES8_NS2_INS1_6ObjectEEE, symObjAddr: 0x11C8, symBinAddr: 0x43090, symSize: 0x11F4 }
  - { offsetInCU: 0x22AE7, offset: 0x34C65F, size: 0x8, addend: 0x0, symName: __ZN10robin_hood6detail5TableILb1ELm80ENSt3__112basic_stringIcNS2_11char_traitsIcEENS2_9allocatorIcEEEENS2_10unique_ptrIN2v810PersistentINSA_6ObjectENSA_27NonCopyablePersistentTraitsISC_EEEENS2_14default_deleteISF_EEEENS_4hashIS8_vEENS2_8equal_toIS8_EEE7emplaceIJRS8_SI_EEENS2_4pairINSN_4IterILb0EEEbEEDpOT_, symObjAddr: 0x2784, symBinAddr: 0x44504, symSize: 0x148 }
  - { offsetInCU: 0x23E67, offset: 0x34D9DF, size: 0x8, addend: 0x0, symName: __ZN3tns12ClassBuilder19GetTypeEncodingTypeEPN2v87IsolateENS1_5LocalINS1_5ValueEEE, symObjAddr: 0x36F4, symBinAddr: 0x45208, symSize: 0x110 }
  - { offsetInCU: 0x2452A, offset: 0x34E0A2, size: 0x8, addend: 0x0, symName: __ZN3tns12ClassBuilder15GetTypeEncodingEPKNS_12TypeEncodingEi, symObjAddr: 0x3544, symBinAddr: 0x45058, symSize: 0x1B0 }
  - { offsetInCU: 0x24B82, offset: 0x34E6FA, size: 0x8, addend: 0x0, symName: __ZNSt3__16vectorIPKN3tns12ProtocolMetaENS_9allocatorIS4_EEEC2ERKS7_, symObjAddr: 0xA490, symBinAddr: 0x48D3C, symSize: 0x80 }
  - { offsetInCU: 0x24EAD, offset: 0x34EA25, size: 0x8, addend: 0x0, symName: __ZN3tns12ClassBuilder12VisitMethodsEP10objc_classNSt3__112basic_stringIcNS3_11char_traitsIcEENS3_9allocatorIcEEEEPKNS_13BaseClassMetaERNS3_6vectorIPKNS_10MethodMetaENS7_ISG_EEEENSD_IPKNS_12ProtocolMetaENS7_ISM_EEEE, symObjAddr: 0x461C, symBinAddr: 0x46130, symSize: 0x6B0 }
  - { offsetInCU: 0x27A1F, offset: 0x351597, size: 0x8, addend: 0x0, symName: __ZN3tns12ClassBuilder15VisitPropertiesENSt3__112basic_stringIcNS1_11char_traitsIcEENS1_9allocatorIcEEEEPKNS_13BaseClassMetaERNS1_6vectorIPKNS_12PropertyMetaENS5_ISE_EEEENSB_IPKNS_12ProtocolMetaENS5_ISK_EEEE, symObjAddr: 0x3810, symBinAddr: 0x45324, symSize: 0x698 }
  - { offsetInCU: 0x2A73D, offset: 0x3542B5, size: 0x8, addend: 0x0, symName: __ZN3tns12ClassBuilder16ExposePropertiesEPN2v87IsolateEP10objc_classNSt3__16vectorIPKNS_12PropertyMetaENS6_9allocatorISA_EEEENS1_5LocalINS1_6ObjectEEENSE_INS1_5ValueEEESI_, symObjAddr: 0x3EA8, symBinAddr: 0x459BC, symSize: 0x774 }
  - { offsetInCU: 0x2C83B, offset: 0x3563B3, size: 0x8, addend: 0x0, symName: __ZNKSt3__16vectorIPKN3tns12ProtocolMetaENS_9allocatorIS4_EEE20__throw_length_errorB7v160006Ev, symObjAddr: 0xA340, symBinAddr: 0x48CF4, symSize: 0x14 }
  - { offsetInCU: 0x2C864, offset: 0x3563DC, size: 0x8, addend: 0x0, symName: __ZNSt3__119__allocate_at_leastB7v160006INS_9allocatorIPKN3tns12ProtocolMetaEEEEENS_19__allocation_resultINS_16allocator_traitsIT_E7pointerEEERS9_m, symObjAddr: 0xA354, symBinAddr: 0x48D08, symSize: 0x34 }
  - { offsetInCU: 0x2C8BE, offset: 0x356436, size: 0x8, addend: 0x0, symName: __ZN3tns12ClassBuilder32ExtendedClassConstructorCallbackERKN2v820FunctionCallbackInfoINS1_5ValueEEE, symObjAddr: 0x23BC, symBinAddr: 0x44284, symSize: 0x9C }
  - { offsetInCU: 0x2CB25, offset: 0x35669D, size: 0x8, addend: 0x0, symName: __ZN3tns12ClassBuilder27SuperAccessorGetterCallbackEN2v85LocalINS1_4NameEEERKNS1_20PropertyCallbackInfoINS1_5ValueEEE, symObjAddr: 0x2458, symBinAddr: 0x44320, symSize: 0x1E4 }
  - { offsetInCU: 0x2DE01, offset: 0x357979, size: 0x8, addend: 0x0, symName: __ZN10robin_hood6detail5TableILb1ELm80ENSt3__112basic_stringIcNS2_11char_traitsIcEENS2_9allocatorIcEEEENS2_10unique_ptrIN2v810PersistentINSA_6ObjectENSA_27NonCopyablePersistentTraitsISC_EEEENS2_14default_deleteISF_EEEENS_4hashIS8_vEENS2_8equal_toIS8_EEE25insertKeyPrepareEmptySpotIRKS8_EENS2_4pairImNSN_14InsertionStateEEEOT_, symObjAddr: 0x964C, symBinAddr: 0x48438, symSize: 0x188 }
  - { offsetInCU: 0x2DF4E, offset: 0x357AC6, size: 0x8, addend: 0x0, symName: __ZNK10robin_hood6detail5TableILb1ELm80ENSt3__112basic_stringIcNS2_11char_traitsIcEENS2_9allocatorIcEEEENS2_10unique_ptrIN2v810PersistentINSA_6ObjectENSA_27NonCopyablePersistentTraitsISC_EEEENS2_14default_deleteISF_EEEENS_4hashIS8_vEENS2_8equal_toIS8_EEE18throwOverflowErrorEv, symObjAddr: 0x97D4, symBinAddr: 0x485C0, symSize: 0x50 }
  - { offsetInCU: 0x2DF83, offset: 0x357AFB, size: 0x8, addend: 0x0, symName: __ZN10robin_hood6detail5TableILb1ELm80ENSt3__112basic_stringIcNS2_11char_traitsIcEENS2_9allocatorIcEEEENS2_10unique_ptrIN2v810PersistentINSA_6ObjectENSA_27NonCopyablePersistentTraitsISC_EEEENS2_14default_deleteISF_EEEENS_4hashIS8_vEENS2_8equal_toIS8_EEE8DataNodeISN_Lb1EED1Ev, symObjAddr: 0x9824, symBinAddr: 0x48610, symSize: 0x40 }
  - { offsetInCU: 0x2E21A, offset: 0x357D92, size: 0x8, addend: 0x0, symName: __ZN3tns12ClassBuilder37RegisterBaseTypeScriptExtendsFunctionEN2v85LocalINS1_7ContextEEE, symObjAddr: 0x28D8, symBinAddr: 0x4464C, symSize: 0x268 }
  - { offsetInCU: 0x2F013, offset: 0x358B8B, size: 0x8, addend: 0x0, symName: __ZN3tns12ClassBuilder39RegisterNativeTypeScriptExtendsFunctionEN2v85LocalINS1_7ContextEEE, symObjAddr: 0x2B40, symBinAddr: 0x448B4, symSize: 0x148 }
  - { offsetInCU: 0x2F5AB, offset: 0x359123, size: 0x8, addend: 0x0, symName: __ZN3tns12ClassBuilder15GetTypeEncodingEPKNS_12TypeEncodingE, symObjAddr: 0x2C88, symBinAddr: 0x449FC, symSize: 0x65C }
  - { offsetInCU: 0x31464, offset: 0x35AFDC, size: 0x8, addend: 0x0, symName: ____ZN3tns12ClassBuilder20ExposeDynamicMethodsEN2v85LocalINS1_7ContextEEEP10objc_classNS2_INS1_5ValueEEES8_NS2_INS1_6ObjectEEE_block_invoke, symObjAddr: 0x3804, symBinAddr: 0x45318, symSize: 0xC }
  - { offsetInCU: 0x329D4, offset: 0x35C54C, size: 0x8, addend: 0x0, symName: __ZN3tns12ClassBuilder22FindNotOverridenMethodEP10objc_classP13objc_selector, symObjAddr: 0x4F30, symBinAddr: 0x467E0, symSize: 0x58 }
  - { offsetInCU: 0x331AB, offset: 0x35CD23, size: 0x8, addend: 0x0, symName: '__ZZN3tns12ClassBuilder39RegisterNativeTypeScriptExtendsFunctionEN2v85LocalINS1_7ContextEEEEN3$_08__invokeERKNS1_20FunctionCallbackInfoINS1_5ValueEEE', symObjAddr: 0x51DC, symBinAddr: 0x46838, symSize: 0xA40 }
  - { offsetInCU: 0x35E13, offset: 0x35F98B, size: 0x8, addend: 0x0, symName: __ZN10robin_hood6detail5TableILb1ELm80ENSt3__112basic_stringIcNS2_11char_traitsIcEENS2_9allocatorIcEEEENS2_10unique_ptrIN2v810PersistentINSA_8FunctionENSA_27NonCopyablePersistentTraitsISC_EEEENS2_14default_deleteISF_EEEENS_4hashIS8_vEENS2_8equal_toIS8_EEE7emplaceIJRS8_RPSF_EEENS2_4pairINSN_4IterILb0EEEbEEDpOT_, symObjAddr: 0x5C38, symBinAddr: 0x47294, symSize: 0x144 }
  - { offsetInCU: 0x36675, offset: 0x3601ED, size: 0x8, addend: 0x0, symName: ___Block_byref_object_copy_, symObjAddr: 0x5C1C, symBinAddr: 0x47278, symSize: 0x10 }
  - { offsetInCU: 0x3669E, offset: 0x360216, size: 0x8, addend: 0x0, symName: ___Block_byref_object_dispose_, symObjAddr: 0x5C2C, symBinAddr: 0x47288, symSize: 0xC }
  - { offsetInCU: 0x368BA, offset: 0x360432, size: 0x8, addend: 0x0, symName: '____ZZN3tns12ClassBuilder39RegisterNativeTypeScriptExtendsFunctionEN2v85LocalINS1_7ContextEEEENK3$_0clERKNS1_20FunctionCallbackInfoINS1_5ValueEEE_block_invoke', symObjAddr: 0x5D7C, symBinAddr: 0x473D8, symSize: 0x3BC }
  - { offsetInCU: 0x37855, offset: 0x3613CD, size: 0x8, addend: 0x0, symName: '____ZZN3tns12ClassBuilder39RegisterNativeTypeScriptExtendsFunctionEN2v85LocalINS1_7ContextEEEENK3$_0clERKNS1_20FunctionCallbackInfoINS1_5ValueEEE_block_invoke.53', symObjAddr: 0x6154, symBinAddr: 0x47794, symSize: 0x210 }
  - { offsetInCU: 0x37F21, offset: 0x361A99, size: 0x8, addend: 0x0, symName: '____ZZN3tns12ClassBuilder39RegisterNativeTypeScriptExtendsFunctionEN2v85LocalINS1_7ContextEEEENK3$_0clERKNS1_20FunctionCallbackInfoINS1_5ValueEEE_block_invoke_2', symObjAddr: 0x6364, symBinAddr: 0x479A4, symSize: 0x210 }
  - { offsetInCU: 0x3A849, offset: 0x3643C1, size: 0x8, addend: 0x0, symName: '__ZZN3tns12ClassBuilder16ExposePropertiesEPN2v87IsolateEP10objc_classNSt3__16vectorIPKNS_12PropertyMetaENS6_9allocatorISA_EEEENS1_5LocalINS1_6ObjectEEENSE_INS1_5ValueEEESI_EN3$_18__invokeEP7ffi_cifPvPSM_SM_', symObjAddr: 0x86F8, symBinAddr: 0x47BB4, symSize: 0x3E4 }
  - { offsetInCU: 0x3BAEC, offset: 0x365664, size: 0x8, addend: 0x0, symName: '__ZZN3tns12ClassBuilder16ExposePropertiesEPN2v87IsolateEP10objc_classNSt3__16vectorIPKNS_12PropertyMetaENS6_9allocatorISA_EEEENS1_5LocalINS1_6ObjectEEENSE_INS1_5ValueEEESI_EN3$_28__invokeEP7ffi_cifPvPSM_SM_', symObjAddr: 0x8ADC, symBinAddr: 0x47F98, symSize: 0x494 }
  - { offsetInCU: 0x3D07A, offset: 0x366BF2, size: 0x8, addend: 0x0, symName: __ZZN3tns6Caches11unique_voidINS_12ClassBuilder9CacheItemEEENSt3__110unique_ptrIvPFvPKvEEEPT_ENUlS7_E_8__invokeES7_, symObjAddr: 0x949C, symBinAddr: 0x4842C, symSize: 0xC }
  - { offsetInCU: 0x3D098, offset: 0x366C10, size: 0x8, addend: 0x0, symName: __ZZN3tns6Caches11unique_voidINS_12ClassBuilder9CacheItemEEENSt3__110unique_ptrIvPFvPKvEEEPT_ENUlS7_E_8__invokeES7_, symObjAddr: 0x949C, symBinAddr: 0x4842C, symSize: 0xC }
  - { offsetInCU: 0x3D16F, offset: 0x366CE7, size: 0x8, addend: 0x0, symName: __ZN10robin_hood6detail5TableILb1ELm80ENSt3__112basic_stringIcNS2_11char_traitsIcEENS2_9allocatorIcEEEENS2_10unique_ptrIN2v810PersistentINSA_6ObjectENSA_27NonCopyablePersistentTraitsISC_EEEENS2_14default_deleteISF_EEEENS_4hashIS8_vEENS2_8equal_toIS8_EEE13increase_sizeEv, symObjAddr: 0x9864, symBinAddr: 0x48650, symSize: 0x12C }
  - { offsetInCU: 0x3D239, offset: 0x366DB1, size: 0x8, addend: 0x0, symName: __ZN10robin_hood6detail5TableILb1ELm80ENSt3__112basic_stringIcNS2_11char_traitsIcEENS2_9allocatorIcEEEENS2_10unique_ptrIN2v810PersistentINSA_6ObjectENSA_27NonCopyablePersistentTraitsISC_EEEENS2_14default_deleteISF_EEEENS_4hashIS8_vEENS2_8equal_toIS8_EEE7shiftUpEmm, symObjAddr: 0x9990, symBinAddr: 0x4877C, symSize: 0x128 }
  - { offsetInCU: 0x3D532, offset: 0x3670AA, size: 0x8, addend: 0x0, symName: __ZN10robin_hood6detail5TableILb1ELm80ENSt3__112basic_stringIcNS2_11char_traitsIcEENS2_9allocatorIcEEEENS2_10unique_ptrIN2v810PersistentINSA_6ObjectENSA_27NonCopyablePersistentTraitsISC_EEEENS2_14default_deleteISF_EEEENS_4hashIS8_vEENS2_8equal_toIS8_EEE17try_increase_infoEv, symObjAddr: 0x9B84, symBinAddr: 0x48970, symSize: 0x100 }
  - { offsetInCU: 0x3D639, offset: 0x3671B1, size: 0x8, addend: 0x0, symName: __ZN10robin_hood6detail5TableILb1ELm80ENSt3__112basic_stringIcNS2_11char_traitsIcEENS2_9allocatorIcEEEENS2_10unique_ptrIN2v810PersistentINSA_6ObjectENSA_27NonCopyablePersistentTraitsISC_EEEENS2_14default_deleteISF_EEEENS_4hashIS8_vEENS2_8equal_toIS8_EEE8initDataEm, symObjAddr: 0x9AB8, symBinAddr: 0x488A4, symSize: 0xCC }
  - { offsetInCU: 0x3D752, offset: 0x3672CA, size: 0x8, addend: 0x0, symName: __ZN10robin_hood6detail5TableILb1ELm80ENSt3__112basic_stringIcNS2_11char_traitsIcEENS2_9allocatorIcEEEENS2_10unique_ptrIN2v810PersistentINSA_6ObjectENSA_27NonCopyablePersistentTraitsISC_EEEENS2_14default_deleteISF_EEEENS_4hashIS8_vEENS2_8equal_toIS8_EEE17try_increase_infoEv, symObjAddr: 0x9B84, symBinAddr: 0x48970, symSize: 0x100 }
  - { offsetInCU: 0x3D75E, offset: 0x3672D6, size: 0x8, addend: 0x0, symName: __ZN10robin_hood6detail5TableILb1ELm80ENSt3__112basic_stringIcNS2_11char_traitsIcEENS2_9allocatorIcEEEENS2_10unique_ptrIN2v810PersistentINSA_6ObjectENSA_27NonCopyablePersistentTraitsISC_EEEENS2_14default_deleteISF_EEEENS_4hashIS8_vEENS2_8equal_toIS8_EEE16rehashPowerOfTwoEmb, symObjAddr: 0x9C84, symBinAddr: 0x48A70, symSize: 0x110 }
  - { offsetInCU: 0x3DB3C, offset: 0x3676B4, size: 0x8, addend: 0x0, symName: __ZN10robin_hood6detail5TableILb1ELm80ENSt3__112basic_stringIcNS2_11char_traitsIcEENS2_9allocatorIcEEEENS2_10unique_ptrIN2v810PersistentINSA_6ObjectENSA_27NonCopyablePersistentTraitsISC_EEEENS2_14default_deleteISF_EEEENS_4hashIS8_vEENS2_8equal_toIS8_EEE11insert_moveEONSN_8DataNodeISN_Lb1EEE, symObjAddr: 0x9D94, symBinAddr: 0x48B80, symSize: 0x174 }
  - { offsetInCU: 0x3E64B, offset: 0x3681C3, size: 0x8, addend: 0x0, symName: __ZNKSt3__16vectorIPKN3tns12ProtocolMetaENS_9allocatorIS4_EEE20__throw_length_errorB7v160006Ev, symObjAddr: 0xA340, symBinAddr: 0x48CF4, symSize: 0x14 }
  - { offsetInCU: 0x3EC1B, offset: 0x368793, size: 0x8, addend: 0x0, symName: __ZNSt3__16vectorIPKN3tns12ProtocolMetaENS_9allocatorIS4_EEE11__vallocateB7v160006Em, symObjAddr: 0xA510, symBinAddr: 0x48DBC, symSize: 0x40 }
  - { offsetInCU: 0x3EF25, offset: 0x368A9D, size: 0x8, addend: 0x0, symName: __ZNSt3__120__shared_ptr_emplaceIN2v810PersistentINS1_6ObjectENS1_27NonCopyablePersistentTraitsIS3_EEEENS_9allocatorIS6_EEEC2B7v160006IJRPNS1_7IsolateERNS1_5LocalIS3_EEEEES8_DpOT_, symObjAddr: 0xA680, symBinAddr: 0x48E5C, symSize: 0x68 }
  - { offsetInCU: 0x40, offset: 0x369214, size: 0x8, addend: 0x0, symName: _RuntimeConfig, symObjAddr: 0x24980, symBinAddr: 0x158D768, symSize: 0x0 }
  - { offsetInCU: 0x4905, offset: 0x36DAD9, size: 0x8, addend: 0x0, symName: __ZN13RuntimeConfigD1Ev, symObjAddr: 0x0, symBinAddr: 0x48EC4, symSize: 0x40 }
  - { offsetInCU: 0x53, offset: 0x36DDBF, size: 0x8, addend: 0x0, symName: __ZN3tns13WorkerWrapper7nextId_E, symObjAddr: 0x20E568, symBinAddr: 0x158D7A8, symSize: 0x0 }
  - { offsetInCU: 0x40A, offset: 0x36E176, size: 0x8, addend: 0x0, symName: __ZN3tnsL8workers_E, symObjAddr: 0x20E560, symBinAddr: 0x15787B0, symSize: 0x0 }
  - { offsetInCU: 0x98F, offset: 0x36E6FB, size: 0x8, addend: 0x0, symName: __ZN3tns16staticInitMethodEv, symObjAddr: 0x0, symBinAddr: 0x48F2C, symSize: 0x2C }
  - { offsetInCU: 0xF743, offset: 0x37D4AF, size: 0x8, addend: 0x0, symName: __ZN3tns13WorkerWrapper37PassUncaughtExceptionFromWorkerToMainEN2v85LocalINS1_7ContextEEERNS1_8TryCatchEb, symObjAddr: 0xAB8, symBinAddr: 0x4997C, symSize: 0x3E8 }
  - { offsetInCU: 0x12FA0, offset: 0x380D0C, size: 0x8, addend: 0x0, symName: __ZN3tns13WorkerWrapperC2EPN2v87IsolateENSt3__18functionIFvS3_NS1_5LocalINS1_6ObjectEEENS4_12basic_stringIcNS4_11char_traitsIcEENS4_9allocatorIcEEEEEEE, symObjAddr: 0x2C, symBinAddr: 0x48F58, symSize: 0x8C }
  - { offsetInCU: 0x13128, offset: 0x380E94, size: 0x8, addend: 0x0, symName: __ZNSt3__110__function12__value_funcIFvPN2v87IsolateENS2_5LocalINS2_6ObjectEEENS_12basic_stringIcNS_11char_traitsIcEENS_9allocatorIcEEEEEEC2B7v160006ERKSF_, symObjAddr: 0x1A14, symBinAddr: 0x4A2F8, symSize: 0x64 }
  - { offsetInCU: 0x131AC, offset: 0x380F18, size: 0x8, addend: 0x0, symName: __ZN3tns13WorkerWrapperC1EPN2v87IsolateENSt3__18functionIFvS3_NS1_5LocalINS1_6ObjectEEENS4_12basic_stringIcNS4_11char_traitsIcEENS4_9allocatorIcEEEEEEE, symObjAddr: 0xB8, symBinAddr: 0x48FE4, symSize: 0x8C }
  - { offsetInCU: 0x1337A, offset: 0x3810E6, size: 0x8, addend: 0x0, symName: __ZN3tns13WorkerWrapper4TypeEv, symObjAddr: 0x144, symBinAddr: 0x49070, symSize: 0x8 }
  - { offsetInCU: 0x1339E, offset: 0x38110A, size: 0x8, addend: 0x0, symName: __ZN3tns13WorkerWrapper2IdEv, symObjAddr: 0x14C, symBinAddr: 0x49078, symSize: 0x8 }
  - { offsetInCU: 0x133C7, offset: 0x381133, size: 0x8, addend: 0x0, symName: __ZN3tns13WorkerWrapper9IsRunningEv, symObjAddr: 0x154, symBinAddr: 0x49080, symSize: 0x8 }
  - { offsetInCU: 0x133F0, offset: 0x38115C, size: 0x8, addend: 0x0, symName: __ZN3tns13WorkerWrapper9IsClosingEv, symObjAddr: 0x15C, symBinAddr: 0x49088, symSize: 0x8 }
  - { offsetInCU: 0x13419, offset: 0x381185, size: 0x8, addend: 0x0, symName: __ZN3tns13WorkerWrapper8WorkerIdEv, symObjAddr: 0x164, symBinAddr: 0x49090, symSize: 0x8 }
  - { offsetInCU: 0x1354C, offset: 0x3812B8, size: 0x8, addend: 0x0, symName: __ZN3tns13WorkerWrapper11PostMessageENSt3__112basic_stringIcNS1_11char_traitsIcEENS1_9allocatorIcEEEE, symObjAddr: 0x16C, symBinAddr: 0x49098, symSize: 0x70 }
  - { offsetInCU: 0x1395F, offset: 0x3816CB, size: 0x8, addend: 0x0, symName: __ZN3tns13WorkerWrapper5StartENSt3__110shared_ptrIN2v810PersistentINS3_5ValueENS3_27NonCopyablePersistentTraitsIS5_EEEEEENS1_8functionIFPNS3_7IsolateEvEEE, symObjAddr: 0x1DC, symBinAddr: 0x49108, symSize: 0x14C }
  - { offsetInCU: 0x13CA2, offset: 0x381A0E, size: 0x8, addend: 0x0, symName: __ZNSt3__110__function12__value_funcIFPN2v87IsolateEvEEC2B7v160006ERKS6_, symObjAddr: 0x1A78, symBinAddr: 0x4A35C, symSize: 0x64 }
  - { offsetInCU: 0x13DF5, offset: 0x381B61, size: 0x8, addend: 0x0, symName: ____ZN3tns13WorkerWrapper5StartENSt3__110shared_ptrIN2v810PersistentINS3_5ValueENS3_27NonCopyablePersistentTraitsIS5_EEEEEENS1_8functionIFPNS3_7IsolateEvEEE_block_invoke, symObjAddr: 0x390, symBinAddr: 0x49254, symSize: 0xD0 }
  - { offsetInCU: 0x13FD3, offset: 0x381D3F, size: 0x8, addend: 0x0, symName: __ZN3tns13WorkerWrapper16BackgroundLooperENSt3__18functionIFPN2v87IsolateEvEEE, symObjAddr: 0x460, symBinAddr: 0x49324, symSize: 0xA0 }
  - { offsetInCU: 0x14168, offset: 0x381ED4, size: 0x8, addend: 0x0, symName: ___copy_helper_block_e8_40c40_ZTSNSt3__18functionIFPN2v87IsolateEvEEE, symObjAddr: 0x500, symBinAddr: 0x493C4, symSize: 0xC }
  - { offsetInCU: 0x141E3, offset: 0x381F4F, size: 0x8, addend: 0x0, symName: __ZN3tns13WorkerWrapper17DrainPendingTasksEv, symObjAddr: 0x540, symBinAddr: 0x49404, symSize: 0x26C }
  - { offsetInCU: 0x14CD9, offset: 0x382A45, size: 0x8, addend: 0x0, symName: ___copy_helper_block_e8_40c40_ZTSNSt3__18functionIFPN2v87IsolateEvEEE, symObjAddr: 0x500, symBinAddr: 0x493C4, symSize: 0xC }
  - { offsetInCU: 0x14D7D, offset: 0x382AE9, size: 0x8, addend: 0x0, symName: ___destroy_helper_block_e8_40c40_ZTSNSt3__18functionIFPN2v87IsolateEvEEE, symObjAddr: 0x50C, symBinAddr: 0x493D0, symSize: 0x34 }
  - { offsetInCU: 0x1505C, offset: 0x382DC8, size: 0x8, addend: 0x0, symName: __ZNKSt3__18functionIFvPN2v87IsolateENS1_5LocalINS1_6ObjectEEENS_12basic_stringIcNS_11char_traitsIcEENS_9allocatorIcEEEEEEclES3_S6_SC_, symObjAddr: 0x7AC, symBinAddr: 0x49670, symSize: 0x3C }
  - { offsetInCU: 0x150F2, offset: 0x382E5E, size: 0x8, addend: 0x0, symName: __ZN3tns13WorkerWrapper19CallOnErrorHandlersERN2v88TryCatchE, symObjAddr: 0x7E8, symBinAddr: 0x496AC, symSize: 0x280 }
  - { offsetInCU: 0x150FE, offset: 0x382E6A, size: 0x8, addend: 0x0, symName: __ZN3tns13WorkerWrapper19CallOnErrorHandlersERN2v88TryCatchE, symObjAddr: 0x7E8, symBinAddr: 0x496AC, symSize: 0x280 }
  - { offsetInCU: 0x15CDF, offset: 0x383A4B, size: 0x8, addend: 0x0, symName: '__ZNSt3__110__function6__funcIZN3tns13WorkerWrapper37PassUncaughtExceptionFromWorkerToMainEN2v85LocalINS4_7ContextEEERNS4_8TryCatchEbE3$_1NS_9allocatorISA_EEFvvEED1Ev', symObjAddr: 0x1BC4, symBinAddr: 0x4A3C0, symSize: 0x5C }
  - { offsetInCU: 0x15CF1, offset: 0x383A5D, size: 0x8, addend: 0x0, symName: __ZN3tns13WorkerWrapper5CloseEv, symObjAddr: 0xA68, symBinAddr: 0x4992C, symSize: 0xC }
  - { offsetInCU: 0x15D50, offset: 0x383ABC, size: 0x8, addend: 0x0, symName: __ZN3tns13WorkerWrapper9TerminateEv, symObjAddr: 0xA74, symBinAddr: 0x49938, symSize: 0x44 }
  - { offsetInCU: 0x164F3, offset: 0x38425F, size: 0x8, addend: 0x0, symName: '__ZZN3tns13WorkerWrapper37PassUncaughtExceptionFromWorkerToMainEN2v85LocalINS1_7ContextEEERNS1_8TryCatchEbEN3$_1D1Ev', symObjAddr: 0xF5C, symBinAddr: 0x49D64, symSize: 0x50 }
  - { offsetInCU: 0x16BC7, offset: 0x384933, size: 0x8, addend: 0x0, symName: __ZN3tns13WorkerWrapper20ConstructErrorObjectEN2v85LocalINS1_7ContextEEENSt3__112basic_stringIcNS5_11char_traitsIcEENS5_9allocatorIcEEEESB_SB_i, symObjAddr: 0xFAC, symBinAddr: 0x49DB4, symSize: 0x440 }
  - { offsetInCU: 0x17F9D, offset: 0x385D09, size: 0x8, addend: 0x0, symName: __ZN3tns13WorkerWrapperD1Ev, symObjAddr: 0x13EC, symBinAddr: 0x4A1F4, symSize: 0x80 }
  - { offsetInCU: 0x184B5, offset: 0x386221, size: 0x8, addend: 0x0, symName: __ZN3tns13WorkerWrapperD0Ev, symObjAddr: 0x146C, symBinAddr: 0x4A274, symSize: 0x80 }
  - { offsetInCU: 0x1894B, offset: 0x3866B7, size: 0x8, addend: 0x0, symName: '__ZZN3tns13WorkerWrapper16BackgroundLooperENSt3__18functionIFPN2v87IsolateEvEEEEN3$_08__invokeEPv', symObjAddr: 0x15F8, symBinAddr: 0x4A2F4, symSize: 0x4 }
  - { offsetInCU: 0x18974, offset: 0x3866E0, size: 0x8, addend: 0x0, symName: '__ZZN3tns13WorkerWrapper16BackgroundLooperENSt3__18functionIFPN2v87IsolateEvEEEEN3$_08__invokeEPv', symObjAddr: 0x15F8, symBinAddr: 0x4A2F4, symSize: 0x4 }
  - { offsetInCU: 0x18999, offset: 0x386705, size: 0x8, addend: 0x0, symName: '__ZZN3tns13WorkerWrapper16BackgroundLooperENSt3__18functionIFPN2v87IsolateEvEEEEN3$_08__invokeEPv', symObjAddr: 0x15F8, symBinAddr: 0x4A2F4, symSize: 0x4 }
  - { offsetInCU: 0x19291, offset: 0x386FFD, size: 0x8, addend: 0x0, symName: '__ZNSt3__110__function6__funcIZN3tns13WorkerWrapper37PassUncaughtExceptionFromWorkerToMainEN2v85LocalINS4_7ContextEEERNS4_8TryCatchEbE3$_1NS_9allocatorISA_EEFvvEED1Ev', symObjAddr: 0x1BC4, symBinAddr: 0x4A3C0, symSize: 0x5C }
  - { offsetInCU: 0x19761, offset: 0x3874CD, size: 0x8, addend: 0x0, symName: '__ZNSt3__110__function6__funcIZN3tns13WorkerWrapper37PassUncaughtExceptionFromWorkerToMainEN2v85LocalINS4_7ContextEEERNS4_8TryCatchEbE3$_1NS_9allocatorISA_EEFvvEED0Ev', symObjAddr: 0x1C20, symBinAddr: 0x4A41C, symSize: 0x5C }
  - { offsetInCU: 0x19EAF, offset: 0x387C1B, size: 0x8, addend: 0x0, symName: '__ZNKSt3__110__function6__funcIZN3tns13WorkerWrapper37PassUncaughtExceptionFromWorkerToMainEN2v85LocalINS4_7ContextEEERNS4_8TryCatchEbE3$_1NS_9allocatorISA_EEFvvEE7__cloneEv', symObjAddr: 0x1C7C, symBinAddr: 0x4A478, symSize: 0x54 }
  - { offsetInCU: 0x1A152, offset: 0x387EBE, size: 0x8, addend: 0x0, symName: '__ZNSt3__122__compressed_pair_elemIZN3tns13WorkerWrapper37PassUncaughtExceptionFromWorkerToMainEN2v85LocalINS3_7ContextEEERNS3_8TryCatchEbE3$_1Li0ELb0EEC2B7v160006IJRKS9_EJLm0EEEENS_21piecewise_construct_tENS_5tupleIJDpT_EEENS_15__tuple_indicesIJXspT0_EEEE', symObjAddr: 0x2144, symBinAddr: 0x4A940, symSize: 0xA8 }
  - { offsetInCU: 0x1A593, offset: 0x3882FF, size: 0x8, addend: 0x0, symName: '__ZNKSt3__110__function6__funcIZN3tns13WorkerWrapper37PassUncaughtExceptionFromWorkerToMainEN2v85LocalINS4_7ContextEEERNS4_8TryCatchEbE3$_1NS_9allocatorISA_EEFvvEE7__cloneEPNS0_6__baseISD_EE', symObjAddr: 0x1CD0, symBinAddr: 0x4A4CC, symSize: 0x1C }
  - { offsetInCU: 0x1A6E3, offset: 0x38844F, size: 0x8, addend: 0x0, symName: '__ZNSt3__110__function6__funcIZN3tns13WorkerWrapper37PassUncaughtExceptionFromWorkerToMainEN2v85LocalINS4_7ContextEEERNS4_8TryCatchEbE3$_1NS_9allocatorISA_EEFvvEE7destroyEv', symObjAddr: 0x1CEC, symBinAddr: 0x4A4E8, symSize: 0x8 }
  - { offsetInCU: 0x1A71A, offset: 0x388486, size: 0x8, addend: 0x0, symName: '__ZNSt3__110__function12__alloc_funcIZN3tns13WorkerWrapper37PassUncaughtExceptionFromWorkerToMainEN2v85LocalINS4_7ContextEEERNS4_8TryCatchEbE3$_1NS_9allocatorISA_EEFvvEE7destroyB7v160006Ev', symObjAddr: 0x21EC, symBinAddr: 0x4A9E8, symSize: 0x54 }
  - { offsetInCU: 0x1AB1B, offset: 0x388887, size: 0x8, addend: 0x0, symName: '__ZNSt3__110__function6__funcIZN3tns13WorkerWrapper37PassUncaughtExceptionFromWorkerToMainEN2v85LocalINS4_7ContextEEERNS4_8TryCatchEbE3$_1NS_9allocatorISA_EEFvvEE18destroy_deallocateEv', symObjAddr: 0x1CF4, symBinAddr: 0x4A4F0, symSize: 0x28 }
  - { offsetInCU: 0x1AE28, offset: 0x388B94, size: 0x8, addend: 0x0, symName: '__ZNSt3__110__function6__funcIZN3tns13WorkerWrapper37PassUncaughtExceptionFromWorkerToMainEN2v85LocalINS4_7ContextEEERNS4_8TryCatchEbE3$_1NS_9allocatorISA_EEFvvEEclEv', symObjAddr: 0x1D1C, symBinAddr: 0x4A518, symSize: 0x428 }
  - { offsetInCU: 0x1182A, offset: 0x39B771, size: 0x8, addend: 0x0, symName: '-[NSDataAdapter initWithJSObject:isolate:]', symObjAddr: 0x0, symBinAddr: 0x4AA3C, symSize: 0x278 }
  - { offsetInCU: 0x121A8, offset: 0x39C0EF, size: 0x8, addend: 0x0, symName: __ZN10robin_hood6detail5TableILb1ELm80EP11objc_objectNSt3__110shared_ptrIN2v810PersistentINS6_5ValueENS6_27NonCopyablePersistentTraitsIS8_EEEEEENS_4hashIS3_vEENS4_8equal_toIS3_EEE7emplaceIJRP13NSDataAdapterRSC_EEENS4_4pairINSH_4IterILb0EEEbEEDpOT_, symObjAddr: 0x2D4, symBinAddr: 0x4ACB4, symSize: 0x138 }
  - { offsetInCU: 0x12C84, offset: 0x39CBCB, size: 0x8, addend: 0x0, symName: '-[NSDataAdapter bytes]', symObjAddr: 0x40C, symBinAddr: 0x4ADEC, symSize: 0x4 }
  - { offsetInCU: 0x12D83, offset: 0x39CCCA, size: 0x8, addend: 0x0, symName: '-[NSDataAdapter mutableBytes]', symObjAddr: 0x410, symBinAddr: 0x4ADF0, symSize: 0x13C }
  - { offsetInCU: 0x12F3D, offset: 0x39CE84, size: 0x8, addend: 0x0, symName: __ZNSt3__110shared_ptrIN2v812BackingStoreEED2B7v160006Ev, symObjAddr: 0x147C, symBinAddr: 0x4B25C, symSize: 0x50 }
  - { offsetInCU: 0x12FCA, offset: 0x39CF11, size: 0x8, addend: 0x0, symName: '-[NSDataAdapter length]', symObjAddr: 0x54C, symBinAddr: 0x4AF2C, symSize: 0x90 }
  - { offsetInCU: 0x13218, offset: 0x39D15F, size: 0x8, addend: 0x0, symName: '-[NSDataAdapter dealloc]', symObjAddr: 0x5DC, symBinAddr: 0x4AFBC, symSize: 0x27C }
  - { offsetInCU: 0x13A9C, offset: 0x39D9E3, size: 0x8, addend: 0x0, symName: '-[NSDataAdapter .cxx_destruct]', symObjAddr: 0x91C, symBinAddr: 0x4B238, symSize: 0x10 }
  - { offsetInCU: 0x13B28, offset: 0x39DA6F, size: 0x8, addend: 0x0, symName: '-[NSDataAdapter .cxx_construct]', symObjAddr: 0x92C, symBinAddr: 0x4B248, symSize: 0x14 }
  - { offsetInCU: 0x27, offset: 0x39E8B4, size: 0x8, addend: 0x0, symName: __ZN3tns11DisposerPHV21VisitPersistentHandleEPN2v810PersistentINS1_5ValueENS1_27NonCopyablePersistentTraitsIS3_EEEEt, symObjAddr: 0x0, symBinAddr: 0x4B2AC, symSize: 0x118 }
  - { offsetInCU: 0x4B5F, offset: 0x3A33EC, size: 0x8, addend: 0x0, symName: __ZN3tns11DisposerPHV21VisitPersistentHandleEPN2v810PersistentINS1_5ValueENS1_27NonCopyablePersistentTraitsIS3_EEEEt, symObjAddr: 0x0, symBinAddr: 0x4B2AC, symSize: 0x118 }
  - { offsetInCU: 0x4E8A, offset: 0x3A3717, size: 0x8, addend: 0x0, symName: __ZN3tns11DisposerPHVD1Ev, symObjAddr: 0x118, symBinAddr: 0x4B3C4, symSize: 0x4 }
  - { offsetInCU: 0x4EB2, offset: 0x3A373F, size: 0x8, addend: 0x0, symName: __ZN3tns11DisposerPHVD0Ev, symObjAddr: 0x11C, symBinAddr: 0x4B3C8, symSize: 0x4 }
  - { offsetInCU: 0x89A4, offset: 0x3AC157, size: 0x8, addend: 0x0, symName: __ZN3tns9inspector21NSInMemoryTraceWriter16AppendTraceEventEPN2v88platform7tracing11TraceObjectE, symObjAddr: 0x0, symBinAddr: 0x4B3CC, symSize: 0x68 }
  - { offsetInCU: 0x8A80, offset: 0x3AC233, size: 0x8, addend: 0x0, symName: __ZN3tns9inspector21NSInMemoryTraceWriter5FlushEv, symObjAddr: 0x68, symBinAddr: 0x4B434, symSize: 0x18 }
  - { offsetInCU: 0x8AAC, offset: 0x3AC25F, size: 0x8, addend: 0x0, symName: __ZN3tns9inspector21NSInMemoryTraceWriter5FlushEv, symObjAddr: 0x68, symBinAddr: 0x4B434, symSize: 0x18 }
  - { offsetInCU: 0x8C30, offset: 0x3AC3E3, size: 0x8, addend: 0x0, symName: __ZN3tns9inspector21NSInMemoryTraceWriter8getTraceEv, symObjAddr: 0x80, symBinAddr: 0x4B44C, symSize: 0xFC }
  - { offsetInCU: 0x9416, offset: 0x3ACBC9, size: 0x8, addend: 0x0, symName: __ZNSt3__115basic_stringbufIcNS_11char_traitsIcEENS_9allocatorIcEEE3strERKNS_12basic_stringIcS2_S4_EE, symObjAddr: 0x11B8, symBinAddr: 0x4BB3C, symSize: 0x130 }
  - { offsetInCU: 0x980F, offset: 0x3ACFC2, size: 0x8, addend: 0x0, symName: __ZN3tns9inspector16TracingAgentImplC2Ev, symObjAddr: 0x17C, symBinAddr: 0x4B548, symSize: 0xC4 }
  - { offsetInCU: 0x9B8D, offset: 0x3AD340, size: 0x8, addend: 0x0, symName: __ZN3tns9inspector16TracingAgentImplC1Ev, symObjAddr: 0x240, symBinAddr: 0x4B60C, symSize: 0x4 }
  - { offsetInCU: 0x9BB9, offset: 0x3AD36C, size: 0x8, addend: 0x0, symName: __ZN3tns9inspector16TracingAgentImplC1Ev, symObjAddr: 0x240, symBinAddr: 0x4B60C, symSize: 0x4 }
  - { offsetInCU: 0x9D01, offset: 0x3AD4B4, size: 0x8, addend: 0x0, symName: __ZN3tns9inspector16TracingAgentImpl5startEv, symObjAddr: 0x244, symBinAddr: 0x4B610, symSize: 0xB8 }
  - { offsetInCU: 0x9F1F, offset: 0x3AD6D2, size: 0x8, addend: 0x0, symName: __ZN3tns9inspector16TracingAgentImpl3endEv, symObjAddr: 0x2FC, symBinAddr: 0x4B6C8, symSize: 0x80 }
  - { offsetInCU: 0xA2A0, offset: 0x3ADA53, size: 0x8, addend: 0x0, symName: __ZN3tns9inspector16TracingAgentImpl14SendToDevtoolsEN2v85LocalINS2_7ContextEEENSt3__112basic_stringIcNS6_11char_traitsIcEENS6_9allocatorIcEEEE, symObjAddr: 0x37C, symBinAddr: 0x4B748, symSize: 0x27C }
  - { offsetInCU: 0xAE74, offset: 0x3AE627, size: 0x8, addend: 0x0, symName: __ZN3tns9inspector21NSInMemoryTraceWriterD1Ev, symObjAddr: 0x5F8, symBinAddr: 0x4B9C4, symSize: 0xBC }
  - { offsetInCU: 0xB10E, offset: 0x3AE8C1, size: 0x8, addend: 0x0, symName: __ZN3tns9inspector21NSInMemoryTraceWriterD0Ev, symObjAddr: 0x6B4, symBinAddr: 0x4BA80, symSize: 0xBC }
  - { offsetInCU: 0xB9FE, offset: 0x3AF1B1, size: 0x8, addend: 0x0, symName: __ZNSt3__115basic_stringbufIcNS_11char_traitsIcEENS_9allocatorIcEEE3strERKNS_12basic_stringIcS2_S4_EE, symObjAddr: 0x11B8, symBinAddr: 0x4BB3C, symSize: 0x130 }
  - { offsetInCU: 0x43, offset: 0x3AF2D7, size: 0x8, addend: 0x0, symName: __ZN12_GLOBAL__N_16BufferE, symObjAddr: 0x2B2758, symBinAddr: 0x15787B8, symSize: 0x0 }
  - { offsetInCU: 0x5D, offset: 0x3AF2F1, size: 0x8, addend: 0x0, symName: __ZN12_GLOBAL__N_19BinBufferE, symObjAddr: 0x2B2760, symBinAddr: 0x15787C0, symSize: 0x0 }
  - { offsetInCU: 0x10E54, offset: 0x3C00E8, size: 0x8, addend: 0x0, symName: __ZNSt3__116__throw_bad_castB7v160006Ev, symObjAddr: 0x4B08, symBinAddr: 0x5049C, symSize: 0x28 }
  - { offsetInCU: 0x1123C, offset: 0x3C04D0, size: 0x8, addend: 0x0, symName: __ZNSt3__119__throw_range_errorB7v160006EPKc, symObjAddr: 0x5944, symBinAddr: 0x509A8, symSize: 0x50 }
  - { offsetInCU: 0x113A8, offset: 0x3C063C, size: 0x8, addend: 0x0, symName: __ZNSt3__119__allocate_at_leastB7v160006INS_9allocatorIDsEEEENS_19__allocation_resultINS_16allocator_traitsIT_E7pointerEEERS5_m, symObjAddr: 0x5A38, symBinAddr: 0x50A9C, symSize: 0x30 }
  - { offsetInCU: 0x1144D, offset: 0x3C06E1, size: 0x8, addend: 0x0, symName: __ZNSt3__112basic_stringIDsNS_11char_traitsIDsEENS_9allocatorIDsEEE6resizeEmDs, symObjAddr: 0x5A68, symBinAddr: 0x50ACC, symSize: 0x40 }
  - { offsetInCU: 0x11BDB, offset: 0x3C0E6F, size: 0x8, addend: 0x0, symName: __ZNSt3__119__allocate_at_leastB7v160006INS_9allocatorItEEEENS_19__allocation_resultINS_16allocator_traitsIT_E7pointerEEERS5_m, symObjAddr: 0x6084, symBinAddr: 0x510E8, symSize: 0x30 }
  - { offsetInCU: 0x11C80, offset: 0x3C0F14, size: 0x8, addend: 0x0, symName: __ZNSt3__113basic_filebufIcNS_11char_traitsIcEEEC2Ev, symObjAddr: 0x60B4, symBinAddr: 0x51118, symSize: 0x12C }
  - { offsetInCU: 0x12D51, offset: 0x3C1FE5, size: 0x8, addend: 0x0, symName: __ZN3tns13ToUtf16StringEPN2v87IsolateERKNS0_5LocalINS0_5ValueEEE, symObjAddr: 0x0, symBinAddr: 0x4BC6C, symSize: 0x130 }
  - { offsetInCU: 0x133E0, offset: 0x3C2674, size: 0x8, addend: 0x0, symName: __ZN3tns8ToVectorERKNSt3__112basic_stringIcNS0_11char_traitsIcEENS0_9allocatorIcEEEE, symObjAddr: 0x1EC, symBinAddr: 0x4BD9C, symSize: 0x150 }
  - { offsetInCU: 0x139B2, offset: 0x3C2C46, size: 0x8, addend: 0x0, symName: __ZN3tns6ExistsEPKc, symObjAddr: 0x33C, symBinAddr: 0x4BEEC, symSize: 0x30 }
  - { offsetInCU: 0x13A14, offset: 0x3C2CA8, size: 0x8, addend: 0x0, symName: __ZN3tns10ReadModuleEPN2v87IsolateERKNSt3__112basic_stringIcNS3_11char_traitsIcEENS3_9allocatorIcEEEE, symObjAddr: 0x36C, symBinAddr: 0x4BF1C, symSize: 0x124 }
  - { offsetInCU: 0x13E2D, offset: 0x3C30C1, size: 0x8, addend: 0x0, symName: __ZN3tns6AssertEbPN2v87IsolateERKNSt3__112basic_stringIcNS3_11char_traitsIcEENS3_9allocatorIcEEEE, symObjAddr: 0x490, symBinAddr: 0x4C040, symSize: 0x168 }
  - { offsetInCU: 0x144BD, offset: 0x3C3751, size: 0x8, addend: 0x0, symName: __ZN3tns12LogBacktraceEi, symObjAddr: 0x1FEC, symBinAddr: 0x4DB08, symSize: 0x1C8 }
  - { offsetInCU: 0x145F4, offset: 0x3C3888, size: 0x8, addend: 0x0, symName: __ZN3tns13GetStackTraceEPN2v87IsolateE, symObjAddr: 0x27DC, symBinAddr: 0x4E2F8, symSize: 0x1FC }
  - { offsetInCU: 0x14BCE, offset: 0x3C3E62, size: 0x8, addend: 0x0, symName: __ZN3tns8ReadTextERKNSt3__112basic_stringIcNS0_11char_traitsIcEENS0_9allocatorIcEEEERlRb, symObjAddr: 0x5F8, symBinAddr: 0x4C1A8, symSize: 0x120 }
  - { offsetInCU: 0x14FCA, offset: 0x3C425E, size: 0x8, addend: 0x0, symName: __ZN3tns8ReadTextERKNSt3__112basic_stringIcNS0_11char_traitsIcEENS0_9allocatorIcEEEE, symObjAddr: 0x718, symBinAddr: 0x4C2C8, symSize: 0x64 }
  - { offsetInCU: 0x1507F, offset: 0x3C4313, size: 0x8, addend: 0x0, symName: __ZN3tns10ReadBinaryENSt3__112basic_stringIcNS0_11char_traitsIcEENS0_9allocatorIcEEEERlRb, symObjAddr: 0x77C, symBinAddr: 0x4C32C, symSize: 0x1B0 }
  - { offsetInCU: 0x15272, offset: 0x3C4506, size: 0x8, addend: 0x0, symName: __ZN3tns11WriteBinaryERKNSt3__112basic_stringIcNS0_11char_traitsIcEENS0_9allocatorIcEEEEPKvl, symObjAddr: 0xA94, symBinAddr: 0x4C644, symSize: 0x74 }
  - { offsetInCU: 0x15365, offset: 0x3C45F9, size: 0x8, addend: 0x0, symName: __ZN3tns15SetPrivateValueERKN2v85LocalINS0_6ObjectEEERKNS1_INS0_6StringEEERKNS1_INS0_5ValueEEE, symObjAddr: 0xB08, symBinAddr: 0x4C6B8, symSize: 0xF8 }
  - { offsetInCU: 0x15796, offset: 0x3C4A2A, size: 0x8, addend: 0x0, symName: __ZN3tns15GetPrivateValueERKN2v85LocalINS0_6ObjectEEERKNS1_INS0_6StringEEE, symObjAddr: 0xC00, symBinAddr: 0x4C7B0, symSize: 0x184 }
  - { offsetInCU: 0x15F36, offset: 0x3C51CA, size: 0x8, addend: 0x0, symName: __ZN3tns21DeleteWrapperIfUnusedEPN2v87IsolateERKNS0_5LocalINS0_5ValueEEEPNS_15BaseDataWrapperE, symObjAddr: 0xD84, symBinAddr: 0x4C934, symSize: 0x48 }
  - { offsetInCU: 0x15F9F, offset: 0x3C5233, size: 0x8, addend: 0x0, symName: __ZN3tns8GetValueEPN2v87IsolateERKNS0_5LocalINS0_5ValueEEE, symObjAddr: 0xDCC, symBinAddr: 0x4C97C, symSize: 0x1E4 }
  - { offsetInCU: 0x16967, offset: 0x3C5BFB, size: 0x8, addend: 0x0, symName: __ZN3tns8SetValueEPN2v87IsolateERKNS0_5LocalINS0_6ObjectEEEPNS_15BaseDataWrapperE, symObjAddr: 0xFB0, symBinAddr: 0x4CB60, symSize: 0x13C }
  - { offsetInCU: 0x16F19, offset: 0x3C61AD, size: 0x8, addend: 0x0, symName: __ZN3tns11DeleteValueEPN2v87IsolateERKNS0_5LocalINS0_5ValueEEE, symObjAddr: 0x10EC, symBinAddr: 0x4CC9C, symSize: 0x1F8 }
  - { offsetInCU: 0x178C1, offset: 0x3C6B55, size: 0x8, addend: 0x0, symName: __ZN3tns12ArgsToVectorERKN2v820FunctionCallbackInfoINS0_5ValueEEE, symObjAddr: 0x12E4, symBinAddr: 0x4CE94, symSize: 0x150 }
  - { offsetInCU: 0x17F15, offset: 0x3C71A9, size: 0x8, addend: 0x0, symName: __ZN3tns18IsArrayOrArrayLikeEPN2v87IsolateERKNS0_5LocalINS0_5ValueEEE, symObjAddr: 0x14C8, symBinAddr: 0x4CFE4, symSize: 0x138 }
  - { offsetInCU: 0x183DB, offset: 0x3C766F, size: 0x8, addend: 0x0, symName: __ZN3tns27TryGetBufferFromArrayBufferERKN2v85LocalINS0_5ValueEEERb, symObjAddr: 0x1600, symBinAddr: 0x4D11C, symSize: 0xEC }
  - { offsetInCU: 0x185D7, offset: 0x3C786B, size: 0x8, addend: 0x0, symName: __ZN3tns16ExecuteOnRunLoopEP11__CFRunLoopNSt3__18functionIFvvEEEb, symObjAddr: 0x16EC, symBinAddr: 0x4D208, symSize: 0x2FC }
  - { offsetInCU: 0x18A51, offset: 0x3C7CE5, size: 0x8, addend: 0x0, symName: __ZN3tns22ExecuteOnDispatchQueueEPU28objcproto17OS_dispatch_queue8NSObjectNSt3__18functionIFvvEEEb, symObjAddr: 0x1B60, symBinAddr: 0x4D67C, symSize: 0x110 }
  - { offsetInCU: 0x18CB2, offset: 0x3C7F46, size: 0x8, addend: 0x0, symName: __ZN3tns19ExecuteOnMainThreadENSt3__18functionIFvvEEEb, symObjAddr: 0x1CB8, symBinAddr: 0x4D7D4, symSize: 0x120 }
  - { offsetInCU: 0x18F02, offset: 0x3C8196, size: 0x8, addend: 0x0, symName: __ZN3tns8LogErrorEPN2v87IsolateERNS0_8TryCatchE, symObjAddr: 0x1E20, symBinAddr: 0x4D93C, symSize: 0x1CC }
  - { offsetInCU: 0x19C33, offset: 0x3C8EC7, size: 0x8, addend: 0x0, symName: __ZN3tns10ReplaceAllENSt3__112basic_stringIcNS0_11char_traitsIcEENS0_9allocatorIcEEEES6_S6_, symObjAddr: 0x21B4, symBinAddr: 0x4DCD0, symSize: 0x200 }
  - { offsetInCU: 0x1A2C5, offset: 0x3C9559, size: 0x8, addend: 0x0, symName: __ZN3tns19JsonStringifyObjectEN2v85LocalINS0_7ContextEEENS1_INS0_5ValueEEEb, symObjAddr: 0x23B4, symBinAddr: 0x4DED0, symSize: 0x1AC }
  - { offsetInCU: 0x1A52C, offset: 0x3C97C0, size: 0x8, addend: 0x0, symName: __ZN3tns29GetSmartJSONStringifyFunctionEPN2v87IsolateE, symObjAddr: 0x2560, symBinAddr: 0x4E07C, symSize: 0x27C }
  - { offsetInCU: 0x1B109, offset: 0x3CA39D, size: 0x8, addend: 0x0, symName: __ZN3tns27BuildStacktraceFrameMessageEPN2v87IsolateENS0_5LocalINS0_10StackFrameEEE, symObjAddr: 0x2AC0, symBinAddr: 0x4E4F4, symSize: 0x378 }
  - { offsetInCU: 0x1BBA4, offset: 0x3CAE38, size: 0x8, addend: 0x0, symName: __ZN3tns32BuildStacktraceFrameLocationPartEPN2v87IsolateENS0_5LocalINS0_10StackFrameEEE, symObjAddr: 0x2F48, symBinAddr: 0x4E8E8, symSize: 0x298 }
  - { offsetInCU: 0x1CB5A, offset: 0x3CBDEE, size: 0x8, addend: 0x0, symName: __ZN3tns19GetCurrentScriptUrlEPN2v87IsolateE, symObjAddr: 0x2ECC, symBinAddr: 0x4E86C, symSize: 0x7C }
  - { offsetInCU: 0x1CC14, offset: 0x3CBEA8, size: 0x8, addend: 0x0, symName: __ZN3tns8LiveSyncEPN2v87IsolateE, symObjAddr: 0x31E0, symBinAddr: 0x4EB80, symSize: 0x25C }
  - { offsetInCU: 0x1D375, offset: 0x3CC609, size: 0x8, addend: 0x0, symName: __ZN3tns29StopExecutionAndLogStackTraceEPN2v87IsolateE, symObjAddr: 0x343C, symBinAddr: 0x4EDDC, symSize: 0x64 }
  - { offsetInCU: 0x1D66A, offset: 0x3CC8FE, size: 0x8, addend: 0x0, symName: __ZN3tns19NewFunctionTemplateEPN2v87IsolateEPFvRKNS0_20FunctionCallbackInfoINS0_5ValueEEEENS0_5LocalIS4_EENSA_INS0_9SignatureEEENS0_19ConstructorBehaviorENS0_14SideEffectTypeEPKNS0_9CFunctionE, symObjAddr: 0x34A0, symBinAddr: 0x4EE40, symSize: 0x34 }
  - { offsetInCU: 0x1D733, offset: 0x3CC9C7, size: 0x8, addend: 0x0, symName: __ZN3tns9SetMethodEN2v85LocalINS0_7ContextEEENS1_INS0_6ObjectEEEPKcPFvRKNS0_20FunctionCallbackInfoINS0_5ValueEEEENS1_IS9_EE, symObjAddr: 0x34D4, symBinAddr: 0x4EE74, symSize: 0xDC }
  - { offsetInCU: 0x1D884, offset: 0x3CCB18, size: 0x8, addend: 0x0, symName: __ZN3tns9SetMethodEPN2v87IsolateENS0_5LocalINS0_8TemplateEEEPKcPFvRKNS0_20FunctionCallbackInfoINS0_5ValueEEEENS3_IS9_EE, symObjAddr: 0x35B0, symBinAddr: 0x4EF50, symSize: 0x94 }
  - { offsetInCU: 0x1D992, offset: 0x3CCC26, size: 0x8, addend: 0x0, symName: __ZN3tns13SetFastMethodEPN2v87IsolateENS0_5LocalINS0_8TemplateEEEPKcPFvRKNS0_20FunctionCallbackInfoINS0_5ValueEEEEPKNS0_9CFunctionENS3_IS9_EE, symObjAddr: 0x3644, symBinAddr: 0x4EFE4, symSize: 0x94 }
  - { offsetInCU: 0x1DAB4, offset: 0x3CCD48, size: 0x8, addend: 0x0, symName: __ZN3tns13SetFastMethodEN2v85LocalINS0_7ContextEEENS1_INS0_6ObjectEEEPKcPFvRKNS0_20FunctionCallbackInfoINS0_5ValueEEEEPKNS0_9CFunctionENS1_IS9_EE, symObjAddr: 0x36D8, symBinAddr: 0x4F078, symSize: 0xF4 }
  - { offsetInCU: 0x1DC16, offset: 0x3CCEAA, size: 0x8, addend: 0x0, symName: __ZN3tns25SetFastMethodNoSideEffectEN2v85LocalINS0_7ContextEEENS1_INS0_6ObjectEEEPKcPFvRKNS0_20FunctionCallbackInfoINS0_5ValueEEEEPKNS0_9CFunctionENS1_IS9_EE, symObjAddr: 0x37CC, symBinAddr: 0x4F16C, symSize: 0xF4 }
  - { offsetInCU: 0x1DD78, offset: 0x3CD00C, size: 0x8, addend: 0x0, symName: __ZN3tns25SetFastMethodNoSideEffectEPN2v87IsolateENS0_5LocalINS0_8TemplateEEEPKcPFvRKNS0_20FunctionCallbackInfoINS0_5ValueEEEEPKNS0_9CFunctionENS3_IS9_EE, symObjAddr: 0x38C0, symBinAddr: 0x4F260, symSize: 0x94 }
  - { offsetInCU: 0x1DE9A, offset: 0x3CD12E, size: 0x8, addend: 0x0, symName: __ZN3tns21SetMethodNoSideEffectEN2v85LocalINS0_7ContextEEENS1_INS0_6ObjectEEEPKcPFvRKNS0_20FunctionCallbackInfoINS0_5ValueEEEENS1_IS9_EE, symObjAddr: 0x3954, symBinAddr: 0x4F2F4, symSize: 0xDC }
  - { offsetInCU: 0x1DFEB, offset: 0x3CD27F, size: 0x8, addend: 0x0, symName: __ZN3tns21SetMethodNoSideEffectEPN2v87IsolateENS0_5LocalINS0_8TemplateEEEPKcPFvRKNS0_20FunctionCallbackInfoINS0_5ValueEEEENS3_IS9_EE, symObjAddr: 0x3A30, symBinAddr: 0x4F3D0, symSize: 0x94 }
  - { offsetInCU: 0x1E0F9, offset: 0x3CD38D, size: 0x8, addend: 0x0, symName: __ZN3tns14SetProtoMethodEPN2v87IsolateENS0_5LocalINS0_16FunctionTemplateEEEPKcPFvRKNS0_20FunctionCallbackInfoINS0_5ValueEEEENS3_IS9_EE, symObjAddr: 0x3AC4, symBinAddr: 0x4F464, symSize: 0xBC }
  - { offsetInCU: 0x1E215, offset: 0x3CD4A9, size: 0x8, addend: 0x0, symName: __ZN3tns26SetProtoMethodNoSideEffectEPN2v87IsolateENS0_5LocalINS0_16FunctionTemplateEEEPKcPFvRKNS0_20FunctionCallbackInfoINS0_5ValueEEEENS3_IS9_EE, symObjAddr: 0x3B80, symBinAddr: 0x4F520, symSize: 0xBC }
  - { offsetInCU: 0x1E331, offset: 0x3CD5C5, size: 0x8, addend: 0x0, symName: __ZN3tns17SetInstanceMethodEPN2v87IsolateENS0_5LocalINS0_16FunctionTemplateEEEPKcPFvRKNS0_20FunctionCallbackInfoINS0_5ValueEEEENS3_IS9_EE, symObjAddr: 0x3C3C, symBinAddr: 0x4F5DC, symSize: 0xBC }
  - { offsetInCU: 0x1E480, offset: 0x3CD714, size: 0x8, addend: 0x0, symName: __ZN3tns22SetConstructorFunctionEN2v85LocalINS0_7ContextEEENS1_INS0_6ObjectEEEPKcNS1_INS0_16FunctionTemplateEEENS_26SetConstructorFunctionFlagE, symObjAddr: 0x3CF8, symBinAddr: 0x4F698, symSize: 0x74 }
  - { offsetInCU: 0x1E558, offset: 0x3CD7EC, size: 0x8, addend: 0x0, symName: __ZN3tns22SetConstructorFunctionEN2v85LocalINS0_7ContextEEENS1_INS0_6ObjectEEENS1_INS0_6StringEEENS1_INS0_16FunctionTemplateEEENS_26SetConstructorFunctionFlagE, symObjAddr: 0x3D6C, symBinAddr: 0x4F70C, symSize: 0x8C }
  - { offsetInCU: 0x1E651, offset: 0x3CD8E5, size: 0x8, addend: 0x0, symName: __ZN3tns22SetConstructorFunctionEPN2v87IsolateENS0_5LocalINS0_8TemplateEEEPKcNS3_INS0_16FunctionTemplateEEENS_26SetConstructorFunctionFlagE, symObjAddr: 0x3DF8, symBinAddr: 0x4F798, symSize: 0x70 }
  - { offsetInCU: 0x1E749, offset: 0x3CD9DD, size: 0x8, addend: 0x0, symName: __ZN3tns22SetConstructorFunctionEPN2v87IsolateENS0_5LocalINS0_8TemplateEEENS3_INS0_6StringEEENS3_INS0_16FunctionTemplateEEENS_26SetConstructorFunctionFlagE, symObjAddr: 0x3E68, symBinAddr: 0x4F808, symSize: 0x50 }
  - { offsetInCU: 0x25EEF, offset: 0x3D5183, size: 0x8, addend: 0x0, symName: __ZNSt3__115wstring_convertINS_18codecvt_utf8_utf16IDsLm1114111ELNS_12codecvt_modeE0EEEDsNS_9allocatorIDsEENS4_IcEEE10from_bytesEPKcS9_, symObjAddr: 0x5534, symBinAddr: 0x50598, symSize: 0x298 }
  - { offsetInCU: 0x26677, offset: 0x3D590B, size: 0x8, addend: 0x0, symName: __ZNSt3__115wstring_convertINS_18codecvt_utf8_utf16IDsLm1114111ELNS_12codecvt_modeE0EEEDsNS_9allocatorIDsEENS4_IcEEED2Ev, symObjAddr: 0x54E0, symBinAddr: 0x50544, symSize: 0x54 }
  - { offsetInCU: 0x26D78, offset: 0x3D600C, size: 0x8, addend: 0x0, symName: __ZNSt3__16vectorItNS_9allocatorItEEEC2IPKtLi0EEET_S7_, symObjAddr: 0x5FA8, symBinAddr: 0x5100C, symSize: 0x8C }
  - { offsetInCU: 0x27445, offset: 0x3D66D9, size: 0x8, addend: 0x0, symName: __ZN3tns6AssertEbPN2v87IsolateERKNSt3__112basic_stringIcNS3_11char_traitsIcEENS3_9allocatorIcEEEE.cold.1, symObjAddr: 0x6954, symBinAddr: 0xB8FE8C, symSize: 0x28 }
  - { offsetInCU: 0x27527, offset: 0x3D67BB, size: 0x8, addend: 0x0, symName: __ZNSt3__114basic_ifstreamIcNS_11char_traitsIcEEEC1ERKNS_12basic_stringIcS2_NS_9allocatorIcEEEEj, symObjAddr: 0x92C, symBinAddr: 0x4C4DC, symSize: 0x108 }
  - { offsetInCU: 0x27710, offset: 0x3D69A4, size: 0x8, addend: 0x0, symName: __ZNSt3__113basic_filebufIcNS_11char_traitsIcEEED2Ev, symObjAddr: 0x3FE4, symBinAddr: 0x4F984, symSize: 0x6C }
  - { offsetInCU: 0x2774B, offset: 0x3D69DF, size: 0x8, addend: 0x0, symName: __ZNSt3__114basic_ifstreamIcNS_11char_traitsIcEEED1Ev, symObjAddr: 0xA34, symBinAddr: 0x4C5E4, symSize: 0x60 }
  - { offsetInCU: 0x278AB, offset: 0x3D6B3F, size: 0x8, addend: 0x0, symName: __ZNSt3__113basic_filebufIcNS_11char_traitsIcEEEC2Ev, symObjAddr: 0x60B4, symBinAddr: 0x51118, symSize: 0x12C }
  - { offsetInCU: 0x2797B, offset: 0x3D6C0F, size: 0x8, addend: 0x0, symName: __ZNSt3__113basic_filebufIcNS_11char_traitsIcEEE4openEPKcj, symObjAddr: 0x61E0, symBinAddr: 0x51244, symSize: 0x158 }
  - { offsetInCU: 0x286A0, offset: 0x3D7934, size: 0x8, addend: 0x0, symName: __ZN3tns18IsArrayOrArrayLikeEPN2v87IsolateERKNS0_5LocalINS0_5ValueEEE, symObjAddr: 0x14C8, symBinAddr: 0x4CFE4, symSize: 0x138 }
  - { offsetInCU: 0x28B45, offset: 0x3D7DD9, size: 0x8, addend: 0x0, symName: __ZNSt3__110__function12__value_funcIFvvEEC2B7v160006ERKS3_, symObjAddr: 0x64B8, symBinAddr: 0x5139C, symSize: 0x64 }
  - { offsetInCU: 0x28C39, offset: 0x3D7ECD, size: 0x8, addend: 0x0, symName: ____ZN3tns16ExecuteOnRunLoopEP11__CFRunLoopNSt3__18functionIFvvEEEb_block_invoke, symObjAddr: 0x19E8, symBinAddr: 0x4D504, symSize: 0x60 }
  - { offsetInCU: 0x28D60, offset: 0x3D7FF4, size: 0x8, addend: 0x0, symName: ___copy_helper_block_e8_32r40c27_ZTSNSt3__18functionIFvvEEE, symObjAddr: 0x1A48, symBinAddr: 0x4D564, symSize: 0x60 }
  - { offsetInCU: 0x28D6B, offset: 0x3D7FFF, size: 0x8, addend: 0x0, symName: ___copy_helper_block_e8_32r40c27_ZTSNSt3__18functionIFvvEEE, symObjAddr: 0x1A48, symBinAddr: 0x4D564, symSize: 0x60 }
  - { offsetInCU: 0x28E0F, offset: 0x3D80A3, size: 0x8, addend: 0x0, symName: ___destroy_helper_block_e8_32r40c27_ZTSNSt3__18functionIFvvEEE, symObjAddr: 0x1AA8, symBinAddr: 0x4D5C4, symSize: 0x54 }
  - { offsetInCU: 0x28EBC, offset: 0x3D8150, size: 0x8, addend: 0x0, symName: ____ZN3tns16ExecuteOnRunLoopEP11__CFRunLoopNSt3__18functionIFvvEEEb_block_invoke.7, symObjAddr: 0x1AFC, symBinAddr: 0x4D618, symSize: 0x24 }
  - { offsetInCU: 0x28F4B, offset: 0x3D81DF, size: 0x8, addend: 0x0, symName: ___copy_helper_block_e8_32c27_ZTSNSt3__18functionIFvvEEE, symObjAddr: 0x1B20, symBinAddr: 0x4D63C, symSize: 0xC }
  - { offsetInCU: 0x28F56, offset: 0x3D81EA, size: 0x8, addend: 0x0, symName: ___copy_helper_block_e8_32c27_ZTSNSt3__18functionIFvvEEE, symObjAddr: 0x1B20, symBinAddr: 0x4D63C, symSize: 0xC }
  - { offsetInCU: 0x28FFA, offset: 0x3D828E, size: 0x8, addend: 0x0, symName: ___destroy_helper_block_e8_32c27_ZTSNSt3__18functionIFvvEEE, symObjAddr: 0x1B2C, symBinAddr: 0x4D648, symSize: 0x34 }
  - { offsetInCU: 0x290CC, offset: 0x3D8360, size: 0x8, addend: 0x0, symName: ____ZN3tns22ExecuteOnDispatchQueueEPU28objcproto17OS_dispatch_queue8NSObjectNSt3__18functionIFvvEEEb_block_invoke, symObjAddr: 0x1C70, symBinAddr: 0x4D78C, symSize: 0x24 }
  - { offsetInCU: 0x2915B, offset: 0x3D83EF, size: 0x8, addend: 0x0, symName: ____ZN3tns22ExecuteOnDispatchQueueEPU28objcproto17OS_dispatch_queue8NSObjectNSt3__18functionIFvvEEEb_block_invoke_2, symObjAddr: 0x1C94, symBinAddr: 0x4D7B0, symSize: 0x24 }
  - { offsetInCU: 0x29166, offset: 0x3D83FA, size: 0x8, addend: 0x0, symName: ____ZN3tns22ExecuteOnDispatchQueueEPU28objcproto17OS_dispatch_queue8NSObjectNSt3__18functionIFvvEEEb_block_invoke_2, symObjAddr: 0x1C94, symBinAddr: 0x4D7B0, symSize: 0x24 }
  - { offsetInCU: 0x291F5, offset: 0x3D8489, size: 0x8, addend: 0x0, symName: __ZN3tns19ExecuteOnMainThreadENSt3__18functionIFvvEEEb, symObjAddr: 0x1CB8, symBinAddr: 0x4D7D4, symSize: 0x120 }
  - { offsetInCU: 0x29200, offset: 0x3D8494, size: 0x8, addend: 0x0, symName: ____ZN3tns19ExecuteOnMainThreadENSt3__18functionIFvvEEEb_block_invoke, symObjAddr: 0x1DD8, symBinAddr: 0x4D8F4, symSize: 0x24 }
  - { offsetInCU: 0x2928F, offset: 0x3D8523, size: 0x8, addend: 0x0, symName: ____ZN3tns19ExecuteOnMainThreadENSt3__18functionIFvvEEEb_block_invoke_2, symObjAddr: 0x1DFC, symBinAddr: 0x4D918, symSize: 0x24 }
  - { offsetInCU: 0x2929A, offset: 0x3D852E, size: 0x8, addend: 0x0, symName: ____ZN3tns19ExecuteOnMainThreadENSt3__18functionIFvvEEEb_block_invoke_2, symObjAddr: 0x1DFC, symBinAddr: 0x4D918, symSize: 0x24 }
  - { offsetInCU: 0x29329, offset: 0x3D85BD, size: 0x8, addend: 0x0, symName: __ZN3tns8LogErrorEPN2v87IsolateERNS0_8TryCatchE, symObjAddr: 0x1E20, symBinAddr: 0x4D93C, symSize: 0x1CC }
  - { offsetInCU: 0x29EF4, offset: 0x3D9188, size: 0x8, addend: 0x0, symName: __ZTv0_n24_NSt3__114basic_ifstreamIcNS_11char_traitsIcEEED1Ev, symObjAddr: 0x3EB8, symBinAddr: 0x4F858, symSize: 0x60 }
  - { offsetInCU: 0x29F7A, offset: 0x3D920E, size: 0x8, addend: 0x0, symName: __ZNSt3__114basic_ifstreamIcNS_11char_traitsIcEEED0Ev, symObjAddr: 0x3F18, symBinAddr: 0x4F8B8, symSize: 0x60 }
  - { offsetInCU: 0x2A023, offset: 0x3D92B7, size: 0x8, addend: 0x0, symName: __ZTv0_n24_NSt3__114basic_ifstreamIcNS_11char_traitsIcEEED0Ev, symObjAddr: 0x3F78, symBinAddr: 0x4F918, symSize: 0x68 }
  - { offsetInCU: 0x2A0C5, offset: 0x3D9359, size: 0x8, addend: 0x0, symName: __ZNSt3__113basic_filebufIcNS_11char_traitsIcEEED1Ev, symObjAddr: 0x3FE0, symBinAddr: 0x4F980, symSize: 0x4 }
  - { offsetInCU: 0x2A0E7, offset: 0x3D937B, size: 0x8, addend: 0x0, symName: __ZNSt3__113basic_filebufIcNS_11char_traitsIcEEED1Ev, symObjAddr: 0x3FE0, symBinAddr: 0x4F980, symSize: 0x4 }
  - { offsetInCU: 0x2A0F2, offset: 0x3D9386, size: 0x8, addend: 0x0, symName: __ZNSt3__113basic_filebufIcNS_11char_traitsIcEEE5closeEv, symObjAddr: 0x4050, symBinAddr: 0x4F9F0, symSize: 0x84 }
  - { offsetInCU: 0x2A2D1, offset: 0x3D9565, size: 0x8, addend: 0x0, symName: __ZNSt3__113basic_filebufIcNS_11char_traitsIcEEED0Ev, symObjAddr: 0x40E0, symBinAddr: 0x4FA74, symSize: 0x14 }
  - { offsetInCU: 0x2A377, offset: 0x3D960B, size: 0x8, addend: 0x0, symName: __ZNSt3__113basic_filebufIcNS_11char_traitsIcEEE5imbueERKNS_6localeE, symObjAddr: 0x40F4, symBinAddr: 0x4FA88, symSize: 0xEC }
  - { offsetInCU: 0x2A445, offset: 0x3D96D9, size: 0x8, addend: 0x0, symName: __ZNSt3__113basic_filebufIcNS_11char_traitsIcEEE6setbufEPcl, symObjAddr: 0x41E0, symBinAddr: 0x4FB74, symSize: 0xF8 }
  - { offsetInCU: 0x2A523, offset: 0x3D97B7, size: 0x8, addend: 0x0, symName: __ZNSt3__113basic_filebufIcNS_11char_traitsIcEEE7seekoffExNS_8ios_base7seekdirEj, symObjAddr: 0x42D8, symBinAddr: 0x4FC6C, symSize: 0x100 }
  - { offsetInCU: 0x2A64B, offset: 0x3D98DF, size: 0x8, addend: 0x0, symName: __ZNSt3__113basic_filebufIcNS_11char_traitsIcEEE7seekposENS_4fposI11__mbstate_tEEj, symObjAddr: 0x43D8, symBinAddr: 0x4FD6C, symSize: 0xB0 }
  - { offsetInCU: 0x2A69E, offset: 0x3D9932, size: 0x8, addend: 0x0, symName: __ZNSt3__113basic_filebufIcNS_11char_traitsIcEEE7seekposENS_4fposI11__mbstate_tEEj, symObjAddr: 0x43D8, symBinAddr: 0x4FD6C, symSize: 0xB0 }
  - { offsetInCU: 0x2A808, offset: 0x3D9A9C, size: 0x8, addend: 0x0, symName: __ZNSt3__113basic_filebufIcNS_11char_traitsIcEEE4syncEv, symObjAddr: 0x4488, symBinAddr: 0x4FE1C, symSize: 0x240 }
  - { offsetInCU: 0x2AAAE, offset: 0x3D9D42, size: 0x8, addend: 0x0, symName: __ZNSt3__113basic_filebufIcNS_11char_traitsIcEEE9underflowEv, symObjAddr: 0x46C8, symBinAddr: 0x5005C, symSize: 0x264 }
  - { offsetInCU: 0x2AB80, offset: 0x3D9E14, size: 0x8, addend: 0x0, symName: __ZNSt3__113basic_filebufIcNS_11char_traitsIcEEE9underflowEv, symObjAddr: 0x46C8, symBinAddr: 0x5005C, symSize: 0x264 }
  - { offsetInCU: 0x2AE9B, offset: 0x3DA12F, size: 0x8, addend: 0x0, symName: __ZNSt3__113basic_filebufIcNS_11char_traitsIcEEE9pbackfailEi, symObjAddr: 0x492C, symBinAddr: 0x502C0, symSize: 0x5C }
  - { offsetInCU: 0x2AEC6, offset: 0x3DA15A, size: 0x8, addend: 0x0, symName: __ZNSt3__113basic_filebufIcNS_11char_traitsIcEEE9pbackfailEi, symObjAddr: 0x492C, symBinAddr: 0x502C0, symSize: 0x5C }
  - { offsetInCU: 0x2B037, offset: 0x3DA2CB, size: 0x8, addend: 0x0, symName: __ZNSt3__113basic_filebufIcNS_11char_traitsIcEEE8overflowEi, symObjAddr: 0x4988, symBinAddr: 0x5031C, symSize: 0x180 }
  - { offsetInCU: 0x2B324, offset: 0x3DA5B8, size: 0x8, addend: 0x0, symName: __ZNSt3__113basic_filebufIcNS_11char_traitsIcEEE12__write_modeEv, symObjAddr: 0x4B30, symBinAddr: 0x504C4, symSize: 0x68 }
  - { offsetInCU: 0x2B8AC, offset: 0x3DAB40, size: 0x8, addend: 0x0, symName: __ZNSt3__118codecvt_utf8_utf16IDsLm1114111ELNS_12codecvt_modeE0EED1B7v160006Ev, symObjAddr: 0x54C8, symBinAddr: 0x5052C, symSize: 0x4 }
  - { offsetInCU: 0x2B8CE, offset: 0x3DAB62, size: 0x8, addend: 0x0, symName: __ZNSt3__118codecvt_utf8_utf16IDsLm1114111ELNS_12codecvt_modeE0EED1B7v160006Ev, symObjAddr: 0x54C8, symBinAddr: 0x5052C, symSize: 0x4 }
  - { offsetInCU: 0x2B8EB, offset: 0x3DAB7F, size: 0x8, addend: 0x0, symName: __ZNSt3__118codecvt_utf8_utf16IDsLm1114111ELNS_12codecvt_modeE0EED1B7v160006Ev, symObjAddr: 0x54C8, symBinAddr: 0x5052C, symSize: 0x4 }
  - { offsetInCU: 0x2B91F, offset: 0x3DABB3, size: 0x8, addend: 0x0, symName: __ZNSt3__118codecvt_utf8_utf16IDsLm1114111ELNS_12codecvt_modeE0EED0B7v160006Ev, symObjAddr: 0x54CC, symBinAddr: 0x50530, symSize: 0x14 }
  - { offsetInCU: 0x2BB45, offset: 0x3DADD9, size: 0x8, addend: 0x0, symName: __ZNSt3__112basic_stringIDsNS_11char_traitsIDsEENS_9allocatorIDsEEEC2B7v160006EmDs, symObjAddr: 0x5994, symBinAddr: 0x509F8, symSize: 0x90 }
  - { offsetInCU: 0x2BD01, offset: 0x3DAF95, size: 0x8, addend: 0x0, symName: __ZNKSt3__112basic_stringIDsNS_11char_traitsIDsEENS_9allocatorIDsEEE20__throw_length_errorB7v160006Ev, symObjAddr: 0x5A24, symBinAddr: 0x50A88, symSize: 0x14 }
  - { offsetInCU: 0x2BD0C, offset: 0x3DAFA0, size: 0x8, addend: 0x0, symName: __ZNSt3__112basic_stringIDsNS_11char_traitsIDsEENS_9allocatorIDsEEE6resizeEmDs, symObjAddr: 0x5A68, symBinAddr: 0x50ACC, symSize: 0x40 }
  - { offsetInCU: 0x2BD81, offset: 0x3DB015, size: 0x8, addend: 0x0, symName: __ZNSt3__112basic_stringIDsNS_11char_traitsIDsEENS_9allocatorIDsEEE6resizeEmDs, symObjAddr: 0x5A68, symBinAddr: 0x50ACC, symSize: 0x40 }
  - { offsetInCU: 0x2BEE9, offset: 0x3DB17D, size: 0x8, addend: 0x0, symName: __ZNSt3__112basic_stringIDsNS_11char_traitsIDsEENS_9allocatorIDsEEE6appendIPKDsEENS_9enable_ifIXsr27__is_cpp17_forward_iteratorIT_EE5valueERS5_E4typeESA_SA_, symObjAddr: 0x57CC, symBinAddr: 0x50830, symSize: 0x178 }
  - { offsetInCU: 0x2C527, offset: 0x3DB7BB, size: 0x8, addend: 0x0, symName: __ZNSt3__112basic_stringIDsNS_11char_traitsIDsEENS_9allocatorIDsEEE25__init_copy_ctor_externalEPKDsm, symObjAddr: 0x5F28, symBinAddr: 0x50F8C, symSize: 0x80 }
  - { offsetInCU: 0x2C788, offset: 0x3DBA1C, size: 0x8, addend: 0x0, symName: __ZNSt3__16vectorItNS_9allocatorItEEEC2IPKtLi0EEET_S7_, symObjAddr: 0x5FA8, symBinAddr: 0x5100C, symSize: 0x8C }
  - { offsetInCU: 0x2C8E8, offset: 0x3DBB7C, size: 0x8, addend: 0x0, symName: __ZNSt3__112basic_stringIDsNS_11char_traitsIDsEENS_9allocatorIDsEEE9__grow_byEmmmmmm, symObjAddr: 0x5B6C, symBinAddr: 0x50BD0, symSize: 0x114 }
  - { offsetInCU: 0x2CE39, offset: 0x3DC0CD, size: 0x8, addend: 0x0, symName: __ZNSt3__112basic_stringIDsNS_11char_traitsIDsEENS_9allocatorIDsEEE6appendEPKDsm, symObjAddr: 0x5C80, symBinAddr: 0x50CE4, symSize: 0xC0 }
  - { offsetInCU: 0x2CE44, offset: 0x3DC0D8, size: 0x8, addend: 0x0, symName: __ZNSt3__112basic_stringIDsNS_11char_traitsIDsEENS_9allocatorIDsEEEC2B7v160006IPKDsvEET_S9_RKS4_, symObjAddr: 0x5D40, symBinAddr: 0x50DA4, symSize: 0x90 }
  - { offsetInCU: 0x2D017, offset: 0x3DC2AB, size: 0x8, addend: 0x0, symName: __ZNSt3__112basic_stringIDsNS_11char_traitsIDsEENS_9allocatorIDsEEE21__grow_by_and_replaceEmmmmmmPKDs, symObjAddr: 0x5DD0, symBinAddr: 0x50E34, symSize: 0x134 }
  - { offsetInCU: 0x2D02D, offset: 0x3DC2C1, size: 0x8, addend: 0x0, symName: __ZNSt3__112basic_stringIDsNS_11char_traitsIDsEENS_9allocatorIDsEEE6appendEPKDsm, symObjAddr: 0x5C80, symBinAddr: 0x50CE4, symSize: 0xC0 }
  - { offsetInCU: 0x2D3A6, offset: 0x3DC63A, size: 0x8, addend: 0x0, symName: __ZNSt11range_errorC1B7v160006EPKc, symObjAddr: 0x5F04, symBinAddr: 0x50F68, symSize: 0x24 }
  - { offsetInCU: 0x2D4E7, offset: 0x3DC77B, size: 0x8, addend: 0x0, symName: __ZNKSt3__112basic_stringIDsNS_11char_traitsIDsEENS_9allocatorIDsEEE20__throw_length_errorB7v160006Ev, symObjAddr: 0x5A24, symBinAddr: 0x50A88, symSize: 0x14 }
  - { offsetInCU: 0x2D511, offset: 0x3DC7A5, size: 0x8, addend: 0x0, symName: __ZNSt3__119__allocate_at_leastB7v160006INS_9allocatorIDsEEEENS_19__allocation_resultINS_16allocator_traitsIT_E7pointerEEERS5_m, symObjAddr: 0x5A38, symBinAddr: 0x50A9C, symSize: 0x30 }
  - { offsetInCU: 0x2D5A2, offset: 0x3DC836, size: 0x8, addend: 0x0, symName: __ZNSt3__112basic_stringIDsNS_11char_traitsIDsEENS_9allocatorIDsEEE6appendEmDs, symObjAddr: 0x5AA8, symBinAddr: 0x50B0C, symSize: 0xC4 }
  - { offsetInCU: 0x2D8C3, offset: 0x3DCB57, size: 0x8, addend: 0x0, symName: __ZNSt3__112basic_stringIDsNS_11char_traitsIDsEENS_9allocatorIDsEEE21__grow_by_and_replaceEmmmmmmPKDs, symObjAddr: 0x5DD0, symBinAddr: 0x50E34, symSize: 0x134 }
  - { offsetInCU: 0x2DFFC, offset: 0x3DD290, size: 0x8, addend: 0x0, symName: __ZNSt11range_errorC1B7v160006EPKc, symObjAddr: 0x5F04, symBinAddr: 0x50F68, symSize: 0x24 }
  - { offsetInCU: 0x2E313, offset: 0x3DD5A7, size: 0x8, addend: 0x0, symName: __ZNSt3__16vectorItNS_9allocatorItEEE11__vallocateB7v160006Em, symObjAddr: 0x6034, symBinAddr: 0x51098, symSize: 0x3C }
  - { offsetInCU: 0x2E38B, offset: 0x3DD61F, size: 0x8, addend: 0x0, symName: __ZNKSt3__16vectorItNS_9allocatorItEEE20__throw_length_errorB7v160006Ev, symObjAddr: 0x6070, symBinAddr: 0x510D4, symSize: 0x14 }
  - { offsetInCU: 0x2E3AB, offset: 0x3DD63F, size: 0x8, addend: 0x0, symName: __ZNKSt3__16vectorItNS_9allocatorItEEE20__throw_length_errorB7v160006Ev, symObjAddr: 0x6070, symBinAddr: 0x510D4, symSize: 0x14 }
  - { offsetInCU: 0x2E3D5, offset: 0x3DD669, size: 0x8, addend: 0x0, symName: __ZNSt3__119__allocate_at_leastB7v160006INS_9allocatorItEEEENS_19__allocation_resultINS_16allocator_traitsIT_E7pointerEEERS5_m, symObjAddr: 0x6084, symBinAddr: 0x510E8, symSize: 0x30 }
  - { offsetInCU: 0x2E9DA, offset: 0x3DDC6E, size: 0x8, addend: 0x0, symName: __ZN3tns6AssertEbPN2v87IsolateERKNSt3__112basic_stringIcNS3_11char_traitsIcEENS3_9allocatorIcEEEE.cold.1, symObjAddr: 0x6954, symBinAddr: 0xB8FE8C, symSize: 0x28 }
  - { offsetInCU: 0x11FDA, offset: 0x3F0001, size: 0x8, addend: 0x0, symName: __ZN3tns7Interop20RegisterInteropTypesEN2v85LocalINS1_7ContextEEE, symObjAddr: 0x0, symBinAddr: 0x51430, symSize: 0xD60 }
  - { offsetInCU: 0x15DFC, offset: 0x3F3E23, size: 0x8, addend: 0x0, symName: __ZN3tns7Interop30RegisterBufferFromDataFunctionEN2v85LocalINS1_7ContextEEENS2_INS1_6ObjectEEE, symObjAddr: 0xD60, symBinAddr: 0x52190, symSize: 0x164 }
  - { offsetInCU: 0x16435, offset: 0x3F445C, size: 0x8, addend: 0x0, symName: __ZN3tns7Interop25RegisterStringFromCStringEN2v85LocalINS1_7ContextEEENS2_INS1_6ObjectEEE, symObjAddr: 0xEC4, symBinAddr: 0x522F4, symSize: 0x164 }
  - { offsetInCU: 0x16A6E, offset: 0x3F4A95, size: 0x8, addend: 0x0, symName: __ZN3tns7Interop24RegisterHandleOfFunctionEN2v85LocalINS1_7ContextEEENS2_INS1_6ObjectEEE, symObjAddr: 0x1028, symBinAddr: 0x52458, symSize: 0x164 }
  - { offsetInCU: 0x170A7, offset: 0x3F50CE, size: 0x8, addend: 0x0, symName: __ZN3tns7Interop21RegisterAllocFunctionEN2v85LocalINS1_7ContextEEENS2_INS1_6ObjectEEE, symObjAddr: 0x118C, symBinAddr: 0x525BC, symSize: 0x164 }
  - { offsetInCU: 0x176E0, offset: 0x3F5707, size: 0x8, addend: 0x0, symName: __ZN3tns7Interop20RegisterFreeFunctionEN2v85LocalINS1_7ContextEEENS2_INS1_6ObjectEEE, symObjAddr: 0x12F0, symBinAddr: 0x52720, symSize: 0x164 }
  - { offsetInCU: 0x17D2D, offset: 0x3F5D54, size: 0x8, addend: 0x0, symName: __ZN3tns7Interop21RegisterAdoptFunctionEN2v85LocalINS1_7ContextEEENS2_INS1_6ObjectEEE, symObjAddr: 0x1454, symBinAddr: 0x52884, symSize: 0x164 }
  - { offsetInCU: 0x1837E, offset: 0x3F63A5, size: 0x8, addend: 0x0, symName: __ZN3tns7Interop22RegisterSizeOfFunctionEN2v85LocalINS1_7ContextEEENS2_INS1_6ObjectEEE, symObjAddr: 0x15B8, symBinAddr: 0x529E8, symSize: 0x164 }
  - { offsetInCU: 0x18BEA, offset: 0x3F6C11, size: 0x8, addend: 0x0, symName: __ZN3tns7Interop19RegisterInteropTypeEN2v85LocalINS1_7ContextEEENS2_INS1_6ObjectEEENSt3__112basic_stringIcNS7_11char_traitsIcEENS7_9allocatorIcEEEEPNS_20PrimitiveDataWrapperEb, symObjAddr: 0x171C, symBinAddr: 0x52B4C, symSize: 0x378 }
  - { offsetInCU: 0x19EA9, offset: 0x3F7ED0, size: 0x8, addend: 0x0, symName: __ZNK10robin_hood6detail5TableILb1ELm80EN3tns22BinaryTypeEncodingTypeENSt3__110unique_ptrIN2v810PersistentINS6_6ObjectENS6_27NonCopyablePersistentTraitsIS8_EEEENS4_14default_deleteISB_EEEENS_4hashIS3_vEENS4_8equal_toIS3_EEE7findIdxIS3_EEmRKT_, symObjAddr: 0x3810, symBinAddr: 0x54448, symSize: 0xD4 }
  - { offsetInCU: 0x19F06, offset: 0x3F7F2D, size: 0x8, addend: 0x0, symName: __ZNK10robin_hood6detail5TableILb1ELm80EN3tns22BinaryTypeEncodingTypeENSt3__110unique_ptrIN2v810PersistentINS6_6ObjectENS6_27NonCopyablePersistentTraitsIS8_EEEENS4_14default_deleteISB_EEEENS_4hashIS3_vEENS4_8equal_toIS3_EEE7findIdxIS3_EEmRKT_, symObjAddr: 0x3810, symBinAddr: 0x54448, symSize: 0xD4 }
  - { offsetInCU: 0x1A051, offset: 0x3F8078, size: 0x8, addend: 0x0, symName: __ZN3tns6Caches24registerCacheBoundObjectINS_20PrimitiveDataWrapperEEEvPT_, symObjAddr: 0x1CBC, symBinAddr: 0x530EC, symSize: 0x118 }
  - { offsetInCU: 0x1A55D, offset: 0x3F8584, size: 0x8, addend: 0x0, symName: __ZN10robin_hood6detail5TableILb1ELm80EN3tns22BinaryTypeEncodingTypeENSt3__110unique_ptrIN2v810PersistentINS6_6ObjectENS6_27NonCopyablePersistentTraitsIS8_EEEENS4_14default_deleteISB_EEEENS_4hashIS3_vEENS4_8equal_toIS3_EEE7emplaceIJRS3_SE_EEENS4_4pairINSJ_4IterILb0EEEbEEDpOT_, symObjAddr: 0x1BB8, symBinAddr: 0x52FE8, symSize: 0x104 }
  - { offsetInCU: 0x1AC8F, offset: 0x3F8CB6, size: 0x8, addend: 0x0, symName: __ZN3tns7Interop14CreateEncodingENS_22BinaryTypeEncodingTypeE, symObjAddr: 0x1A94, symBinAddr: 0x52EC4, symSize: 0x2C }
  - { offsetInCU: 0x1AD55, offset: 0x3F8D7C, size: 0x8, addend: 0x0, symName: __ZN3tns7Interop14GetInteropTypeEN2v85LocalINS1_7ContextEEENS_22BinaryTypeEncodingTypeE, symObjAddr: 0x1AC0, symBinAddr: 0x52EF0, symSize: 0xF8 }
  - { offsetInCU: 0x1B57C, offset: 0x3F95A3, size: 0x8, addend: 0x0, symName: __ZN10robin_hood6detail5TableILb1ELm80EN3tns22BinaryTypeEncodingTypeENSt3__110unique_ptrIN2v810PersistentINS6_6ObjectENS6_27NonCopyablePersistentTraitsIS8_EEEENS4_14default_deleteISB_EEEENS_4hashIS3_vEENS4_8equal_toIS3_EEE25insertKeyPrepareEmptySpotIRKS3_EENS4_4pairImNSJ_14InsertionStateEEEOT_, symObjAddr: 0x38E4, symBinAddr: 0x5451C, symSize: 0x190 }
  - { offsetInCU: 0x1B72E, offset: 0x3F9755, size: 0x8, addend: 0x0, symName: __ZNK10robin_hood6detail5TableILb1ELm80EN3tns22BinaryTypeEncodingTypeENSt3__110unique_ptrIN2v810PersistentINS6_6ObjectENS6_27NonCopyablePersistentTraitsIS8_EEEENS4_14default_deleteISB_EEEENS_4hashIS3_vEENS4_8equal_toIS3_EEE18throwOverflowErrorEv, symObjAddr: 0x3A74, symBinAddr: 0x546AC, symSize: 0x50 }
  - { offsetInCU: 0x1C115, offset: 0x3FA13C, size: 0x8, addend: 0x0, symName: __ZN3tns7Interop8HandleOfEN2v85LocalINS1_7ContextEEENS2_INS1_5ValueEEE, symObjAddr: 0x1DD4, symBinAddr: 0x53204, symSize: 0x300 }
  - { offsetInCU: 0x1CDAF, offset: 0x3FADD6, size: 0x8, addend: 0x0, symName: __ZN3tns20PrimitiveDataWrapperD1Ev, symObjAddr: 0x2234, symBinAddr: 0x53504, symSize: 0x40 }
  - { offsetInCU: 0x1CE08, offset: 0x3FAE2F, size: 0x8, addend: 0x0, symName: __ZN3tns20PrimitiveDataWrapperD0Ev, symObjAddr: 0x2274, symBinAddr: 0x53544, symSize: 0x40 }
  - { offsetInCU: 0x1CE7D, offset: 0x3FAEA4, size: 0x8, addend: 0x0, symName: __ZN3tns20PrimitiveDataWrapper4TypeEv, symObjAddr: 0x22B4, symBinAddr: 0x53584, symSize: 0x8 }
  - { offsetInCU: 0x1D57F, offset: 0x3FB5A6, size: 0x8, addend: 0x0, symName: '__ZZN3tns7Interop30RegisterBufferFromDataFunctionEN2v85LocalINS1_7ContextEEENS2_INS1_6ObjectEEEEN3$_08__invokeERKNS1_20FunctionCallbackInfoINS1_5ValueEEE', symObjAddr: 0x23F0, symBinAddr: 0x5358C, symSize: 0x2B8 }
  - { offsetInCU: 0x1E255, offset: 0x3FC27C, size: 0x8, addend: 0x0, symName: '__ZZN3tns7Interop30RegisterBufferFromDataFunctionEN2v85LocalINS1_7ContextEEENS2_INS1_6ObjectEEEEN3$_08__invokeERKNS1_20FunctionCallbackInfoINS1_5ValueEEE.cold.1', symObjAddr: 0x4498, symBinAddr: 0xB8FEB4, symSize: 0x40 }
  - { offsetInCU: 0x1E317, offset: 0x3FC33E, size: 0x8, addend: 0x0, symName: '__ZZZN3tns7Interop30RegisterBufferFromDataFunctionEN2v85LocalINS1_7ContextEEENS2_INS1_6ObjectEEEENK3$_0clERKNS1_20FunctionCallbackInfoINS1_5ValueEEEENUlPvmSD_E_8__invokeESD_mSD_', symObjAddr: 0x26A8, symBinAddr: 0x53844, symSize: 0x4 }
  - { offsetInCU: 0x1E35B, offset: 0x3FC382, size: 0x8, addend: 0x0, symName: __ZNSt3__120__shared_ptr_pointerIPN2v812BackingStoreENS_14default_deleteIS2_EENS_9allocatorIS2_EEED1Ev, symObjAddr: 0x26AC, symBinAddr: 0x53848, symSize: 0x4 }
  - { offsetInCU: 0x1E37D, offset: 0x3FC3A4, size: 0x8, addend: 0x0, symName: __ZNSt3__120__shared_ptr_pointerIPN2v812BackingStoreENS_14default_deleteIS2_EENS_9allocatorIS2_EEED1Ev, symObjAddr: 0x26AC, symBinAddr: 0x53848, symSize: 0x4 }
  - { offsetInCU: 0x1E3B0, offset: 0x3FC3D7, size: 0x8, addend: 0x0, symName: __ZNSt3__120__shared_ptr_pointerIPN2v812BackingStoreENS_14default_deleteIS2_EENS_9allocatorIS2_EEED0Ev, symObjAddr: 0x26B0, symBinAddr: 0x5384C, symSize: 0x14 }
  - { offsetInCU: 0x1E420, offset: 0x3FC447, size: 0x8, addend: 0x0, symName: __ZNSt3__120__shared_ptr_pointerIPN2v812BackingStoreENS_14default_deleteIS2_EENS_9allocatorIS2_EEE16__on_zero_sharedEv, symObjAddr: 0x26C4, symBinAddr: 0x53860, symSize: 0x24 }
  - { offsetInCU: 0x1E4E6, offset: 0x3FC50D, size: 0x8, addend: 0x0, symName: __ZNSt3__120__shared_ptr_pointerIPN2v812BackingStoreENS_14default_deleteIS2_EENS_9allocatorIS2_EEE21__on_zero_shared_weakEv, symObjAddr: 0x26E8, symBinAddr: 0x53884, symSize: 0x4 }
  - { offsetInCU: 0x1E51B, offset: 0x3FC542, size: 0x8, addend: 0x0, symName: __ZNSt3__120__shared_ptr_pointerIPN2v812BackingStoreENS_14default_deleteIS2_EENS_9allocatorIS2_EEE21__on_zero_shared_weakEv, symObjAddr: 0x26E8, symBinAddr: 0x53884, symSize: 0x4 }
  - { offsetInCU: 0x1E53F, offset: 0x3FC566, size: 0x8, addend: 0x0, symName: __ZNSt3__120__shared_ptr_pointerIPN2v812BackingStoreENS_14default_deleteIS2_EENS_9allocatorIS2_EEE21__on_zero_shared_weakEv, symObjAddr: 0x26E8, symBinAddr: 0x53884, symSize: 0x4 }
  - { offsetInCU: 0x1E56B, offset: 0x3FC592, size: 0x8, addend: 0x0, symName: __ZNSt3__120__shared_ptr_pointerIPN2v812BackingStoreENS_14default_deleteIS2_EENS_9allocatorIS2_EEE21__on_zero_shared_weakEv, symObjAddr: 0x26E8, symBinAddr: 0x53884, symSize: 0x4 }
  - { offsetInCU: 0x1E592, offset: 0x3FC5B9, size: 0x8, addend: 0x0, symName: __ZNSt3__120__shared_ptr_pointerIPN2v812BackingStoreENS_14default_deleteIS2_EENS_9allocatorIS2_EEE21__on_zero_shared_weakEv, symObjAddr: 0x26E8, symBinAddr: 0x53884, symSize: 0x4 }
  - { offsetInCU: 0x1E5B3, offset: 0x3FC5DA, size: 0x8, addend: 0x0, symName: __ZNSt3__120__shared_ptr_pointerIPN2v812BackingStoreENS_14default_deleteIS2_EENS_9allocatorIS2_EEE21__on_zero_shared_weakEv, symObjAddr: 0x26E8, symBinAddr: 0x53884, symSize: 0x4 }
  - { offsetInCU: 0x1E6F4, offset: 0x3FC71B, size: 0x8, addend: 0x0, symName: '__ZZN3tns7Interop25RegisterStringFromCStringEN2v85LocalINS1_7ContextEEENS2_INS1_6ObjectEEEEN3$_18__invokeERKNS1_20FunctionCallbackInfoINS1_5ValueEEE', symObjAddr: 0x26EC, symBinAddr: 0x53888, symSize: 0x34C }
  - { offsetInCU: 0x1F747, offset: 0x3FD76E, size: 0x8, addend: 0x0, symName: '__ZZN3tns7Interop24RegisterHandleOfFunctionEN2v85LocalINS1_7ContextEEENS2_INS1_6ObjectEEEEN3$_28__invokeERKNS1_20FunctionCallbackInfoINS1_5ValueEEE', symObjAddr: 0x2A38, symBinAddr: 0x53BD4, symSize: 0x18C }
  - { offsetInCU: 0x1FDFB, offset: 0x3FDE22, size: 0x8, addend: 0x0, symName: '__ZZN3tns7Interop21RegisterAllocFunctionEN2v85LocalINS1_7ContextEEENS2_INS1_6ObjectEEEEN3$_38__invokeERKNS1_20FunctionCallbackInfoINS1_5ValueEEE', symObjAddr: 0x2BC4, symBinAddr: 0x53D60, symSize: 0x1C4 }
  - { offsetInCU: 0x20784, offset: 0x3FE7AB, size: 0x8, addend: 0x0, symName: '__ZZN3tns7Interop20RegisterFreeFunctionEN2v85LocalINS1_7ContextEEENS2_INS1_6ObjectEEEEN3$_48__invokeERKNS1_20FunctionCallbackInfoINS1_5ValueEEE', symObjAddr: 0x2D88, symBinAddr: 0x53F24, symSize: 0x114 }
  - { offsetInCU: 0x20D1F, offset: 0x3FED46, size: 0x8, addend: 0x0, symName: '__ZZN3tns7Interop21RegisterAdoptFunctionEN2v85LocalINS1_7ContextEEENS2_INS1_6ObjectEEEEN3$_58__invokeERKNS1_20FunctionCallbackInfoINS1_5ValueEEE', symObjAddr: 0x2E9C, symBinAddr: 0x54038, symSize: 0x114 }
  - { offsetInCU: 0x2136F, offset: 0x3FF396, size: 0x8, addend: 0x0, symName: '__ZZN3tns7Interop22RegisterSizeOfFunctionEN2v85LocalINS1_7ContextEEENS2_INS1_6ObjectEEEEN3$_68__invokeERKNS1_20FunctionCallbackInfoINS1_5ValueEEE', symObjAddr: 0x2FB0, symBinAddr: 0x5414C, symSize: 0x2FC }
  - { offsetInCU: 0x22A44, offset: 0x400A6B, size: 0x8, addend: 0x0, symName: __ZNK10robin_hood6detail5TableILb1ELm80EN3tns22BinaryTypeEncodingTypeENSt3__110unique_ptrIN2v810PersistentINS6_6ObjectENS6_27NonCopyablePersistentTraitsIS8_EEEENS4_14default_deleteISB_EEEENS_4hashIS3_vEENS4_8equal_toIS3_EEE7findIdxIS3_EEmRKT_, symObjAddr: 0x3810, symBinAddr: 0x54448, symSize: 0xD4 }
  - { offsetInCU: 0x22B9A, offset: 0x400BC1, size: 0x8, addend: 0x0, symName: __ZN10robin_hood6detail5TableILb1ELm80EN3tns22BinaryTypeEncodingTypeENSt3__110unique_ptrIN2v810PersistentINS6_6ObjectENS6_27NonCopyablePersistentTraitsIS8_EEEENS4_14default_deleteISB_EEEENS_4hashIS3_vEENS4_8equal_toIS3_EEE13increase_sizeEv, symObjAddr: 0x3AC4, symBinAddr: 0x546FC, symSize: 0x12C }
  - { offsetInCU: 0x22C64, offset: 0x400C8B, size: 0x8, addend: 0x0, symName: __ZN10robin_hood6detail5TableILb1ELm80EN3tns22BinaryTypeEncodingTypeENSt3__110unique_ptrIN2v810PersistentINS6_6ObjectENS6_27NonCopyablePersistentTraitsIS8_EEEENS4_14default_deleteISB_EEEENS_4hashIS3_vEENS4_8equal_toIS3_EEE7shiftUpEmm, symObjAddr: 0x3BF0, symBinAddr: 0x54828, symSize: 0xF4 }
  - { offsetInCU: 0x22F4A, offset: 0x400F71, size: 0x8, addend: 0x0, symName: __ZN10robin_hood6detail5TableILb1ELm80EN3tns22BinaryTypeEncodingTypeENSt3__110unique_ptrIN2v810PersistentINS6_6ObjectENS6_27NonCopyablePersistentTraitsIS8_EEEENS4_14default_deleteISB_EEEENS_4hashIS3_vEENS4_8equal_toIS3_EEE17try_increase_infoEv, symObjAddr: 0x3DB0, symBinAddr: 0x549E8, symSize: 0x100 }
  - { offsetInCU: 0x23051, offset: 0x401078, size: 0x8, addend: 0x0, symName: __ZN10robin_hood6detail5TableILb1ELm80EN3tns22BinaryTypeEncodingTypeENSt3__110unique_ptrIN2v810PersistentINS6_6ObjectENS6_27NonCopyablePersistentTraitsIS8_EEEENS4_14default_deleteISB_EEEENS_4hashIS3_vEENS4_8equal_toIS3_EEE8initDataEm, symObjAddr: 0x3CE4, symBinAddr: 0x5491C, symSize: 0xCC }
  - { offsetInCU: 0x2316B, offset: 0x401192, size: 0x8, addend: 0x0, symName: __ZN10robin_hood6detail5TableILb1ELm80EN3tns22BinaryTypeEncodingTypeENSt3__110unique_ptrIN2v810PersistentINS6_6ObjectENS6_27NonCopyablePersistentTraitsIS8_EEEENS4_14default_deleteISB_EEEENS_4hashIS3_vEENS4_8equal_toIS3_EEE17try_increase_infoEv, symObjAddr: 0x3DB0, symBinAddr: 0x549E8, symSize: 0x100 }
  - { offsetInCU: 0x23176, offset: 0x40119D, size: 0x8, addend: 0x0, symName: __ZN10robin_hood6detail5TableILb1ELm80EN3tns22BinaryTypeEncodingTypeENSt3__110unique_ptrIN2v810PersistentINS6_6ObjectENS6_27NonCopyablePersistentTraitsIS8_EEEENS4_14default_deleteISB_EEEENS_4hashIS3_vEENS4_8equal_toIS3_EEE16rehashPowerOfTwoEmb, symObjAddr: 0x3EB0, symBinAddr: 0x54AE8, symSize: 0x100 }
  - { offsetInCU: 0x23447, offset: 0x40146E, size: 0x8, addend: 0x0, symName: __ZN10robin_hood6detail5TableILb1ELm80EN3tns22BinaryTypeEncodingTypeENSt3__110unique_ptrIN2v810PersistentINS6_6ObjectENS6_27NonCopyablePersistentTraitsIS8_EEEENS4_14default_deleteISB_EEEENS_4hashIS3_vEENS4_8equal_toIS3_EEE11insert_moveEONSJ_8DataNodeISJ_Lb1EEE, symObjAddr: 0x3FD8, symBinAddr: 0x54BE8, symSize: 0x154 }
  - { offsetInCU: 0x23B87, offset: 0x401BAE, size: 0x8, addend: 0x0, symName: __ZZN3tns6Caches11unique_voidINS_20PrimitiveDataWrapperEEENSt3__110unique_ptrIvPFvPKvEEEPT_ENUlS6_E_8__invokeES6_, symObjAddr: 0x4434, symBinAddr: 0x54D3C, symSize: 0x14 }
  - { offsetInCU: 0x23BA6, offset: 0x401BCD, size: 0x8, addend: 0x0, symName: __ZZN3tns6Caches11unique_voidINS_20PrimitiveDataWrapperEEENSt3__110unique_ptrIvPFvPKvEEEPT_ENUlS6_E_8__invokeES6_, symObjAddr: 0x4434, symBinAddr: 0x54D3C, symSize: 0x14 }
  - { offsetInCU: 0x26, offset: 0x401C3D, size: 0x8, addend: 0x0, symName: _nativescript_module_register, symObjAddr: 0x0, symBinAddr: 0x54D50, symSize: 0x64 }
  - { offsetInCU: 0x44, offset: 0x401C5B, size: 0x8, addend: 0x0, symName: __ZN3tns19node_is_initializedE, symObjAddr: 0x63F1F, symBinAddr: 0x158D7AC, symSize: 0x0 }
  - { offsetInCU: 0x5E, offset: 0x401C75, size: 0x8, addend: 0x0, symName: __ZN3tnsL16modlist_internalE, symObjAddr: 0x63F20, symBinAddr: 0x15787C8, symSize: 0x0 }
  - { offsetInCU: 0x104, offset: 0x401D1B, size: 0x8, addend: 0x0, symName: __ZN3tnsL14modlist_linkedE, symObjAddr: 0x63F28, symBinAddr: 0x15787D0, symSize: 0x0 }
  - { offsetInCU: 0x117, offset: 0x401D2E, size: 0x8, addend: 0x0, symName: __ZN3tns7binding23RegisterBuiltinBindingsEv, symObjAddr: 0x64, symBinAddr: 0x54DB4, symSize: 0x4 }
  - { offsetInCU: 0x131, offset: 0x401D48, size: 0x8, addend: 0x0, symName: __ZN3tns7binding30CreateInternalBindingTemplatesEPN2v87IsolateENS1_5LocalINS1_16FunctionTemplateEEE, symObjAddr: 0x68, symBinAddr: 0x54DB8, symSize: 0x2C }
  - { offsetInCU: 0x2D10, offset: 0x404927, size: 0x8, addend: 0x0, symName: _nativescript_module_register, symObjAddr: 0x0, symBinAddr: 0x54D50, symSize: 0x64 }
  - { offsetInCU: 0x5CEB, offset: 0x40A655, size: 0x8, addend: 0x0, symName: __ZN3tns14SymbolIterator3SetEN2v85LocalINS1_7ContextEEENS2_INS1_5ValueEEE, symObjAddr: 0x0, symBinAddr: 0x54DE4, symSize: 0xC0 }
  - { offsetInCU: 0x616D, offset: 0x40AAD7, size: 0x8, addend: 0x0, symName: __ZN3tns14SymbolIterator20CreateIteratorObjectEN2v85LocalINS1_7ContextEEENS2_INS1_5ValueEEE, symObjAddr: 0xC0, symBinAddr: 0x54EA4, symSize: 0x1D8 }
  - { offsetInCU: 0x6F1F, offset: 0x40B889, size: 0x8, addend: 0x0, symName: __ZN3tns14SymbolIterator12NextCallbackERKN2v820FunctionCallbackInfoINS1_5ValueEEE, symObjAddr: 0x298, symBinAddr: 0x5507C, symSize: 0x54C }
  - { offsetInCU: 0x873E, offset: 0x40D0A8, size: 0x8, addend: 0x0, symName: '__ZZN3tns14SymbolIterator3SetEN2v85LocalINS1_7ContextEEENS2_INS1_5ValueEEEEN3$_08__invokeERKNS1_20FunctionCallbackInfoIS5_EE', symObjAddr: 0x834, symBinAddr: 0x555C8, symSize: 0x4C }
  - { offsetInCU: 0x40, offset: 0x40D6DC, size: 0x8, addend: 0x0, symName: __ZN3tns7Runtime13nextIsolateIdE, symObjAddr: 0x2B5610, symBinAddr: 0x158D7B0, symSize: 0x0 }
  - { offsetInCU: 0xB8D, offset: 0x40E229, size: 0x8, addend: 0x0, symName: __ZN3tns10allocator_E, symObjAddr: 0x2B5618, symBinAddr: 0x158D7B8, symSize: 0x0 }
  - { offsetInCU: 0xBA7, offset: 0x40E243, size: 0x8, addend: 0x0, symName: __ZN3tns14AppPackageJsonE, symObjAddr: 0x2B5620, symBinAddr: 0x158D7C0, symSize: 0x0 }
  - { offsetInCU: 0xBBB, offset: 0x40E257, size: 0x8, addend: 0x0, symName: __ZN3tns7Runtime9platform_E, symObjAddr: 0x2B5648, symBinAddr: 0x158D7E8, symSize: 0x0 }
  - { offsetInCU: 0xBCF, offset: 0x40E26B, size: 0x8, addend: 0x0, symName: __ZN3tns7Runtime9isolates_E, symObjAddr: 0x2B5628, symBinAddr: 0x158D7C8, symSize: 0x0 }
  - { offsetInCU: 0xBE3, offset: 0x40E27F, size: 0x8, addend: 0x0, symName: __ZN3tns7Runtime14v8Initialized_E, symObjAddr: 0x2B5640, symBinAddr: 0x158D7E0, symSize: 0x0 }
  - { offsetInCU: 0xBF7, offset: 0x40E293, size: 0x8, addend: 0x0, symName: __ZN3tns7Runtime14isolatesMutex_E, symObjAddr: 0x2B5658, symBinAddr: 0x158D7F8, symSize: 0x0 }
  - { offsetInCU: 0xFA5, offset: 0x40E641, size: 0x8, addend: 0x0, symName: __ZN3tns26DisposeIsolateWhenPossibleEPN2v87IsolateE, symObjAddr: 0x0, symBinAddr: 0x55614, symSize: 0xA0 }
  - { offsetInCU: 0xF80E, offset: 0x41CEAA, size: 0x8, addend: 0x0, symName: __ZNSt3__16removeB7v160006INS_11__wrap_iterIPPN2v87IsolateEEES4_EET_S7_S7_RKT0_, symObjAddr: 0x4F0, symBinAddr: 0x55AF8, symSize: 0x5C }
  - { offsetInCU: 0xF85C, offset: 0x41CEF8, size: 0x8, addend: 0x0, symName: __ZNSt3__16removeB7v160006INS_11__wrap_iterIPPN2v87IsolateEEES4_EET_S7_S7_RKT0_, symObjAddr: 0x4F0, symBinAddr: 0x55AF8, symSize: 0x5C }
  - { offsetInCU: 0x105F4, offset: 0x41DC90, size: 0x8, addend: 0x0, symName: __ZNSt3__119__allocate_at_leastB7v160006INS_9allocatorIPN2v87IsolateEEEEENS_19__allocation_resultINS_16allocator_traitsIT_E7pointerEEERS8_m, symObjAddr: 0x26E8, symBinAddr: 0x57824, symSize: 0x34 }
  - { offsetInCU: 0x10698, offset: 0x41DD34, size: 0x8, addend: 0x0, symName: __ZNSt3__110__function6__funcIPFN2v85LocalINS2_16FunctionTemplateEEENS3_INS2_7ContextEEEPKN3tns13BaseClassMetaENS8_21KnownUnknownClassPairERKNS_6vectorINS_12basic_stringIcNS_11char_traitsIcEENS_9allocatorIcEEEENSH_ISJ_EEEEENSH_ISP_EESO_ED1Ev, symObjAddr: 0x271C, symBinAddr: 0x57858, symSize: 0x4 }
  - { offsetInCU: 0x10BCC, offset: 0x41E268, size: 0x8, addend: 0x0, symName: __ZNSt3__115allocate_sharedB7v160006IN3tns6CachesENS_9allocatorIS2_EEJRPN2v87IsolateERKiEvEENS_10shared_ptrIT_EERKT0_DpOT1_, symObjAddr: 0x1DE0, symBinAddr: 0x572C0, symSize: 0x60 }
  - { offsetInCU: 0x1A8E1, offset: 0x427F7D, size: 0x8, addend: 0x0, symName: __ZN3tns7RuntimeD1Ev, symObjAddr: 0x6B0, symBinAddr: 0x55CB8, symSize: 0x4 }
  - { offsetInCU: 0x1A93D, offset: 0x427FD9, size: 0x8, addend: 0x0, symName: __ZN3tns7RuntimeD1Ev, symObjAddr: 0x6B0, symBinAddr: 0x55CB8, symSize: 0x4 }
  - { offsetInCU: 0x1CE09, offset: 0x42A4A5, size: 0x8, addend: 0x0, symName: ____ZN3tns26DisposeIsolateWhenPossibleEPN2v87IsolateE_block_invoke, symObjAddr: 0xA0, symBinAddr: 0x556B4, symSize: 0x8 }
  - { offsetInCU: 0x1CE52, offset: 0x42A4EE, size: 0x8, addend: 0x0, symName: __ZN3tns7Runtime10InitializeEv, symObjAddr: 0xA8, symBinAddr: 0x556BC, symSize: 0x10 }
  - { offsetInCU: 0x1CF8F, offset: 0x42A62B, size: 0x8, addend: 0x0, symName: __ZN3tns7RuntimeC2Ev, symObjAddr: 0xB8, symBinAddr: 0x556CC, symSize: 0x5C }
  - { offsetInCU: 0x1D08D, offset: 0x42A729, size: 0x8, addend: 0x0, symName: __ZNSt3__110shared_ptrIN3tns13ConcurrentMapIiNS0_INS1_6Caches11WorkerStateEEEEEEaSB7v160006ERKS7_, symObjAddr: 0x114, symBinAddr: 0x55728, symSize: 0x68 }
  - { offsetInCU: 0x1D35F, offset: 0x42A9FB, size: 0x8, addend: 0x0, symName: __ZN3tns7RuntimeC1Ev, symObjAddr: 0x17C, symBinAddr: 0x55790, symSize: 0x5C }
  - { offsetInCU: 0x1DE02, offset: 0x42B49E, size: 0x8, addend: 0x0, symName: __ZN3tns7RuntimeD2Ev, symObjAddr: 0x1D8, symBinAddr: 0x557EC, symSize: 0x30C }
  - { offsetInCU: 0x1EABB, offset: 0x42C157, size: 0x8, addend: 0x0, symName: __ZN3tns13ConcurrentMapIiNSt3__110shared_ptrINS_6Caches11WorkerStateEEEE7ForEachERKNS1_8functionIFbRiRS5_EEE, symObjAddr: 0x54C, symBinAddr: 0x55B54, symSize: 0x164 }
  - { offsetInCU: 0x1EFED, offset: 0x42C689, size: 0x8, addend: 0x0, symName: __ZN10robin_hood6detail5TableILb1ELm80EiNSt3__110shared_ptrIN3tns6Caches11WorkerStateEEENS_4hashIivEENS2_8equal_toIiEEE5eraseERKi, symObjAddr: 0x23BC, symBinAddr: 0x57678, symSize: 0xC4 }
  - { offsetInCU: 0x1F10F, offset: 0x42C7AB, size: 0x8, addend: 0x0, symName: __ZNSt3__110shared_ptrIN3tns13ConcurrentMapIiNS0_INS1_6Caches11WorkerStateEEEEEED2B7v160006Ev, symObjAddr: 0x2114, symBinAddr: 0x57554, symSize: 0x50 }
  - { offsetInCU: 0x1F194, offset: 0x42C830, size: 0x8, addend: 0x0, symName: __ZNKSt3__114default_deleteIN3tns14ModuleInternalEEclB7v160006EPS2_, symObjAddr: 0x1F3C, symBinAddr: 0x573CC, symSize: 0x5C }
  - { offsetInCU: 0x1F4B7, offset: 0x42CB53, size: 0x8, addend: 0x0, symName: __ZN10robin_hood6detail5TableILb1ELm80EiNSt3__110shared_ptrIN3tns6Caches11WorkerStateEEENS_4hashIivEENS2_8equal_toIiEEE5beginEv, symObjAddr: 0x2164, symBinAddr: 0x575A4, symSize: 0x48 }
  - { offsetInCU: 0x1F4E1, offset: 0x42CB7D, size: 0x8, addend: 0x0, symName: __ZN10robin_hood6detail5TableILb1ELm80EiNSt3__110shared_ptrIN3tns6Caches11WorkerStateEEENS_4hashIivEENS2_8equal_toIiEEE5beginEv, symObjAddr: 0x2164, symBinAddr: 0x575A4, symSize: 0x48 }
  - { offsetInCU: 0x1F5F5, offset: 0x42CC91, size: 0x8, addend: 0x0, symName: __ZN3tns7Runtime10GetRuntimeEPN2v87IsolateE, symObjAddr: 0x6B4, symBinAddr: 0x55CBC, symSize: 0x8 }
  - { offsetInCU: 0x1F61F, offset: 0x42CCBB, size: 0x8, addend: 0x0, symName: __ZN3tns7Runtime10GetRuntimeEPN2v87IsolateE, symObjAddr: 0x6B4, symBinAddr: 0x55CBC, symSize: 0x8 }
  - { offsetInCU: 0x1F641, offset: 0x42CCDD, size: 0x8, addend: 0x0, symName: __ZN3tns7Runtime10GetRuntimeEPN2v87IsolateE, symObjAddr: 0x6B4, symBinAddr: 0x55CBC, symSize: 0x8 }
  - { offsetInCU: 0x1FEFF, offset: 0x42D59B, size: 0x8, addend: 0x0, symName: __ZN3tns7Runtime13CreateIsolateEv, symObjAddr: 0x6BC, symBinAddr: 0x55CC4, symSize: 0x2B8 }
  - { offsetInCU: 0x20C1D, offset: 0x42E2B9, size: 0x8, addend: 0x0, symName: __ZNSt3__110shared_ptrIN2v88PlatformEEaSB7v160006IS2_NS_14default_deleteIS2_EEvEERS3_ONS_10unique_ptrIT_T0_EE, symObjAddr: 0x974, symBinAddr: 0x55F7C, symSize: 0x90 }
  - { offsetInCU: 0x2105C, offset: 0x42E6F8, size: 0x8, addend: 0x0, symName: __ZNKSt3__16vectorIPN2v87IsolateENS_9allocatorIS3_EEE20__throw_length_errorB7v160006Ev, symObjAddr: 0x26D4, symBinAddr: 0x57810, symSize: 0x14 }
  - { offsetInCU: 0x21085, offset: 0x42E721, size: 0x8, addend: 0x0, symName: __ZNSt3__119__allocate_at_leastB7v160006INS_9allocatorIPN2v87IsolateEEEEENS_19__allocation_resultINS_16allocator_traitsIT_E7pointerEEERS8_m, symObjAddr: 0x26E8, symBinAddr: 0x57824, symSize: 0x34 }
  - { offsetInCU: 0x213C9, offset: 0x42EA65, size: 0x8, addend: 0x0, symName: __ZN3tns7Runtime4InitEPN2v87IsolateEb, symObjAddr: 0xA04, symBinAddr: 0x5600C, symSize: 0x37C }
  - { offsetInCU: 0x21B20, offset: 0x42F1BC, size: 0x8, addend: 0x0, symName: __ZNSt3__18functionIFN2v85LocalINS1_16FunctionTemplateEEENS2_INS1_7ContextEEEPKN3tns13BaseClassMetaENS7_21KnownUnknownClassPairERKNS_6vectorINS_12basic_stringIcNS_11char_traitsIcEENS_9allocatorIcEEEENSG_ISI_EEEEEEaSIRSN_vEERSO_OT_, symObjAddr: 0xD80, symBinAddr: 0x56388, symSize: 0xA4 }
  - { offsetInCU: 0x21D26, offset: 0x42F3C2, size: 0x8, addend: 0x0, symName: __ZNSt3__18functionIFN2v85LocalINS1_8FunctionEEENS2_INS1_7ContextEEEN3tns10StructInfoEEEaSIRS9_vEERSA_OT_, symObjAddr: 0xE24, symBinAddr: 0x5642C, symSize: 0xA4 }
  - { offsetInCU: 0x21F27, offset: 0x42F5C3, size: 0x8, addend: 0x0, symName: __ZN3tns7Runtime25DefineNativeScriptVersionEPN2v87IsolateENS1_5LocalINS1_14ObjectTemplateEEE, symObjAddr: 0xEC8, symBinAddr: 0x564D0, symSize: 0x134 }
  - { offsetInCU: 0x225C8, offset: 0x42FC64, size: 0x8, addend: 0x0, symName: __ZN3tns7Runtime23DefinePerformanceObjectEPN2v87IsolateENS1_5LocalINS1_14ObjectTemplateEEE, symObjAddr: 0xFFC, symBinAddr: 0x56604, symSize: 0x17C }
  - { offsetInCU: 0x22A56, offset: 0x4300F2, size: 0x8, addend: 0x0, symName: __ZN3tns7Runtime16DefineTimeMethodEPN2v87IsolateENS1_5LocalINS1_14ObjectTemplateEEE, symObjAddr: 0x1178, symBinAddr: 0x56780, symSize: 0xF0 }
  - { offsetInCU: 0x22E0E, offset: 0x4304AA, size: 0x8, addend: 0x0, symName: __ZN3tns7Runtime26DefineDrainMicrotaskMethodEPN2v87IsolateENS1_5LocalINS1_14ObjectTemplateEEE, symObjAddr: 0x1268, symBinAddr: 0x56870, symSize: 0xF0 }
  - { offsetInCU: 0x231C6, offset: 0x430862, size: 0x8, addend: 0x0, symName: __ZN3tns7Runtime18DefineGlobalObjectEN2v85LocalINS1_7ContextEEEb, symObjAddr: 0x1358, symBinAddr: 0x56960, symSize: 0x214 }
  - { offsetInCU: 0x23979, offset: 0x431015, size: 0x8, addend: 0x0, symName: __ZN3tns7Runtime21DefineCollectFunctionEN2v85LocalINS1_7ContextEEE, symObjAddr: 0x156C, symBinAddr: 0x56B74, symSize: 0x1D8 }
  - { offsetInCU: 0x2443F, offset: 0x431ADB, size: 0x8, addend: 0x0, symName: __ZNSt3__110__function12__value_funcIFN2v85LocalINS2_16FunctionTemplateEEENS3_INS2_7ContextEEEPKN3tns13BaseClassMetaENS8_21KnownUnknownClassPairERKNS_6vectorINS_12basic_stringIcNS_11char_traitsIcEENS_9allocatorIcEEEENSH_ISJ_EEEEEE4swapB7v160006ERSP_, symObjAddr: 0x2790, symBinAddr: 0x578CC, symSize: 0x16C }
  - { offsetInCU: 0x24793, offset: 0x431E2F, size: 0x8, addend: 0x0, symName: __ZNSt3__110__function12__value_funcIFN2v85LocalINS2_8FunctionEEENS3_INS2_7ContextEEEN3tns10StructInfoEEE4swapB7v160006ERSB_, symObjAddr: 0x2ADC, symBinAddr: 0x57B4C, symSize: 0x16C }
  - { offsetInCU: 0x2496A, offset: 0x432006, size: 0x8, addend: 0x0, symName: __ZN3tns7Runtime13RunMainScriptEv, symObjAddr: 0x1744, symBinAddr: 0x56D4C, symSize: 0xE8 }
  - { offsetInCU: 0x24D48, offset: 0x4323E4, size: 0x8, addend: 0x0, symName: __ZN3tns7Runtime10GetIsolateEv, symObjAddr: 0x182C, symBinAddr: 0x56E34, symSize: 0x8 }
  - { offsetInCU: 0x24D6A, offset: 0x432406, size: 0x8, addend: 0x0, symName: __ZN3tns7Runtime9RunModuleENSt3__112basic_stringIcNS1_11char_traitsIcEENS1_9allocatorIcEEEE, symObjAddr: 0x1834, symBinAddr: 0x56E3C, symSize: 0xCC }
  - { offsetInCU: 0x250DA, offset: 0x432776, size: 0x8, addend: 0x0, symName: __ZN3tns7Runtime9RunScriptENSt3__112basic_stringIcNS1_11char_traitsIcEENS1_9allocatorIcEEEE, symObjAddr: 0x1900, symBinAddr: 0x56F08, symSize: 0xF0 }
  - { offsetInCU: 0x25494, offset: 0x432B30, size: 0x8, addend: 0x0, symName: __ZN3tns7Runtime8WorkerIdEv, symObjAddr: 0x19F0, symBinAddr: 0x56FF8, symSize: 0x8 }
  - { offsetInCU: 0x254BD, offset: 0x432B59, size: 0x8, addend: 0x0, symName: __ZN3tns7Runtime11SetWorkerIdEi, symObjAddr: 0x19F8, symBinAddr: 0x57000, symSize: 0x8 }
  - { offsetInCU: 0x25506, offset: 0x432BA2, size: 0x8, addend: 0x0, symName: __ZN3tns7Runtime17GetAppConfigValueENSt3__112basic_stringIcNS1_11char_traitsIcEENS1_9allocatorIcEEEE, symObjAddr: 0x1A00, symBinAddr: 0x57008, symSize: 0xE4 }
  - { offsetInCU: 0x25758, offset: 0x432DF4, size: 0x8, addend: 0x0, symName: __ZN3tns7Runtime22PerformanceNowCallbackERKN2v820FunctionCallbackInfoINS1_5ValueEEE, symObjAddr: 0x1AE4, symBinAddr: 0x570EC, symSize: 0x60 }
  - { offsetInCU: 0x2588D, offset: 0x432F29, size: 0x8, addend: 0x0, symName: __ZN3tns7Runtime7IsAliveEPKN2v87IsolateE, symObjAddr: 0x1B44, symBinAddr: 0x5714C, symSize: 0x140 }
  - { offsetInCU: 0x25D32, offset: 0x4333CE, size: 0x8, addend: 0x0, symName: __ZNSt3__110shared_ptrIN2v88PlatformEED1B7v160006Ev, symObjAddr: 0x1C84, symBinAddr: 0x5728C, symSize: 0x4 }
  - { offsetInCU: 0x25D54, offset: 0x4333F0, size: 0x8, addend: 0x0, symName: __ZNSt3__110shared_ptrIN2v88PlatformEED1B7v160006Ev, symObjAddr: 0x1C84, symBinAddr: 0x5728C, symSize: 0x4 }
  - { offsetInCU: 0x25DF4, offset: 0x433490, size: 0x8, addend: 0x0, symName: __ZNSt3__16vectorIPN2v87IsolateENS_9allocatorIS3_EEED1B7v160006Ev, symObjAddr: 0x1C88, symBinAddr: 0x57290, symSize: 0x30 }
  - { offsetInCU: 0x2621D, offset: 0x4338B9, size: 0x8, addend: 0x0, symName: __ZNSt3__120__shared_ptr_emplaceIN3tns6CachesENS_9allocatorIS2_EEEC2B7v160006IJRPN2v87IsolateERKiEEES4_DpOT_, symObjAddr: 0x1E40, symBinAddr: 0x57320, symSize: 0x50 }
  - { offsetInCU: 0x26320, offset: 0x4339BC, size: 0x8, addend: 0x0, symName: '__ZZN3tns7Runtime16DefineTimeMethodEPN2v87IsolateENS1_5LocalINS1_14ObjectTemplateEEEEN3$_18__invokeERKNS1_20FunctionCallbackInfoINS1_5ValueEEE', symObjAddr: 0x1E90, symBinAddr: 0x57370, symSize: 0x50 }
  - { offsetInCU: 0x26453, offset: 0x433AEF, size: 0x8, addend: 0x0, symName: '__ZZN3tns7Runtime26DefineDrainMicrotaskMethodEPN2v87IsolateENS1_5LocalINS1_14ObjectTemplateEEEEN3$_28__invokeERKNS1_20FunctionCallbackInfoINS1_5ValueEEE', symObjAddr: 0x1EE0, symBinAddr: 0x573C0, symSize: 0xC }
  - { offsetInCU: 0x26480, offset: 0x433B1C, size: 0x8, addend: 0x0, symName: '__ZZN3tns7Runtime26DefineDrainMicrotaskMethodEPN2v87IsolateENS1_5LocalINS1_14ObjectTemplateEEEEN3$_28__invokeERKNS1_20FunctionCallbackInfoINS1_5ValueEEE', symObjAddr: 0x1EE0, symBinAddr: 0x573C0, symSize: 0xC }
  - { offsetInCU: 0x264A0, offset: 0x433B3C, size: 0x8, addend: 0x0, symName: '__ZZN3tns7Runtime26DefineDrainMicrotaskMethodEPN2v87IsolateENS1_5LocalINS1_14ObjectTemplateEEEEN3$_28__invokeERKNS1_20FunctionCallbackInfoINS1_5ValueEEE', symObjAddr: 0x1EE0, symBinAddr: 0x573C0, symSize: 0xC }
  - { offsetInCU: 0x265AE, offset: 0x433C4A, size: 0x8, addend: 0x0, symName: __ZN10robin_hood6detail5TableILb1ELm80ENSt3__112basic_stringIcNS2_11char_traitsIcEENS2_9allocatorIcEEEENS2_10shared_ptrIN2v810PersistentINSA_6ObjectENSA_27NonCopyablePersistentTraitsISC_EEEEEENS_4hashIS8_vEENS2_8equal_toIS8_EEE7destroyEv, symObjAddr: 0x1F98, symBinAddr: 0x57428, symSize: 0x4C }
  - { offsetInCU: 0x265ED, offset: 0x433C89, size: 0x8, addend: 0x0, symName: __ZNK10robin_hood6detail5TableILb1ELm80ENSt3__112basic_stringIcNS2_11char_traitsIcEENS2_9allocatorIcEEEENS2_10shared_ptrIN2v810PersistentINSA_6ObjectENSA_27NonCopyablePersistentTraitsISC_EEEEEENS_4hashIS8_vEENS2_8equal_toIS8_EEE9DestroyerISL_Lb0EE20nodesDoNotDeallocateERSL_, symObjAddr: 0x1FE4, symBinAddr: 0x57474, symSize: 0xE0 }
  - { offsetInCU: 0x26AA0, offset: 0x43413C, size: 0x8, addend: 0x0, symName: '__ZNSt3__110__function6__funcIZN3tns7RuntimeD1EvE3$_0NS_9allocatorIS4_EEFbRiRNS_10shared_ptrINS2_6Caches11WorkerStateEEEEED1Ev', symObjAddr: 0x21F8, symBinAddr: 0x575EC, symSize: 0x4 }
  - { offsetInCU: 0x26ACB, offset: 0x434167, size: 0x8, addend: 0x0, symName: '__ZNSt3__110__function6__funcIZN3tns7RuntimeD1EvE3$_0NS_9allocatorIS4_EEFbRiRNS_10shared_ptrINS2_6Caches11WorkerStateEEEEED0Ev', symObjAddr: 0x21FC, symBinAddr: 0x575F0, symSize: 0x4 }
  - { offsetInCU: 0x26CCF, offset: 0x43436B, size: 0x8, addend: 0x0, symName: '__ZNKSt3__110__function6__funcIZN3tns7RuntimeD1EvE3$_0NS_9allocatorIS4_EEFbRiRNS_10shared_ptrINS2_6Caches11WorkerStateEEEEE7__cloneEv', symObjAddr: 0x2200, symBinAddr: 0x575F4, symSize: 0x34 }
  - { offsetInCU: 0x26FCD, offset: 0x434669, size: 0x8, addend: 0x0, symName: '__ZNKSt3__110__function6__funcIZN3tns7RuntimeD1EvE3$_0NS_9allocatorIS4_EEFbRiRNS_10shared_ptrINS2_6Caches11WorkerStateEEEEE7__cloneEPNS0_6__baseISD_EE', symObjAddr: 0x2234, symBinAddr: 0x57628, symSize: 0x14 }
  - { offsetInCU: 0x27005, offset: 0x4346A1, size: 0x8, addend: 0x0, symName: '__ZNKSt3__110__function6__funcIZN3tns7RuntimeD1EvE3$_0NS_9allocatorIS4_EEFbRiRNS_10shared_ptrINS2_6Caches11WorkerStateEEEEE7__cloneEPNS0_6__baseISD_EE', symObjAddr: 0x2234, symBinAddr: 0x57628, symSize: 0x14 }
  - { offsetInCU: 0x27034, offset: 0x4346D0, size: 0x8, addend: 0x0, symName: '__ZNKSt3__110__function6__funcIZN3tns7RuntimeD1EvE3$_0NS_9allocatorIS4_EEFbRiRNS_10shared_ptrINS2_6Caches11WorkerStateEEEEE7__cloneEPNS0_6__baseISD_EE', symObjAddr: 0x2234, symBinAddr: 0x57628, symSize: 0x14 }
  - { offsetInCU: 0x27063, offset: 0x4346FF, size: 0x8, addend: 0x0, symName: '__ZNKSt3__110__function6__funcIZN3tns7RuntimeD1EvE3$_0NS_9allocatorIS4_EEFbRiRNS_10shared_ptrINS2_6Caches11WorkerStateEEEEE7__cloneEPNS0_6__baseISD_EE', symObjAddr: 0x2234, symBinAddr: 0x57628, symSize: 0x14 }
  - { offsetInCU: 0x27079, offset: 0x434715, size: 0x8, addend: 0x0, symName: '__ZNKSt3__110__function6__funcIZN3tns7RuntimeD1EvE3$_0NS_9allocatorIS4_EEFbRiRNS_10shared_ptrINS2_6Caches11WorkerStateEEEEE7__cloneEPNS0_6__baseISD_EE', symObjAddr: 0x2234, symBinAddr: 0x57628, symSize: 0x14 }
  - { offsetInCU: 0x2708D, offset: 0x434729, size: 0x8, addend: 0x0, symName: '__ZNKSt3__110__function6__funcIZN3tns7RuntimeD1EvE3$_0NS_9allocatorIS4_EEFbRiRNS_10shared_ptrINS2_6Caches11WorkerStateEEEEE7__cloneEPNS0_6__baseISD_EE', symObjAddr: 0x2234, symBinAddr: 0x57628, symSize: 0x14 }
  - { offsetInCU: 0x270A1, offset: 0x43473D, size: 0x8, addend: 0x0, symName: '__ZNKSt3__110__function6__funcIZN3tns7RuntimeD1EvE3$_0NS_9allocatorIS4_EEFbRiRNS_10shared_ptrINS2_6Caches11WorkerStateEEEEE7__cloneEPNS0_6__baseISD_EE', symObjAddr: 0x2234, symBinAddr: 0x57628, symSize: 0x14 }
  - { offsetInCU: 0x270B5, offset: 0x434751, size: 0x8, addend: 0x0, symName: '__ZNKSt3__110__function6__funcIZN3tns7RuntimeD1EvE3$_0NS_9allocatorIS4_EEFbRiRNS_10shared_ptrINS2_6Caches11WorkerStateEEEEE7__cloneEPNS0_6__baseISD_EE', symObjAddr: 0x2234, symBinAddr: 0x57628, symSize: 0x14 }
  - { offsetInCU: 0x270CD, offset: 0x434769, size: 0x8, addend: 0x0, symName: '__ZNSt3__110__function6__funcIZN3tns7RuntimeD1EvE3$_0NS_9allocatorIS4_EEFbRiRNS_10shared_ptrINS2_6Caches11WorkerStateEEEEE7destroyEv', symObjAddr: 0x2248, symBinAddr: 0x5763C, symSize: 0x4 }
  - { offsetInCU: 0x2711C, offset: 0x4347B8, size: 0x8, addend: 0x0, symName: '__ZNSt3__110__function6__funcIZN3tns7RuntimeD1EvE3$_0NS_9allocatorIS4_EEFbRiRNS_10shared_ptrINS2_6Caches11WorkerStateEEEEE18destroy_deallocateEv', symObjAddr: 0x224C, symBinAddr: 0x57640, symSize: 0x4 }
  - { offsetInCU: 0x27152, offset: 0x4347EE, size: 0x8, addend: 0x0, symName: '__ZNSt3__110__function6__funcIZN3tns7RuntimeD1EvE3$_0NS_9allocatorIS4_EEFbRiRNS_10shared_ptrINS2_6Caches11WorkerStateEEEEE18destroy_deallocateEv', symObjAddr: 0x224C, symBinAddr: 0x57640, symSize: 0x4 }
  - { offsetInCU: 0x27176, offset: 0x434812, size: 0x8, addend: 0x0, symName: '__ZNSt3__110__function6__funcIZN3tns7RuntimeD1EvE3$_0NS_9allocatorIS4_EEFbRiRNS_10shared_ptrINS2_6Caches11WorkerStateEEEEE18destroy_deallocateEv', symObjAddr: 0x224C, symBinAddr: 0x57640, symSize: 0x4 }
  - { offsetInCU: 0x271A2, offset: 0x43483E, size: 0x8, addend: 0x0, symName: '__ZNSt3__110__function6__funcIZN3tns7RuntimeD1EvE3$_0NS_9allocatorIS4_EEFbRiRNS_10shared_ptrINS2_6Caches11WorkerStateEEEEE18destroy_deallocateEv', symObjAddr: 0x224C, symBinAddr: 0x57640, symSize: 0x4 }
  - { offsetInCU: 0x271C9, offset: 0x434865, size: 0x8, addend: 0x0, symName: '__ZNSt3__110__function6__funcIZN3tns7RuntimeD1EvE3$_0NS_9allocatorIS4_EEFbRiRNS_10shared_ptrINS2_6Caches11WorkerStateEEEEE18destroy_deallocateEv', symObjAddr: 0x224C, symBinAddr: 0x57640, symSize: 0x4 }
  - { offsetInCU: 0x272D4, offset: 0x434970, size: 0x8, addend: 0x0, symName: '__ZNSt3__110__function6__funcIZN3tns7RuntimeD1EvE3$_0NS_9allocatorIS4_EEFbRiRNS_10shared_ptrINS2_6Caches11WorkerStateEEEEEclES7_SC_', symObjAddr: 0x2250, symBinAddr: 0x57644, symSize: 0x34 }
  - { offsetInCU: 0x274F3, offset: 0x434B8F, size: 0x8, addend: 0x0, symName: __ZN10robin_hood6detail5TableILb1ELm80EiNSt3__110shared_ptrIN3tns6Caches11WorkerStateEEENS_4hashIivEENS2_8equal_toIiEEE9shiftDownEm, symObjAddr: 0x2480, symBinAddr: 0x5773C, symSize: 0xA0 }
  - { offsetInCU: 0x277E0, offset: 0x434E7C, size: 0x8, addend: 0x0, symName: __ZNSt3__120__shared_ptr_pointerIPN2v88PlatformENS_14default_deleteIS2_EENS_9allocatorIS2_EEED1Ev, symObjAddr: 0x257C, symBinAddr: 0x577DC, symSize: 0x4 }
  - { offsetInCU: 0x27802, offset: 0x434E9E, size: 0x8, addend: 0x0, symName: __ZNSt3__120__shared_ptr_pointerIPN2v88PlatformENS_14default_deleteIS2_EENS_9allocatorIS2_EEED1Ev, symObjAddr: 0x257C, symBinAddr: 0x577DC, symSize: 0x4 }
  - { offsetInCU: 0x27835, offset: 0x434ED1, size: 0x8, addend: 0x0, symName: __ZNSt3__120__shared_ptr_pointerIPN2v88PlatformENS_14default_deleteIS2_EENS_9allocatorIS2_EEED0Ev, symObjAddr: 0x2580, symBinAddr: 0x577E0, symSize: 0x14 }
  - { offsetInCU: 0x27897, offset: 0x434F33, size: 0x8, addend: 0x0, symName: __ZNSt3__120__shared_ptr_pointerIPN2v88PlatformENS_14default_deleteIS2_EENS_9allocatorIS2_EEE16__on_zero_sharedEv, symObjAddr: 0x2594, symBinAddr: 0x577F4, symSize: 0x18 }
  - { offsetInCU: 0x2793F, offset: 0x434FDB, size: 0x8, addend: 0x0, symName: __ZNSt3__120__shared_ptr_pointerIPN2v88PlatformENS_14default_deleteIS2_EENS_9allocatorIS2_EEE21__on_zero_shared_weakEv, symObjAddr: 0x25AC, symBinAddr: 0x5780C, symSize: 0x4 }
  - { offsetInCU: 0x27974, offset: 0x435010, size: 0x8, addend: 0x0, symName: __ZNSt3__120__shared_ptr_pointerIPN2v88PlatformENS_14default_deleteIS2_EENS_9allocatorIS2_EEE21__on_zero_shared_weakEv, symObjAddr: 0x25AC, symBinAddr: 0x5780C, symSize: 0x4 }
  - { offsetInCU: 0x27998, offset: 0x435034, size: 0x8, addend: 0x0, symName: __ZNSt3__120__shared_ptr_pointerIPN2v88PlatformENS_14default_deleteIS2_EENS_9allocatorIS2_EEE21__on_zero_shared_weakEv, symObjAddr: 0x25AC, symBinAddr: 0x5780C, symSize: 0x4 }
  - { offsetInCU: 0x279C4, offset: 0x435060, size: 0x8, addend: 0x0, symName: __ZNSt3__120__shared_ptr_pointerIPN2v88PlatformENS_14default_deleteIS2_EENS_9allocatorIS2_EEE21__on_zero_shared_weakEv, symObjAddr: 0x25AC, symBinAddr: 0x5780C, symSize: 0x4 }
  - { offsetInCU: 0x279EB, offset: 0x435087, size: 0x8, addend: 0x0, symName: __ZNSt3__120__shared_ptr_pointerIPN2v88PlatformENS_14default_deleteIS2_EENS_9allocatorIS2_EEE21__on_zero_shared_weakEv, symObjAddr: 0x25AC, symBinAddr: 0x5780C, symSize: 0x4 }
  - { offsetInCU: 0x27C60, offset: 0x4352FC, size: 0x8, addend: 0x0, symName: __ZNSt3__110__function6__funcIPFN2v85LocalINS2_16FunctionTemplateEEENS3_INS2_7ContextEEEPKN3tns13BaseClassMetaENS8_21KnownUnknownClassPairERKNS_6vectorINS_12basic_stringIcNS_11char_traitsIcEENS_9allocatorIcEEEENSH_ISJ_EEEEENSH_ISP_EESO_ED1Ev, symObjAddr: 0x271C, symBinAddr: 0x57858, symSize: 0x4 }
  - { offsetInCU: 0x27C8B, offset: 0x435327, size: 0x8, addend: 0x0, symName: __ZNSt3__110__function6__funcIPFN2v85LocalINS2_16FunctionTemplateEEENS3_INS2_7ContextEEEPKN3tns13BaseClassMetaENS8_21KnownUnknownClassPairERKNS_6vectorINS_12basic_stringIcNS_11char_traitsIcEENS_9allocatorIcEEEENSH_ISJ_EEEEENSH_ISP_EESO_ED0Ev, symObjAddr: 0x2720, symBinAddr: 0x5785C, symSize: 0x4 }
  - { offsetInCU: 0x27E8F, offset: 0x43552B, size: 0x8, addend: 0x0, symName: __ZNKSt3__110__function6__funcIPFN2v85LocalINS2_16FunctionTemplateEEENS3_INS2_7ContextEEEPKN3tns13BaseClassMetaENS8_21KnownUnknownClassPairERKNS_6vectorINS_12basic_stringIcNS_11char_traitsIcEENS_9allocatorIcEEEENSH_ISJ_EEEEENSH_ISP_EESO_E7__cloneEv, symObjAddr: 0x2724, symBinAddr: 0x57860, symSize: 0x38 }
  - { offsetInCU: 0x2818D, offset: 0x435829, size: 0x8, addend: 0x0, symName: __ZNKSt3__110__function6__funcIPFN2v85LocalINS2_16FunctionTemplateEEENS3_INS2_7ContextEEEPKN3tns13BaseClassMetaENS8_21KnownUnknownClassPairERKNS_6vectorINS_12basic_stringIcNS_11char_traitsIcEENS_9allocatorIcEEEENSH_ISJ_EEEEENSH_ISP_EESO_E7__cloneEPNS0_6__baseISO_EE, symObjAddr: 0x275C, symBinAddr: 0x57898, symSize: 0x18 }
  - { offsetInCU: 0x281C5, offset: 0x435861, size: 0x8, addend: 0x0, symName: __ZNKSt3__110__function6__funcIPFN2v85LocalINS2_16FunctionTemplateEEENS3_INS2_7ContextEEEPKN3tns13BaseClassMetaENS8_21KnownUnknownClassPairERKNS_6vectorINS_12basic_stringIcNS_11char_traitsIcEENS_9allocatorIcEEEENSH_ISJ_EEEEENSH_ISP_EESO_E7__cloneEPNS0_6__baseISO_EE, symObjAddr: 0x275C, symBinAddr: 0x57898, symSize: 0x18 }
  - { offsetInCU: 0x281F4, offset: 0x435890, size: 0x8, addend: 0x0, symName: __ZNKSt3__110__function6__funcIPFN2v85LocalINS2_16FunctionTemplateEEENS3_INS2_7ContextEEEPKN3tns13BaseClassMetaENS8_21KnownUnknownClassPairERKNS_6vectorINS_12basic_stringIcNS_11char_traitsIcEENS_9allocatorIcEEEENSH_ISJ_EEEEENSH_ISP_EESO_E7__cloneEPNS0_6__baseISO_EE, symObjAddr: 0x275C, symBinAddr: 0x57898, symSize: 0x18 }
  - { offsetInCU: 0x2828D, offset: 0x435929, size: 0x8, addend: 0x0, symName: __ZNSt3__110__function6__funcIPFN2v85LocalINS2_16FunctionTemplateEEENS3_INS2_7ContextEEEPKN3tns13BaseClassMetaENS8_21KnownUnknownClassPairERKNS_6vectorINS_12basic_stringIcNS_11char_traitsIcEENS_9allocatorIcEEEENSH_ISJ_EEEEENSH_ISP_EESO_E7destroyEv, symObjAddr: 0x2774, symBinAddr: 0x578B0, symSize: 0x4 }
  - { offsetInCU: 0x282DE, offset: 0x43597A, size: 0x8, addend: 0x0, symName: __ZNSt3__110__function6__funcIPFN2v85LocalINS2_16FunctionTemplateEEENS3_INS2_7ContextEEEPKN3tns13BaseClassMetaENS8_21KnownUnknownClassPairERKNS_6vectorINS_12basic_stringIcNS_11char_traitsIcEENS_9allocatorIcEEEENSH_ISJ_EEEEENSH_ISP_EESO_E18destroy_deallocateEv, symObjAddr: 0x2778, symBinAddr: 0x578B4, symSize: 0x4 }
  - { offsetInCU: 0x28314, offset: 0x4359B0, size: 0x8, addend: 0x0, symName: __ZNSt3__110__function6__funcIPFN2v85LocalINS2_16FunctionTemplateEEENS3_INS2_7ContextEEEPKN3tns13BaseClassMetaENS8_21KnownUnknownClassPairERKNS_6vectorINS_12basic_stringIcNS_11char_traitsIcEENS_9allocatorIcEEEENSH_ISJ_EEEEENSH_ISP_EESO_E18destroy_deallocateEv, symObjAddr: 0x2778, symBinAddr: 0x578B4, symSize: 0x4 }
  - { offsetInCU: 0x28338, offset: 0x4359D4, size: 0x8, addend: 0x0, symName: __ZNSt3__110__function6__funcIPFN2v85LocalINS2_16FunctionTemplateEEENS3_INS2_7ContextEEEPKN3tns13BaseClassMetaENS8_21KnownUnknownClassPairERKNS_6vectorINS_12basic_stringIcNS_11char_traitsIcEENS_9allocatorIcEEEENSH_ISJ_EEEEENSH_ISP_EESO_E18destroy_deallocateEv, symObjAddr: 0x2778, symBinAddr: 0x578B4, symSize: 0x4 }
  - { offsetInCU: 0x28364, offset: 0x435A00, size: 0x8, addend: 0x0, symName: __ZNSt3__110__function6__funcIPFN2v85LocalINS2_16FunctionTemplateEEENS3_INS2_7ContextEEEPKN3tns13BaseClassMetaENS8_21KnownUnknownClassPairERKNS_6vectorINS_12basic_stringIcNS_11char_traitsIcEENS_9allocatorIcEEEENSH_ISJ_EEEEENSH_ISP_EESO_E18destroy_deallocateEv, symObjAddr: 0x2778, symBinAddr: 0x578B4, symSize: 0x4 }
  - { offsetInCU: 0x2838B, offset: 0x435A27, size: 0x8, addend: 0x0, symName: __ZNSt3__110__function6__funcIPFN2v85LocalINS2_16FunctionTemplateEEENS3_INS2_7ContextEEEPKN3tns13BaseClassMetaENS8_21KnownUnknownClassPairERKNS_6vectorINS_12basic_stringIcNS_11char_traitsIcEENS_9allocatorIcEEEENSH_ISJ_EEEEENSH_ISP_EESO_E18destroy_deallocateEv, symObjAddr: 0x2778, symBinAddr: 0x578B4, symSize: 0x4 }
  - { offsetInCU: 0x28464, offset: 0x435B00, size: 0x8, addend: 0x0, symName: __ZNSt3__110__function6__funcIPFN2v85LocalINS2_16FunctionTemplateEEENS3_INS2_7ContextEEEPKN3tns13BaseClassMetaENS8_21KnownUnknownClassPairERKNS_6vectorINS_12basic_stringIcNS_11char_traitsIcEENS_9allocatorIcEEEENSH_ISJ_EEEEENSH_ISP_EESO_EclEOS7_OSB_OSC_SN_, symObjAddr: 0x277C, symBinAddr: 0x578B8, symSize: 0x14 }
  - { offsetInCU: 0x284D2, offset: 0x435B6E, size: 0x8, addend: 0x0, symName: __ZNSt3__110__function6__funcIPFN2v85LocalINS2_16FunctionTemplateEEENS3_INS2_7ContextEEEPKN3tns13BaseClassMetaENS8_21KnownUnknownClassPairERKNS_6vectorINS_12basic_stringIcNS_11char_traitsIcEENS_9allocatorIcEEEENSH_ISJ_EEEEENSH_ISP_EESO_EclEOS7_OSB_OSC_SN_, symObjAddr: 0x277C, symBinAddr: 0x578B8, symSize: 0x14 }
  - { offsetInCU: 0x28517, offset: 0x435BB3, size: 0x8, addend: 0x0, symName: __ZNSt3__110__function6__funcIPFN2v85LocalINS2_16FunctionTemplateEEENS3_INS2_7ContextEEEPKN3tns13BaseClassMetaENS8_21KnownUnknownClassPairERKNS_6vectorINS_12basic_stringIcNS_11char_traitsIcEENS_9allocatorIcEEEENSH_ISJ_EEEEENSH_ISP_EESO_EclEOS7_OSB_OSC_SN_, symObjAddr: 0x277C, symBinAddr: 0x578B8, symSize: 0x14 }
  - { offsetInCU: 0x2855A, offset: 0x435BF6, size: 0x8, addend: 0x0, symName: __ZNSt3__110__function6__funcIPFN2v85LocalINS2_16FunctionTemplateEEENS3_INS2_7ContextEEEPKN3tns13BaseClassMetaENS8_21KnownUnknownClassPairERKNS_6vectorINS_12basic_stringIcNS_11char_traitsIcEENS_9allocatorIcEEEENSH_ISJ_EEEEENSH_ISP_EESO_EclEOS7_OSB_OSC_SN_, symObjAddr: 0x277C, symBinAddr: 0x578B8, symSize: 0x14 }
  - { offsetInCU: 0x285B0, offset: 0x435C4C, size: 0x8, addend: 0x0, symName: __ZNSt3__110__function6__funcIPFN2v85LocalINS2_8FunctionEEENS3_INS2_7ContextEEEN3tns10StructInfoEENS_9allocatorISB_EESA_ED1Ev, symObjAddr: 0x28FC, symBinAddr: 0x57A38, symSize: 0x4 }
  - { offsetInCU: 0x285DB, offset: 0x435C77, size: 0x8, addend: 0x0, symName: __ZNSt3__110__function6__funcIPFN2v85LocalINS2_8FunctionEEENS3_INS2_7ContextEEEN3tns10StructInfoEENS_9allocatorISB_EESA_ED0Ev, symObjAddr: 0x2900, symBinAddr: 0x57A3C, symSize: 0x4 }
  - { offsetInCU: 0x287DF, offset: 0x435E7B, size: 0x8, addend: 0x0, symName: __ZNKSt3__110__function6__funcIPFN2v85LocalINS2_8FunctionEEENS3_INS2_7ContextEEEN3tns10StructInfoEENS_9allocatorISB_EESA_E7__cloneEv, symObjAddr: 0x2904, symBinAddr: 0x57A40, symSize: 0x38 }
  - { offsetInCU: 0x28ADD, offset: 0x436179, size: 0x8, addend: 0x0, symName: __ZNKSt3__110__function6__funcIPFN2v85LocalINS2_8FunctionEEENS3_INS2_7ContextEEEN3tns10StructInfoEENS_9allocatorISB_EESA_E7__cloneEPNS0_6__baseISA_EE, symObjAddr: 0x293C, symBinAddr: 0x57A78, symSize: 0x18 }
  - { offsetInCU: 0x28B15, offset: 0x4361B1, size: 0x8, addend: 0x0, symName: __ZNKSt3__110__function6__funcIPFN2v85LocalINS2_8FunctionEEENS3_INS2_7ContextEEEN3tns10StructInfoEENS_9allocatorISB_EESA_E7__cloneEPNS0_6__baseISA_EE, symObjAddr: 0x293C, symBinAddr: 0x57A78, symSize: 0x18 }
  - { offsetInCU: 0x28B44, offset: 0x4361E0, size: 0x8, addend: 0x0, symName: __ZNKSt3__110__function6__funcIPFN2v85LocalINS2_8FunctionEEENS3_INS2_7ContextEEEN3tns10StructInfoEENS_9allocatorISB_EESA_E7__cloneEPNS0_6__baseISA_EE, symObjAddr: 0x293C, symBinAddr: 0x57A78, symSize: 0x18 }
  - { offsetInCU: 0x28BDD, offset: 0x436279, size: 0x8, addend: 0x0, symName: __ZNSt3__110__function6__funcIPFN2v85LocalINS2_8FunctionEEENS3_INS2_7ContextEEEN3tns10StructInfoEENS_9allocatorISB_EESA_E7destroyEv, symObjAddr: 0x2954, symBinAddr: 0x57A90, symSize: 0x4 }
  - { offsetInCU: 0x28C2E, offset: 0x4362CA, size: 0x8, addend: 0x0, symName: __ZNSt3__110__function6__funcIPFN2v85LocalINS2_8FunctionEEENS3_INS2_7ContextEEEN3tns10StructInfoEENS_9allocatorISB_EESA_E18destroy_deallocateEv, symObjAddr: 0x2958, symBinAddr: 0x57A94, symSize: 0x4 }
  - { offsetInCU: 0x28C64, offset: 0x436300, size: 0x8, addend: 0x0, symName: __ZNSt3__110__function6__funcIPFN2v85LocalINS2_8FunctionEEENS3_INS2_7ContextEEEN3tns10StructInfoEENS_9allocatorISB_EESA_E18destroy_deallocateEv, symObjAddr: 0x2958, symBinAddr: 0x57A94, symSize: 0x4 }
  - { offsetInCU: 0x28C88, offset: 0x436324, size: 0x8, addend: 0x0, symName: __ZNSt3__110__function6__funcIPFN2v85LocalINS2_8FunctionEEENS3_INS2_7ContextEEEN3tns10StructInfoEENS_9allocatorISB_EESA_E18destroy_deallocateEv, symObjAddr: 0x2958, symBinAddr: 0x57A94, symSize: 0x4 }
  - { offsetInCU: 0x28CB4, offset: 0x436350, size: 0x8, addend: 0x0, symName: __ZNSt3__110__function6__funcIPFN2v85LocalINS2_8FunctionEEENS3_INS2_7ContextEEEN3tns10StructInfoEENS_9allocatorISB_EESA_E18destroy_deallocateEv, symObjAddr: 0x2958, symBinAddr: 0x57A94, symSize: 0x4 }
  - { offsetInCU: 0x28CDB, offset: 0x436377, size: 0x8, addend: 0x0, symName: __ZNSt3__110__function6__funcIPFN2v85LocalINS2_8FunctionEEENS3_INS2_7ContextEEEN3tns10StructInfoEENS_9allocatorISB_EESA_E18destroy_deallocateEv, symObjAddr: 0x2958, symBinAddr: 0x57A94, symSize: 0x4 }
  - { offsetInCU: 0x28D30, offset: 0x4363CC, size: 0x8, addend: 0x0, symName: __ZNSt3__110__function6__funcIPFN2v85LocalINS2_8FunctionEEENS3_INS2_7ContextEEEN3tns10StructInfoEENS_9allocatorISB_EESA_EclEOS7_OS9_, symObjAddr: 0x295C, symBinAddr: 0x57A98, symSize: 0x8 }
  - { offsetInCU: 0x28DB1, offset: 0x43644D, size: 0x8, addend: 0x0, symName: __ZNSt3__128__invoke_void_return_wrapperIN2v85LocalINS1_8FunctionEEELb0EE6__callIJRPFS4_NS2_INS1_7ContextEEEN3tns10StructInfoEES8_SA_EEES4_DpOT_, symObjAddr: 0x2964, symBinAddr: 0x57AA0, symSize: 0xAC }
  - { offsetInCU: 0x3F, offset: 0x43703B, size: 0x8, addend: 0x0, symName: __ZN4rnv89V8Runtime10s_platformE, symObjAddr: 0x18EC20, symBinAddr: 0x158D800, symSize: 0x0 }
  - { offsetInCU: 0x9B4, offset: 0x4379B0, size: 0x8, addend: 0x0, symName: __ZN4rnv816s_platform_mutexE, symObjAddr: 0x7BA8, symBinAddr: 0xD02C78, symSize: 0x0 }
  - { offsetInCU: 0x9D0, offset: 0x4379CC, size: 0x8, addend: 0x0, symName: __ZN4rnv812_GLOBAL__N_122kHostFunctionProxyPropE, symObjAddr: 0x7FFB, symBinAddr: 0xB964A9, symSize: 0x0 }
  - { offsetInCU: 0x6704, offset: 0x43D700, size: 0x8, addend: 0x0, symName: __ZNSt3__14endlB7v160006IcNS_11char_traitsIcEEEERNS_13basic_ostreamIT_T0_EES7_, symObjAddr: 0x87C, symBinAddr: 0x584EC, symSize: 0x90 }
  - { offsetInCU: 0x6AB6, offset: 0x43DAB2, size: 0x8, addend: 0x0, symName: __ZN4rnv89V8RuntimeC2Ev.cold.1, symObjAddr: 0x67B8, symBinAddr: 0xB8FEF4, symSize: 0x2C }
  - { offsetInCU: 0x9D96, offset: 0x440D92, size: 0x8, addend: 0x0, symName: __ZNSt3__110unique_ptrIN2v88PlatformENS_14default_deleteIS2_EEED1B7v160006Ev, symObjAddr: 0x0, symBinAddr: 0x57D50, symSize: 0x38 }
  - { offsetInCU: 0xA1A3, offset: 0x44119F, size: 0x8, addend: 0x0, symName: __ZN4rnv89V8RuntimeC2Ev, symObjAddr: 0x38, symBinAddr: 0x57D88, symSize: 0x164 }
  - { offsetInCU: 0xA53D, offset: 0x441539, size: 0x8, addend: 0x0, symName: __ZN4rnv89V8RuntimeC2Ev.cold.1, symObjAddr: 0x67B8, symBinAddr: 0xB8FEF4, symSize: 0x2C }
  - { offsetInCU: 0xA5C8, offset: 0x4415C4, size: 0x8, addend: 0x0, symName: __ZN4rnv89V8RuntimeC1Ev, symObjAddr: 0x19C, symBinAddr: 0x57EEC, symSize: 0x4 }
  - { offsetInCU: 0xA5F4, offset: 0x4415F0, size: 0x8, addend: 0x0, symName: __ZN4rnv89V8RuntimeC1Ev, symObjAddr: 0x19C, symBinAddr: 0x57EEC, symSize: 0x4 }
  - { offsetInCU: 0xA5FF, offset: 0x4415FB, size: 0x8, addend: 0x0, symName: __ZN4rnv89V8Runtime10GetIsolateEv, symObjAddr: 0x1A0, symBinAddr: 0x57EF0, symSize: 0x18 }
  - { offsetInCU: 0xA655, offset: 0x441651, size: 0x8, addend: 0x0, symName: __ZN4rnv89V8RuntimeD2Ev, symObjAddr: 0x1B8, symBinAddr: 0x57F08, symSize: 0xB8 }
  - { offsetInCU: 0xA8B8, offset: 0x4418B4, size: 0x8, addend: 0x0, symName: __ZN4rnv89V8RuntimeD1Ev, symObjAddr: 0x27C, symBinAddr: 0x57FC0, symSize: 0x4 }
  - { offsetInCU: 0xA8DA, offset: 0x4418D6, size: 0x8, addend: 0x0, symName: __ZN4rnv89V8RuntimeD1Ev, symObjAddr: 0x27C, symBinAddr: 0x57FC0, symSize: 0x4 }
  - { offsetInCU: 0xA904, offset: 0x441900, size: 0x8, addend: 0x0, symName: __ZN4rnv89V8RuntimeD0Ev, symObjAddr: 0x280, symBinAddr: 0x57FC4, symSize: 0x14 }
  - { offsetInCU: 0xA958, offset: 0x441954, size: 0x8, addend: 0x0, symName: __ZN4rnv89V8Runtime14OnMainLoopIdleEv, symObjAddr: 0x294, symBinAddr: 0x57FD8, symSize: 0x4 }
  - { offsetInCU: 0xAD66, offset: 0x441D62, size: 0x8, addend: 0x0, symName: __ZNK4rnv89V8Runtime15ReportExceptionEPN2v87IsolateEPNS1_8TryCatchE, symObjAddr: 0x298, symBinAddr: 0x57FDC, symSize: 0x510 }
  - { offsetInCU: 0xC2FB, offset: 0x4432F7, size: 0x8, addend: 0x0, symName: __ZN4rnv89V8Runtime11GetPlatformEv, symObjAddr: 0x998, symBinAddr: 0x5857C, symSize: 0xC }
  - { offsetInCU: 0xC315, offset: 0x443311, size: 0x8, addend: 0x0, symName: __ZN4rnv89V8Runtime11GetPlatformEv, symObjAddr: 0x998, symBinAddr: 0x5857C, symSize: 0xC }
  - { offsetInCU: 0xC38E, offset: 0x44338A, size: 0x8, addend: 0x0, symName: __ZN4rnv89V8Runtime18evaluateJavaScriptERKNSt3__110shared_ptrIKN8facebook3jsi6BufferEEERKNS1_12basic_stringIcNS1_11char_traitsIcEENS1_9allocatorIcEEEE, symObjAddr: 0x9A4, symBinAddr: 0x58588, symSize: 0x8 }
  - { offsetInCU: 0xC3CA, offset: 0x4433C6, size: 0x8, addend: 0x0, symName: __ZN4rnv89V8Runtime18evaluateJavaScriptERKNSt3__110shared_ptrIKN8facebook3jsi6BufferEEERKNS1_12basic_stringIcNS1_11char_traitsIcEENS1_9allocatorIcEEEE, symObjAddr: 0x9A4, symBinAddr: 0x58588, symSize: 0x8 }
  - { offsetInCU: 0xC3E5, offset: 0x4433E1, size: 0x8, addend: 0x0, symName: __ZN4rnv89V8Runtime18evaluateJavaScriptERKNSt3__110shared_ptrIKN8facebook3jsi6BufferEEERKNS1_12basic_stringIcNS1_11char_traitsIcEENS1_9allocatorIcEEEE, symObjAddr: 0x9A4, symBinAddr: 0x58588, symSize: 0x8 }
  - { offsetInCU: 0xC409, offset: 0x443405, size: 0x8, addend: 0x0, symName: __ZN4rnv89V8Runtime18evaluateJavaScriptERKNSt3__110shared_ptrIKN8facebook3jsi6BufferEEERKNS1_12basic_stringIcNS1_11char_traitsIcEENS1_9allocatorIcEEEE, symObjAddr: 0x9A4, symBinAddr: 0x58588, symSize: 0x8 }
  - { offsetInCU: 0xC475, offset: 0x443471, size: 0x8, addend: 0x0, symName: __ZN4rnv89V8Runtime17prepareJavaScriptERKNSt3__110shared_ptrIKN8facebook3jsi6BufferEEENS1_12basic_stringIcNS1_11char_traitsIcEENS1_9allocatorIcEEEE, symObjAddr: 0x9AC, symBinAddr: 0x58590, symSize: 0x8 }
  - { offsetInCU: 0xC4B1, offset: 0x4434AD, size: 0x8, addend: 0x0, symName: __ZN4rnv89V8Runtime17prepareJavaScriptERKNSt3__110shared_ptrIKN8facebook3jsi6BufferEEENS1_12basic_stringIcNS1_11char_traitsIcEENS1_9allocatorIcEEEE, symObjAddr: 0x9AC, symBinAddr: 0x58590, symSize: 0x8 }
  - { offsetInCU: 0xC4D3, offset: 0x4434CF, size: 0x8, addend: 0x0, symName: __ZN4rnv89V8Runtime17prepareJavaScriptERKNSt3__110shared_ptrIKN8facebook3jsi6BufferEEENS1_12basic_stringIcNS1_11char_traitsIcEENS1_9allocatorIcEEEE, symObjAddr: 0x9AC, symBinAddr: 0x58590, symSize: 0x8 }
  - { offsetInCU: 0xC5CD, offset: 0x4435C9, size: 0x8, addend: 0x0, symName: __ZN4rnv89V8Runtime26evaluatePreparedJavaScriptERKNSt3__110shared_ptrIKN8facebook3jsi18PreparedJavaScriptEEE, symObjAddr: 0x9B4, symBinAddr: 0x58598, symSize: 0xC0 }
  - { offsetInCU: 0xCBD8, offset: 0x443BD4, size: 0x8, addend: 0x0, symName: __ZNSt3__110shared_ptrIKN8facebook3jsi6BufferEED2B7v160006Ev, symObjAddr: 0x6298, symBinAddr: 0x5D77C, symSize: 0x50 }
  - { offsetInCU: 0xCD5A, offset: 0x443D56, size: 0x8, addend: 0x0, symName: __ZN4rnv89V8Runtime15drainMicrotasksEi, symObjAddr: 0xA74, symBinAddr: 0x58658, symSize: 0x114 }
  - { offsetInCU: 0xD078, offset: 0x444074, size: 0x8, addend: 0x0, symName: __ZN4rnv89V8Runtime6globalEv, symObjAddr: 0xB88, symBinAddr: 0x5876C, symSize: 0x14C }
  - { offsetInCU: 0xD3B1, offset: 0x4443AD, size: 0x8, addend: 0x0, symName: __ZN4rnv89V8Runtime11descriptionEv, symObjAddr: 0xCD4, symBinAddr: 0x588B8, symSize: 0xE8 }
  - { offsetInCU: 0xD619, offset: 0x444615, size: 0x8, addend: 0x0, symName: __ZN4rnv89V8Runtime13isInspectableEv, symObjAddr: 0xDBC, symBinAddr: 0x589A0, symSize: 0x8 }
  - { offsetInCU: 0xD63D, offset: 0x444639, size: 0x8, addend: 0x0, symName: __ZN4rnv89V8Runtime11cloneSymbolEPKN8facebook3jsi7Runtime12PointerValueE, symObjAddr: 0xDC4, symBinAddr: 0x589A8, symSize: 0x184 }
  - { offsetInCU: 0xD868, offset: 0x444864, size: 0x8, addend: 0x0, symName: __ZN4rnv89V8Runtime11cloneBigIntEPKN8facebook3jsi7Runtime12PointerValueE, symObjAddr: 0xF48, symBinAddr: 0x58B2C, symSize: 0x184 }
  - { offsetInCU: 0xDA93, offset: 0x444A8F, size: 0x8, addend: 0x0, symName: __ZN4rnv89V8Runtime11cloneStringEPKN8facebook3jsi7Runtime12PointerValueE, symObjAddr: 0x10CC, symBinAddr: 0x58CB0, symSize: 0x19C }
  - { offsetInCU: 0xDDCE, offset: 0x444DCA, size: 0x8, addend: 0x0, symName: __ZN4rnv89V8Runtime11cloneObjectEPKN8facebook3jsi7Runtime12PointerValueE, symObjAddr: 0x1268, symBinAddr: 0x58E4C, symSize: 0x184 }
  - { offsetInCU: 0xDFF9, offset: 0x444FF5, size: 0x8, addend: 0x0, symName: __ZN4rnv89V8Runtime15clonePropNameIDEPKN8facebook3jsi7Runtime12PointerValueE, symObjAddr: 0x13EC, symBinAddr: 0x58FD0, symSize: 0xC }
  - { offsetInCU: 0xE097, offset: 0x445093, size: 0x8, addend: 0x0, symName: __ZN4rnv89V8Runtime25createPropNameIDFromAsciiEPKcm, symObjAddr: 0x13F8, symBinAddr: 0x58FDC, symSize: 0x160 }
  - { offsetInCU: 0xE3B6, offset: 0x4453B2, size: 0x8, addend: 0x0, symName: __ZN8facebook3jsi7JSErrorC1ERNS0_7RuntimeEPKc, symObjAddr: 0x1558, symBinAddr: 0x5913C, symSize: 0x74 }
  - { offsetInCU: 0xE692, offset: 0x44568E, size: 0x8, addend: 0x0, symName: __ZN4rnv89V8Runtime24createPropNameIDFromUtf8EPKhm, symObjAddr: 0x15CC, symBinAddr: 0x591B0, symSize: 0x160 }
  - { offsetInCU: 0xE9D7, offset: 0x4459D3, size: 0x8, addend: 0x0, symName: __ZN4rnv89V8Runtime26createPropNameIDFromStringERKN8facebook3jsi6StringE, symObjAddr: 0x172C, symBinAddr: 0x59310, symSize: 0x1A8 }
  - { offsetInCU: 0xEDA0, offset: 0x445D9C, size: 0x8, addend: 0x0, symName: __ZN4rnv89V8Runtime26createPropNameIDFromSymbolERKN8facebook3jsi6SymbolE, symObjAddr: 0x18D4, symBinAddr: 0x594B8, symSize: 0x13C }
  - { offsetInCU: 0xF0A4, offset: 0x4460A0, size: 0x8, addend: 0x0, symName: __ZN4rnv89V8Runtime4utf8ERKN8facebook3jsi10PropNameIDE, symObjAddr: 0x1A10, symBinAddr: 0x595F4, symSize: 0x140 }
  - { offsetInCU: 0xF30F, offset: 0x44630B, size: 0x8, addend: 0x0, symName: __ZN4rnv89V8Runtime7compareERKN8facebook3jsi10PropNameIDES5_, symObjAddr: 0x1B50, symBinAddr: 0x59734, symSize: 0x134 }
  - { offsetInCU: 0xF6C1, offset: 0x4466BD, size: 0x8, addend: 0x0, symName: __ZN4rnv89V8Runtime14symbolToStringERKN8facebook3jsi6SymbolE, symObjAddr: 0x1C84, symBinAddr: 0x59868, symSize: 0xC4 }
  - { offsetInCU: 0xF935, offset: 0x446931, size: 0x8, addend: 0x0, symName: __ZN4rnv89V8Runtime21createStringFromAsciiEPKcm, symObjAddr: 0x1D48, symBinAddr: 0x5992C, symSize: 0x160 }
  - { offsetInCU: 0xFC2C, offset: 0x446C28, size: 0x8, addend: 0x0, symName: __ZN4rnv89V8Runtime20createStringFromUtf8EPKhm, symObjAddr: 0x1EA8, symBinAddr: 0x59A8C, symSize: 0x160 }
  - { offsetInCU: 0xFF23, offset: 0x446F1F, size: 0x8, addend: 0x0, symName: __ZN4rnv89V8Runtime4utf8ERKN8facebook3jsi6StringE, symObjAddr: 0x2008, symBinAddr: 0x59BEC, symSize: 0x198 }
  - { offsetInCU: 0x102A0, offset: 0x44729C, size: 0x8, addend: 0x0, symName: __ZN4rnv89V8Runtime12createObjectEv, symObjAddr: 0x21A0, symBinAddr: 0x59D84, symSize: 0x134 }
  - { offsetInCU: 0x10763, offset: 0x44775F, size: 0x8, addend: 0x0, symName: __ZN4rnv89V8Runtime12createObjectENSt3__110shared_ptrIN8facebook3jsi10HostObjectEEE, symObjAddr: 0x22D4, symBinAddr: 0x59EB8, symSize: 0x2A4 }
  - { offsetInCU: 0x10D1B, offset: 0x447D17, size: 0x8, addend: 0x0, symName: __ZN4rnv815HostObjectProxyD1Ev, symObjAddr: 0x2578, symBinAddr: 0x5A15C, symSize: 0x3C }
  - { offsetInCU: 0x10F51, offset: 0x447F4D, size: 0x8, addend: 0x0, symName: __ZN4rnv89V8Runtime13getHostObjectERKN8facebook3jsi6ObjectE, symObjAddr: 0x25B4, symBinAddr: 0x5A198, symSize: 0x194 }
  - { offsetInCU: 0x11326, offset: 0x448322, size: 0x8, addend: 0x0, symName: __ZN4rnv89V8Runtime13getHostObjectERKN8facebook3jsi6ObjectE.cold.1, symObjAddr: 0x67E4, symBinAddr: 0xB8FF20, symSize: 0x28 }
  - { offsetInCU: 0x11358, offset: 0x448354, size: 0x8, addend: 0x0, symName: __ZN4rnv89V8Runtime15getHostFunctionERKN8facebook3jsi8FunctionE, symObjAddr: 0x2748, symBinAddr: 0x5A32C, symSize: 0x1F4 }
  - { offsetInCU: 0x11649, offset: 0x448645, size: 0x8, addend: 0x0, symName: __ZN4rnv89V8Runtime15getHostFunctionERKN8facebook3jsi8FunctionE.cold.1, symObjAddr: 0x680C, symBinAddr: 0xB8FF48, symSize: 0x28 }
  - { offsetInCU: 0x11668, offset: 0x448664, size: 0x8, addend: 0x0, symName: __ZN4rnv89V8Runtime11getPropertyERKN8facebook3jsi6ObjectERKNS2_10PropNameIDE, symObjAddr: 0x293C, symBinAddr: 0x5A520, symSize: 0x1B0 }
  - { offsetInCU: 0x11967, offset: 0x448963, size: 0x8, addend: 0x0, symName: __ZN4rnv89V8Runtime11getPropertyERKN8facebook3jsi6ObjectERKNS2_6StringE, symObjAddr: 0x2AEC, symBinAddr: 0x5A6D0, symSize: 0x1B0 }
  - { offsetInCU: 0x11C80, offset: 0x448C7C, size: 0x8, addend: 0x0, symName: __ZN4rnv89V8Runtime11hasPropertyERKN8facebook3jsi6ObjectERKNS2_10PropNameIDE, symObjAddr: 0x2C9C, symBinAddr: 0x5A880, symSize: 0x198 }
  - { offsetInCU: 0x11F13, offset: 0x448F0F, size: 0x8, addend: 0x0, symName: __ZN4rnv89V8Runtime11hasPropertyERKN8facebook3jsi6ObjectERKNS2_6StringE, symObjAddr: 0x2E34, symBinAddr: 0x5AA18, symSize: 0x198 }
  - { offsetInCU: 0x121A6, offset: 0x4491A2, size: 0x8, addend: 0x0, symName: __ZN4rnv89V8Runtime16setPropertyValueERN8facebook3jsi6ObjectERKNS2_10PropNameIDERKNS2_5ValueE, symObjAddr: 0x2FCC, symBinAddr: 0x5ABB0, symSize: 0x1A8 }
  - { offsetInCU: 0x12413, offset: 0x44940F, size: 0x8, addend: 0x0, symName: __ZN4rnv89V8Runtime16setPropertyValueERN8facebook3jsi6ObjectERKNS2_6StringERKNS2_5ValueE, symObjAddr: 0x3174, symBinAddr: 0x5AD58, symSize: 0x1A8 }
  - { offsetInCU: 0x12680, offset: 0x44967C, size: 0x8, addend: 0x0, symName: __ZNK4rnv89V8Runtime7isArrayERKN8facebook3jsi6ObjectE, symObjAddr: 0x331C, symBinAddr: 0x5AF00, symSize: 0x108 }
  - { offsetInCU: 0x128BD, offset: 0x4498B9, size: 0x8, addend: 0x0, symName: __ZNK4rnv89V8Runtime13isArrayBufferERKN8facebook3jsi6ObjectE, symObjAddr: 0x3424, symBinAddr: 0x5B008, symSize: 0x108 }
  - { offsetInCU: 0x12AFA, offset: 0x449AF6, size: 0x8, addend: 0x0, symName: __ZNK4rnv89V8Runtime10isFunctionERKN8facebook3jsi6ObjectE, symObjAddr: 0x352C, symBinAddr: 0x5B110, symSize: 0x108 }
  - { offsetInCU: 0x12D37, offset: 0x449D33, size: 0x8, addend: 0x0, symName: __ZNK4rnv89V8Runtime12isHostObjectERKN8facebook3jsi6ObjectE, symObjAddr: 0x3634, symBinAddr: 0x5B218, symSize: 0x110 }
  - { offsetInCU: 0x12F9E, offset: 0x449F9A, size: 0x8, addend: 0x0, symName: __ZNK4rnv89V8Runtime14isHostFunctionERKN8facebook3jsi8FunctionE, symObjAddr: 0x3744, symBinAddr: 0x5B328, symSize: 0x174 }
  - { offsetInCU: 0x13374, offset: 0x44A370, size: 0x8, addend: 0x0, symName: __ZN4rnv89V8Runtime16getPropertyNamesERKN8facebook3jsi6ObjectE, symObjAddr: 0x38B8, symBinAddr: 0x5B49C, symSize: 0x1E0 }
  - { offsetInCU: 0x13982, offset: 0x44A97E, size: 0x8, addend: 0x0, symName: __ZN4rnv89V8Runtime16createWeakObjectERKN8facebook3jsi6ObjectE, symObjAddr: 0x3A98, symBinAddr: 0x5B67C, symSize: 0x1C4 }
  - { offsetInCU: 0x13E7E, offset: 0x44AE7A, size: 0x8, addend: 0x0, symName: __ZN4rnv89V8Runtime14lockWeakObjectERN8facebook3jsi10WeakObjectE, symObjAddr: 0x3C5C, symBinAddr: 0x5B840, symSize: 0x160 }
  - { offsetInCU: 0x140D9, offset: 0x44B0D5, size: 0x8, addend: 0x0, symName: __ZN4rnv89V8Runtime11createArrayEm, symObjAddr: 0x3DBC, symBinAddr: 0x5B9A0, symSize: 0x1A4 }
  - { offsetInCU: 0x14515, offset: 0x44B511, size: 0x8, addend: 0x0, symName: __ZN4rnv89V8Runtime4sizeERKN8facebook3jsi5ArrayE, symObjAddr: 0x3F60, symBinAddr: 0x5BB44, symSize: 0x10C }
  - { offsetInCU: 0x14752, offset: 0x44B74E, size: 0x8, addend: 0x0, symName: __ZN4rnv89V8Runtime4sizeERKN8facebook3jsi11ArrayBufferE, symObjAddr: 0x406C, symBinAddr: 0x5BC50, symSize: 0x140 }
  - { offsetInCU: 0x149EB, offset: 0x44B9E7, size: 0x8, addend: 0x0, symName: __ZN4rnv89V8Runtime4dataERKN8facebook3jsi11ArrayBufferE, symObjAddr: 0x41AC, symBinAddr: 0x5BD90, symSize: 0x18C }
  - { offsetInCU: 0x14D73, offset: 0x44BD6F, size: 0x8, addend: 0x0, symName: __ZN4rnv89V8Runtime15getValueAtIndexERKN8facebook3jsi5ArrayEm, symObjAddr: 0x4338, symBinAddr: 0x5BF1C, symSize: 0x194 }
  - { offsetInCU: 0x14FE0, offset: 0x44BFDC, size: 0x8, addend: 0x0, symName: __ZN4rnv89V8Runtime19setValueAtIndexImplERN8facebook3jsi5ArrayEmRKNS2_5ValueE, symObjAddr: 0x44CC, symBinAddr: 0x5C0B0, symSize: 0x198 }
  - { offsetInCU: 0x153BA, offset: 0x44C3B6, size: 0x8, addend: 0x0, symName: __ZN4rnv89V8Runtime30createFunctionFromHostFunctionERKN8facebook3jsi10PropNameIDEjNSt3__18functionIFNS2_5ValueERNS2_7RuntimeERKS8_PSB_mEEE, symObjAddr: 0x4664, symBinAddr: 0x5C248, symSize: 0x2D8 }
  - { offsetInCU: 0x15E90, offset: 0x44CE8C, size: 0x8, addend: 0x0, symName: __ZN4rnv89V8Runtime30OnHostFuncionContainerCallbackERKN2v820FunctionCallbackInfoINS1_5ValueEEE, symObjAddr: 0x493C, symBinAddr: 0x5C520, symSize: 0x1D8 }
  - { offsetInCU: 0x16966, offset: 0x44D962, size: 0x8, addend: 0x0, symName: __ZN4rnv89V8Runtime4callERKN8facebook3jsi8FunctionERKNS2_5ValueEPS7_m, symObjAddr: 0x4B14, symBinAddr: 0x5C6F8, symSize: 0x324 }
  - { offsetInCU: 0x174AD, offset: 0x44E4A9, size: 0x8, addend: 0x0, symName: __ZN4rnv89V8Runtime17callAsConstructorERKN8facebook3jsi8FunctionEPKNS2_5ValueEm, symObjAddr: 0x4E38, symBinAddr: 0x5CA1C, symSize: 0x314 }
  - { offsetInCU: 0x17F18, offset: 0x44EF14, size: 0x8, addend: 0x0, symName: __ZNK4rnv89V8Runtime12strictEqualsERKN8facebook3jsi6SymbolES5_, symObjAddr: 0x514C, symBinAddr: 0x5CD30, symSize: 0x178 }
  - { offsetInCU: 0x181A6, offset: 0x44F1A2, size: 0x8, addend: 0x0, symName: __ZNK4rnv89V8Runtime12strictEqualsERKN8facebook3jsi6BigIntES5_, symObjAddr: 0x52C4, symBinAddr: 0x5CEA8, symSize: 0x178 }
  - { offsetInCU: 0x18470, offset: 0x44F46C, size: 0x8, addend: 0x0, symName: __ZNK4rnv89V8Runtime12strictEqualsERKN8facebook3jsi6StringES5_, symObjAddr: 0x543C, symBinAddr: 0x5D020, symSize: 0x178 }
  - { offsetInCU: 0x186FE, offset: 0x44F6FA, size: 0x8, addend: 0x0, symName: __ZNK4rnv89V8Runtime12strictEqualsERKN8facebook3jsi6ObjectES5_, symObjAddr: 0x55B4, symBinAddr: 0x5D198, symSize: 0x178 }
  - { offsetInCU: 0x1898C, offset: 0x44F988, size: 0x8, addend: 0x0, symName: __ZN4rnv89V8Runtime10instanceOfERKN8facebook3jsi6ObjectERKNS2_8FunctionE, symObjAddr: 0x572C, symBinAddr: 0x5D310, symSize: 0x1A8 }
  - { offsetInCU: 0x18C86, offset: 0x44FC82, size: 0x8, addend: 0x0, symName: __ZN4rnv89V8Runtime14GetRuntimeInfoERKN2v820FunctionCallbackInfoINS1_5ValueEEE, symObjAddr: 0x58D4, symBinAddr: 0x5D4B8, symSize: 0x2C4 }
  - { offsetInCU: 0x2F0D, offset: 0x453715, size: 0x8, addend: 0x0, symName: __ZN8facebook3jsi12_GLOBAL__N_119throwFormattedErrorEPKcz, symObjAddr: 0x1F4, symBinAddr: 0x5DA00, symSize: 0x198 }
  - { offsetInCU: 0x5303, offset: 0x455B0B, size: 0x8, addend: 0x0, symName: __ZN8facebook3jsi10FileBufferC2ERKNSt3__112basic_stringIcNS2_11char_traitsIcEENS2_9allocatorIcEEEE, symObjAddr: 0x0, symBinAddr: 0x5D818, symSize: 0x16C }
  - { offsetInCU: 0x5682, offset: 0x455E8A, size: 0x8, addend: 0x0, symName: __ZN8facebook3jsi10FileBufferC1ERKNSt3__112basic_stringIcNS2_11char_traitsIcEENS2_9allocatorIcEEEE, symObjAddr: 0x16C, symBinAddr: 0x5D984, symSize: 0x4 }
  - { offsetInCU: 0x56BC, offset: 0x455EC4, size: 0x8, addend: 0x0, symName: __ZN8facebook3jsi10FileBufferC1ERKNSt3__112basic_stringIcNS2_11char_traitsIcEENS2_9allocatorIcEEEE, symObjAddr: 0x16C, symBinAddr: 0x5D984, symSize: 0x4 }
  - { offsetInCU: 0x56C7, offset: 0x455ECF, size: 0x8, addend: 0x0, symName: __ZN8facebook3jsi10FileBufferD2Ev, symObjAddr: 0x170, symBinAddr: 0x5D988, symSize: 0x78 }
  - { offsetInCU: 0x5B14, offset: 0x45631C, size: 0x8, addend: 0x0, symName: __ZN8facebook3jsi10FileBufferD1Ev, symObjAddr: 0x38C, symBinAddr: 0x5DB98, symSize: 0x4 }
  - { offsetInCU: 0x5B36, offset: 0x45633E, size: 0x8, addend: 0x0, symName: __ZN8facebook3jsi10FileBufferD1Ev, symObjAddr: 0x38C, symBinAddr: 0x5DB98, symSize: 0x4 }
  - { offsetInCU: 0x5B60, offset: 0x456368, size: 0x8, addend: 0x0, symName: __ZN8facebook3jsi10FileBufferD0Ev, symObjAddr: 0x390, symBinAddr: 0x5DB9C, symSize: 0x14 }
  - { offsetInCU: 0x5BB4, offset: 0x4563BC, size: 0x8, addend: 0x0, symName: __ZNK8facebook3jsi10FileBuffer4sizeEv, symObjAddr: 0x3A4, symBinAddr: 0x5DBB0, symSize: 0x8 }
  - { offsetInCU: 0x5BDB, offset: 0x4563E3, size: 0x8, addend: 0x0, symName: __ZNK8facebook3jsi10FileBuffer4dataEv, symObjAddr: 0x3AC, symBinAddr: 0x5DBB8, symSize: 0x8 }
  - { offsetInCU: 0x52, offset: 0x45669F, size: 0x8, addend: 0x0, symName: __ZN3tns16ParametrizedCall11callsCache_E, symObjAddr: 0x16BE20, symBinAddr: 0x158D850, symSize: 0x0 }
  - { offsetInCU: 0xE3, offset: 0x456730, size: 0x8, addend: 0x0, symName: __ZN3tns7FFICall17structInfosCache_E, symObjAddr: 0x16BDD8, symBinAddr: 0x158D808, symSize: 0x0 }
  - { offsetInCU: 0x77E8, offset: 0x45DE35, size: 0x8, addend: 0x0, symName: __ZNSt3__119__allocate_at_leastB7v160006INS_9allocatorImEEEENS_19__allocation_resultINS_16allocator_traitsIT_E7pointerEEERS5_m, symObjAddr: 0x1CB8, symBinAddr: 0x5EEC4, symSize: 0x34 }
  - { offsetInCU: 0x8355, offset: 0x45E9A2, size: 0x8, addend: 0x0, symName: __ZNSt3__142__uninitialized_allocator_move_if_noexceptB7v160006INS_9allocatorIN3tns11StructFieldEEENS_16reverse_iteratorIPS3_EES7_S7_EET2_RT_T0_T1_S8_, symObjAddr: 0x288C, symBinAddr: 0x5F064, symSize: 0xB0 }
  - { offsetInCU: 0xA9C0, offset: 0x46100D, size: 0x8, addend: 0x0, symName: __ZNSt3__16vectorIN3tns11StructFieldENS_9allocatorIS2_EEE26__swap_out_circular_bufferERNS_14__split_bufferIS2_RS4_EE, symObjAddr: 0x2818, symBinAddr: 0x5EFF0, symSize: 0x74 }
  - { offsetInCU: 0xCB54, offset: 0x4631A1, size: 0x8, addend: 0x0, symName: __ZN3tns7FFICall15GetArgumentTypeEPKNS_12TypeEncodingEb, symObjAddr: 0x0, symBinAddr: 0x5DBC0, symSize: 0x3BC }
  - { offsetInCU: 0xDAB8, offset: 0x464105, size: 0x8, addend: 0x0, symName: __ZN3tns7FFICall13GetStructInfoEmPKNS_12TypeEncodingEPKNS_5PtrToIcEENSt3__112basic_stringIcNS8_11char_traitsIcEENS8_9allocatorIcEEEE, symObjAddr: 0x684, symBinAddr: 0x5E20C, symSize: 0x57C }
  - { offsetInCU: 0xF5BA, offset: 0x465C07, size: 0x8, addend: 0x0, symName: __ZN3tns7FFICall13GetStructInfoEPKNS_10StructMetaENSt3__112basic_stringIcNS4_11char_traitsIcEENS4_9allocatorIcEEEE, symObjAddr: 0x3BC, symBinAddr: 0x5DF7C, symSize: 0x290 }
  - { offsetInCU: 0x10F1E, offset: 0x46756B, size: 0x8, addend: 0x0, symName: __ZNK10robin_hood6detail5TableILb0ELm80ENSt3__112basic_stringIcNS2_11char_traitsIcEENS2_9allocatorIcEEEEN3tns10StructInfoENS_4hashIS8_vEENS2_8equal_toIS8_EEE7findIdxIS8_EEmRKT_, symObjAddr: 0x2590, symBinAddr: 0x5EEF8, symSize: 0xF8 }
  - { offsetInCU: 0x1121E, offset: 0x46786B, size: 0x8, addend: 0x0, symName: __ZNSt3__16vectorIN3tns11StructFieldENS_9allocatorIS2_EEE7reserveEm, symObjAddr: 0xED8, symBinAddr: 0x5E800, symSize: 0xB0 }
  - { offsetInCU: 0x113C2, offset: 0x467A0F, size: 0x8, addend: 0x0, symName: __ZNSt3__16vectorIN3tns11StructFieldENS_9allocatorIS2_EEE21__push_back_slow_pathIRKS2_EEvOT_, symObjAddr: 0x2A3C, symBinAddr: 0x5F214, symSize: 0x11C }
  - { offsetInCU: 0x116AA, offset: 0x467CF7, size: 0x8, addend: 0x0, symName: __ZN3tns10StructInfoC2ENSt3__112basic_stringIcNS1_11char_traitsIcEENS1_9allocatorIcEEEEP9_ffi_typeNS1_6vectorINS_11StructFieldENS5_ISB_EEEE, symObjAddr: 0x1964, symBinAddr: 0x5EBF0, symSize: 0x60 }
  - { offsetInCU: 0x11851, offset: 0x467E9E, size: 0x8, addend: 0x0, symName: __ZN10robin_hood6detail5TableILb0ELm80ENSt3__112basic_stringIcNS2_11char_traitsIcEENS2_9allocatorIcEEEEN3tns10StructInfoENS_4hashIS8_vEENS2_8equal_toIS8_EEE7emplaceIJRS8_RSA_EEENS2_4pairINSF_4IterILb0EEEbEEDpOT_, symObjAddr: 0xF88, symBinAddr: 0x5E8B0, symSize: 0xCC }
  - { offsetInCU: 0x11ACC, offset: 0x468119, size: 0x8, addend: 0x0, symName: __ZN3tns7FFICall14DisposeFFITypeEP9_ffi_typePKNS_12TypeEncodingE, symObjAddr: 0xC00, symBinAddr: 0x5E788, symSize: 0x78 }
  - { offsetInCU: 0x11D88, offset: 0x4683D5, size: 0x8, addend: 0x0, symName: __ZNSt3__114__split_bufferIN3tns11StructFieldERNS_9allocatorIS2_EEED2Ev, symObjAddr: 0x29B4, symBinAddr: 0x5F18C, symSize: 0x34 }
  - { offsetInCU: 0x11FEF, offset: 0x46863C, size: 0x8, addend: 0x0, symName: __ZN10robin_hood6detail5TableILb0ELm80ENSt3__112basic_stringIcNS2_11char_traitsIcEENS2_9allocatorIcEEEEN3tns10StructInfoENS_4hashIS8_vEENS2_8equal_toIS8_EEE8DataNodeISF_Lb0EEC2IJRS8_RSA_EEERSF_DpOT_, symObjAddr: 0x2D8C, symBinAddr: 0x5F564, symSize: 0x5C }
  - { offsetInCU: 0x120E9, offset: 0x468736, size: 0x8, addend: 0x0, symName: __ZN10robin_hood6detail5TableILb0ELm80ENSt3__112basic_stringIcNS2_11char_traitsIcEENS2_9allocatorIcEEEEN3tns10StructInfoENS_4hashIS8_vEENS2_8equal_toIS8_EEE25insertKeyPrepareEmptySpotIRKS8_EENS2_4pairImNSF_14InsertionStateEEEOT_, symObjAddr: 0x2B58, symBinAddr: 0x5F330, symSize: 0x180 }
  - { offsetInCU: 0x1225B, offset: 0x4688A8, size: 0x8, addend: 0x0, symName: __ZN10robin_hood6detail5TableILb0ELm80ENSt3__112basic_stringIcNS2_11char_traitsIcEENS2_9allocatorIcEEEEN3tns10StructInfoENS_4hashIS8_vEENS2_8equal_toIS8_EEE8DataNodeISF_Lb0EE7destroyERSF_, symObjAddr: 0x2CD8, symBinAddr: 0x5F4B0, symSize: 0x64 }
  - { offsetInCU: 0x1259A, offset: 0x468BE7, size: 0x8, addend: 0x0, symName: __ZNK10robin_hood6detail5TableILb0ELm80ENSt3__112basic_stringIcNS2_11char_traitsIcEENS2_9allocatorIcEEEEN3tns10StructInfoENS_4hashIS8_vEENS2_8equal_toIS8_EEE18throwOverflowErrorEv, symObjAddr: 0x2D3C, symBinAddr: 0x5F514, symSize: 0x50 }
  - { offsetInCU: 0x12626, offset: 0x468C73, size: 0x8, addend: 0x0, symName: __ZN3tns16ParametrizedCall3GetEPKNS_12TypeEncodingEii, symObjAddr: 0x1054, symBinAddr: 0x5E97C, symSize: 0x19C }
  - { offsetInCU: 0x129F2, offset: 0x46903F, size: 0x8, addend: 0x0, symName: __ZNK10robin_hood6detail5TableILb1ELm80EPKN3tns12TypeEncodingEPNS2_16ParametrizedCallENS_4hashIS5_vEENSt3__18equal_toIS5_EEE7findIdxIS5_EEmRKT_, symObjAddr: 0x3560, symBinAddr: 0x5FCEC, symSize: 0xD8 }
  - { offsetInCU: 0x12A4E, offset: 0x46909B, size: 0x8, addend: 0x0, symName: __ZNK10robin_hood6detail5TableILb1ELm80EPKN3tns12TypeEncodingEPNS2_16ParametrizedCallENS_4hashIS5_vEENSt3__18equal_toIS5_EEE7findIdxIS5_EEmRKT_, symObjAddr: 0x3560, symBinAddr: 0x5FCEC, symSize: 0xD8 }
  - { offsetInCU: 0x12BBB, offset: 0x469208, size: 0x8, addend: 0x0, symName: __ZN3tns16ParametrizedCallC2EP7ffi_cif, symObjAddr: 0x19C4, symBinAddr: 0x5EC50, symSize: 0x1CC }
  - { offsetInCU: 0x1327E, offset: 0x4698CB, size: 0x8, addend: 0x0, symName: __ZN10robin_hood6detail5TableILb1ELm80EPKN3tns12TypeEncodingEPNS2_16ParametrizedCallENS_4hashIS5_vEENSt3__18equal_toIS5_EEE7emplaceIJRS5_RS7_EEENSA_4pairINSD_4IterILb0EEEbEEDpOT_, symObjAddr: 0x11F0, symBinAddr: 0x5EB18, symSize: 0x94 }
  - { offsetInCU: 0x135FB, offset: 0x469C48, size: 0x8, addend: 0x0, symName: __ZN10robin_hood6detail5TableILb1ELm80EPKN3tns12TypeEncodingEPNS2_16ParametrizedCallENS_4hashIS5_vEENSt3__18equal_toIS5_EEE25insertKeyPrepareEmptySpotIRKS5_EENSA_4pairImNSD_14InsertionStateEEEOT_, symObjAddr: 0x3638, symBinAddr: 0x5FDC4, symSize: 0x194 }
  - { offsetInCU: 0x1379D, offset: 0x469DEA, size: 0x8, addend: 0x0, symName: __ZNK10robin_hood6detail5TableILb1ELm80EPKN3tns12TypeEncodingEPNS2_16ParametrizedCallENS_4hashIS5_vEENSt3__18equal_toIS5_EEE18throwOverflowErrorEv, symObjAddr: 0x37CC, symBinAddr: 0x5FF58, symSize: 0x50 }
  - { offsetInCU: 0x13830, offset: 0x469E7D, size: 0x8, addend: 0x0, symName: __ZN10robin_hood6detail5TableILb1ELm80EPKN3tns12TypeEncodingEPNS2_16ParametrizedCallENS_4hashIS5_vEENSt3__18equal_toIS5_EEED1Ev, symObjAddr: 0x1284, symBinAddr: 0x5EBAC, symSize: 0x40 }
  - { offsetInCU: 0x138B5, offset: 0x469F02, size: 0x8, addend: 0x0, symName: __ZN10robin_hood6detail5TableILb0ELm80ENSt3__112basic_stringIcNS2_11char_traitsIcEENS2_9allocatorIcEEEEN3tns10StructInfoENS_4hashIS8_vEENS2_8equal_toIS8_EEED1Ev, symObjAddr: 0x12C4, symBinAddr: 0x5EBEC, symSize: 0x4 }
  - { offsetInCU: 0x138E0, offset: 0x469F2D, size: 0x8, addend: 0x0, symName: __ZN10robin_hood6detail5TableILb0ELm80ENSt3__112basic_stringIcNS2_11char_traitsIcEENS2_9allocatorIcEEEEN3tns10StructInfoENS_4hashIS8_vEENS2_8equal_toIS8_EEED1Ev, symObjAddr: 0x12C4, symBinAddr: 0x5EBEC, symSize: 0x4 }
  - { offsetInCU: 0x138EB, offset: 0x469F38, size: 0x8, addend: 0x0, symName: __ZN10robin_hood6detail5TableILb0ELm80ENSt3__112basic_stringIcNS2_11char_traitsIcEENS2_9allocatorIcEEEEN3tns10StructInfoENS_4hashIS8_vEENS2_8equal_toIS8_EEED2Ev, symObjAddr: 0x3DC4, symBinAddr: 0x60550, symSize: 0x48 }
  - { offsetInCU: 0x13E91, offset: 0x46A4DE, size: 0x8, addend: 0x0, symName: __ZNSt3__16vectorImNS_9allocatorImEEE7reserveEm, symObjAddr: 0x1B90, symBinAddr: 0x5EE1C, symSize: 0x94 }
  - { offsetInCU: 0x1417D, offset: 0x46A7CA, size: 0x8, addend: 0x0, symName: __ZNKSt3__16vectorImNS_9allocatorImEEE20__throw_length_errorB7v160006Ev, symObjAddr: 0x1C30, symBinAddr: 0x5EEB0, symSize: 0x14 }
  - { offsetInCU: 0x15183, offset: 0x46B7D0, size: 0x8, addend: 0x0, symName: __ZNK10robin_hood6detail5TableILb0ELm80ENSt3__112basic_stringIcNS2_11char_traitsIcEENS2_9allocatorIcEEEEN3tns10StructInfoENS_4hashIS8_vEENS2_8equal_toIS8_EEE7findIdxIS8_EEmRKT_, symObjAddr: 0x2590, symBinAddr: 0x5EEF8, symSize: 0xF8 }
  - { offsetInCU: 0x155E3, offset: 0x46BC30, size: 0x8, addend: 0x0, symName: __ZNSt3__128__exception_guard_exceptionsINS_29_AllocatorDestroyRangeReverseINS_9allocatorIN3tns11StructFieldEEENS_16reverse_iteratorIPS4_EEEEED2B7v160006Ev, symObjAddr: 0x293C, symBinAddr: 0x5F114, symSize: 0x34 }
  - { offsetInCU: 0x1561C, offset: 0x46BC69, size: 0x8, addend: 0x0, symName: __ZNKSt3__129_AllocatorDestroyRangeReverseINS_9allocatorIN3tns11StructFieldEEENS_16reverse_iteratorIPS3_EEEclB7v160006Ev, symObjAddr: 0x2970, symBinAddr: 0x5F148, symSize: 0x44 }
  - { offsetInCU: 0x15869, offset: 0x46BEB6, size: 0x8, addend: 0x0, symName: __ZNSt3__114__split_bufferIN3tns11StructFieldERNS_9allocatorIS2_EEE17__destruct_at_endB7v160006EPS2_, symObjAddr: 0x29E8, symBinAddr: 0x5F1C0, symSize: 0x54 }
  - { offsetInCU: 0x15AC4, offset: 0x46C111, size: 0x8, addend: 0x0, symName: __ZN10robin_hood6detail5TableILb0ELm80ENSt3__112basic_stringIcNS2_11char_traitsIcEENS2_9allocatorIcEEEEN3tns10StructInfoENS_4hashIS8_vEENS2_8equal_toIS8_EEE13increase_sizeEv, symObjAddr: 0x2F64, symBinAddr: 0x5F714, symSize: 0x12C }
  - { offsetInCU: 0x15B8E, offset: 0x46C1DB, size: 0x8, addend: 0x0, symName: __ZN10robin_hood6detail5TableILb0ELm80ENSt3__112basic_stringIcNS2_11char_traitsIcEENS2_9allocatorIcEEEEN3tns10StructInfoENS_4hashIS8_vEENS2_8equal_toIS8_EEE7shiftUpEmm, symObjAddr: 0x3090, symBinAddr: 0x5F840, symSize: 0x94 }
  - { offsetInCU: 0x15CFB, offset: 0x46C348, size: 0x8, addend: 0x0, symName: __ZN10robin_hood6detail17BulkPoolAllocatorINS_4pairIKNSt3__112basic_stringIcNS3_11char_traitsIcEENS3_9allocatorIcEEEEN3tns10StructInfoEEELm4ELm16384EE17performAllocationEv, symObjAddr: 0x2DE8, symBinAddr: 0x5F5C0, symSize: 0x6C }
  - { offsetInCU: 0x15D9F, offset: 0x46C3EC, size: 0x8, addend: 0x0, symName: __ZN10robin_hood6detail17BulkPoolAllocatorINS_4pairIKNSt3__112basic_stringIcNS3_11char_traitsIcEENS3_9allocatorIcEEEEN3tns10StructInfoEEELm4ELm16384EE3addEPvm, symObjAddr: 0x2E54, symBinAddr: 0x5F62C, symSize: 0x60 }
  - { offsetInCU: 0x15DAB, offset: 0x46C3F8, size: 0x8, addend: 0x0, symName: __ZN10robin_hood4pairIKNSt3__112basic_stringIcNS1_11char_traitsIcEENS1_9allocatorIcEEEEN3tns10StructInfoEEC2IRS7_RSA_EEOT_OT0_, symObjAddr: 0x2EDC, symBinAddr: 0x5F68C, symSize: 0x88 }
  - { offsetInCU: 0x160F7, offset: 0x46C744, size: 0x8, addend: 0x0, symName: __ZN10robin_hood6detail17BulkPoolAllocatorINS_4pairIKNSt3__112basic_stringIcNS3_11char_traitsIcEENS3_9allocatorIcEEEEN3tns10StructInfoEEELm4ELm16384EE3addEPvm, symObjAddr: 0x2E54, symBinAddr: 0x5F62C, symSize: 0x60 }
  - { offsetInCU: 0x161E5, offset: 0x46C832, size: 0x8, addend: 0x0, symName: __ZN10robin_hood6detail5TableILb0ELm80ENSt3__112basic_stringIcNS2_11char_traitsIcEENS2_9allocatorIcEEEEN3tns10StructInfoENS_4hashIS8_vEENS2_8equal_toIS8_EEE17try_increase_infoEv, symObjAddr: 0x31F0, symBinAddr: 0x5F9A0, symSize: 0x100 }
  - { offsetInCU: 0x162EC, offset: 0x46C939, size: 0x8, addend: 0x0, symName: __ZN10robin_hood6detail5TableILb0ELm80ENSt3__112basic_stringIcNS2_11char_traitsIcEENS2_9allocatorIcEEEEN3tns10StructInfoENS_4hashIS8_vEENS2_8equal_toIS8_EEE8initDataEm, symObjAddr: 0x3124, symBinAddr: 0x5F8D4, symSize: 0xCC }
  - { offsetInCU: 0x16405, offset: 0x46CA52, size: 0x8, addend: 0x0, symName: __ZN10robin_hood6detail5TableILb0ELm80ENSt3__112basic_stringIcNS2_11char_traitsIcEENS2_9allocatorIcEEEEN3tns10StructInfoENS_4hashIS8_vEENS2_8equal_toIS8_EEE17try_increase_infoEv, symObjAddr: 0x31F0, symBinAddr: 0x5F9A0, symSize: 0x100 }
  - { offsetInCU: 0x16411, offset: 0x46CA5E, size: 0x8, addend: 0x0, symName: __ZN10robin_hood6detail5TableILb0ELm80ENSt3__112basic_stringIcNS2_11char_traitsIcEENS2_9allocatorIcEEEEN3tns10StructInfoENS_4hashIS8_vEENS2_8equal_toIS8_EEE16rehashPowerOfTwoEmb, symObjAddr: 0x32F0, symBinAddr: 0x5FAA0, symSize: 0x138 }
  - { offsetInCU: 0x16632, offset: 0x46CC7F, size: 0x8, addend: 0x0, symName: __ZN10robin_hood6detail5TableILb0ELm80ENSt3__112basic_stringIcNS2_11char_traitsIcEENS2_9allocatorIcEEEEN3tns10StructInfoENS_4hashIS8_vEENS2_8equal_toIS8_EEE11insert_moveEONSF_8DataNodeISF_Lb0EEE, symObjAddr: 0x3428, symBinAddr: 0x5FBD8, symSize: 0x114 }
  - { offsetInCU: 0x16877, offset: 0x46CEC4, size: 0x8, addend: 0x0, symName: __ZN10robin_hood6detail5TableILb1ELm80EPKN3tns12TypeEncodingEPNS2_16ParametrizedCallENS_4hashIS5_vEENSt3__18equal_toIS5_EEE13increase_sizeEv, symObjAddr: 0x381C, symBinAddr: 0x5FFA8, symSize: 0x12C }
  - { offsetInCU: 0x16941, offset: 0x46CF8E, size: 0x8, addend: 0x0, symName: __ZN10robin_hood6detail5TableILb1ELm80EPKN3tns12TypeEncodingEPNS2_16ParametrizedCallENS_4hashIS5_vEENSt3__18equal_toIS5_EEE7shiftUpEmm, symObjAddr: 0x3948, symBinAddr: 0x600D4, symSize: 0x98 }
  - { offsetInCU: 0x169CD, offset: 0x46D01A, size: 0x8, addend: 0x0, symName: __ZN10robin_hood6detail5TableILb1ELm80EPKN3tns12TypeEncodingEPNS2_16ParametrizedCallENS_4hashIS5_vEENSt3__18equal_toIS5_EEE17try_increase_infoEv, symObjAddr: 0x3AAC, symBinAddr: 0x60238, symSize: 0x100 }
  - { offsetInCU: 0x16AD4, offset: 0x46D121, size: 0x8, addend: 0x0, symName: __ZN10robin_hood6detail5TableILb1ELm80EPKN3tns12TypeEncodingEPNS2_16ParametrizedCallENS_4hashIS5_vEENSt3__18equal_toIS5_EEE8initDataEm, symObjAddr: 0x39E0, symBinAddr: 0x6016C, symSize: 0xCC }
  - { offsetInCU: 0x16BED, offset: 0x46D23A, size: 0x8, addend: 0x0, symName: __ZN10robin_hood6detail5TableILb1ELm80EPKN3tns12TypeEncodingEPNS2_16ParametrizedCallENS_4hashIS5_vEENSt3__18equal_toIS5_EEE17try_increase_infoEv, symObjAddr: 0x3AAC, symBinAddr: 0x60238, symSize: 0x100 }
