---
triple:          'x86_64-apple-darwin'
binary-path:     '/Users/teodordermendzhiev/Library/Developer/Xcode/DerivedData/v8ios-guuegdqojkhtxjgqgmysqgxkmdle/ArchiveIntermediates/NativeScript/InstallationBuildProductsLocation/Library/Frameworks/NativeScript.framework/NativeScript'
relocations:
  - { offsetInCU: 0x33, offset: 0x33, size: 0x8, addend: 0x0, symName: _NativeScriptVersionString, symObjAddr: 0x0, symBinAddr: 0xCB97A0, symSize: 0x0 }
  - { offsetInCU: 0x67, offset: 0x67, size: 0x8, addend: 0x0, symName: _NativeScriptVersionNumber, symObjAddr: 0x30, symBinAddr: 0xCB97D0, symSize: 0x0 }
  - { offsetInCU: 0x26, offset: 0xA2, size: 0x8, addend: 0x0, symName: __ZN3tns21OneByteStringResourceC2EPKcm, symObjAddr: 0x0, symBinAddr: 0x3C00, symSize: 0x20 }
  - { offsetInCU: 0xD52B, offset: 0xD5A7, size: 0x8, addend: 0x0, symName: __ZN3tns21OneByteStringResourceC2EPKcm, symObjAddr: 0x0, symBinAddr: 0x3C00, symSize: 0x20 }
  - { offsetInCU: 0xD5A9, offset: 0xD625, size: 0x8, addend: 0x0, symName: __ZN3tns21OneByteStringResourceC1EPKcm, symObjAddr: 0x20, symBinAddr: 0x3C20, symSize: 0x20 }
  - { offsetInCU: 0xD636, offset: 0xD6B2, size: 0x8, addend: 0x0, symName: __ZN3tns21OneByteStringResourceD2Ev, symObjAddr: 0x40, symBinAddr: 0x3C40, symSize: 0x20 }
  - { offsetInCU: 0xD672, offset: 0xD6EE, size: 0x8, addend: 0x0, symName: __ZN3tns21OneByteStringResourceD1Ev, symObjAddr: 0x60, symBinAddr: 0x3C60, symSize: 0x20 }
  - { offsetInCU: 0xD6CE, offset: 0xD74A, size: 0x8, addend: 0x0, symName: __ZN3tns21OneByteStringResourceD0Ev, symObjAddr: 0x80, symBinAddr: 0x3C80, symSize: 0x30 }
  - { offsetInCU: 0xD738, offset: 0xD7B4, size: 0x8, addend: 0x0, symName: __ZNK3tns21OneByteStringResource4dataEv, symObjAddr: 0xB0, symBinAddr: 0x3CB0, symSize: 0xA }
  - { offsetInCU: 0xD75F, offset: 0xD7DB, size: 0x8, addend: 0x0, symName: __ZNK3tns21OneByteStringResource6lengthEv, symObjAddr: 0xBA, symBinAddr: 0x3CBA, symSize: 0xA }
  - { offsetInCU: 0xD786, offset: 0xD802, size: 0x8, addend: 0x0, symName: __ZNK2v86String26ExternalStringResourceBase11IsCacheableEv, symObjAddr: 0xC4, symBinAddr: 0x3CC4, symSize: 0x8 }
  - { offsetInCU: 0xD7AB, offset: 0xD827, size: 0x8, addend: 0x0, symName: __ZN2v86String26ExternalStringResourceBase7DisposeEv, symObjAddr: 0xCC, symBinAddr: 0x3CCC, symSize: 0x12 }
  - { offsetInCU: 0xD7DC, offset: 0xD858, size: 0x8, addend: 0x0, symName: __ZNK2v86String26ExternalStringResourceBase4LockEv, symObjAddr: 0xDE, symBinAddr: 0x3CDE, symSize: 0x6 }
  - { offsetInCU: 0xD801, offset: 0xD87D, size: 0x8, addend: 0x0, symName: __ZNK2v86String26ExternalStringResourceBase6UnlockEv, symObjAddr: 0xE4, symBinAddr: 0x3CE4, symSize: 0x6 }
  - { offsetInCU: 0xE894, offset: 0x1C13F, size: 0x8, addend: 0x0, symName: __ZN4rnv819JSIV8ValueConverter10ToJSIValueEPN2v87IsolateERKNS1_5LocalINS1_5ValueEEE, symObjAddr: 0x0, symBinAddr: 0x3CF0, symSize: 0x1CE }
  - { offsetInCU: 0xF044, offset: 0x1C8EF, size: 0x8, addend: 0x0, symName: __ZN4rnv819JSIV8ValueConverter9ToV8ValueERKNS_9V8RuntimeERKN8facebook3jsi5ValueE, symObjAddr: 0x1CE, symBinAddr: 0x3EBE, symSize: 0x19E }
  - { offsetInCU: 0xF403, offset: 0x1CCAE, size: 0x8, addend: 0x0, symName: __ZNKR8facebook3jsi5Value9getStringERNS0_7RuntimeE, symObjAddr: 0x41C, symBinAddr: 0x410C, symSize: 0x30 }
  - { offsetInCU: 0xF4E2, offset: 0x1CD8D, size: 0x8, addend: 0x0, symName: __ZN4rnv819JSIV8ValueConverter10ToV8StringERKNS_9V8RuntimeERKN8facebook3jsi6StringE, symObjAddr: 0x36C, symBinAddr: 0x405C, symSize: 0xB0 }
  - { offsetInCU: 0xF7A9, offset: 0x1D054, size: 0x8, addend: 0x0, symName: __ZN4rnv819JSIV8ValueConverter10ToV8ObjectERKNS_9V8RuntimeERKN8facebook3jsi6ObjectE, symObjAddr: 0x44C, symBinAddr: 0x413C, symSize: 0xA0 }
  - { offsetInCU: 0xF95A, offset: 0x1D205, size: 0x8, addend: 0x0, symName: __ZNKR8facebook3jsi5Value9getStringERNS0_7RuntimeE.cold.1, symObjAddr: 0xACD, symBinAddr: 0xCB5BCD, symSize: 0x23 }
  - { offsetInCU: 0xF9D3, offset: 0x1D27E, size: 0x8, addend: 0x0, symName: __ZN4rnv819JSIV8ValueConverter10ToV8StringERKNS_9V8RuntimeERKN8facebook3jsi10PropNameIDE, symObjAddr: 0x51C, symBinAddr: 0x41DC, symSize: 0xB0 }
  - { offsetInCU: 0xFC4E, offset: 0x1D4F9, size: 0x8, addend: 0x0, symName: __ZN4rnv819JSIV8ValueConverter10ToV8StringERKNS_9V8RuntimeERKNSt3__110shared_ptrIKN8facebook3jsi6BufferEEE, symObjAddr: 0x5CC, symBinAddr: 0x428C, symSize: 0x82 }
  - { offsetInCU: 0xFE04, offset: 0x1D6AF, size: 0x8, addend: 0x0, symName: __ZN4rnv819JSIV8ValueConverter10ToV8SymbolERKNS_9V8RuntimeERKN8facebook3jsi6SymbolE, symObjAddr: 0x64E, symBinAddr: 0x430E, symSize: 0xA0 }
  - { offsetInCU: 0xFF5C, offset: 0x1D807, size: 0x8, addend: 0x0, symName: __ZN4rnv819JSIV8ValueConverter9ToV8ArrayERKNS_9V8RuntimeERKN8facebook3jsi5ArrayE, symObjAddr: 0x6EE, symBinAddr: 0x43AE, symSize: 0xA0 }
  - { offsetInCU: 0x100B4, offset: 0x1D95F, size: 0x8, addend: 0x0, symName: __ZN4rnv819JSIV8ValueConverter12ToV8FunctionERKNS_9V8RuntimeERKN8facebook3jsi8FunctionE, symObjAddr: 0x78E, symBinAddr: 0x444E, symSize: 0xA0 }
  - { offsetInCU: 0x1028A, offset: 0x1DB35, size: 0x8, addend: 0x0, symName: __ZN4rnv819JSIV8ValueConverter15ToJSIPropNameIDERKNS_9V8RuntimeERKN2v85LocalINS4_4NameEEE, symObjAddr: 0x82E, symBinAddr: 0x44EE, symSize: 0x86 }
  - { offsetInCU: 0x1044E, offset: 0x1DCF9, size: 0x8, addend: 0x0, symName: __ZN4rnv819JSIV8ValueConverter11ToSTLStringERKN2v86String9Utf8ValueE, symObjAddr: 0x8B4, symBinAddr: 0x4574, symSize: 0x3A }
  - { offsetInCU: 0x10797, offset: 0x1E042, size: 0x8, addend: 0x0, symName: __ZN4rnv819JSIV8ValueConverter11ToSTLStringEPN2v87IsolateERKNS1_5LocalINS1_5ValueEEE, symObjAddr: 0x8EE, symBinAddr: 0x45AE, symSize: 0xE2 }
  - { offsetInCU: 0x26, offset: 0x1E583, size: 0x8, addend: 0x0, symName: __ZN3tns7WeakRef4InitEN2v85LocalINS1_7ContextEEE, symObjAddr: 0x0, symBinAddr: 0x469C, symSize: 0x132 }
  - { offsetInCU: 0xCE5E, offset: 0x2B3BB, size: 0x8, addend: 0x0, symName: __ZN3tns7WeakRef4InitEN2v85LocalINS1_7ContextEEE, symObjAddr: 0x0, symBinAddr: 0x469C, symSize: 0x132 }
  - { offsetInCU: 0x26, offset: 0x2BFFE, size: 0x8, addend: 0x0, symName: __ZN3tns9ExtVector11NewInstanceEPN2v87IsolateEPvP9_ffi_typePKNS_12TypeEncodingES9_, symObjAddr: 0x0, symBinAddr: 0x47CE, symSize: 0x1F2 }
  - { offsetInCU: 0x6053, offset: 0x3202B, size: 0x8, addend: 0x0, symName: __ZN3tns9ExtVector11NewInstanceEPN2v87IsolateEPvP9_ffi_typePKNS_12TypeEncodingES9_, symObjAddr: 0x0, symBinAddr: 0x47CE, symSize: 0x1F2 }
  - { offsetInCU: 0x68AC, offset: 0x32884, size: 0x8, addend: 0x0, symName: __ZN3tns9ExtVector22RegisterToStringMethodEPN2v87IsolateENS1_5LocalINS1_14ObjectTemplateEEE, symObjAddr: 0x40E, symBinAddr: 0x4BDC, symSize: 0xDA }
  - { offsetInCU: 0x6E39, offset: 0x32E11, size: 0x8, addend: 0x0, symName: __ZN3tns9ExtVector26IndexedPropertyGetCallbackEjRKN2v820PropertyCallbackInfoINS1_5ValueEEE, symObjAddr: 0x1F2, symBinAddr: 0x49C0, symSize: 0x124 }
  - { offsetInCU: 0x73D5, offset: 0x333AD, size: 0x8, addend: 0x0, symName: __ZN3tns9ExtVector26IndexedPropertySetCallbackEjN2v85LocalINS1_5ValueEEERKNS1_20PropertyCallbackInfoIS3_EE, symObjAddr: 0x316, symBinAddr: 0x4AE4, symSize: 0xF8 }
  - { offsetInCU: 0x784E, offset: 0x33826, size: 0x8, addend: 0x0, symName: __ZN3tns16ExtVectorWrapperD1Ev, symObjAddr: 0x4E8, symBinAddr: 0x4CB6, symSize: 0x6 }
  - { offsetInCU: 0x787A, offset: 0x33852, size: 0x8, addend: 0x0, symName: __ZN3tns16ExtVectorWrapperD0Ev, symObjAddr: 0x4EE, symBinAddr: 0x4CBC, symSize: 0xA }
  - { offsetInCU: 0x78A6, offset: 0x3387E, size: 0x8, addend: 0x0, symName: __ZN3tns16ExtVectorWrapper4TypeEv, symObjAddr: 0x4F8, symBinAddr: 0x4CC6, symSize: 0xC }
  - { offsetInCU: 0x7AF2, offset: 0x33ACA, size: 0x8, addend: 0x0, symName: '__ZZN3tns9ExtVector22RegisterToStringMethodEPN2v87IsolateENS1_5LocalINS1_14ObjectTemplateEEEEN3$_08__invokeERKNS1_20FunctionCallbackInfoINS1_5ValueEEE', symObjAddr: 0x504, symBinAddr: 0x4CD2, symSize: 0x150 }
  - { offsetInCU: 0x59, offset: 0x34351, size: 0x8, addend: 0x0, symName: __ZN3tnsL12NSTimerClassE, symObjAddr: 0x1E0970, symBinAddr: 0x16AA140, symSize: 0x0 }
  - { offsetInCU: 0x14018, offset: 0x48310, size: 0x8, addend: 0x0, symName: __ZNSt3__115allocate_sharedB7v160006IN2v810PersistentINS1_5ValueENS1_27NonCopyablePersistentTraitsIS3_EEEENS_9allocatorIS6_EEJRPNS1_7IsolateERKNS1_5LocalIS3_EEEvEENS_10shared_ptrIT_EERKT0_DpOT1_, symObjAddr: 0x1C62, symBinAddr: 0x5F02, symSize: 0x5C }
  - { offsetInCU: 0x1460E, offset: 0x48906, size: 0x8, addend: 0x0, symName: __ZNSt3__130__uninitialized_allocator_copyB7v160006INS_9allocatorIN3tns11StructFieldEEEPS3_S5_S5_EET2_RT_T0_T1_S6_, symObjAddr: 0x1421, symBinAddr: 0x5DE1, symSize: 0x9D }
  - { offsetInCU: 0x1FF53, offset: 0x5424B, size: 0x8, addend: 0x0, symName: __ZN3tns13ObjectManager4InitEPN2v87IsolateENS1_5LocalINS1_14ObjectTemplateEEE, symObjAddr: 0x0, symBinAddr: 0x4E30, symSize: 0xD6 }
  - { offsetInCU: 0x20512, offset: 0x5480A, size: 0x8, addend: 0x0, symName: __ZNSt3__115allocate_sharedB7v160006IN2v810PersistentINS1_5ValueENS1_27NonCopyablePersistentTraitsIS3_EEEENS_9allocatorIS6_EEJRPNS1_7IsolateERKNS1_5LocalIS3_EEEvEENS_10shared_ptrIT_EERKT0_DpOT1_, symObjAddr: 0x1C62, symBinAddr: 0x5F02, symSize: 0x5C }
  - { offsetInCU: 0x2090A, offset: 0x54C02, size: 0x8, addend: 0x0, symName: __ZN3tns13ObjectManager32ReleaseNativeCounterpartCallbackERKN2v820FunctionCallbackInfoINS1_5ValueEEE, symObjAddr: 0xD6, symBinAddr: 0x4F06, symSize: 0x4AA }
  - { offsetInCU: 0x21C87, offset: 0x55F7F, size: 0x8, addend: 0x0, symName: __ZNSt3__119basic_ostringstreamIcNS_11char_traitsIcEENS_9allocatorIcEEEC1B7v160006Ev, symObjAddr: 0xE70, symBinAddr: 0x5C30, symSize: 0xC4 }
  - { offsetInCU: 0x21F5A, offset: 0x56252, size: 0x8, addend: 0x0, symName: __ZN10robin_hood6detail5TableILb1ELm80EP11objc_objectNSt3__110shared_ptrIN2v810PersistentINS6_5ValueENS6_27NonCopyablePersistentTraitsIS8_EEEEEENS_4hashIS3_vEENS4_8equal_toIS3_EEE5eraseENSH_4IterILb0EEE, symObjAddr: 0x105E, symBinAddr: 0x5CFE, symSize: 0x8C }
  - { offsetInCU: 0x22278, offset: 0x56570, size: 0x8, addend: 0x0, symName: __ZN3tns13ObjectManager8RegisterEN2v85LocalINS1_7ContextEEENS2_INS1_5ValueEEE, symObjAddr: 0x580, symBinAddr: 0x53B0, symSize: 0xDE }
  - { offsetInCU: 0x226DD, offset: 0x569D5, size: 0x8, addend: 0x0, symName: __ZN3tns13ObjectManager17FinalizerCallbackERKN2v816WeakCallbackInfoINS_23ObjectWeakCallbackStateEEE, symObjAddr: 0x65E, symBinAddr: 0x548E, symSize: 0x88 }
  - { offsetInCU: 0x2297B, offset: 0x56C73, size: 0x8, addend: 0x0, symName: __ZN3tns13ObjectManager12DisposeValueEPN2v87IsolateENS1_5LocalINS1_5ValueEEEb, symObjAddr: 0x6E6, symBinAddr: 0x5516, symSize: 0x4F6 }
  - { offsetInCU: 0x24170, offset: 0x58468, size: 0x8, addend: 0x0, symName: __ZN10robin_hood6detail5TableILb1ELm80EP11objc_objectNSt3__110shared_ptrIN2v810PersistentINS6_5ValueENS6_27NonCopyablePersistentTraitsIS8_EEEEEENS_4hashIS3_vEENS4_8equal_toIS3_EEE5eraseERKS3_, symObjAddr: 0xD10, symBinAddr: 0x5AD0, symSize: 0xB0 }
  - { offsetInCU: 0x24298, offset: 0x58590, size: 0x8, addend: 0x0, symName: __ZN10robin_hood6detail5TableILb1ELm80EPKvNSt3__110shared_ptrIN2v810PersistentINS6_6ObjectENS6_27NonCopyablePersistentTraitsIS8_EEEEEENS_4hashIS3_vEENS4_8equal_toIS3_EEE5eraseERKS3_, symObjAddr: 0xDC0, symBinAddr: 0x5B80, symSize: 0xB0 }
  - { offsetInCU: 0x245C1, offset: 0x588B9, size: 0x8, addend: 0x0, symName: __ZN10robin_hood6detail5TableILb1ELm80ENSt3__14pairIPvNS2_12basic_stringIcNS2_11char_traitsIcEENS2_9allocatorIcEEEEEENS2_10shared_ptrIN2v810PersistentINSD_5ValueENSD_27NonCopyablePersistentTraitsISF_EEEEEEN3tns9pair_hashENS2_8equal_toISB_EEE5eraseERKSB_, symObjAddr: 0xC5A, symBinAddr: 0x5A1A, symSize: 0xB6 }
  - { offsetInCU: 0x24997, offset: 0x58C8F, size: 0x8, addend: 0x0, symName: __ZNK3tns9pair_hashclIPvNSt3__112basic_stringIcNS3_11char_traitsIcEENS3_9allocatorIcEEEEEEmRKNS3_4pairIT_T0_EE, symObjAddr: 0x1EEC, symBinAddr: 0x615C, symSize: 0x5C }
  - { offsetInCU: 0x24AD6, offset: 0x58DCE, size: 0x8, addend: 0x0, symName: __ZNKSt3__18equal_toINS_4pairIPvNS_12basic_stringIcNS_11char_traitsIcEENS_9allocatorIcEEEEEEEclB7v160006ERKS9_SC_, symObjAddr: 0x1D62, symBinAddr: 0x5FD2, symSize: 0xA6 }
  - { offsetInCU: 0x24C78, offset: 0x58F70, size: 0x8, addend: 0x0, symName: __ZN10robin_hood6detail5TableILb1ELm80ENSt3__14pairIPvNS2_12basic_stringIcNS2_11char_traitsIcEENS2_9allocatorIcEEEEEENS2_10shared_ptrIN2v810PersistentINSD_5ValueENSD_27NonCopyablePersistentTraitsISF_EEEEEEN3tns9pair_hashENS2_8equal_toISB_EEE9shiftDownEm, symObjAddr: 0x1E08, symBinAddr: 0x6078, symSize: 0xE4 }
  - { offsetInCU: 0x250AC, offset: 0x593A4, size: 0x8, addend: 0x0, symName: __ZN10robin_hood6detail5TableILb1ELm80EP11objc_objectNSt3__110shared_ptrIN2v810PersistentINS6_5ValueENS6_27NonCopyablePersistentTraitsIS8_EEEEEENS_4hashIS3_vEENS4_8equal_toIS3_EEE9shiftDownEm, symObjAddr: 0x24A0, symBinAddr: 0x66D0, symSize: 0x8E }
  - { offsetInCU: 0x252A0, offset: 0x59598, size: 0x8, addend: 0x0, symName: __ZN10robin_hood6detail5TableILb1ELm80EPKvNSt3__110shared_ptrIN2v810PersistentINS6_6ObjectENS6_27NonCopyablePersistentTraitsIS8_EEEEEENS_4hashIS3_vEENS4_8equal_toIS3_EEE9shiftDownEm, symObjAddr: 0x252E, symBinAddr: 0x675E, symSize: 0x8E }
  - { offsetInCU: 0x257F4, offset: 0x59AEC, size: 0x8, addend: 0x0, symName: __ZN3tns13ObjectManager12IsInstanceOfEP11objc_objectP10objc_class, symObjAddr: 0x10EA, symBinAddr: 0x5D8A, symSize: 0x16 }
  - { offsetInCU: 0x25846, offset: 0x59B3E, size: 0x8, addend: 0x0, symName: __ZN3tns13ObjectManager14GetRetainCountEP11objc_object, symObjAddr: 0x1100, symBinAddr: 0x5DA0, symSize: 0x3D }
  - { offsetInCU: 0x264A9, offset: 0x5A7A1, size: 0x8, addend: 0x0, symName: __ZNSt3__119basic_ostringstreamIcNS_11char_traitsIcEENS_9allocatorIcEEED0Ev, symObjAddr: 0x164E, symBinAddr: 0x5E7E, symSize: 0x7E }
  - { offsetInCU: 0x26B59, offset: 0x5AE51, size: 0x8, addend: 0x0, symName: __ZNSt3__120__shared_ptr_emplaceIN2v810PersistentINS1_5ValueENS1_27NonCopyablePersistentTraitsIS3_EEEENS_9allocatorIS6_EEEC2B7v160006IJRPNS1_7IsolateERKNS1_5LocalIS3_EEEEES8_DpOT_, symObjAddr: 0x1CBE, symBinAddr: 0x5F5E, symSize: 0x52 }
  - { offsetInCU: 0x26DAA, offset: 0x5B0A2, size: 0x8, addend: 0x0, symName: __ZNSt3__120__shared_ptr_emplaceIN2v810PersistentINS1_5ValueENS1_27NonCopyablePersistentTraitsIS3_EEEENS_9allocatorIS6_EEED1Ev, symObjAddr: 0x1D10, symBinAddr: 0x5FB0, symSize: 0x18 }
  - { offsetInCU: 0x271D5, offset: 0x5B4CD, size: 0x8, addend: 0x0, symName: __ZNKSt3__113__string_hashIcNS_9allocatorIcEEEclERKNS_12basic_stringIcNS_11char_traitsIcEES2_EE, symObjAddr: 0x1F48, symBinAddr: 0x61B8, symSize: 0x38 }
  - { offsetInCU: 0x2729A, offset: 0x5B592, size: 0x8, addend: 0x0, symName: __ZNSt3__121__murmur2_or_cityhashImLm64EEclEPKvm, symObjAddr: 0x1F80, symBinAddr: 0x61F0, symSize: 0x288 }
  - { offsetInCU: 0x27A02, offset: 0x5BCFA, size: 0x8, addend: 0x0, symName: __ZNSt3__121__murmur2_or_cityhashImLm64EE18__hash_len_0_to_16EPKcm, symObjAddr: 0x2208, symBinAddr: 0x6478, symSize: 0xE2 }
  - { offsetInCU: 0x27BB4, offset: 0x5BEAC, size: 0x8, addend: 0x0, symName: __ZNSt3__121__murmur2_or_cityhashImLm64EE19__hash_len_17_to_32EPKcm, symObjAddr: 0x22EA, symBinAddr: 0x655A, symSize: 0x94 }
  - { offsetInCU: 0x27D08, offset: 0x5C000, size: 0x8, addend: 0x0, symName: __ZNSt3__121__murmur2_or_cityhashImLm64EE19__hash_len_33_to_64EPKcm, symObjAddr: 0x237E, symBinAddr: 0x65EE, symSize: 0xD8 }
  - { offsetInCU: 0x28567, offset: 0x5C85F, size: 0x8, addend: 0x0, symName: __ZNSt3__112basic_stringIcNS_11char_traitsIcEENS_9allocatorIcEEEC2B7v160006Emc, symObjAddr: 0x28A0, symBinAddr: 0x67F0, symSize: 0x78 }
  - { offsetInCU: 0x53, offset: 0x5CEAB, size: 0x8, addend: 0x0, symName: __ZN12v8_inspector19JsV8InspectorClient7DomainsE, symObjAddr: 0x875440, symBinAddr: 0x16C0D00, symSize: 0x0 }
  - { offsetInCU: 0x8D0E7, offset: 0xE9F3F, size: 0x8, addend: 0x0, symName: ____ZN12v8_inspector19JsV8InspectorClient15enableInspectorEiPPc_block_invoke_4, symObjAddr: 0x509, symBinAddr: 0x6D99, symSize: 0x1A5 }
  - { offsetInCU: 0x8DB2E, offset: 0xEA986, size: 0x8, addend: 0x0, symName: __ZN12v8_inspector19JsV8InspectorClient25onFrontendMessageReceivedENSt3__112basic_stringIcNS1_11char_traitsIcEENS1_9allocatorIcEEEE, symObjAddr: 0xA88, symBinAddr: 0x7318, symSize: 0x1A2 }
  - { offsetInCU: 0x9078A, offset: 0xED5E2, size: 0x8, addend: 0x0, symName: __ZN12v8_inspector19JsV8InspectorClientC2EPN3tns7RuntimeE, symObjAddr: 0x0, symBinAddr: 0x6890, symSize: 0xD6 }
  - { offsetInCU: 0x90A55, offset: 0xED8AD, size: 0x8, addend: 0x0, symName: __ZN12v8_inspector19JsV8InspectorClientC2EPN3tns7RuntimeE.cold.1, symObjAddr: 0x4AC8, symBinAddr: 0xCB5BF8, symSize: 0x1C }
  - { offsetInCU: 0x90AE0, offset: 0xED938, size: 0x8, addend: 0x0, symName: __ZN12v8_inspector19JsV8InspectorClientC1EPN3tns7RuntimeE, symObjAddr: 0xD6, symBinAddr: 0x6966, symSize: 0xA }
  - { offsetInCU: 0x90B27, offset: 0xED97F, size: 0x8, addend: 0x0, symName: __ZN12v8_inspector19JsV8InspectorClient15enableInspectorEiPPc, symObjAddr: 0xE0, symBinAddr: 0x6970, symSize: 0x302 }
  - { offsetInCU: 0x90E43, offset: 0xEDC9B, size: 0x8, addend: 0x0, symName: ____ZN12v8_inspector19JsV8InspectorClient15enableInspectorEiPPc_block_invoke, symObjAddr: 0x3E2, symBinAddr: 0x6C72, symSize: 0xC9 }
  - { offsetInCU: 0x91009, offset: 0xEDE61, size: 0x8, addend: 0x0, symName: ____ZN12v8_inspector19JsV8InspectorClient15enableInspectorEiPPc_block_invoke_2, symObjAddr: 0x4AB, symBinAddr: 0x6D3B, symSize: 0x28 }
  - { offsetInCU: 0x91042, offset: 0xEDE9A, size: 0x8, addend: 0x0, symName: ____ZN12v8_inspector19JsV8InspectorClient15enableInspectorEiPPc_block_invoke_3, symObjAddr: 0x4D3, symBinAddr: 0x6D63, symSize: 0x36 }
  - { offsetInCU: 0x917C4, offset: 0xEE61C, size: 0x8, addend: 0x0, symName: ____ZN12v8_inspector19JsV8InspectorClient15enableInspectorEiPPc_block_invoke_4.cold.1, symObjAddr: 0x4AE4, symBinAddr: 0xCB5C14, symSize: 0x27 }
  - { offsetInCU: 0x91836, offset: 0xEE68E, size: 0x8, addend: 0x0, symName: __ZN12v8_inspector19JsV8InspectorClient19onFrontendConnectedENSt3__18functionIFvNS1_12basic_stringIcNS1_11char_traitsIcEENS1_9allocatorIcEEEEEEE, symObjAddr: 0x6AE, symBinAddr: 0x6F3E, symSize: 0x9C }
  - { offsetInCU: 0x918D4, offset: 0xEE72C, size: 0x8, addend: 0x0, symName: __ZNSt3__18functionIFvNS_12basic_stringIcNS_11char_traitsIcEENS_9allocatorIcEEEEEEaSERKS8_, symObjAddr: 0x952, symBinAddr: 0x71E2, symSize: 0x78 }
  - { offsetInCU: 0x91A5A, offset: 0xEE8B2, size: 0x8, addend: 0x0, symName: __ZN12v8_inspector19JsV8InspectorClient10disconnectEv, symObjAddr: 0x9CA, symBinAddr: 0x725A, symSize: 0xBE }
  - { offsetInCU: 0x91C33, offset: 0xEEA8B, size: 0x8, addend: 0x0, symName: ____ZN12v8_inspector19JsV8InspectorClient19onFrontendConnectedENSt3__18functionIFvNS1_12basic_stringIcNS1_11char_traitsIcEENS1_9allocatorIcEEEEEEE_block_invoke, symObjAddr: 0x74A, symBinAddr: 0x6FDA, symSize: 0x32 }
  - { offsetInCU: 0x91C7A, offset: 0xEEAD2, size: 0x8, addend: 0x0, symName: __ZN12v8_inspector19JsV8InspectorClient13scheduleBreakEv, symObjAddr: 0x77C, symBinAddr: 0x700C, symSize: 0x1D6 }
  - { offsetInCU: 0x929D0, offset: 0xEF828, size: 0x8, addend: 0x0, symName: __ZNSt3__110__function12__value_funcIFvNS_12basic_stringIcNS_11char_traitsIcEENS_9allocatorIcEEEEEEC2B7v160006ERKS9_, symObjAddr: 0x36D8, symBinAddr: 0x9C48, symSize: 0x4C }
  - { offsetInCU: 0x92A14, offset: 0xEF86C, size: 0x8, addend: 0x0, symName: __ZNSt3__110__function12__value_funcIFvNS_12basic_stringIcNS_11char_traitsIcEENS_9allocatorIcEEEEEE4swapB7v160006ERS9_, symObjAddr: 0x386A, symBinAddr: 0x9DDA, symSize: 0x114 }
  - { offsetInCU: 0x92B1F, offset: 0xEF977, size: 0x8, addend: 0x0, symName: __ZN12v8_inspector19JsV8InspectorClient22createInspectorSessionEv, symObjAddr: 0xDF6, symBinAddr: 0x7686, symSize: 0x84 }
  - { offsetInCU: 0x93265, offset: 0xF00BD, size: 0x8, addend: 0x0, symName: ____ZN12v8_inspector19JsV8InspectorClient25onFrontendMessageReceivedENSt3__112basic_stringIcNS1_11char_traitsIcEENS1_9allocatorIcEEEE_block_invoke, symObjAddr: 0xC2A, symBinAddr: 0x74BA, symSize: 0x2C }
  - { offsetInCU: 0x933F5, offset: 0xF024D, size: 0x8, addend: 0x0, symName: ___copy_helper_block_e8_40c66_ZTSNSt3__112basic_stringIcNS_11char_traitsIcEENS_9allocatorIcEEEE, symObjAddr: 0xC56, symBinAddr: 0x74E6, symSize: 0x12 }
  - { offsetInCU: 0x9341E, offset: 0xF0276, size: 0x8, addend: 0x0, symName: ___destroy_helper_block_e8_40c66_ZTSNSt3__112basic_stringIcNS_11char_traitsIcEENS_9allocatorIcEEEE, symObjAddr: 0xC68, symBinAddr: 0x74F8, symSize: 0x16 }
  - { offsetInCU: 0x93779, offset: 0xF05D1, size: 0x8, addend: 0x0, symName: __ZN12v8_inspector19JsV8InspectorClient4initEv, symObjAddr: 0xC7E, symBinAddr: 0x750E, symSize: 0x178 }
  - { offsetInCU: 0x93B6A, offset: 0xF09C2, size: 0x8, addend: 0x0, symName: __ZNKSt3__114default_deleteIN3tns9inspector16TracingAgentImplEEclB7v160006EPS3_, symObjAddr: 0x4434, symBinAddr: 0xA344, symSize: 0x2C }
  - { offsetInCU: 0x93D36, offset: 0xF0B8E, size: 0x8, addend: 0x0, symName: __ZN12v8_inspector19JsV8InspectorClient7connectEiPPc, symObjAddr: 0xE7A, symBinAddr: 0x770A, symSize: 0xE }
  - { offsetInCU: 0x93E90, offset: 0xF0CE8, size: 0x8, addend: 0x0, symName: __ZN12v8_inspector19JsV8InspectorClient21runMessageLoopOnPauseEi, symObjAddr: 0xE88, symBinAddr: 0x7718, symSize: 0x1F6 }
  - { offsetInCU: 0x943CE, offset: 0xF1226, size: 0x8, addend: 0x0, symName: __ZN12v8_inspector19JsV8InspectorClient11PumpMessageEv, symObjAddr: 0x10CE, symBinAddr: 0x795E, symSize: 0x104 }
  - { offsetInCU: 0x94703, offset: 0xF155B, size: 0x8, addend: 0x0, symName: __ZN12v8_inspector19JsV8InspectorClient15dispatchMessageERKNSt3__112basic_stringIcNS1_11char_traitsIcEENS1_9allocatorIcEEEE, symObjAddr: 0x11D2, symBinAddr: 0x7A62, symSize: 0x7CA }
  - { offsetInCU: 0x9613A, offset: 0xF2F92, size: 0x8, addend: 0x0, symName: __ZNSt3__110shared_ptrIN2v88PlatformEED2B7v160006Ev, symObjAddr: 0x4460, symBinAddr: 0xA370, symSize: 0x3F }
  - { offsetInCU: 0x961B7, offset: 0xF300F, size: 0x8, addend: 0x0, symName: ____ZN12v8_inspector19JsV8InspectorClient21runMessageLoopOnPauseEi_block_invoke, symObjAddr: 0x107E, symBinAddr: 0x790E, symSize: 0x26 }
  - { offsetInCU: 0x961F8, offset: 0xF3050, size: 0x8, addend: 0x0, symName: ___copy_helper_block_e8_32r, symObjAddr: 0x10A4, symBinAddr: 0x7934, symSize: 0x17 }
  - { offsetInCU: 0x96221, offset: 0xF3079, size: 0x8, addend: 0x0, symName: ___destroy_helper_block_e8_32r, symObjAddr: 0x10BB, symBinAddr: 0x794B, symSize: 0x13 }
  - { offsetInCU: 0x967B6, offset: 0xF360E, size: 0x8, addend: 0x0, symName: __ZN12v8_inspector19JsV8InspectorClient25CallDomainHandlerFunctionEN2v85LocalINS1_7ContextEEENS2_INS1_8FunctionEEERKNS2_INS1_6ObjectEEERS8_RNS2_INS1_5ValueEEE, symObjAddr: 0x1BDC, symBinAddr: 0x842C, symSize: 0x284 }
  - { offsetInCU: 0x96F21, offset: 0xF3D79, size: 0x8, addend: 0x0, symName: __ZN12v8_inspector19JsV8InspectorClient39GetReturnMessageFromDomainHandlerResultERKN2v85LocalINS1_5ValueEEES6_, symObjAddr: 0x1E60, symBinAddr: 0x86B0, symSize: 0x4B6 }
  - { offsetInCU: 0x9841D, offset: 0xF5275, size: 0x8, addend: 0x0, symName: __ZNSt3__110shared_ptrIN3tns6CachesEED2B7v160006Ev, symObjAddr: 0x3500, symBinAddr: 0x9A70, symSize: 0x40 }
  - { offsetInCU: 0x9849A, offset: 0xF52F2, size: 0x8, addend: 0x0, symName: ____ZN12v8_inspector19JsV8InspectorClient21runMessageLoopOnPauseEi_block_invoke.24, symObjAddr: 0x199C, symBinAddr: 0x822C, symSize: 0x12 }
  - { offsetInCU: 0x984C3, offset: 0xF531B, size: 0x8, addend: 0x0, symName: __ZN12v8_inspector19JsV8InspectorClient22quitMessageLoopOnPauseEv, symObjAddr: 0x19AE, symBinAddr: 0x823E, symSize: 0x4E }
  - { offsetInCU: 0x984FA, offset: 0xF5352, size: 0x8, addend: 0x0, symName: ____ZN12v8_inspector19JsV8InspectorClient22quitMessageLoopOnPauseEv_block_invoke, symObjAddr: 0x19FC, symBinAddr: 0x828C, symSize: 0xE }
  - { offsetInCU: 0x98523, offset: 0xF537B, size: 0x8, addend: 0x0, symName: __ZN12v8_inspector19JsV8InspectorClient12sendResponseEiNSt3__110unique_ptrINS_12StringBufferENS1_14default_deleteIS3_EEEE, symObjAddr: 0x1A0A, symBinAddr: 0x829A, symSize: 0x5A }
  - { offsetInCU: 0x98792, offset: 0xF55EA, size: 0x8, addend: 0x0, symName: __ZN12v8_inspector19JsV8InspectorClient6notifyENSt3__110unique_ptrINS_12StringBufferENS1_14default_deleteIS3_EEEE, symObjAddr: 0x1A64, symBinAddr: 0x82F4, symSize: 0xB4 }
  - { offsetInCU: 0x98DFF, offset: 0xF5C57, size: 0x8, addend: 0x0, symName: __ZThn8_N12v8_inspector19JsV8InspectorClient12sendResponseEiNSt3__110unique_ptrINS_12StringBufferENS1_14default_deleteIS3_EEEE, symObjAddr: 0x1B18, symBinAddr: 0x83A8, symSize: 0xE }
  - { offsetInCU: 0x98E24, offset: 0xF5C7C, size: 0x8, addend: 0x0, symName: __ZN12v8_inspector19JsV8InspectorClient16sendNotificationENSt3__110unique_ptrINS_12StringBufferENS1_14default_deleteIS3_EEEE, symObjAddr: 0x1B26, symBinAddr: 0x83B6, symSize: 0x5A }
  - { offsetInCU: 0x99080, offset: 0xF5ED8, size: 0x8, addend: 0x0, symName: __ZThn8_N12v8_inspector19JsV8InspectorClient16sendNotificationENSt3__110unique_ptrINS_12StringBufferENS1_14default_deleteIS3_EEEE, symObjAddr: 0x1B80, symBinAddr: 0x8410, symSize: 0xE }
  - { offsetInCU: 0x990A5, offset: 0xF5EFD, size: 0x8, addend: 0x0, symName: __ZN12v8_inspector19JsV8InspectorClient26flushProtocolNotificationsEv, symObjAddr: 0x1B8E, symBinAddr: 0x841E, symSize: 0x6 }
  - { offsetInCU: 0x990C9, offset: 0xF5F21, size: 0x8, addend: 0x0, symName: __ZThn8_N12v8_inspector19JsV8InspectorClient26flushProtocolNotificationsEv, symObjAddr: 0x1B94, symBinAddr: 0x8424, symSize: 0x6 }
  - { offsetInCU: 0x99438, offset: 0xF6290, size: 0x8, addend: 0x0, symName: __ZN12v8_inspector19JsV8InspectorClient27ensureDefaultContextInGroupEi, symObjAddr: 0x2316, symBinAddr: 0x8B66, symSize: 0x1E }
  - { offsetInCU: 0x994E8, offset: 0xF6340, size: 0x8, addend: 0x0, symName: ___Block_byref_object_copy_, symObjAddr: 0x2334, symBinAddr: 0x8B84, symSize: 0x25 }
  - { offsetInCU: 0x9957D, offset: 0xF63D5, size: 0x8, addend: 0x0, symName: ___Block_byref_object_dispose_, symObjAddr: 0x2359, symBinAddr: 0x8BA9, symSize: 0x16 }
  - { offsetInCU: 0x996FD, offset: 0xF6555, size: 0x8, addend: 0x0, symName: ____ZN12v8_inspector19JsV8InspectorClient11PumpMessageEv_block_invoke, symObjAddr: 0x236F, symBinAddr: 0x8BBF, symSize: 0x6D }
  - { offsetInCU: 0x9993F, offset: 0xF6797, size: 0x8, addend: 0x0, symName: __ZN12v8_inspector19JsV8InspectorClient15registerModulesEv, symObjAddr: 0x23DC, symBinAddr: 0x8C2C, symSize: 0x448 }
  - { offsetInCU: 0x9A837, offset: 0xF768F, size: 0x8, addend: 0x0, symName: __ZN12v8_inspector19JsV8InspectorClient32registerDomainDispatcherCallbackERKN2v820FunctionCallbackInfoINS1_5ValueEEE, symObjAddr: 0x2824, symBinAddr: 0x9074, symSize: 0x14A }
  - { offsetInCU: 0x9AE18, offset: 0xF7C70, size: 0x8, addend: 0x0, symName: __ZNSt3__16__treeINS_12__value_typeINS_12basic_stringIcNS_11char_traitsIcEENS_9allocatorIcEEEEPN2v810PersistentINS8_6ObjectENS8_27NonCopyablePersistentTraitsISA_EEEEEENS_19__map_value_compareIS7_SF_NS_4lessIS7_EELb1EEENS5_ISF_EEE4findIS7_EENS_15__tree_iteratorISF_PNS_11__tree_nodeISF_PvEElEERKT_, symObjAddr: 0x4638, symBinAddr: 0xA3B8, symSize: 0x7A }
  - { offsetInCU: 0x9AF91, offset: 0xF7DE9, size: 0x8, addend: 0x0, symName: __ZNSt3__16__treeINS_12__value_typeINS_12basic_stringIcNS_11char_traitsIcEENS_9allocatorIcEEEEPN2v810PersistentINS8_6ObjectENS8_27NonCopyablePersistentTraitsISA_EEEEEENS_19__map_value_compareIS7_SF_NS_4lessIS7_EELb1EEENS5_ISF_EEE25__emplace_unique_key_argsIS7_JRS7_RSE_EEENS_4pairINS_15__tree_iteratorISF_PNS_11__tree_nodeISF_PvEElEEbEERKT_DpOT0_, symObjAddr: 0x472C, symBinAddr: 0xA4AC, symSize: 0x72 }
  - { offsetInCU: 0x9B0FA, offset: 0xF7F52, size: 0x8, addend: 0x0, symName: __ZN12v8_inspector19JsV8InspectorClient26inspectorSendEventCallbackERKN2v820FunctionCallbackInfoINS1_5ValueEEE, symObjAddr: 0x296E, symBinAddr: 0x91BE, symSize: 0x166 }
  - { offsetInCU: 0x9BC1C, offset: 0xF8A74, size: 0x8, addend: 0x0, symName: __ZN12v8_inspector19JsV8InspectorClient26inspectorTimestampCallbackERKN2v820FunctionCallbackInfoINS1_5ValueEEE, symObjAddr: 0x2AD4, symBinAddr: 0x9324, symSize: 0x3A }
  - { offsetInCU: 0x9C35A, offset: 0xF91B2, size: 0x8, addend: 0x0, symName: __ZN12v8_inspector19JsV8InspectorClient10consoleLogEPN2v87IsolateENS_14ConsoleAPITypeERKNSt3__16vectorINS1_5LocalINS1_5ValueEEENS5_9allocatorIS9_EEEE, symObjAddr: 0x2BC2, symBinAddr: 0x9362, symSize: 0x1CC }
  - { offsetInCU: 0x9CBF4, offset: 0xF9A4C, size: 0x8, addend: 0x0, symName: __ZN12v8_inspector19JsV8InspectorClient10consoleLogEPN2v87IsolateENS_14ConsoleAPITypeERKNSt3__16vectorINS1_5LocalINS1_5ValueEEENS5_9allocatorIS9_EEEE.cold.1, symObjAddr: 0x4B0B, symBinAddr: 0xCB5C3B, symSize: 0x14 }
  - { offsetInCU: 0x9CD7E, offset: 0xF9BD6, size: 0x8, addend: 0x0, symName: __ZNSt3__13mapINS_12basic_stringIcNS_11char_traitsIcEENS_9allocatorIcEEEEPN2v810PersistentINS7_6ObjectENS7_27NonCopyablePersistentTraitsIS9_EEEENS_4lessIS6_EENS4_INS_4pairIKS6_SD_EEEEED1B7v160006Ev, symObjAddr: 0x2D8E, symBinAddr: 0x952E, symSize: 0xE }
  - { offsetInCU: 0x9CE2D, offset: 0xF9C85, size: 0x8, addend: 0x0, symName: __ZNSt3__16__treeINS_12__value_typeINS_12basic_stringIcNS_11char_traitsIcEENS_9allocatorIcEEEEPN2v810PersistentINS8_6ObjectENS8_27NonCopyablePersistentTraitsISA_EEEEEENS_19__map_value_compareIS7_SF_NS_4lessIS7_EELb1EEENS5_ISF_EEE7destroyEPNS_11__tree_nodeISF_PvEE, symObjAddr: 0x4A86, symBinAddr: 0xA6A6, symSize: 0x42 }
  - { offsetInCU: 0x9D19F, offset: 0xF9FF7, size: 0x8, addend: 0x0, symName: __ZN12v8_inspector19JsV8InspectorClientD1Ev, symObjAddr: 0x2D9C, symBinAddr: 0x953C, symSize: 0xB2 }
  - { offsetInCU: 0x9D482, offset: 0xFA2DA, size: 0x8, addend: 0x0, symName: __ZNSt3__15dequeINS_12basic_stringIcNS_11char_traitsIcEENS_9allocatorIcEEEENS4_IS6_EEED2B7v160006Ev, symObjAddr: 0x3376, symBinAddr: 0x98E6, symSize: 0x156 }
  - { offsetInCU: 0x9D9E0, offset: 0xFA838, size: 0x8, addend: 0x0, symName: __ZN12v8_inspector19JsV8InspectorClientD0Ev, symObjAddr: 0x2E4E, symBinAddr: 0x95EE, symSize: 0xB4 }
  - { offsetInCU: 0x9DCDB, offset: 0xFAB33, size: 0x8, addend: 0x0, symName: __ZN12v8_inspector17V8InspectorClient23runIfWaitingForDebuggerEi, symObjAddr: 0x2F02, symBinAddr: 0x96A2, symSize: 0x6 }
  - { offsetInCU: 0x9DD0E, offset: 0xFAB66, size: 0x8, addend: 0x0, symName: __ZN12v8_inspector17V8InspectorClient11muteMetricsEi, symObjAddr: 0x2F08, symBinAddr: 0x96A8, symSize: 0x6 }
  - { offsetInCU: 0x9DD41, offset: 0xFAB99, size: 0x8, addend: 0x0, symName: __ZN12v8_inspector17V8InspectorClient13unmuteMetricsEi, symObjAddr: 0x2F0E, symBinAddr: 0x96AE, symSize: 0x6 }
  - { offsetInCU: 0x9DD74, offset: 0xFABCC, size: 0x8, addend: 0x0, symName: __ZN12v8_inspector17V8InspectorClient16beginUserGestureEv, symObjAddr: 0x2F14, symBinAddr: 0x96B4, symSize: 0x6 }
  - { offsetInCU: 0x9DD99, offset: 0xFABF1, size: 0x8, addend: 0x0, symName: __ZN12v8_inspector17V8InspectorClient14endUserGestureEv, symObjAddr: 0x2F1A, symBinAddr: 0x96BA, symSize: 0x6 }
  - { offsetInCU: 0x9DEBB, offset: 0xFAD13, size: 0x8, addend: 0x0, symName: __ZN12v8_inspector17V8InspectorClient25serializeToWebDriverValueEN2v85LocalINS1_5ValueEEEi, symObjAddr: 0x2F20, symBinAddr: 0x96C0, symSize: 0x10 }
  - { offsetInCU: 0x9E08E, offset: 0xFAEE6, size: 0x8, addend: 0x0, symName: __ZN12v8_inspector17V8InspectorClient12valueSubtypeEN2v85LocalINS1_5ValueEEE, symObjAddr: 0x2F30, symBinAddr: 0x96D0, symSize: 0x10 }
  - { offsetInCU: 0x9E157, offset: 0xFAFAF, size: 0x8, addend: 0x0, symName: __ZN12v8_inspector17V8InspectorClient26descriptionForValueSubtypeEN2v85LocalINS1_7ContextEEENS2_INS1_5ValueEEE, symObjAddr: 0x2F40, symBinAddr: 0x96E0, symSize: 0x10 }
  - { offsetInCU: 0x9E22A, offset: 0xFB082, size: 0x8, addend: 0x0, symName: __ZN12v8_inspector17V8InspectorClient23isInspectableHeapObjectEN2v85LocalINS1_6ObjectEEE, symObjAddr: 0x2F50, symBinAddr: 0x96F0, symSize: 0x8 }
  - { offsetInCU: 0x9E259, offset: 0xFB0B1, size: 0x8, addend: 0x0, symName: __ZN12v8_inspector17V8InspectorClient29beginEnsureAllContextsInGroupEi, symObjAddr: 0x2F58, symBinAddr: 0x96F8, symSize: 0x6 }
  - { offsetInCU: 0x9E28C, offset: 0xFB0E4, size: 0x8, addend: 0x0, symName: __ZN12v8_inspector17V8InspectorClient27endEnsureAllContextsInGroupEi, symObjAddr: 0x2F5E, symBinAddr: 0x96FE, symSize: 0x6 }
  - { offsetInCU: 0x9E2BF, offset: 0xFB117, size: 0x8, addend: 0x0, symName: __ZN12v8_inspector17V8InspectorClient31installAdditionalCommandLineAPIEN2v85LocalINS1_7ContextEEENS2_INS1_6ObjectEEE, symObjAddr: 0x2F64, symBinAddr: 0x9704, symSize: 0x6 }
  - { offsetInCU: 0x9E2F8, offset: 0xFB150, size: 0x8, addend: 0x0, symName: __ZN12v8_inspector17V8InspectorClient17consoleAPIMessageEiN2v87Isolate17MessageErrorLevelERKNS_10StringViewES6_jjPNS_12V8StackTraceE, symObjAddr: 0x2F6A, symBinAddr: 0x970A, symSize: 0x6 }
  - { offsetInCU: 0x9E381, offset: 0xFB1D9, size: 0x8, addend: 0x0, symName: __ZN12v8_inspector17V8InspectorClient10memoryInfoEPN2v87IsolateENS1_5LocalINS1_7ContextEEE, symObjAddr: 0x2F70, symBinAddr: 0x9710, symSize: 0x8 }
  - { offsetInCU: 0x9E3BC, offset: 0xFB214, size: 0x8, addend: 0x0, symName: __ZN12v8_inspector17V8InspectorClient11consoleTimeERKNS_10StringViewE, symObjAddr: 0x2F78, symBinAddr: 0x9718, symSize: 0x6 }
  - { offsetInCU: 0x9E3F0, offset: 0xFB248, size: 0x8, addend: 0x0, symName: __ZN12v8_inspector17V8InspectorClient14consoleTimeEndERKNS_10StringViewE, symObjAddr: 0x2F7E, symBinAddr: 0x971E, symSize: 0x6 }
  - { offsetInCU: 0x9E424, offset: 0xFB27C, size: 0x8, addend: 0x0, symName: __ZN12v8_inspector17V8InspectorClient16consoleTimeStampERKNS_10StringViewE, symObjAddr: 0x2F84, symBinAddr: 0x9724, symSize: 0x6 }
  - { offsetInCU: 0x9E458, offset: 0xFB2B0, size: 0x8, addend: 0x0, symName: __ZN12v8_inspector17V8InspectorClient12consoleClearEi, symObjAddr: 0x2F8A, symBinAddr: 0x972A, symSize: 0x6 }
  - { offsetInCU: 0x9E48C, offset: 0xFB2E4, size: 0x8, addend: 0x0, symName: __ZN12v8_inspector17V8InspectorClient13currentTimeMSEv, symObjAddr: 0x2F90, symBinAddr: 0x9730, symSize: 0xA }
  - { offsetInCU: 0x9E4B1, offset: 0xFB309, size: 0x8, addend: 0x0, symName: __ZN12v8_inspector17V8InspectorClient19startRepeatingTimerEdPFvPvES1_, symObjAddr: 0x2F9A, symBinAddr: 0x973A, symSize: 0x6 }
  - { offsetInCU: 0x9E4FB, offset: 0xFB353, size: 0x8, addend: 0x0, symName: __ZN12v8_inspector17V8InspectorClient11cancelTimerEPv, symObjAddr: 0x2FA0, symBinAddr: 0x9740, symSize: 0x6 }
  - { offsetInCU: 0x9E52F, offset: 0xFB387, size: 0x8, addend: 0x0, symName: __ZN12v8_inspector17V8InspectorClient17canExecuteScriptsEi, symObjAddr: 0x2FA6, symBinAddr: 0x9746, symSize: 0x8 }
  - { offsetInCU: 0x9E563, offset: 0xFB3BB, size: 0x8, addend: 0x0, symName: __ZN12v8_inspector17V8InspectorClient29maxAsyncCallStackDepthChangedEi, symObjAddr: 0x2FAE, symBinAddr: 0x974E, symSize: 0x6 }
  - { offsetInCU: 0x9E597, offset: 0xFB3EF, size: 0x8, addend: 0x0, symName: __ZN12v8_inspector17V8InspectorClient17resourceNameToUrlERKNS_10StringViewE, symObjAddr: 0x2FB4, symBinAddr: 0x9754, symSize: 0x10 }
  - { offsetInCU: 0x9E667, offset: 0xFB4BF, size: 0x8, addend: 0x0, symName: __ZN12v8_inspector17V8InspectorClient16generateUniqueIdEv, symObjAddr: 0x2FC4, symBinAddr: 0x9764, symSize: 0x8 }
  - { offsetInCU: 0x9E68C, offset: 0xFB4E4, size: 0x8, addend: 0x0, symName: __ZN12v8_inspector17V8InspectorClient13dispatchErrorEN2v85LocalINS1_7ContextEEENS2_INS1_7MessageEEENS2_INS1_5ValueEEE, symObjAddr: 0x2FCC, symBinAddr: 0x976C, symSize: 0x6 }
  - { offsetInCU: 0x9E6D2, offset: 0xFB52A, size: 0x8, addend: 0x0, symName: __ZThn8_N12v8_inspector19JsV8InspectorClientD1Ev, symObjAddr: 0x2FD2, symBinAddr: 0x9772, symSize: 0xB2 }
  - { offsetInCU: 0x9E9E3, offset: 0xFB83B, size: 0x8, addend: 0x0, symName: __ZThn8_N12v8_inspector19JsV8InspectorClientD0Ev, symObjAddr: 0x3084, symBinAddr: 0x9824, symSize: 0xBC }
  - { offsetInCU: 0x9F419, offset: 0xFC271, size: 0x8, addend: 0x0, symName: __ZNSt3__114__split_bufferIPNS_12basic_stringIcNS_11char_traitsIcEENS_9allocatorIcEEEENS4_IS7_EEED2Ev, symObjAddr: 0x34CC, symBinAddr: 0x9A3C, symSize: 0x34 }
  - { offsetInCU: 0x9F621, offset: 0xFC479, size: 0x8, addend: 0x0, symName: '__ZNSt3__110__function6__funcIZZN12v8_inspector19JsV8InspectorClient15enableInspectorEiPPcEUb_E3$_0NS_9allocatorIS6_EEFvNS_8functionIFvNS_12basic_stringIcNS_11char_traitsIcEENS7_IcEEEEEEEEED1Ev', symObjAddr: 0x3540, symBinAddr: 0x9AB0, symSize: 0x6 }
  - { offsetInCU: 0x9F64A, offset: 0xFC4A2, size: 0x8, addend: 0x0, symName: '__ZNSt3__110__function6__funcIZZN12v8_inspector19JsV8InspectorClient15enableInspectorEiPPcEUb_E3$_0NS_9allocatorIS6_EEFvNS_8functionIFvNS_12basic_stringIcNS_11char_traitsIcEENS7_IcEEEEEEEEED0Ev', symObjAddr: 0x3546, symBinAddr: 0x9AB6, symSize: 0xA }
  - { offsetInCU: 0x9F84F, offset: 0xFC6A7, size: 0x8, addend: 0x0, symName: '__ZNKSt3__110__function6__funcIZZN12v8_inspector19JsV8InspectorClient15enableInspectorEiPPcEUb_E3$_0NS_9allocatorIS6_EEFvNS_8functionIFvNS_12basic_stringIcNS_11char_traitsIcEENS7_IcEEEEEEEEE7__cloneEv', symObjAddr: 0x3550, symBinAddr: 0x9AC0, symSize: 0x2C }
  - { offsetInCU: 0x9FB7A, offset: 0xFC9D2, size: 0x8, addend: 0x0, symName: '__ZNKSt3__110__function6__funcIZZN12v8_inspector19JsV8InspectorClient15enableInspectorEiPPcEUb_E3$_0NS_9allocatorIS6_EEFvNS_8functionIFvNS_12basic_stringIcNS_11char_traitsIcEENS7_IcEEEEEEEEE7__cloneEPNS0_6__baseISH_EE', symObjAddr: 0x357C, symBinAddr: 0x9AEC, symSize: 0x18 }
  - { offsetInCU: 0x9FCF9, offset: 0xFCB51, size: 0x8, addend: 0x0, symName: '__ZNSt3__110__function6__funcIZZN12v8_inspector19JsV8InspectorClient15enableInspectorEiPPcEUb_E3$_0NS_9allocatorIS6_EEFvNS_8functionIFvNS_12basic_stringIcNS_11char_traitsIcEENS7_IcEEEEEEEEE7destroyEv', symObjAddr: 0x3594, symBinAddr: 0x9B04, symSize: 0x6 }
  - { offsetInCU: 0x9FD48, offset: 0xFCBA0, size: 0x8, addend: 0x0, symName: '__ZNSt3__110__function6__funcIZZN12v8_inspector19JsV8InspectorClient15enableInspectorEiPPcEUb_E3$_0NS_9allocatorIS6_EEFvNS_8functionIFvNS_12basic_stringIcNS_11char_traitsIcEENS7_IcEEEEEEEEE18destroy_deallocateEv', symObjAddr: 0x359A, symBinAddr: 0x9B0A, symSize: 0xA }
  - { offsetInCU: 0x9FF34, offset: 0xFCD8C, size: 0x8, addend: 0x0, symName: '__ZNSt3__110__function6__funcIZZN12v8_inspector19JsV8InspectorClient15enableInspectorEiPPcEUb_E3$_0NS_9allocatorIS6_EEFvNS_8functionIFvNS_12basic_stringIcNS_11char_traitsIcEENS7_IcEEEEEEEEEclEOSG_', symObjAddr: 0x35A4, symBinAddr: 0x9B14, symSize: 0x134 }
  - { offsetInCU: 0xA038A, offset: 0xFD1E2, size: 0x8, addend: 0x0, symName: __ZNSt3__110__function12__value_funcIFvNS_12basic_stringIcNS_11char_traitsIcEENS_9allocatorIcEEEEEEC2B7v160006EOS9_, symObjAddr: 0x3724, symBinAddr: 0x9C94, symSize: 0x4A }
  - { offsetInCU: 0xA03D2, offset: 0xFD22A, size: 0x8, addend: 0x0, symName: '__ZNSt3__110__function6__funcIZZN12v8_inspector19JsV8InspectorClient15enableInspectorEiPPcEUb_E3$_1NS_9allocatorIS6_EEFvNS_12basic_stringIcNS_11char_traitsIcEENS7_IcEEEEEED1Ev', symObjAddr: 0x376E, symBinAddr: 0x9CDE, symSize: 0x6 }
  - { offsetInCU: 0xA03FB, offset: 0xFD253, size: 0x8, addend: 0x0, symName: '__ZNSt3__110__function6__funcIZZN12v8_inspector19JsV8InspectorClient15enableInspectorEiPPcEUb_E3$_1NS_9allocatorIS6_EEFvNS_12basic_stringIcNS_11char_traitsIcEENS7_IcEEEEEED0Ev', symObjAddr: 0x3774, symBinAddr: 0x9CE4, symSize: 0xA }
  - { offsetInCU: 0xA0600, offset: 0xFD458, size: 0x8, addend: 0x0, symName: '__ZNKSt3__110__function6__funcIZZN12v8_inspector19JsV8InspectorClient15enableInspectorEiPPcEUb_E3$_1NS_9allocatorIS6_EEFvNS_12basic_stringIcNS_11char_traitsIcEENS7_IcEEEEEE7__cloneEv', symObjAddr: 0x377E, symBinAddr: 0x9CEE, symSize: 0x2C }
  - { offsetInCU: 0xA092B, offset: 0xFD783, size: 0x8, addend: 0x0, symName: '__ZNKSt3__110__function6__funcIZZN12v8_inspector19JsV8InspectorClient15enableInspectorEiPPcEUb_E3$_1NS_9allocatorIS6_EEFvNS_12basic_stringIcNS_11char_traitsIcEENS7_IcEEEEEE7__cloneEPNS0_6__baseISE_EE', symObjAddr: 0x37AA, symBinAddr: 0x9D1A, symSize: 0x18 }
  - { offsetInCU: 0xA0AAA, offset: 0xFD902, size: 0x8, addend: 0x0, symName: '__ZNSt3__110__function6__funcIZZN12v8_inspector19JsV8InspectorClient15enableInspectorEiPPcEUb_E3$_1NS_9allocatorIS6_EEFvNS_12basic_stringIcNS_11char_traitsIcEENS7_IcEEEEEE7destroyEv', symObjAddr: 0x37C2, symBinAddr: 0x9D32, symSize: 0x6 }
  - { offsetInCU: 0xA0AF9, offset: 0xFD951, size: 0x8, addend: 0x0, symName: '__ZNSt3__110__function6__funcIZZN12v8_inspector19JsV8InspectorClient15enableInspectorEiPPcEUb_E3$_1NS_9allocatorIS6_EEFvNS_12basic_stringIcNS_11char_traitsIcEENS7_IcEEEEEE18destroy_deallocateEv', symObjAddr: 0x37C8, symBinAddr: 0x9D38, symSize: 0xA }
  - { offsetInCU: 0xA0C4B, offset: 0xFDAA3, size: 0x8, addend: 0x0, symName: '__ZNSt3__110__function6__funcIZZN12v8_inspector19JsV8InspectorClient15enableInspectorEiPPcEUb_E3$_1NS_9allocatorIS6_EEFvNS_12basic_stringIcNS_11char_traitsIcEENS7_IcEEEEEEclEOSD_', symObjAddr: 0x37D2, symBinAddr: 0x9D42, symSize: 0x98 }
  - { offsetInCU: 0xA23A1, offset: 0xFF1F9, size: 0x8, addend: 0x0, symName: __ZNSt3__114__split_bufferIPNS_12basic_stringIcNS_11char_traitsIcEENS_9allocatorIcEEEENS4_IS7_EEE9push_backEOS7_, symObjAddr: 0x3DB8, symBinAddr: 0x9EF8, symSize: 0x106 }
  - { offsetInCU: 0xA2ACE, offset: 0xFF926, size: 0x8, addend: 0x0, symName: __ZNSt3__114__split_bufferIPNS_12basic_stringIcNS_11char_traitsIcEENS_9allocatorIcEEEERNS4_IS7_EEE10push_frontERKS7_, symObjAddr: 0x40D4, symBinAddr: 0xA004, symSize: 0x10F }
  - { offsetInCU: 0xA3377, offset: 0x1001CF, size: 0x8, addend: 0x0, symName: '__ZNSt3__110__function6__funcIZN12v8_inspector19JsV8InspectorClient25onFrontendMessageReceivedENS_12basic_stringIcNS_11char_traitsIcEENS_9allocatorIcEEEEE3$_2NS7_ISA_EEFvvEED1Ev', symObjAddr: 0x4212, symBinAddr: 0xA122, symSize: 0x20 }
  - { offsetInCU: 0xA3579, offset: 0x1003D1, size: 0x8, addend: 0x0, symName: '__ZNSt3__110__function6__funcIZN12v8_inspector19JsV8InspectorClient25onFrontendMessageReceivedENS_12basic_stringIcNS_11char_traitsIcEENS_9allocatorIcEEEEE3$_2NS7_ISA_EEFvvEED0Ev', symObjAddr: 0x4232, symBinAddr: 0xA142, symSize: 0x30 }
  - { offsetInCU: 0xA3AD5, offset: 0x10092D, size: 0x8, addend: 0x0, symName: '__ZNKSt3__110__function6__funcIZN12v8_inspector19JsV8InspectorClient25onFrontendMessageReceivedENS_12basic_stringIcNS_11char_traitsIcEENS_9allocatorIcEEEEE3$_2NS7_ISA_EEFvvEE7__cloneEv', symObjAddr: 0x4262, symBinAddr: 0xA172, symSize: 0x54 }
  - { offsetInCU: 0xA3F62, offset: 0x100DBA, size: 0x8, addend: 0x0, symName: '__ZNKSt3__110__function6__funcIZN12v8_inspector19JsV8InspectorClient25onFrontendMessageReceivedENS_12basic_stringIcNS_11char_traitsIcEENS_9allocatorIcEEEEE3$_2NS7_ISA_EEFvvEE7__cloneEPNS0_6__baseISC_EE', symObjAddr: 0x42B6, symBinAddr: 0xA1C6, symSize: 0x28 }
  - { offsetInCU: 0xA4164, offset: 0x100FBC, size: 0x8, addend: 0x0, symName: '__ZNSt3__110__function6__funcIZN12v8_inspector19JsV8InspectorClient25onFrontendMessageReceivedENS_12basic_stringIcNS_11char_traitsIcEENS_9allocatorIcEEEEE3$_2NS7_ISA_EEFvvEE7destroyEv', symObjAddr: 0x42DE, symBinAddr: 0xA1EE, symSize: 0x16 }
  - { offsetInCU: 0xA4320, offset: 0x101178, size: 0x8, addend: 0x0, symName: '__ZNSt3__110__function6__funcIZN12v8_inspector19JsV8InspectorClient25onFrontendMessageReceivedENS_12basic_stringIcNS_11char_traitsIcEENS_9allocatorIcEEEEE3$_2NS7_ISA_EEFvvEE18destroy_deallocateEv', symObjAddr: 0x42F4, symBinAddr: 0xA204, symSize: 0x26 }
  - { offsetInCU: 0xA4633, offset: 0x10148B, size: 0x8, addend: 0x0, symName: '__ZNSt3__110__function6__funcIZN12v8_inspector19JsV8InspectorClient25onFrontendMessageReceivedENS_12basic_stringIcNS_11char_traitsIcEENS_9allocatorIcEEEEE3$_2NS7_ISA_EEFvvEEclEv', symObjAddr: 0x431A, symBinAddr: 0xA22A, symSize: 0x4F }
  - { offsetInCU: 0xA473B, offset: 0x101593, size: 0x8, addend: 0x0, symName: '____ZZN12v8_inspector19JsV8InspectorClient25onFrontendMessageReceivedENSt3__112basic_stringIcNS1_11char_traitsIcEENS1_9allocatorIcEEEEENK3$_2clEv_block_invoke', symObjAddr: 0x4369, symBinAddr: 0xA279, symSize: 0xCB }
  - { offsetInCU: 0xA4E89, offset: 0x101CE1, size: 0x8, addend: 0x0, symName: __ZNKSt3__14lessINS_12basic_stringIcNS_11char_traitsIcEENS_9allocatorIcEEEEEclB7v160006ERKS6_S9_, symObjAddr: 0x46B2, symBinAddr: 0xA432, symSize: 0x7A }
  - { offsetInCU: 0xA514E, offset: 0x101FA6, size: 0x8, addend: 0x0, symName: __ZNSt3__16__treeINS_12__value_typeINS_12basic_stringIcNS_11char_traitsIcEENS_9allocatorIcEEEEPN2v810PersistentINS8_6ObjectENS8_27NonCopyablePersistentTraitsISA_EEEEEENS_19__map_value_compareIS7_SF_NS_4lessIS7_EELb1EEENS5_ISF_EEE12__find_equalIS7_EERPNS_16__tree_node_baseIPvEERPNS_15__tree_end_nodeISQ_EERKT_, symObjAddr: 0x479E, symBinAddr: 0xA51E, symSize: 0x88 }
  - { offsetInCU: 0xA5274, offset: 0x1020CC, size: 0x8, addend: 0x0, symName: __ZNSt3__16__treeINS_12__value_typeINS_12basic_stringIcNS_11char_traitsIcEENS_9allocatorIcEEEEPN2v810PersistentINS8_6ObjectENS8_27NonCopyablePersistentTraitsISA_EEEEEENS_19__map_value_compareIS7_SF_NS_4lessIS7_EELb1EEENS5_ISF_EEE16__construct_nodeIJRS7_RSE_EEENS_10unique_ptrINS_11__tree_nodeISF_PvEENS_22__tree_node_destructorINS5_ISS_EEEEEEDpOT_, symObjAddr: 0x4826, symBinAddr: 0xA5A6, symSize: 0x86 }
  - { offsetInCU: 0xA5577, offset: 0x1023CF, size: 0x8, addend: 0x0, symName: __ZNSt3__16__treeINS_12__value_typeINS_12basic_stringIcNS_11char_traitsIcEENS_9allocatorIcEEEEPN2v810PersistentINS8_6ObjectENS8_27NonCopyablePersistentTraitsISA_EEEEEENS_19__map_value_compareIS7_SF_NS_4lessIS7_EELb1EEENS5_ISF_EEE16__insert_node_atEPNS_15__tree_end_nodeIPNS_16__tree_node_baseIPvEEEERSQ_SQ_, symObjAddr: 0x48AC, symBinAddr: 0xA62C, symSize: 0x3E }
  - { offsetInCU: 0xA592B, offset: 0x102783, size: 0x8, addend: 0x0, symName: __ZNSt3__122__tree_node_destructorINS_9allocatorINS_11__tree_nodeINS_12__value_typeINS_12basic_stringIcNS_11char_traitsIcEENS1_IcEEEEPN2v810PersistentINS9_6ObjectENS9_27NonCopyablePersistentTraitsISB_EEEEEEPvEEEEEclB7v160006EPSI_, symObjAddr: 0x4A4C, symBinAddr: 0xA66C, symSize: 0x3A }
  - { offsetInCU: 0x26, offset: 0x1031E4, size: 0x8, addend: 0x0, symName: __ZN3tns12ClassBuilder16GetExtendedClassENSt3__112basic_stringIcNS1_11char_traitsIcEENS1_9allocatorIcEEEES7_, symObjAddr: 0x0, symBinAddr: 0xA720, symSize: 0x338 }
  - { offsetInCU: 0x7109, offset: 0x10A2C7, size: 0x8, addend: 0x0, symName: __ZN3tns12ClassBuilder16GetExtendedClassENSt3__112basic_stringIcNS1_11char_traitsIcEENS1_9allocatorIcEEEES7_, symObjAddr: 0x0, symBinAddr: 0xA720, symSize: 0x338 }
  - { offsetInCU: 0x6DD0, offset: 0x112899, size: 0x8, addend: 0x0, symName: __ZNSt3__115allocate_sharedB7v160006IN2v810PersistentINS1_6ObjectENS1_27NonCopyablePersistentTraitsIS3_EEEENS_9allocatorIS6_EEJRPNS1_7IsolateENS1_5LocalIS3_EEEvEENS_10shared_ptrIT_EERKT0_DpOT1_, symObjAddr: 0x1FE8, symBinAddr: 0xC838, symSize: 0x5C }
  - { offsetInCU: 0x10046, offset: 0x11BB0F, size: 0x8, addend: 0x0, symName: __ZN3tns7Pointer8RegisterEN2v85LocalINS1_7ContextEEENS2_INS1_6ObjectEEE, symObjAddr: 0x0, symBinAddr: 0xAA60, symSize: 0x100 }
  - { offsetInCU: 0x1047B, offset: 0x11BF44, size: 0x8, addend: 0x0, symName: __ZN3tns7Pointer18GetPointerCtorFuncEN2v85LocalINS1_7ContextEEE, symObjAddr: 0x100, symBinAddr: 0xAB60, symSize: 0x38A }
  - { offsetInCU: 0x119DF, offset: 0x11D4A8, size: 0x8, addend: 0x0, symName: __ZN3tns7Pointer17RegisterAddMethodEN2v85LocalINS1_7ContextEEENS2_INS1_6ObjectEEE, symObjAddr: 0x906, symBinAddr: 0xB366, symSize: 0x16A }
  - { offsetInCU: 0x11FFF, offset: 0x11DAC8, size: 0x8, addend: 0x0, symName: __ZN3tns7Pointer22RegisterSubtractMethodEN2v85LocalINS1_7ContextEEENS2_INS1_6ObjectEEE, symObjAddr: 0xA70, symBinAddr: 0xB4D0, symSize: 0x16A }
  - { offsetInCU: 0x1261F, offset: 0x11E0E8, size: 0x8, addend: 0x0, symName: __ZN3tns7Pointer22RegisterToStringMethodEN2v85LocalINS1_7ContextEEENS2_INS1_6ObjectEEE, symObjAddr: 0xBDA, symBinAddr: 0xB63A, symSize: 0x16A }
  - { offsetInCU: 0x12C3F, offset: 0x11E708, size: 0x8, addend: 0x0, symName: __ZN3tns7Pointer25RegisterToHexStringMethodEN2v85LocalINS1_7ContextEEENS2_INS1_6ObjectEEE, symObjAddr: 0xD44, symBinAddr: 0xB7A4, symSize: 0x16A }
  - { offsetInCU: 0x1325F, offset: 0x11ED28, size: 0x8, addend: 0x0, symName: __ZN3tns7Pointer29RegisterToDecimalStringMethodEN2v85LocalINS1_7ContextEEENS2_INS1_6ObjectEEE, symObjAddr: 0xEAE, symBinAddr: 0xB90E, symSize: 0x16A }
  - { offsetInCU: 0x1387F, offset: 0x11F348, size: 0x8, addend: 0x0, symName: __ZN3tns7Pointer22RegisterToNumberMethodEN2v85LocalINS1_7ContextEEENS2_INS1_6ObjectEEE, symObjAddr: 0x1018, symBinAddr: 0xBA78, symSize: 0x16A }
  - { offsetInCU: 0x13EB8, offset: 0x11F981, size: 0x8, addend: 0x0, symName: __ZN3tns7Pointer22RegisterToBigIntMethodEN2v85LocalINS1_7ContextEEENS2_INS1_6ObjectEEE, symObjAddr: 0x1182, symBinAddr: 0xBBE2, symSize: 0x16A }
  - { offsetInCU: 0x14584, offset: 0x12004D, size: 0x8, addend: 0x0, symName: __ZN3tns7Pointer11NewInstanceEN2v85LocalINS1_7ContextEEEPv, symObjAddr: 0x48A, symBinAddr: 0xAEEA, symSize: 0x92 }
  - { offsetInCU: 0x14975, offset: 0x12043E, size: 0x8, addend: 0x0, symName: __ZN3tns7Pointer26PointerConstructorCallbackERKN2v820FunctionCallbackInfoINS1_5ValueEEE, symObjAddr: 0x51C, symBinAddr: 0xAF7C, symSize: 0x3EA }
  - { offsetInCU: 0x1571D, offset: 0x1211E6, size: 0x8, addend: 0x0, symName: __ZNK10robin_hood6detail5TableILb1ELm80EPKvNSt3__110shared_ptrIN2v810PersistentINS6_6ObjectENS6_27NonCopyablePersistentTraitsIS8_EEEEEENS_4hashIS3_vEENS4_8equal_toIS3_EEE7findIdxIS3_EEmRKT_, symObjAddr: 0x1F08, symBinAddr: 0xC758, symSize: 0xE0 }
  - { offsetInCU: 0x158A7, offset: 0x121370, size: 0x8, addend: 0x0, symName: __ZN10robin_hood6detail5TableILb1ELm80EPKvNSt3__110shared_ptrIN2v810PersistentINS6_6ObjectENS6_27NonCopyablePersistentTraitsIS8_EEEEEENS_4hashIS3_vEENS4_8equal_toIS3_EEE7emplaceIJRPvSC_EEENS4_4pairINSH_4IterILb0EEEbEEDpOT_, symObjAddr: 0x12EC, symBinAddr: 0xBD4C, symSize: 0x114 }
  - { offsetInCU: 0x15D85, offset: 0x12184E, size: 0x8, addend: 0x0, symName: __ZNSt3__110shared_ptrIN2v810PersistentINS1_6ObjectENS1_27NonCopyablePersistentTraitsIS3_EEEEED2B7v160006Ev, symObjAddr: 0x20E8, symBinAddr: 0xC8F8, symSize: 0x40 }
  - { offsetInCU: 0x16173, offset: 0x121C3C, size: 0x8, addend: 0x0, symName: __ZN10robin_hood6detail5TableILb1ELm80EPKvNSt3__110shared_ptrIN2v810PersistentINS6_6ObjectENS6_27NonCopyablePersistentTraitsIS8_EEEEEENS_4hashIS3_vEENS4_8equal_toIS3_EEE25insertKeyPrepareEmptySpotIRKS3_EENS4_4pairImNSH_14InsertionStateEEEOT_, symObjAddr: 0x2128, symBinAddr: 0xC938, symSize: 0x160 }
  - { offsetInCU: 0x16323, offset: 0x121DEC, size: 0x8, addend: 0x0, symName: __ZNSt3__110shared_ptrIN2v810PersistentINS1_6ObjectENS1_27NonCopyablePersistentTraitsIS3_EEEEEaSB7v160006EOS7_, symObjAddr: 0x28E0, symBinAddr: 0xD0C0, symSize: 0x4A }
  - { offsetInCU: 0x16485, offset: 0x121F4E, size: 0x8, addend: 0x0, symName: __ZNK10robin_hood6detail5TableILb1ELm80EPKvNSt3__110shared_ptrIN2v810PersistentINS6_6ObjectENS6_27NonCopyablePersistentTraitsIS8_EEEEEENS_4hashIS3_vEENS4_8equal_toIS3_EEE18throwOverflowErrorEv, symObjAddr: 0x2288, symBinAddr: 0xCA98, symSize: 0x4C }
  - { offsetInCU: 0x16795, offset: 0x12225E, size: 0x8, addend: 0x0, symName: __ZNSt3__120__shared_ptr_emplaceIN3tns6CachesENS_9allocatorIS2_EEED0Ev, symObjAddr: 0x14D0, symBinAddr: 0xBE60, symSize: 0x2A }
  - { offsetInCU: 0x167FF, offset: 0x1222C8, size: 0x8, addend: 0x0, symName: __ZN3tns18PointerTypeWrapperD1Ev, symObjAddr: 0x1512, symBinAddr: 0xBE92, symSize: 0x6 }
  - { offsetInCU: 0x1682A, offset: 0x1222F3, size: 0x8, addend: 0x0, symName: __ZN3tns18PointerTypeWrapperD0Ev, symObjAddr: 0x1518, symBinAddr: 0xBE98, symSize: 0xA }
  - { offsetInCU: 0x16855, offset: 0x12231E, size: 0x8, addend: 0x0, symName: __ZN3tns18PointerTypeWrapper4TypeEv, symObjAddr: 0x1522, symBinAddr: 0xBEA2, symSize: 0xC }
  - { offsetInCU: 0x1687A, offset: 0x122343, size: 0x8, addend: 0x0, symName: __ZN3tns14PointerWrapperD1Ev, symObjAddr: 0x152E, symBinAddr: 0xBEAE, symSize: 0x6 }
  - { offsetInCU: 0x168A5, offset: 0x12236E, size: 0x8, addend: 0x0, symName: __ZN3tns14PointerWrapperD0Ev, symObjAddr: 0x1534, symBinAddr: 0xBEB4, symSize: 0xA }
  - { offsetInCU: 0x168D0, offset: 0x122399, size: 0x8, addend: 0x0, symName: __ZN3tns14PointerWrapper4TypeEv, symObjAddr: 0x153E, symBinAddr: 0xBEBE, symSize: 0xC }
  - { offsetInCU: 0x16B18, offset: 0x1225E1, size: 0x8, addend: 0x0, symName: '__ZZN3tns7Pointer17RegisterAddMethodEN2v85LocalINS1_7ContextEEENS2_INS1_6ObjectEEEEN3$_08__invokeERKNS1_20FunctionCallbackInfoINS1_5ValueEEE', symObjAddr: 0x154A, symBinAddr: 0xBECA, symSize: 0x174 }
  - { offsetInCU: 0x1728D, offset: 0x122D56, size: 0x8, addend: 0x0, symName: '__ZZN3tns7Pointer22RegisterSubtractMethodEN2v85LocalINS1_7ContextEEENS2_INS1_6ObjectEEEEN3$_18__invokeERKNS1_20FunctionCallbackInfoINS1_5ValueEEE', symObjAddr: 0x16BE, symBinAddr: 0xC03E, symSize: 0x1F8 }
  - { offsetInCU: 0x17C0B, offset: 0x1236D4, size: 0x8, addend: 0x0, symName: '__ZZN3tns7Pointer22RegisterToStringMethodEN2v85LocalINS1_7ContextEEENS2_INS1_6ObjectEEEEN3$_28__invokeERKNS1_20FunctionCallbackInfoINS1_5ValueEEE', symObjAddr: 0x18B6, symBinAddr: 0xC236, symSize: 0x150 }
  - { offsetInCU: 0x18230, offset: 0x123CF9, size: 0x8, addend: 0x0, symName: '__ZZN3tns7Pointer25RegisterToHexStringMethodEN2v85LocalINS1_7ContextEEENS2_INS1_6ObjectEEEEN3$_38__invokeERKNS1_20FunctionCallbackInfoINS1_5ValueEEE', symObjAddr: 0x1A06, symBinAddr: 0xC386, symSize: 0x150 }
  - { offsetInCU: 0x18861, offset: 0x12432A, size: 0x8, addend: 0x0, symName: '__ZZN3tns7Pointer29RegisterToDecimalStringMethodEN2v85LocalINS1_7ContextEEENS2_INS1_6ObjectEEEEN3$_48__invokeERKNS1_20FunctionCallbackInfoINS1_5ValueEEE', symObjAddr: 0x1B56, symBinAddr: 0xC4D6, symSize: 0x150 }
  - { offsetInCU: 0x18EDC, offset: 0x1249A5, size: 0x8, addend: 0x0, symName: '__ZZN3tns7Pointer22RegisterToNumberMethodEN2v85LocalINS1_7ContextEEENS2_INS1_6ObjectEEEEN3$_58__invokeERKNS1_20FunctionCallbackInfoINS1_5ValueEEE', symObjAddr: 0x1CA6, symBinAddr: 0xC626, symSize: 0x9E }
  - { offsetInCU: 0x191EC, offset: 0x124CB5, size: 0x8, addend: 0x0, symName: '__ZZN3tns7Pointer22RegisterToBigIntMethodEN2v85LocalINS1_7ContextEEENS2_INS1_6ObjectEEEEN3$_68__invokeERKNS1_20FunctionCallbackInfoINS1_5ValueEEE', symObjAddr: 0x1D44, symBinAddr: 0xC6C4, symSize: 0x8A }
  - { offsetInCU: 0x199F5, offset: 0x1254BE, size: 0x8, addend: 0x0, symName: __ZNSt3__120__shared_ptr_emplaceIN2v810PersistentINS1_6ObjectENS1_27NonCopyablePersistentTraitsIS3_EEEENS_9allocatorIS6_EEEC2B7v160006IJRPNS1_7IsolateENS1_5LocalIS3_EEEEES8_DpOT_, symObjAddr: 0x2044, symBinAddr: 0xC894, symSize: 0x52 }
  - { offsetInCU: 0x19C2F, offset: 0x1256F8, size: 0x8, addend: 0x0, symName: __ZNSt3__120__shared_ptr_emplaceIN2v810PersistentINS1_6ObjectENS1_27NonCopyablePersistentTraitsIS3_EEEENS_9allocatorIS6_EEE16__on_zero_sharedEv, symObjAddr: 0x20D8, symBinAddr: 0xC8E8, symSize: 0x6 }
  - { offsetInCU: 0x19C83, offset: 0x12574C, size: 0x8, addend: 0x0, symName: __ZN10robin_hood6detail5TableILb1ELm80EPKvNSt3__110shared_ptrIN2v810PersistentINS6_6ObjectENS6_27NonCopyablePersistentTraitsIS8_EEEEEENS_4hashIS3_vEENS4_8equal_toIS3_EEE13increase_sizeEv, symObjAddr: 0x22D4, symBinAddr: 0xCAE4, symSize: 0x108 }
  - { offsetInCU: 0x19D49, offset: 0x125812, size: 0x8, addend: 0x0, symName: __ZN10robin_hood6detail5TableILb1ELm80EPKvNSt3__110shared_ptrIN2v810PersistentINS6_6ObjectENS6_27NonCopyablePersistentTraitsIS8_EEEEEENS_4hashIS3_vEENS4_8equal_toIS3_EEE7shiftUpEmm, symObjAddr: 0x23DC, symBinAddr: 0xCBEC, symSize: 0xCE }
  - { offsetInCU: 0x19ED7, offset: 0x1259A0, size: 0x8, addend: 0x0, symName: __ZN10robin_hood6detail5TableILb1ELm80EPKvNSt3__110shared_ptrIN2v810PersistentINS6_6ObjectENS6_27NonCopyablePersistentTraitsIS8_EEEEEENS_4hashIS3_vEENS4_8equal_toIS3_EEE17try_increase_infoEv, symObjAddr: 0x2590, symBinAddr: 0xCDA0, symSize: 0xE8 }
  - { offsetInCU: 0x19FD6, offset: 0x125A9F, size: 0x8, addend: 0x0, symName: __ZN10robin_hood6detail5TableILb1ELm80EPKvNSt3__110shared_ptrIN2v810PersistentINS6_6ObjectENS6_27NonCopyablePersistentTraitsIS8_EEEEEENS_4hashIS3_vEENS4_8equal_toIS3_EEE8initDataEm, symObjAddr: 0x24AA, symBinAddr: 0xCCBA, symSize: 0xE6 }
  - { offsetInCU: 0x1A0B9, offset: 0x125B82, size: 0x8, addend: 0x0, symName: __ZN10robin_hood6detail5TableILb1ELm80EPKvNSt3__110shared_ptrIN2v810PersistentINS6_6ObjectENS6_27NonCopyablePersistentTraitsIS8_EEEEEENS_4hashIS3_vEENS4_8equal_toIS3_EEE17try_increase_infoEv, symObjAddr: 0x2590, symBinAddr: 0xCDA0, symSize: 0xE8 }
  - { offsetInCU: 0x1A0C4, offset: 0x125B8D, size: 0x8, addend: 0x0, symName: __ZN10robin_hood6detail5TableILb1ELm80EPKvNSt3__110shared_ptrIN2v810PersistentINS6_6ObjectENS6_27NonCopyablePersistentTraitsIS8_EEEEEENS_4hashIS3_vEENS4_8equal_toIS3_EEE16rehashPowerOfTwoEmb, symObjAddr: 0x2678, symBinAddr: 0xCE88, symSize: 0xFB }
  - { offsetInCU: 0x1A33A, offset: 0x125E03, size: 0x8, addend: 0x0, symName: __ZN10robin_hood6detail5TableILb1ELm80EPKvNSt3__110shared_ptrIN2v810PersistentINS6_6ObjectENS6_27NonCopyablePersistentTraitsIS8_EEEEEENS_4hashIS3_vEENS4_8equal_toIS3_EEE11insert_moveEONSH_8DataNodeISH_Lb1EEE, symObjAddr: 0x27A4, symBinAddr: 0xCF84, symSize: 0x13C }
  - { offsetInCU: 0x2158, offset: 0x12828F, size: 0x8, addend: 0x0, symName: __ZN3tns10ToNSStringEPN2v87IsolateERKNS0_5LocalINS0_5ValueEEE, symObjAddr: 0x29B8, symBinAddr: 0xF7F8, symSize: 0xC6 }
  - { offsetInCU: 0xF00B, offset: 0x135142, size: 0x8, addend: 0x0, symName: __ZNSt3__119__allocate_at_leastB7v160006INS_9allocatorIPKN3tns10MethodMetaEEEEENS_19__allocation_resultINS_16allocator_traitsIT_E7pointerEEERS9_m, symObjAddr: 0x8620, symBinAddr: 0x13530, symSize: 0x2E }
  - { offsetInCU: 0xF0B0, offset: 0x1351E7, size: 0x8, addend: 0x0, symName: __ZNSt3__16vectorIN2v85LocalINS1_5ValueEEENS_9allocatorIS4_EEE6assignIPS4_Li0EEEvT_SA_, symObjAddr: 0x864E, symBinAddr: 0x1355E, symSize: 0x138 }
  - { offsetInCU: 0xFD71, offset: 0x135EA8, size: 0x8, addend: 0x0, symName: __ZNSt3__115allocate_sharedB7v160006IN2v810PersistentINS1_5ValueENS1_27NonCopyablePersistentTraitsIS3_EEEENS_9allocatorIS6_EEJRPNS1_7IsolateERNS1_5LocalINS1_6ObjectEEEEvEENS_10shared_ptrIT_EERKT0_DpOT1_, symObjAddr: 0x9666, symBinAddr: 0x144C6, symSize: 0x5C }
  - { offsetInCU: 0x115C3, offset: 0x1376FA, size: 0x8, addend: 0x0, symName: __ZNK3tns10MethodMeta8selectorEv, symObjAddr: 0x5F40, symBinAddr: 0x12630, symSize: 0x208 }
  - { offsetInCU: 0x115E8, offset: 0x13771F, size: 0x8, addend: 0x0, symName: __ZZNK3tns10MethodMeta8selectorEvE23methodMetaSelectorCache, symObjAddr: 0xB390, symBinAddr: 0xE35C88, symSize: 0x0 }
  - { offsetInCU: 0x115FF, offset: 0x137736, size: 0x8, addend: 0x0, symName: __ZZNK3tns10MethodMeta8selectorEvE1p, symObjAddr: 0xB3D0, symBinAddr: 0xE35CC8, symSize: 0x0 }
  - { offsetInCU: 0x1CA2A, offset: 0x142B61, size: 0x8, addend: 0x0, symName: __ZN3tns12ArgConverter4InitEN2v85LocalINS1_7ContextEEEPFvNS2_INS1_4NameEEERKNS1_20PropertyCallbackInfoINS1_5ValueEEEEPFvS6_NS2_IS8_EESB_E, symObjAddr: 0x0, symBinAddr: 0xD110, symSize: 0x168 }
  - { offsetInCU: 0x1CF85, offset: 0x1430BC, size: 0x8, addend: 0x0, symName: __ZN3tns12ArgConverter27CreateEmptyInstanceFunctionEN2v85LocalINS1_7ContextEEEPFvNS2_INS1_4NameEEERKNS1_20PropertyCallbackInfoINS1_5ValueEEEEPFvS6_NS2_IS8_EESB_E, symObjAddr: 0x168, symBinAddr: 0xD278, symSize: 0x148 }
  - { offsetInCU: 0x1DE54, offset: 0x143F8B, size: 0x8, addend: 0x0, symName: __ZN3tns12ArgConverter6InvokeEN2v85LocalINS1_7ContextEEEP10objc_classNS2_INS1_6ObjectEEERNS_6V8ArgsEPKNS_10MethodMetaEb, symObjAddr: 0x2B0, symBinAddr: 0xD3C0, symSize: 0x6C4 }
  - { offsetInCU: 0x200BD, offset: 0x1461F4, size: 0x8, addend: 0x0, symName: __ZNSt3__112basic_stringIcNS_11char_traitsIcEENS_9allocatorIcEEEC2B7v160006IDnEEPKc, symObjAddr: 0x7690, symBinAddr: 0x12C00, symSize: 0x7A }
  - { offsetInCU: 0x2049A, offset: 0x1465D1, size: 0x8, addend: 0x0, symName: __ZNK10robin_hood6detail5TableILb1ELm80ENSt3__112basic_stringIcNS2_11char_traitsIcEENS2_9allocatorIcEEEENS2_10unique_ptrIN2v810PersistentINSA_6ObjectENSA_27NonCopyablePersistentTraitsISC_EEEENS2_14default_deleteISF_EEEENS_4hashIS8_vEENS2_8equal_toIS8_EEE7findIdxIS8_EEmRKT_, symObjAddr: 0x770A, symBinAddr: 0x12C7A, symSize: 0xEA }
  - { offsetInCU: 0x204BE, offset: 0x1465F5, size: 0x8, addend: 0x0, symName: __ZN3tns12ArgConverter19FindMethodOverloadsEP10objc_classNSt3__112basic_stringIcNS3_11char_traitsIcEENS3_9allocatorIcEEEENS_10MemberTypeERNS3_6vectorIPKNS_10MethodMetaENS7_ISE_EEEE, symObjAddr: 0x974, symBinAddr: 0xDA84, symSize: 0x2A6 }
  - { offsetInCU: 0x21438, offset: 0x14756F, size: 0x8, addend: 0x0, symName: __ZN3tns14ObjCMethodCallC2EN2v85LocalINS1_7ContextEEEPKNS_10MethodMetaEP11objc_objectP10objc_classRNS_6V8ArgsEb, symObjAddr: 0x5DAA, symBinAddr: 0x1249A, symSize: 0x196 }
  - { offsetInCU: 0x21AF4, offset: 0x147C2B, size: 0x8, addend: 0x0, symName: __ZNK10robin_hood6detail5TableILb1ELm80ENSt3__112basic_stringIcNS2_11char_traitsIcEENS2_9allocatorIcEEEENS2_10unique_ptrIN2v810PersistentINSA_6ObjectENSA_27NonCopyablePersistentTraitsISC_EEEENS2_14default_deleteISF_EEEENS_4hashIS8_vEENS2_8equal_toIS8_EEE7findIdxIS8_EEmRKT_, symObjAddr: 0x770A, symBinAddr: 0x12C7A, symSize: 0xEA }
  - { offsetInCU: 0x21C9C, offset: 0x147DD3, size: 0x8, addend: 0x0, symName: __ZNKSt3__115basic_stringbufIcNS_11char_traitsIcEENS_9allocatorIcEEE3strEv, symObjAddr: 0x7C80, symBinAddr: 0x12E00, symSize: 0x6A }
  - { offsetInCU: 0x22554, offset: 0x14868B, size: 0x8, addend: 0x0, symName: __ZN3tns12ArgConverter8FindMetaEP10objc_classPKNS_12TypeEncodingE, symObjAddr: 0x3016, symBinAddr: 0xFDA6, symSize: 0x260 }
  - { offsetInCU: 0x2341E, offset: 0x149555, size: 0x8, addend: 0x0, symName: __ZNK3tns13InterfaceMeta8baseNameEv, symObjAddr: 0x5520, symBinAddr: 0x12170, symSize: 0x66 }
  - { offsetInCU: 0x237BB, offset: 0x1498F2, size: 0x8, addend: 0x0, symName: __ZNKSt3__16vectorIPKN3tns10MethodMetaENS_9allocatorIS4_EEE20__throw_length_errorB7v160006Ev, symObjAddr: 0x8610, symBinAddr: 0x13520, symSize: 0x10 }
  - { offsetInCU: 0x237E4, offset: 0x14991B, size: 0x8, addend: 0x0, symName: __ZNSt3__119__allocate_at_leastB7v160006INS_9allocatorIPKN3tns10MethodMetaEEEEENS_19__allocation_resultINS_16allocator_traitsIT_E7pointerEEERS9_m, symObjAddr: 0x8620, symBinAddr: 0x13530, symSize: 0x2E }
  - { offsetInCU: 0x23924, offset: 0x149A5B, size: 0x8, addend: 0x0, symName: __ZN3tns12ArgConverter15ConvertArgumentEN2v85LocalINS1_7ContextEEEPNS_15BaseDataWrapperEbRKNSt3__16vectorINS7_12basic_stringIcNS7_11char_traitsIcEENS7_9allocatorIcEEEENSC_ISE_EEEE, symObjAddr: 0xD54, symBinAddr: 0xDD34, symSize: 0x4C }
  - { offsetInCU: 0x239C5, offset: 0x149AFC, size: 0x8, addend: 0x0, symName: __ZN3tns12ArgConverter15CreateJsWrapperEN2v85LocalINS1_7ContextEEEPNS_15BaseDataWrapperENS2_INS1_6ObjectEEEbRKNSt3__16vectorINS9_12basic_stringIcNS9_11char_traitsIcEENS9_9allocatorIcEEEENSE_ISG_EEEE, symObjAddr: 0xDA0, symBinAddr: 0xDD80, symSize: 0xBC0 }
  - { offsetInCU: 0x270B0, offset: 0x14D1E7, size: 0x8, addend: 0x0, symName: __ZN3tns12ArgConverter17CreateEmptyObjectEN2v85LocalINS1_7ContextEEEb, symObjAddr: 0x47BA, symBinAddr: 0x1148A, symSize: 0x10A }
  - { offsetInCU: 0x27625, offset: 0x14D75C, size: 0x8, addend: 0x0, symName: __ZN3tns12ArgConverter17CreateEmptyStructEN2v85LocalINS1_7ContextEEE, symObjAddr: 0x4670, symBinAddr: 0x11380, symSize: 0x107 }
  - { offsetInCU: 0x27DE7, offset: 0x14DF1E, size: 0x8, addend: 0x0, symName: __ZNK10robin_hood6detail5TableILb1ELm80EPKN3tns4MetaENSt3__110unique_ptrIN2v810PersistentINS8_5ValueENS8_27NonCopyablePersistentTraitsISA_EEEENS6_14default_deleteISD_EEEENS_4hashIS5_vEENS6_8equal_toIS5_EEE7findIdxIS5_EEmRKT_, symObjAddr: 0x8818, symBinAddr: 0x136D8, symSize: 0xD0 }
  - { offsetInCU: 0x280B3, offset: 0x14E1EA, size: 0x8, addend: 0x0, symName: __ZN10robin_hood6detail5TableILb1ELm80EP11objc_objectNSt3__110shared_ptrIN2v810PersistentINS6_5ValueENS6_27NonCopyablePersistentTraitsIS8_EEEEEENS_4hashIS3_vEENS4_8equal_toIS3_EEE7emplaceIJRS3_RSC_EEENS4_4pairINSH_4IterILb0EEEbEEDpOT_, symObjAddr: 0x3AE0, symBinAddr: 0x10870, symSize: 0x11E }
  - { offsetInCU: 0x2863E, offset: 0x14E775, size: 0x8, addend: 0x0, symName: __ZN3tns10StructInfoD1Ev, symObjAddr: 0x2C08, symBinAddr: 0xF9E8, symSize: 0x2E }
  - { offsetInCU: 0x2903E, offset: 0x14F175, size: 0x8, addend: 0x0, symName: __ZN3tns12ArgConverter14MethodCallbackEP7ffi_cifPvPS3_S3_, symObjAddr: 0x1960, symBinAddr: 0xE940, symSize: 0x8D8 }
  - { offsetInCU: 0x2AC3B, offset: 0x150D72, size: 0x8, addend: 0x0, symName: __ZNSt3__16vectorIN2v85LocalINS1_5ValueEEENS_9allocatorIS4_EEE7reserveEm, symObjAddr: 0x2238, symBinAddr: 0xF218, symSize: 0x8E }
  - { offsetInCU: 0x2B152, offset: 0x151289, size: 0x8, addend: 0x0, symName: __ZN3tns12ArgConverter19IsErrorOutParameterEPKNS_12TypeEncodingE, symObjAddr: 0x23C4, symBinAddr: 0xF2B4, symSize: 0x81 }
  - { offsetInCU: 0x2B42D, offset: 0x151564, size: 0x8, addend: 0x0, symName: __ZN3tns12ArgConverter8SetValueEN2v85LocalINS1_7ContextEEEPvNS2_INS1_5ValueEEEPKNS_12TypeEncodingE, symObjAddr: 0x24FA, symBinAddr: 0xF33A, symSize: 0x4BE }
  - { offsetInCU: 0x2CA16, offset: 0x152B4D, size: 0x8, addend: 0x0, symName: __ZN3tns12ArgConverter7GetMetaENSt3__112basic_stringIcNS1_11char_traitsIcEENS1_9allocatorIcEEEE, symObjAddr: 0x2AE2, symBinAddr: 0xF8C2, symSize: 0x126 }
  - { offsetInCU: 0x2D1D8, offset: 0x15330F, size: 0x8, addend: 0x0, symName: __ZNK10robin_hood6detail5TableILb1ELm80ENSt3__112basic_stringIcNS2_11char_traitsIcEENS2_9allocatorIcEEEEPKN3tns4MetaENS_4hashIS8_vEENS2_8equal_toIS8_EEE7findIdxIS8_EEmRKT_, symObjAddr: 0x919E, symBinAddr: 0x1405E, symSize: 0xEA }
  - { offsetInCU: 0x2D30C, offset: 0x153443, size: 0x8, addend: 0x0, symName: __ZNK3tns11GlobalTableILNS_15GlobalTableTypeE0EE8findMetaEPKcb, symObjAddr: 0x4906, symBinAddr: 0x11596, symSize: 0x42 }
  - { offsetInCU: 0x2D3A2, offset: 0x1534D9, size: 0x8, addend: 0x0, symName: __ZNK3tns11GlobalTableILNS_15GlobalTableTypeE1EE8findMetaEPKcb, symObjAddr: 0x4948, symBinAddr: 0x115D8, symSize: 0x42 }
  - { offsetInCU: 0x2D43D, offset: 0x153574, size: 0x8, addend: 0x0, symName: __ZN10robin_hood6detail5TableILb1ELm80ENSt3__112basic_stringIcNS2_11char_traitsIcEENS2_9allocatorIcEEEEPKN3tns4MetaENS_4hashIS8_vEENS2_8equal_toIS8_EEEixISC_EENS2_9enable_ifIXntsr3std7is_voidIT_EE5valueERSK_E4typeERKS8_, symObjAddr: 0x88E8, symBinAddr: 0x137A8, symSize: 0xDE }
  - { offsetInCU: 0x2DAD1, offset: 0x153C08, size: 0x8, addend: 0x0, symName: __ZN3tns12ArgConverter15ConstructObjectEN2v85LocalINS1_7ContextEEERKNS1_20FunctionCallbackInfoINS1_5ValueEEEP10objc_classPKNS_13InterfaceMetaE, symObjAddr: 0x2C86, symBinAddr: 0xFA16, symSize: 0x390 }
  - { offsetInCU: 0x2E774, offset: 0x1548AB, size: 0x8, addend: 0x0, symName: __ZN3tns12ArgConverter15FindInitializerEN2v85LocalINS1_7ContextEEEP10objc_classPKNS_13InterfaceMetaERKNS1_20FunctionCallbackInfoINS1_5ValueEEERNSt3__16vectorINS2_ISB_EENSF_9allocatorISH_EEEE, symObjAddr: 0x3276, symBinAddr: 0x10006, symSize: 0x86A }
  - { offsetInCU: 0x31698, offset: 0x1577CF, size: 0x8, addend: 0x0, symName: __ZN3tns12ArgConverter15GetInitializersEPNS_6CachesEP10objc_classPKNS_13InterfaceMetaE, symObjAddr: 0x3FD6, symBinAddr: 0x10D66, symSize: 0xDE }
  - { offsetInCU: 0x31A98, offset: 0x157BCF, size: 0x8, addend: 0x0, symName: __ZN3tns12ArgConverter9CanInvokeEN2v85LocalINS1_7ContextEEEPKNS_10MethodMetaERKNS1_20FunctionCallbackInfoINS1_5ValueEEE, symObjAddr: 0x40B4, symBinAddr: 0x10E44, symSize: 0x13E }
  - { offsetInCU: 0x3210E, offset: 0x158245, size: 0x8, addend: 0x0, symName: __ZNK3tns13InterfaceMeta8baseMetaEv, symObjAddr: 0x41F2, symBinAddr: 0x10F82, symSize: 0x3A }
  - { offsetInCU: 0x3217B, offset: 0x1582B2, size: 0x8, addend: 0x0, symName: __ZNSt3__16vectorIN2v85LocalINS1_5ValueEEENS_9allocatorIS4_EEE6assignIPS4_Li0EEEvT_SA_, symObjAddr: 0x864E, symBinAddr: 0x1355E, symSize: 0x138 }
  - { offsetInCU: 0x32855, offset: 0x15898C, size: 0x8, addend: 0x0, symName: __ZN3tns12ArgConverter18GetInitializerArgsEN2v85LocalINS1_6ObjectEEERNSt3__112basic_stringIcNS5_11char_traitsIcEENS5_9allocatorIcEEEE, symObjAddr: 0x3BFE, symBinAddr: 0x1098E, symSize: 0x3D8 }
  - { offsetInCU: 0x33D54, offset: 0x159E8B, size: 0x8, addend: 0x0, symName: __ZNSt3__118basic_stringstreamIcNS_11char_traitsIcEENS_9allocatorIcEEEC1B7v160006Ev, symObjAddr: 0x422C, symBinAddr: 0x10FBC, symSize: 0xEA }
  - { offsetInCU: 0x3428E, offset: 0x15A3C5, size: 0x8, addend: 0x0, symName: __ZN10robin_hood6detail5TableILb1ELm80EP11objc_objectNSt3__110shared_ptrIN2v810PersistentINS6_5ValueENS6_27NonCopyablePersistentTraitsIS8_EEEEEENS_4hashIS3_vEENS4_8equal_toIS3_EEE25insertKeyPrepareEmptySpotIRKS3_EENS4_4pairImNSH_14InsertionStateEEEOT_, symObjAddr: 0x7E88, symBinAddr: 0x12E78, symSize: 0x160 }
  - { offsetInCU: 0x34507, offset: 0x15A63E, size: 0x8, addend: 0x0, symName: __ZNK10robin_hood6detail5TableILb1ELm80EP11objc_objectNSt3__110shared_ptrIN2v810PersistentINS6_5ValueENS6_27NonCopyablePersistentTraitsIS8_EEEEEENS_4hashIS3_vEENS4_8equal_toIS3_EEE18throwOverflowErrorEv, symObjAddr: 0x7FE8, symBinAddr: 0x12FD8, symSize: 0x4C }
  - { offsetInCU: 0x34758, offset: 0x15A88F, size: 0x8, addend: 0x0, symName: __ZNK10robin_hood6detail5TableILb1ELm80EPKN3tns13InterfaceMetaENSt3__16vectorIPKNS2_10MethodMetaENS6_9allocatorISA_EEEENS_4hashIS5_vEENS6_8equal_toIS5_EEE7findIdxIS5_EEmRKT_, symObjAddr: 0x979A, symBinAddr: 0x1452A, symSize: 0xD0 }
  - { offsetInCU: 0x34ADC, offset: 0x15AC13, size: 0x8, addend: 0x0, symName: __ZNK3tns13BaseClassMeta25initializersWithProtocolsENS_21KnownUnknownClassPairERKNSt3__16vectorIPKNS_12ProtocolMetaENS2_9allocatorIS6_EEEE, symObjAddr: 0x5586, symBinAddr: 0x121D6, symSize: 0x66 }
  - { offsetInCU: 0x34E48, offset: 0x15AF7F, size: 0x8, addend: 0x0, symName: __ZN10robin_hood6detail5TableILb1ELm80EPKN3tns13InterfaceMetaENSt3__16vectorIPKNS2_10MethodMetaENS6_9allocatorISA_EEEENS_4hashIS5_vEENS6_8equal_toIS5_EEE7emplaceIJRS5_RSD_EEENS6_4pairINSI_4IterILb0EEEbEEDpOT_, symObjAddr: 0x55EC, symBinAddr: 0x1223C, symSize: 0x159 }
  - { offsetInCU: 0x356A1, offset: 0x15B7D8, size: 0x8, addend: 0x0, symName: __ZN3tns12ArgConverter9CanInvokeEN2v85LocalINS1_7ContextEEEPKNS_12TypeEncodingENS2_INS1_5ValueEEE, symObjAddr: 0x439A, symBinAddr: 0x110AA, symSize: 0x2D6 }
  - { offsetInCU: 0x36075, offset: 0x15C1AC, size: 0x8, addend: 0x0, symName: __ZN3tns12ArgConverter19CreateEmptyInstanceEN2v85LocalINS1_7ContextEEEPNS1_10PersistentINS1_8FunctionENS1_27NonCopyablePersistentTraitsIS6_EEEEb, symObjAddr: 0x4D16, symBinAddr: 0x119A6, symSize: 0x13E }
  - { offsetInCU: 0x365D2, offset: 0x15C709, size: 0x8, addend: 0x0, symName: __ZN3WTF12StringHasher26computeHashAndMaskTop8BitsIcXadL_ZNS0_16defaultConverterEcEEEEjPKT_, symObjAddr: 0x6F30, symBinAddr: 0x12BB0, symSize: 0x46 }
  - { offsetInCU: 0x36A56, offset: 0x15CB8D, size: 0x8, addend: 0x0, symName: __ZNK3tns11GlobalTableILNS_15GlobalTableTypeE1EE8findMetaEPKcmjb, symObjAddr: 0x9288, symBinAddr: 0x14148, symSize: 0x15A }
  - { offsetInCU: 0x3722A, offset: 0x15D361, size: 0x8, addend: 0x0, symName: __ZN3tns12ArgConverter16FindProtocolMetaEP8Protocol, symObjAddr: 0x498A, symBinAddr: 0x1161A, symSize: 0x38C }
  - { offsetInCU: 0x38BB0, offset: 0x15ECE7, size: 0x8, addend: 0x0, symName: __ZNSt3__115allocate_sharedB7v160006IN2v810PersistentINS1_5ValueENS1_27NonCopyablePersistentTraitsIS3_EEEENS_9allocatorIS6_EEJRPNS1_7IsolateERNS1_5LocalINS1_6ObjectEEEEvEENS_10shared_ptrIT_EERKT0_DpOT1_, symObjAddr: 0x9666, symBinAddr: 0x144C6, symSize: 0x5C }
  - { offsetInCU: 0x38E53, offset: 0x15EF8A, size: 0x8, addend: 0x0, symName: __ZN3tns12ArgConverter29IndexedPropertyGetterCallbackEjRKN2v820PropertyCallbackInfoINS1_5ValueEEE, symObjAddr: 0x4E9E, symBinAddr: 0x11AEE, symSize: 0x5C4 }
  - { offsetInCU: 0x39F6D, offset: 0x1600A4, size: 0x8, addend: 0x0, symName: __ZN3tns12ArgConverter29IndexedPropertySetterCallbackEjN2v85LocalINS1_5ValueEEERKNS1_20PropertyCallbackInfoIS3_EE, symObjAddr: 0x5462, symBinAddr: 0x120B2, symSize: 0xBE }
  - { offsetInCU: 0x3A536, offset: 0x16066D, size: 0x8, addend: 0x0, symName: __ZN10robin_hood6detail5TableILb1ELm80EPKN3tns13InterfaceMetaENSt3__16vectorIPKNS2_10MethodMetaENS6_9allocatorISA_EEEENS_4hashIS5_vEENS6_8equal_toIS5_EEE25insertKeyPrepareEmptySpotIRKS5_EENS6_4pairImNSI_14InsertionStateEEEOT_, symObjAddr: 0x9916, symBinAddr: 0x14636, symSize: 0x160 }
  - { offsetInCU: 0x3A6E6, offset: 0x16081D, size: 0x8, addend: 0x0, symName: __ZNK10robin_hood6detail5TableILb1ELm80EPKN3tns13InterfaceMetaENSt3__16vectorIPKNS2_10MethodMetaENS6_9allocatorISA_EEEENS_4hashIS5_vEENS6_8equal_toIS5_EEE18throwOverflowErrorEv, symObjAddr: 0x9A76, symBinAddr: 0x14796, symSize: 0x4C }
  - { offsetInCU: 0x3A9F2, offset: 0x160B29, size: 0x8, addend: 0x0, symName: __ZTv0_n24_NSt3__119basic_ostringstreamIcNS_11char_traitsIcEENS_9allocatorIcEEED0Ev, symObjAddr: 0x5990, symBinAddr: 0x123A0, symSize: 0x8E }
  - { offsetInCU: 0x3AC96, offset: 0x160DCD, size: 0x8, addend: 0x0, symName: __ZNSt3__115basic_stringbufIcNS_11char_traitsIcEENS_9allocatorIcEEE9pbackfailEi, symObjAddr: 0x5C00, symBinAddr: 0x12430, symSize: 0x5C }
  - { offsetInCU: 0x3B19F, offset: 0x1612D6, size: 0x8, addend: 0x0, symName: __ZN10robin_hood6detail5TableILb1ELm80EPKN3tns10MethodMetaEP13objc_selectorNS_4hashIS5_vEENSt3__18equal_toIS5_EEE7emplaceIJS5_RS7_EEENSA_4pairINSD_4IterILb0EEEbEEDpOT_, symObjAddr: 0x6170, symBinAddr: 0x12840, symSize: 0x92 }
  - { offsetInCU: 0x3BAF8, offset: 0x161C2F, size: 0x8, addend: 0x0, symName: __ZN10robin_hood6detail5TableILb1ELm80EPKN3tns10MethodMetaEP13objc_selectorNS_4hashIS5_vEENSt3__18equal_toIS5_EEE11insert_moveEONSD_8DataNodeISD_Lb1EEE, symObjAddr: 0x6908, symBinAddr: 0x128D8, symSize: 0x10A }
  - { offsetInCU: 0x3BE0E, offset: 0x161F45, size: 0x8, addend: 0x0, symName: __ZNSt12length_errorC1B7v160006EPKc, symObjAddr: 0x6B20, symBinAddr: 0x129F0, symSize: 0x24 }
  - { offsetInCU: 0x3C094, offset: 0x1621CB, size: 0x8, addend: 0x0, symName: __ZNSt3__128__exception_guard_exceptionsINS_6vectorIN3tns11StructFieldENS_9allocatorIS3_EEE16__destroy_vectorEED2B7v160006Ev, symObjAddr: 0x6D5C, symBinAddr: 0x12A3C, symSize: 0x1A }
  - { offsetInCU: 0x3C267, offset: 0x16239E, size: 0x8, addend: 0x0, symName: __ZNSt3__128__exception_guard_exceptionsINS_29_AllocatorDestroyRangeReverseINS_9allocatorIN3tns11StructFieldEEEPS4_EEED2B7v160006Ev, symObjAddr: 0x6D08, symBinAddr: 0x12A18, symSize: 0x1A }
  - { offsetInCU: 0x3C5E5, offset: 0x16271C, size: 0x8, addend: 0x0, symName: __ZNSt3__16vectorIN3tns11StructFieldENS_9allocatorIS2_EEE22__base_destruct_at_endB7v160006EPS2_, symObjAddr: 0x6DA8, symBinAddr: 0x12A58, symSize: 0x44 }
  - { offsetInCU: 0x3C803, offset: 0x16293A, size: 0x8, addend: 0x0, symName: __ZNK3tns12V8VectorArgsixEi, symObjAddr: 0x6DEC, symBinAddr: 0x12A9C, symSize: 0x14 }
  - { offsetInCU: 0x3C859, offset: 0x162990, size: 0x8, addend: 0x0, symName: __ZNK3tns12V8VectorArgs6LengthEv, symObjAddr: 0x6E00, symBinAddr: 0x12AB0, symSize: 0x16 }
  - { offsetInCU: 0x3C89A, offset: 0x1629D1, size: 0x8, addend: 0x0, symName: __ZNK3tns11GlobalTableILNS_15GlobalTableTypeE0EE17findInterfaceMetaEPKcmj, symObjAddr: 0x6E54, symBinAddr: 0x12AD4, symSize: 0xDC }
  - { offsetInCU: 0x3D59E, offset: 0x1636D5, size: 0x8, addend: 0x0, symName: __ZNKSt3__18equal_toINS_12basic_stringIcNS_11char_traitsIcEENS_9allocatorIcEEEEEclB7v160006ERKS6_S9_, symObjAddr: 0x77F4, symBinAddr: 0x12D64, symSize: 0x9A }
  - { offsetInCU: 0x3DB21, offset: 0x163C58, size: 0x8, addend: 0x0, symName: __ZNKSt3__115basic_stringbufIcNS_11char_traitsIcEENS_9allocatorIcEEE3strEv, symObjAddr: 0x7C80, symBinAddr: 0x12E00, symSize: 0x6A }
  - { offsetInCU: 0x3DF64, offset: 0x16409B, size: 0x8, addend: 0x0, symName: __ZN10robin_hood6detail5TableILb1ELm80EP11objc_objectNSt3__110shared_ptrIN2v810PersistentINS6_5ValueENS6_27NonCopyablePersistentTraitsIS8_EEEEEENS_4hashIS3_vEENS4_8equal_toIS3_EEE13increase_sizeEv, symObjAddr: 0x8034, symBinAddr: 0x13024, symSize: 0x108 }
  - { offsetInCU: 0x3E02A, offset: 0x164161, size: 0x8, addend: 0x0, symName: __ZN10robin_hood6detail5TableILb1ELm80EP11objc_objectNSt3__110shared_ptrIN2v810PersistentINS6_5ValueENS6_27NonCopyablePersistentTraitsIS8_EEEEEENS_4hashIS3_vEENS4_8equal_toIS3_EEE7shiftUpEmm, symObjAddr: 0x813C, symBinAddr: 0x1312C, symSize: 0xCE }
  - { offsetInCU: 0x3E17F, offset: 0x1642B6, size: 0x8, addend: 0x0, symName: __ZN10robin_hood6detail5TableILb1ELm80EP11objc_objectNSt3__110shared_ptrIN2v810PersistentINS6_5ValueENS6_27NonCopyablePersistentTraitsIS8_EEEEEENS_4hashIS3_vEENS4_8equal_toIS3_EEE17try_increase_infoEv, symObjAddr: 0x82F0, symBinAddr: 0x13200, symSize: 0xE8 }
  - { offsetInCU: 0x3E317, offset: 0x16444E, size: 0x8, addend: 0x0, symName: __ZN10robin_hood6detail5TableILb1ELm80EP11objc_objectNSt3__110shared_ptrIN2v810PersistentINS6_5ValueENS6_27NonCopyablePersistentTraitsIS8_EEEEEENS_4hashIS3_vEENS4_8equal_toIS3_EEE17try_increase_infoEv, symObjAddr: 0x82F0, symBinAddr: 0x13200, symSize: 0xE8 }
  - { offsetInCU: 0x3E323, offset: 0x16445A, size: 0x8, addend: 0x0, symName: __ZN10robin_hood6detail5TableILb1ELm80EP11objc_objectNSt3__110shared_ptrIN2v810PersistentINS6_5ValueENS6_27NonCopyablePersistentTraitsIS8_EEEEEENS_4hashIS3_vEENS4_8equal_toIS3_EEE16rehashPowerOfTwoEmb, symObjAddr: 0x83D8, symBinAddr: 0x132E8, symSize: 0xFC }
  - { offsetInCU: 0x3E58A, offset: 0x1646C1, size: 0x8, addend: 0x0, symName: __ZN10robin_hood6detail5TableILb1ELm80EP11objc_objectNSt3__110shared_ptrIN2v810PersistentINS6_5ValueENS6_27NonCopyablePersistentTraitsIS8_EEEEEENS_4hashIS3_vEENS4_8equal_toIS3_EEE11insert_moveEONSH_8DataNodeISH_Lb1EEE, symObjAddr: 0x84D4, symBinAddr: 0x133E4, symSize: 0x13C }
  - { offsetInCU: 0x3EA50, offset: 0x164B87, size: 0x8, addend: 0x0, symName: __ZNSt3__16vectorIN2v85LocalINS1_5ValueEEENS_9allocatorIS4_EEE11__vallocateB7v160006Em, symObjAddr: 0x8786, symBinAddr: 0x13696, symSize: 0x39 }
  - { offsetInCU: 0x3EEE7, offset: 0x16501E, size: 0x8, addend: 0x0, symName: __ZN10robin_hood6detail5TableILb1ELm80ENSt3__112basic_stringIcNS2_11char_traitsIcEENS2_9allocatorIcEEEEPKN3tns4MetaENS_4hashIS8_vEENS2_8equal_toIS8_EEE25insertKeyPrepareEmptySpotIRKS8_EENS2_4pairImNSH_14InsertionStateEEEOT_, symObjAddr: 0x89C6, symBinAddr: 0x13886, symSize: 0x15C }
  - { offsetInCU: 0x3F042, offset: 0x165179, size: 0x8, addend: 0x0, symName: __ZNK10robin_hood6detail5TableILb1ELm80ENSt3__112basic_stringIcNS2_11char_traitsIcEENS2_9allocatorIcEEEEPKN3tns4MetaENS_4hashIS8_vEENS2_8equal_toIS8_EEE18throwOverflowErrorEv, symObjAddr: 0x8B22, symBinAddr: 0x139E2, symSize: 0x4C }
  - { offsetInCU: 0x3F12C, offset: 0x165263, size: 0x8, addend: 0x0, symName: __ZN10robin_hood6detail5TableILb1ELm80ENSt3__112basic_stringIcNS2_11char_traitsIcEENS2_9allocatorIcEEEEPKN3tns4MetaENS_4hashIS8_vEENS2_8equal_toIS8_EEE13increase_sizeEv, symObjAddr: 0x8B6E, symBinAddr: 0x13A2E, symSize: 0x108 }
  - { offsetInCU: 0x3F1F2, offset: 0x165329, size: 0x8, addend: 0x0, symName: __ZN10robin_hood6detail5TableILb1ELm80ENSt3__112basic_stringIcNS2_11char_traitsIcEENS2_9allocatorIcEEEEPKN3tns4MetaENS_4hashIS8_vEENS2_8equal_toIS8_EEE7shiftUpEmm, symObjAddr: 0x8C76, symBinAddr: 0x13B36, symSize: 0x118 }
  - { offsetInCU: 0x3F473, offset: 0x1655AA, size: 0x8, addend: 0x0, symName: __ZN10robin_hood6detail5TableILb1ELm80ENSt3__112basic_stringIcNS2_11char_traitsIcEENS2_9allocatorIcEEEEPKN3tns4MetaENS_4hashIS8_vEENS2_8equal_toIS8_EEE17try_increase_infoEv, symObjAddr: 0x8E76, symBinAddr: 0x13D36, symSize: 0xE8 }
  - { offsetInCU: 0x3F572, offset: 0x1656A9, size: 0x8, addend: 0x0, symName: __ZN10robin_hood6detail5TableILb1ELm80ENSt3__112basic_stringIcNS2_11char_traitsIcEENS2_9allocatorIcEEEEPKN3tns4MetaENS_4hashIS8_vEENS2_8equal_toIS8_EEE8initDataEm, symObjAddr: 0x8D8E, symBinAddr: 0x13C4E, symSize: 0xE8 }
  - { offsetInCU: 0x3F65C, offset: 0x165793, size: 0x8, addend: 0x0, symName: __ZN10robin_hood6detail5TableILb1ELm80ENSt3__112basic_stringIcNS2_11char_traitsIcEENS2_9allocatorIcEEEEPKN3tns4MetaENS_4hashIS8_vEENS2_8equal_toIS8_EEE17try_increase_infoEv, symObjAddr: 0x8E76, symBinAddr: 0x13D36, symSize: 0xE8 }
  - { offsetInCU: 0x3F668, offset: 0x16579F, size: 0x8, addend: 0x0, symName: __ZN10robin_hood6detail5TableILb1ELm80ENSt3__112basic_stringIcNS2_11char_traitsIcEENS2_9allocatorIcEEEEPKN3tns4MetaENS_4hashIS8_vEENS2_8equal_toIS8_EEE16rehashPowerOfTwoEmb, symObjAddr: 0x8F5E, symBinAddr: 0x13E1E, symSize: 0x102 }
  - { offsetInCU: 0x3FA36, offset: 0x165B6D, size: 0x8, addend: 0x0, symName: __ZN10robin_hood6detail5TableILb1ELm80ENSt3__112basic_stringIcNS2_11char_traitsIcEENS2_9allocatorIcEEEEPKN3tns4MetaENS_4hashIS8_vEENS2_8equal_toIS8_EEE11insert_moveEONSH_8DataNodeISH_Lb1EEE, symObjAddr: 0x9060, symBinAddr: 0x13F20, symSize: 0x13E }
  - { offsetInCU: 0x3FE16, offset: 0x165F4D, size: 0x8, addend: 0x0, symName: __ZN3tns11GlobalTableILNS_15GlobalTableTypeE1EE11compareNameERKNS_4MetaEPKcm, symObjAddr: 0x93E2, symBinAddr: 0x142A2, symSize: 0x220 }
  - { offsetInCU: 0x40CE1, offset: 0x166E18, size: 0x8, addend: 0x0, symName: __ZNSt3__16vectorIPKN3tns10MethodMetaENS_9allocatorIS4_EEE11__vallocateB7v160006Em, symObjAddr: 0x98DC, symBinAddr: 0x145FC, symSize: 0x3A }
  - { offsetInCU: 0x40DA8, offset: 0x166EDF, size: 0x8, addend: 0x0, symName: __ZN10robin_hood6detail5TableILb1ELm80EPKN3tns13InterfaceMetaENSt3__16vectorIPKNS2_10MethodMetaENS6_9allocatorISA_EEEENS_4hashIS5_vEENS6_8equal_toIS5_EEE13increase_sizeEv, symObjAddr: 0x9AC2, symBinAddr: 0x147E2, symSize: 0x108 }
  - { offsetInCU: 0x40E6E, offset: 0x166FA5, size: 0x8, addend: 0x0, symName: __ZN10robin_hood6detail5TableILb1ELm80EPKN3tns13InterfaceMetaENSt3__16vectorIPKNS2_10MethodMetaENS6_9allocatorISA_EEEENS_4hashIS5_vEENS6_8equal_toIS5_EEE7shiftUpEmm, symObjAddr: 0x9BCA, symBinAddr: 0x148EA, symSize: 0xDE }
  - { offsetInCU: 0x40FDA, offset: 0x167111, size: 0x8, addend: 0x0, symName: __ZN10robin_hood6detail5TableILb1ELm80EPKN3tns13InterfaceMetaENSt3__16vectorIPKNS2_10MethodMetaENS6_9allocatorISA_EEEENS_4hashIS5_vEENS6_8equal_toIS5_EEE17try_increase_infoEv, symObjAddr: 0x9D90, symBinAddr: 0x14AB0, symSize: 0xE8 }
  - { offsetInCU: 0x410D9, offset: 0x167210, size: 0x8, addend: 0x0, symName: __ZN10robin_hood6detail5TableILb1ELm80EPKN3tns13InterfaceMetaENSt3__16vectorIPKNS2_10MethodMetaENS6_9allocatorISA_EEEENS_4hashIS5_vEENS6_8equal_toIS5_EEE8initDataEm, symObjAddr: 0x9CA8, symBinAddr: 0x149C8, symSize: 0xE8 }
  - { offsetInCU: 0x411C3, offset: 0x1672FA, size: 0x8, addend: 0x0, symName: __ZN10robin_hood6detail5TableILb1ELm80EPKN3tns13InterfaceMetaENSt3__16vectorIPKNS2_10MethodMetaENS6_9allocatorISA_EEEENS_4hashIS5_vEENS6_8equal_toIS5_EEE17try_increase_infoEv, symObjAddr: 0x9D90, symBinAddr: 0x14AB0, symSize: 0xE8 }
  - { offsetInCU: 0x411CF, offset: 0x167306, size: 0x8, addend: 0x0, symName: __ZN10robin_hood6detail5TableILb1ELm80EPKN3tns13InterfaceMetaENSt3__16vectorIPKNS2_10MethodMetaENS6_9allocatorISA_EEEENS_4hashIS5_vEENS6_8equal_toIS5_EEE16rehashPowerOfTwoEmb, symObjAddr: 0x9E78, symBinAddr: 0x14B98, symSize: 0x104 }
  - { offsetInCU: 0x41550, offset: 0x167687, size: 0x8, addend: 0x0, symName: __ZNSt3__16vectorIPKN3tns10MethodMetaENS_9allocatorIS4_EEE13__move_assignERS7_NS_17integral_constantIbLb1EEE, symObjAddr: 0xA0D0, symBinAddr: 0x14DF0, symSize: 0x4F }
  - { offsetInCU: 0x41720, offset: 0x167857, size: 0x8, addend: 0x0, symName: __ZN10robin_hood6detail5TableILb1ELm80EPKN3tns13InterfaceMetaENSt3__16vectorIPKNS2_10MethodMetaENS6_9allocatorISA_EEEENS_4hashIS5_vEENS6_8equal_toIS5_EEE11insert_moveEONSI_8DataNodeISI_Lb1EEE, symObjAddr: 0x9F7C, symBinAddr: 0x14C9C, symSize: 0x154 }
  - { offsetInCU: 0x53, offset: 0x167C04, size: 0x8, addend: 0x0, symName: __ZN3tns6Worker15GlobalFunctionsE, symObjAddr: 0x270620, symBinAddr: 0x16C0D18, symSize: 0x0 }
  - { offsetInCU: 0xCDE5, offset: 0x174996, size: 0x8, addend: 0x0, symName: __ZNSt3__115allocate_sharedB7v160006IN3tns6Caches11WorkerStateENS_9allocatorIS3_EEJRPN2v87IsolateERNS_10shared_ptrINS6_10PersistentINS6_5ValueENS6_27NonCopyablePersistentTraitsISC_EEEEEERPNS1_13WorkerWrapperEEvEENSA_IT_EERKT0_DpOT1_, symObjAddr: 0x25FB, symBinAddr: 0x170DB, symSize: 0x6B }
  - { offsetInCU: 0xD384, offset: 0x174F35, size: 0x8, addend: 0x0, symName: __ZNSt3__130__uninitialized_allocator_copyB7v160006INS_9allocatorINS_12basic_stringIcNS_11char_traitsIcEENS1_IcEEEEEEPKS6_S9_PS6_EET2_RT_T0_T1_SB_, symObjAddr: 0x20D8, symBinAddr: 0x16BB8, symSize: 0x88 }
  - { offsetInCU: 0x1537B, offset: 0x17CF2C, size: 0x8, addend: 0x0, symName: __ZN3tns6Worker19ConstructorCallbackERKN2v820FunctionCallbackInfoINS1_5ValueEEE, symObjAddr: 0xB88, symBinAddr: 0x159C8, symSize: 0x764 }
  - { offsetInCU: 0x16DB9, offset: 0x17E96A, size: 0x8, addend: 0x0, symName: __ZN3tns6Worker25PostMessageToMainCallbackERKN2v820FunctionCallbackInfoINS1_5ValueEEE, symObjAddr: 0x47A, symBinAddr: 0x152BA, symSize: 0x480 }
  - { offsetInCU: 0x19E8A, offset: 0x181A3B, size: 0x8, addend: 0x0, symName: __ZNSt3__16vectorINS_12basic_stringIcNS_11char_traitsIcEENS_9allocatorIcEEEENS4_IS6_EEED1B7v160006Ev, symObjAddr: 0x0, symBinAddr: 0x14E40, symSize: 0xA }
  - { offsetInCU: 0x1A07E, offset: 0x181C2F, size: 0x8, addend: 0x0, symName: __ZN3tns6Worker4InitEPN2v87IsolateENS1_5LocalINS1_14ObjectTemplateEEE, symObjAddr: 0xA, symBinAddr: 0x14E4A, symSize: 0xAE }
  - { offsetInCU: 0x1A2F8, offset: 0x181EA9, size: 0x8, addend: 0x0, symName: __ZN3tns6Worker4InitEPN2v87IsolateENS1_5LocalINS1_14ObjectTemplateEEEb, symObjAddr: 0xB8, symBinAddr: 0x14EF8, symSize: 0x3C2 }
  - { offsetInCU: 0x1B1FE, offset: 0x182DAF, size: 0x8, addend: 0x0, symName: __ZNSt3__130__uninitialized_allocator_copyB7v160006INS_9allocatorINS_12basic_stringIcNS_11char_traitsIcEENS1_IcEEEEEEPKS6_S9_PS6_EET2_RT_T0_T1_SB_, symObjAddr: 0x20D8, symBinAddr: 0x16BB8, symSize: 0x88 }
  - { offsetInCU: 0x1BBC9, offset: 0x18377A, size: 0x8, addend: 0x0, symName: __ZN3tns6Worker11GetWorkerIdEPN2v87IsolateENS1_5LocalINS1_6ObjectEEE, symObjAddr: 0x190C, symBinAddr: 0x1669C, symSize: 0x10C }
  - { offsetInCU: 0x1C024, offset: 0x183BD5, size: 0x8, addend: 0x0, symName: __ZNK10robin_hood6detail5TableILb1ELm80EiNSt3__110shared_ptrIN3tns6Caches11WorkerStateEEENS_4hashIivEENS2_8equal_toIiEEE7findIdxIiEEmRKT_, symObjAddr: 0x30C6, symBinAddr: 0x17B56, symSize: 0xE0 }
  - { offsetInCU: 0x1C1B1, offset: 0x183D62, size: 0x8, addend: 0x0, symName: __ZN3tns6Worker9SerializeEPN2v87IsolateENS1_5LocalINS1_5ValueEEERS6_, symObjAddr: 0x1A18, symBinAddr: 0x167A8, symSize: 0x1EA }
  - { offsetInCU: 0x1CB10, offset: 0x1846C1, size: 0x8, addend: 0x0, symName: '__ZZN3tns6Worker25PostMessageToMainCallbackERKN2v820FunctionCallbackInfoINS1_5ValueEEEEN3$_1D1Ev', symObjAddr: 0x1C02, symBinAddr: 0x16992, symSize: 0x26 }
  - { offsetInCU: 0x1CC99, offset: 0x18484A, size: 0x8, addend: 0x0, symName: __ZNSt3__110shared_ptrIN3tns6Caches11WorkerStateEED2B7v160006Ev, symObjAddr: 0x274E, symBinAddr: 0x1722E, symSize: 0x40 }
  - { offsetInCU: 0x1CD5B, offset: 0x18490C, size: 0x8, addend: 0x0, symName: __ZN3tns6Worker19CloseWorkerCallbackERKN2v820FunctionCallbackInfoINS1_5ValueEEE, symObjAddr: 0x8FA, symBinAddr: 0x1573A, symSize: 0x28E }
  - { offsetInCU: 0x1E375, offset: 0x185F26, size: 0x8, addend: 0x0, symName: __ZN10robin_hood6detail5TableILb1ELm80EiNSt3__110shared_ptrIN3tns6Caches11WorkerStateEEENS_4hashIivEENS2_8equal_toIiEEEixIS7_EENS2_9enable_ifIXntsr3std7is_voidIT_EE5valueERSF_E4typeERKi, symObjAddr: 0x278E, symBinAddr: 0x1726E, symSize: 0xC0 }
  - { offsetInCU: 0x1E721, offset: 0x1862D2, size: 0x8, addend: 0x0, symName: __ZNSt3__110shared_ptrIN3tns6Caches11WorkerStateEEaSB7v160006ERKS4_, symObjAddr: 0x284E, symBinAddr: 0x1732E, symSize: 0x56 }
  - { offsetInCU: 0x1E991, offset: 0x186542, size: 0x8, addend: 0x0, symName: __ZN3tns6Worker19PostMessageCallbackERKN2v820FunctionCallbackInfoINS1_5ValueEEE, symObjAddr: 0x12EC, symBinAddr: 0x1612C, symSize: 0x280 }
  - { offsetInCU: 0x1F1DB, offset: 0x186D8C, size: 0x8, addend: 0x0, symName: __ZN3tns6Worker17TerminateCallbackERKN2v820FunctionCallbackInfoINS1_5ValueEEE, symObjAddr: 0x156C, symBinAddr: 0x163AC, symSize: 0x9D }
  - { offsetInCU: 0x1F619, offset: 0x1871CA, size: 0x8, addend: 0x0, symName: __ZNSt3__112basic_stringIcNS_11char_traitsIcEENS_9allocatorIcEEEC2B7v160006EPKcm, symObjAddr: 0x1E50, symBinAddr: 0x16B40, symSize: 0x72 }
  - { offsetInCU: 0x1F9E3, offset: 0x187594, size: 0x8, addend: 0x0, symName: __ZN3tns6Worker17OnMessageCallbackEPN2v87IsolateENS1_5LocalINS1_5ValueEEENSt3__112basic_stringIcNS7_11char_traitsIcEENS7_9allocatorIcEEEE, symObjAddr: 0x16BE, symBinAddr: 0x1644E, symSize: 0x242 }
  - { offsetInCU: 0x203F4, offset: 0x187FA5, size: 0x8, addend: 0x0, symName: __ZN3tns6Worker11SetWorkerIdEPN2v87IsolateEi, symObjAddr: 0x1C28, symBinAddr: 0x169B8, symSize: 0xFE }
  - { offsetInCU: 0x207A7, offset: 0x188358, size: 0x8, addend: 0x0, symName: __Z24_register_isolate_workerPN2v87IsolateENS_5LocalINS_16FunctionTemplateEEE, symObjAddr: 0x1D26, symBinAddr: 0x16AB6, symSize: 0x22 }
  - { offsetInCU: 0x209D1, offset: 0x188582, size: 0x8, addend: 0x0, symName: __ZNSt3__120__shared_ptr_emplaceIN3tns6CachesENS_9allocatorIS2_EEEC2B7v160006IJRPN2v87IsolateEEEES4_DpOT_, symObjAddr: 0x1DA0, symBinAddr: 0x16AE0, symSize: 0x56 }
  - { offsetInCU: 0x21118, offset: 0x188CC9, size: 0x8, addend: 0x0, symName: __ZNSt3__128__exception_guard_exceptionsINS_29_AllocatorDestroyRangeReverseINS_9allocatorINS_12basic_stringIcNS_11char_traitsIcEENS2_IcEEEEEEPS7_EEED2B7v160006Ev, symObjAddr: 0x2160, symBinAddr: 0x16C40, symSize: 0x1A }
  - { offsetInCU: 0x21151, offset: 0x188D02, size: 0x8, addend: 0x0, symName: __ZNKSt3__129_AllocatorDestroyRangeReverseINS_9allocatorINS_12basic_stringIcNS_11char_traitsIcEENS1_IcEEEEEEPS6_EclB7v160006Ev, symObjAddr: 0x217A, symBinAddr: 0x16C5A, symSize: 0x3A }
  - { offsetInCU: 0x213BF, offset: 0x188F70, size: 0x8, addend: 0x0, symName: __ZNSt3__128__exception_guard_exceptionsINS_6vectorINS_12basic_stringIcNS_11char_traitsIcEENS_9allocatorIcEEEENS5_IS7_EEE16__destroy_vectorEED2B7v160006Ev, symObjAddr: 0x21B4, symBinAddr: 0x16C94, symSize: 0x1A }
  - { offsetInCU: 0x213F8, offset: 0x188FA9, size: 0x8, addend: 0x0, symName: __ZNSt3__110__function6__funcIPFvPN2v87IsolateENS2_5LocalINS2_5ValueEEENS_12basic_stringIcNS_11char_traitsIcEENS_9allocatorIcEEEEENSB_ISF_EEFvS4_NS5_INS2_6ObjectEEESD_EED1Ev, symObjAddr: 0x21CE, symBinAddr: 0x16CAE, symSize: 0x6 }
  - { offsetInCU: 0x21424, offset: 0x188FD5, size: 0x8, addend: 0x0, symName: __ZNSt3__110__function6__funcIPFvPN2v87IsolateENS2_5LocalINS2_5ValueEEENS_12basic_stringIcNS_11char_traitsIcEENS_9allocatorIcEEEEENSB_ISF_EEFvS4_NS5_INS2_6ObjectEEESD_EED0Ev, symObjAddr: 0x21D4, symBinAddr: 0x16CB4, symSize: 0xA }
  - { offsetInCU: 0x21629, offset: 0x1891DA, size: 0x8, addend: 0x0, symName: __ZNKSt3__110__function6__funcIPFvPN2v87IsolateENS2_5LocalINS2_5ValueEEENS_12basic_stringIcNS_11char_traitsIcEENS_9allocatorIcEEEEENSB_ISF_EEFvS4_NS5_INS2_6ObjectEEESD_EE7__cloneEv, symObjAddr: 0x21DE, symBinAddr: 0x16CBE, symSize: 0x30 }
  - { offsetInCU: 0x21954, offset: 0x189505, size: 0x8, addend: 0x0, symName: __ZNKSt3__110__function6__funcIPFvPN2v87IsolateENS2_5LocalINS2_5ValueEEENS_12basic_stringIcNS_11char_traitsIcEENS_9allocatorIcEEEEENSB_ISF_EEFvS4_NS5_INS2_6ObjectEEESD_EE7__cloneEPNS0_6__baseISJ_EE, symObjAddr: 0x220E, symBinAddr: 0x16CEE, symSize: 0x1C }
  - { offsetInCU: 0x21AD3, offset: 0x189684, size: 0x8, addend: 0x0, symName: __ZNSt3__110__function6__funcIPFvPN2v87IsolateENS2_5LocalINS2_5ValueEEENS_12basic_stringIcNS_11char_traitsIcEENS_9allocatorIcEEEEENSB_ISF_EEFvS4_NS5_INS2_6ObjectEEESD_EE7destroyEv, symObjAddr: 0x222A, symBinAddr: 0x16D0A, symSize: 0x6 }
  - { offsetInCU: 0x21B25, offset: 0x1896D6, size: 0x8, addend: 0x0, symName: __ZNSt3__110__function6__funcIPFvPN2v87IsolateENS2_5LocalINS2_5ValueEEENS_12basic_stringIcNS_11char_traitsIcEENS_9allocatorIcEEEEENSB_ISF_EEFvS4_NS5_INS2_6ObjectEEESD_EE18destroy_deallocateEv, symObjAddr: 0x2230, symBinAddr: 0x16D10, symSize: 0xA }
  - { offsetInCU: 0x21C33, offset: 0x1897E4, size: 0x8, addend: 0x0, symName: __ZNSt3__110__function6__funcIPFvPN2v87IsolateENS2_5LocalINS2_5ValueEEENS_12basic_stringIcNS_11char_traitsIcEENS_9allocatorIcEEEEENSB_ISF_EEFvS4_NS5_INS2_6ObjectEEESD_EEclEOS4_OSI_OSD_, symObjAddr: 0x223A, symBinAddr: 0x16D1A, symSize: 0xE }
  - { offsetInCU: 0x21CCA, offset: 0x18987B, size: 0x8, addend: 0x0, symName: __ZNSt3__128__invoke_void_return_wrapperIvLb1EE6__callIJRPFvPN2v87IsolateENS3_5LocalINS3_5ValueEEENS_12basic_stringIcNS_11char_traitsIcEENS_9allocatorIcEEEEES5_NS6_INS3_6ObjectEEESE_EEEvDpOT_, symObjAddr: 0x2248, symBinAddr: 0x16D28, symSize: 0x64 }
  - { offsetInCU: 0x220E9, offset: 0x189C9A, size: 0x8, addend: 0x0, symName: '__ZNSt3__110__function6__funcIZN3tns6Worker19ConstructorCallbackERKN2v820FunctionCallbackInfoINS4_5ValueEEEE3$_0NS_9allocatorISA_EEFPNS4_7IsolateEvEED1Ev', symObjAddr: 0x22AC, symBinAddr: 0x16D8C, symSize: 0x20 }
  - { offsetInCU: 0x222EB, offset: 0x189E9C, size: 0x8, addend: 0x0, symName: '__ZNSt3__110__function6__funcIZN3tns6Worker19ConstructorCallbackERKN2v820FunctionCallbackInfoINS4_5ValueEEEE3$_0NS_9allocatorISA_EEFPNS4_7IsolateEvEED0Ev', symObjAddr: 0x22CC, symBinAddr: 0x16DAC, symSize: 0x30 }
  - { offsetInCU: 0x22847, offset: 0x18A3F8, size: 0x8, addend: 0x0, symName: '__ZNKSt3__110__function6__funcIZN3tns6Worker19ConstructorCallbackERKN2v820FunctionCallbackInfoINS4_5ValueEEEE3$_0NS_9allocatorISA_EEFPNS4_7IsolateEvEE7__cloneEv', symObjAddr: 0x22FC, symBinAddr: 0x16DDC, symSize: 0x54 }
  - { offsetInCU: 0x22CD4, offset: 0x18A885, size: 0x8, addend: 0x0, symName: '__ZNKSt3__110__function6__funcIZN3tns6Worker19ConstructorCallbackERKN2v820FunctionCallbackInfoINS4_5ValueEEEE3$_0NS_9allocatorISA_EEFPNS4_7IsolateEvEE7__cloneEPNS0_6__baseISF_EE', symObjAddr: 0x2350, symBinAddr: 0x16E30, symSize: 0x28 }
  - { offsetInCU: 0x22ED6, offset: 0x18AA87, size: 0x8, addend: 0x0, symName: '__ZNSt3__110__function6__funcIZN3tns6Worker19ConstructorCallbackERKN2v820FunctionCallbackInfoINS4_5ValueEEEE3$_0NS_9allocatorISA_EEFPNS4_7IsolateEvEE7destroyEv', symObjAddr: 0x2378, symBinAddr: 0x16E58, symSize: 0x16 }
  - { offsetInCU: 0x23092, offset: 0x18AC43, size: 0x8, addend: 0x0, symName: '__ZNSt3__110__function6__funcIZN3tns6Worker19ConstructorCallbackERKN2v820FunctionCallbackInfoINS4_5ValueEEEE3$_0NS_9allocatorISA_EEFPNS4_7IsolateEvEE18destroy_deallocateEv', symObjAddr: 0x238E, symBinAddr: 0x16E6E, symSize: 0x26 }
  - { offsetInCU: 0x234F5, offset: 0x18B0A6, size: 0x8, addend: 0x0, symName: '__ZNSt3__110__function6__funcIZN3tns6Worker19ConstructorCallbackERKN2v820FunctionCallbackInfoINS4_5ValueEEEE3$_0NS_9allocatorISA_EEFPNS4_7IsolateEvEEclEv', symObjAddr: 0x23B4, symBinAddr: 0x16E94, symSize: 0x247 }
  - { offsetInCU: 0x23DF2, offset: 0x18B9A3, size: 0x8, addend: 0x0, symName: __ZNSt3__120__shared_ptr_emplaceIN3tns6Caches11WorkerStateENS_9allocatorIS3_EEEC2B7v160006IJRPN2v87IsolateERNS_10shared_ptrINS8_10PersistentINS8_5ValueENS8_27NonCopyablePersistentTraitsISE_EEEEEERPNS1_13WorkerWrapperEEEES5_DpOT_, symObjAddr: 0x2666, symBinAddr: 0x17146, symSize: 0x8E }
  - { offsetInCU: 0x24157, offset: 0x18BD08, size: 0x8, addend: 0x0, symName: __ZNSt3__120__shared_ptr_emplaceIN3tns6Caches11WorkerStateENS_9allocatorIS3_EEED1Ev, symObjAddr: 0x26F4, symBinAddr: 0x171D4, symSize: 0x18 }
  - { offsetInCU: 0x241B0, offset: 0x18BD61, size: 0x8, addend: 0x0, symName: __ZNSt3__120__shared_ptr_emplaceIN3tns6Caches11WorkerStateENS_9allocatorIS3_EEED0Ev, symObjAddr: 0x270C, symBinAddr: 0x171EC, symSize: 0x2A }
  - { offsetInCU: 0x2424E, offset: 0x18BDFF, size: 0x8, addend: 0x0, symName: __ZNSt3__120__shared_ptr_emplaceIN3tns6Caches11WorkerStateENS_9allocatorIS3_EEE16__on_zero_sharedEv, symObjAddr: 0x2736, symBinAddr: 0x17216, symSize: 0xE }
  - { offsetInCU: 0x242DF, offset: 0x18BE90, size: 0x8, addend: 0x0, symName: __ZNSt3__120__shared_ptr_emplaceIN3tns6Caches11WorkerStateENS_9allocatorIS3_EEE21__on_zero_shared_weakEv, symObjAddr: 0x2744, symBinAddr: 0x17224, symSize: 0xA }
  - { offsetInCU: 0x246E7, offset: 0x18C298, size: 0x8, addend: 0x0, symName: __ZN10robin_hood6detail5TableILb1ELm80EiNSt3__110shared_ptrIN3tns6Caches11WorkerStateEEENS_4hashIivEENS2_8equal_toIiEEE25insertKeyPrepareEmptySpotIRKiEENS2_4pairImNSC_14InsertionStateEEEOT_, symObjAddr: 0x28A4, symBinAddr: 0x17384, symSize: 0x160 }
  - { offsetInCU: 0x24897, offset: 0x18C448, size: 0x8, addend: 0x0, symName: __ZNK10robin_hood6detail5TableILb1ELm80EiNSt3__110shared_ptrIN3tns6Caches11WorkerStateEEENS_4hashIivEENS2_8equal_toIiEEE18throwOverflowErrorEv, symObjAddr: 0x2A04, symBinAddr: 0x174E4, symSize: 0x4C }
  - { offsetInCU: 0x248CC, offset: 0x18C47D, size: 0x8, addend: 0x0, symName: __ZNSt3__110shared_ptrIN3tns6Caches11WorkerStateEEaSB7v160006EOS4_, symObjAddr: 0x3058, symBinAddr: 0x17B08, symSize: 0x4A }
  - { offsetInCU: 0x24B6A, offset: 0x18C71B, size: 0x8, addend: 0x0, symName: __ZN10robin_hood6detail5TableILb1ELm80EiNSt3__110shared_ptrIN3tns6Caches11WorkerStateEEENS_4hashIivEENS2_8equal_toIiEEE13increase_sizeEv, symObjAddr: 0x2A50, symBinAddr: 0x17530, symSize: 0x108 }
  - { offsetInCU: 0x24C30, offset: 0x18C7E1, size: 0x8, addend: 0x0, symName: __ZN10robin_hood6detail5TableILb1ELm80EiNSt3__110shared_ptrIN3tns6Caches11WorkerStateEEENS_4hashIivEENS2_8equal_toIiEEE7shiftUpEmm, symObjAddr: 0x2B58, symBinAddr: 0x17638, symSize: 0xCA }
  - { offsetInCU: 0x24DBE, offset: 0x18C96F, size: 0x8, addend: 0x0, symName: __ZN10robin_hood6detail5TableILb1ELm80EiNSt3__110shared_ptrIN3tns6Caches11WorkerStateEEENS_4hashIivEENS2_8equal_toIiEEE17try_increase_infoEv, symObjAddr: 0x2D08, symBinAddr: 0x177E8, symSize: 0xE8 }
  - { offsetInCU: 0x24EBD, offset: 0x18CA6E, size: 0x8, addend: 0x0, symName: __ZN10robin_hood6detail5TableILb1ELm80EiNSt3__110shared_ptrIN3tns6Caches11WorkerStateEEENS_4hashIivEENS2_8equal_toIiEEE8initDataEm, symObjAddr: 0x2C22, symBinAddr: 0x17702, symSize: 0xE6 }
  - { offsetInCU: 0x24F9F, offset: 0x18CB50, size: 0x8, addend: 0x0, symName: __ZN10robin_hood6detail5TableILb1ELm80EiNSt3__110shared_ptrIN3tns6Caches11WorkerStateEEENS_4hashIivEENS2_8equal_toIiEEE17try_increase_infoEv, symObjAddr: 0x2D08, symBinAddr: 0x177E8, symSize: 0xE8 }
  - { offsetInCU: 0x24FAB, offset: 0x18CB5C, size: 0x8, addend: 0x0, symName: __ZN10robin_hood6detail5TableILb1ELm80EiNSt3__110shared_ptrIN3tns6Caches11WorkerStateEEENS_4hashIivEENS2_8equal_toIiEEE16rehashPowerOfTwoEmb, symObjAddr: 0x2DF0, symBinAddr: 0x178D0, symSize: 0xFB }
  - { offsetInCU: 0x25254, offset: 0x18CE05, size: 0x8, addend: 0x0, symName: __ZN10robin_hood6detail5TableILb1ELm80EiNSt3__110shared_ptrIN3tns6Caches11WorkerStateEEENS_4hashIivEENS2_8equal_toIiEEE11insert_moveEONSC_8DataNodeISC_Lb1EEE, symObjAddr: 0x2F1C, symBinAddr: 0x179CC, symSize: 0x13C }
  - { offsetInCU: 0x255E2, offset: 0x18D193, size: 0x8, addend: 0x0, symName: '__ZNSt3__110__function6__funcIZN3tns6Worker25PostMessageToMainCallbackERKN2v820FunctionCallbackInfoINS4_5ValueEEEE3$_1NS_9allocatorISA_EEFvvEED1Ev', symObjAddr: 0x31A6, symBinAddr: 0x17C36, symSize: 0x34 }
  - { offsetInCU: 0x25828, offset: 0x18D3D9, size: 0x8, addend: 0x0, symName: '__ZNSt3__110__function6__funcIZN3tns6Worker25PostMessageToMainCallbackERKN2v820FunctionCallbackInfoINS4_5ValueEEEE3$_1NS_9allocatorISA_EEFvvEED0Ev', symObjAddr: 0x31DA, symBinAddr: 0x17C6A, symSize: 0x3A }
  - { offsetInCU: 0x25CF9, offset: 0x18D8AA, size: 0x8, addend: 0x0, symName: '__ZNKSt3__110__function6__funcIZN3tns6Worker25PostMessageToMainCallbackERKN2v820FunctionCallbackInfoINS4_5ValueEEEE3$_1NS_9allocatorISA_EEFvvEE7__cloneEv', symObjAddr: 0x3214, symBinAddr: 0x17CA4, symSize: 0x4A }
  - { offsetInCU: 0x25F9C, offset: 0x18DB4D, size: 0x8, addend: 0x0, symName: '__ZNSt3__122__compressed_pair_elemIZN3tns6Worker25PostMessageToMainCallbackERKN2v820FunctionCallbackInfoINS3_5ValueEEEE3$_1Li0ELb0EEC2B7v160006IJRKS9_EJLm0EEEENS_21piecewise_construct_tENS_5tupleIJDpT_EEENS_15__tuple_indicesIJXspT0_EEEE', symObjAddr: 0x3452, symBinAddr: 0x17EE2, symSize: 0x48 }
  - { offsetInCU: 0x2627C, offset: 0x18DE2D, size: 0x8, addend: 0x0, symName: '__ZNKSt3__110__function6__funcIZN3tns6Worker25PostMessageToMainCallbackERKN2v820FunctionCallbackInfoINS4_5ValueEEEE3$_1NS_9allocatorISA_EEFvvEE7__cloneEPNS0_6__baseISD_EE', symObjAddr: 0x325E, symBinAddr: 0x17CEE, symSize: 0x20 }
  - { offsetInCU: 0x263CC, offset: 0x18DF7D, size: 0x8, addend: 0x0, symName: '__ZNSt3__110__function6__funcIZN3tns6Worker25PostMessageToMainCallbackERKN2v820FunctionCallbackInfoINS4_5ValueEEEE3$_1NS_9allocatorISA_EEFvvEE7destroyEv', symObjAddr: 0x327E, symBinAddr: 0x17D0E, symSize: 0xE }
  - { offsetInCU: 0x26403, offset: 0x18DFB4, size: 0x8, addend: 0x0, symName: '__ZNSt3__110__function12__alloc_funcIZN3tns6Worker25PostMessageToMainCallbackERKN2v820FunctionCallbackInfoINS4_5ValueEEEE3$_1NS_9allocatorISA_EEFvvEE7destroyB7v160006Ev', symObjAddr: 0x349A, symBinAddr: 0x17F2A, symSize: 0x26 }
  - { offsetInCU: 0x2660D, offset: 0x18E1BE, size: 0x8, addend: 0x0, symName: '__ZNSt3__110__function6__funcIZN3tns6Worker25PostMessageToMainCallbackERKN2v820FunctionCallbackInfoINS4_5ValueEEEE3$_1NS_9allocatorISA_EEFvvEE18destroy_deallocateEv', symObjAddr: 0x328C, symBinAddr: 0x17D1C, symSize: 0x20 }
  - { offsetInCU: 0x26840, offset: 0x18E3F1, size: 0x8, addend: 0x0, symName: '__ZNSt3__110__function6__funcIZN3tns6Worker25PostMessageToMainCallbackERKN2v820FunctionCallbackInfoINS4_5ValueEEEE3$_1NS_9allocatorISA_EEFvvEEclEv', symObjAddr: 0x32AC, symBinAddr: 0x17D3C, symSize: 0x1A6 }
  - { offsetInCU: 0x26, offset: 0x18EC52, size: 0x8, addend: 0x0, symName: __ZN3tns15SimpleAllocatorC2Ev, symObjAddr: 0x0, symBinAddr: 0x180A4, symSize: 0x10 }
  - { offsetInCU: 0x29AF, offset: 0x1915DB, size: 0x8, addend: 0x0, symName: __ZN3tns15SimpleAllocatorC2Ev, symObjAddr: 0x0, symBinAddr: 0x180A4, symSize: 0x10 }
  - { offsetInCU: 0x29ED, offset: 0x191619, size: 0x8, addend: 0x0, symName: __ZN3tns15SimpleAllocatorC1Ev, symObjAddr: 0x10, symBinAddr: 0x180B4, symSize: 0x10 }
  - { offsetInCU: 0x2A34, offset: 0x191660, size: 0x8, addend: 0x0, symName: __ZN3tns15SimpleAllocatorD2Ev, symObjAddr: 0x20, symBinAddr: 0x180C4, symSize: 0x6 }
  - { offsetInCU: 0x2A5F, offset: 0x19168B, size: 0x8, addend: 0x0, symName: __ZN3tns15SimpleAllocatorD1Ev, symObjAddr: 0x26, symBinAddr: 0x180CA, symSize: 0x6 }
  - { offsetInCU: 0x2A87, offset: 0x1916B3, size: 0x8, addend: 0x0, symName: __ZN3tns15SimpleAllocatorD0Ev, symObjAddr: 0x2C, symBinAddr: 0x180D0, symSize: 0xA }
  - { offsetInCU: 0x2AB2, offset: 0x1916DE, size: 0x8, addend: 0x0, symName: __ZN3tns15SimpleAllocator8AllocateEm, symObjAddr: 0x36, symBinAddr: 0x180DA, symSize: 0x12 }
  - { offsetInCU: 0x2AF2, offset: 0x19171E, size: 0x8, addend: 0x0, symName: __ZN3tns15SimpleAllocator21AllocateUninitializedEm, symObjAddr: 0x48, symBinAddr: 0x180EC, symSize: 0xE }
  - { offsetInCU: 0x2B2F, offset: 0x19175B, size: 0x8, addend: 0x0, symName: __ZN3tns15SimpleAllocator4FreeEPvm, symObjAddr: 0x56, symBinAddr: 0x180FA, symSize: 0xD }
  - { offsetInCU: 0x52, offset: 0x1917EA, size: 0x8, addend: 0x0, symName: __ZN3tns7Console9inspectorE, symObjAddr: 0x28DBA0, symBinAddr: 0x16C0D30, symSize: 0x0 }
  - { offsetInCU: 0x793, offset: 0x191F2B, size: 0x8, addend: 0x0, symName: __ZN3tns8ToStringEPN2v87IsolateERKNS0_5LocalINS0_5ValueEEE, symObjAddr: 0x1CB0, symBinAddr: 0x19DC0, symSize: 0xB4 }
  - { offsetInCU: 0xB56F, offset: 0x19CD07, size: 0x8, addend: 0x0, symName: __ZN3tns7Console26VerbosityToInspectorMethodENSt3__112basic_stringIcNS1_11char_traitsIcEENS1_9allocatorIcEEEE.cold.1, symObjAddr: 0x43E4, symBinAddr: 0xCB5C54, symSize: 0x23 }
  - { offsetInCU: 0x14CED, offset: 0x1A6485, size: 0x8, addend: 0x0, symName: __ZN3tns7Console4InitEN2v85LocalINS1_7ContextEEE, symObjAddr: 0x0, symBinAddr: 0x18110, symSize: 0x4A0 }
  - { offsetInCU: 0x16783, offset: 0x1A7F1B, size: 0x8, addend: 0x0, symName: __ZN3tns7Console17AttachLogFunctionEN2v85LocalINS1_7ContextEEENS2_INS1_6ObjectEEENSt3__112basic_stringIcNS7_11char_traitsIcEENS7_9allocatorIcEEEEPFvRKNS1_20FunctionCallbackInfoINS1_5ValueEEEE, symObjAddr: 0x4A0, symBinAddr: 0x185B0, symSize: 0x174 }
  - { offsetInCU: 0x17080, offset: 0x1A8818, size: 0x8, addend: 0x0, symName: __ZN3tns7Console11LogCallbackERKN2v820FunctionCallbackInfoINS1_5ValueEEE, symObjAddr: 0x614, symBinAddr: 0x18724, symSize: 0x4DE }
  - { offsetInCU: 0x18BE4, offset: 0x1AA37C, size: 0x8, addend: 0x0, symName: __ZN3tns7Console19BuildStringFromArgsERKN2v820FunctionCallbackInfoINS1_5ValueEEEi, symObjAddr: 0x1A78, symBinAddr: 0x19B88, symSize: 0x238 }
  - { offsetInCU: 0x194AD, offset: 0x1AAC45, size: 0x8, addend: 0x0, symName: __ZN3tns7Console26VerbosityToInspectorMethodENSt3__112basic_stringIcNS1_11char_traitsIcEENS1_9allocatorIcEEEE, symObjAddr: 0x1E4E, symBinAddr: 0x19E7E, symSize: 0x154 }
  - { offsetInCU: 0x199D3, offset: 0x1AB16B, size: 0x8, addend: 0x0, symName: __ZN3tns7Console22SendToDevToolsFrontEndEN12v8_inspector14ConsoleAPITypeERKN2v820FunctionCallbackInfoINS3_5ValueEEE, symObjAddr: 0x1FA2, symBinAddr: 0x19FD2, symSize: 0x1D2 }
  - { offsetInCU: 0x1A337, offset: 0x1ABACF, size: 0x8, addend: 0x0, symName: __ZNSt3__118basic_stringstreamIcNS_11char_traitsIcEENS_9allocatorIcEEED1Ev, symObjAddr: 0x2174, symBinAddr: 0x1A1A4, symSize: 0x84 }
  - { offsetInCU: 0x1A507, offset: 0x1ABC9F, size: 0x8, addend: 0x0, symName: __ZN3tns7Console14AssertCallbackERKN2v820FunctionCallbackInfoINS1_5ValueEEE, symObjAddr: 0xAF2, symBinAddr: 0x18C02, symSize: 0x1C4 }
  - { offsetInCU: 0x1AE24, offset: 0x1AC5BC, size: 0x8, addend: 0x0, symName: __ZN3tns7Console11DirCallbackERKN2v820FunctionCallbackInfoINS1_5ValueEEE, symObjAddr: 0xCB6, symBinAddr: 0x18DC6, symSize: 0x846 }
  - { offsetInCU: 0x1C72A, offset: 0x1ADEC2, size: 0x8, addend: 0x0, symName: __ZN3tns7Console18BuildStringFromArgEN2v85LocalINS1_7ContextEEERKNS2_INS1_5ValueEEE, symObjAddr: 0x21F8, symBinAddr: 0x1A228, symSize: 0x3AA }
  - { offsetInCU: 0x1CF2C, offset: 0x1AE6C4, size: 0x8, addend: 0x0, symName: __ZN3tns7Console17TransformJSObjectEN2v85LocalINS1_6ObjectEEE, symObjAddr: 0x25A2, symBinAddr: 0x1A5D2, symSize: 0x240 }
  - { offsetInCU: 0x1DB2D, offset: 0x1AF2C5, size: 0x8, addend: 0x0, symName: __ZN3tns7Console12TimeCallbackERKN2v820FunctionCallbackInfoINS1_5ValueEEE, symObjAddr: 0x14FC, symBinAddr: 0x1960C, symSize: 0x168 }
  - { offsetInCU: 0x1E270, offset: 0x1AFA08, size: 0x8, addend: 0x0, symName: __ZN10robin_hood6detail5TableILb1ELm80ENSt3__112basic_stringIcNS2_11char_traitsIcEENS2_9allocatorIcEEEEdNS_4hashIS8_vEENS2_8equal_toIS8_EEE7emplaceIJRS8_RdEEENS2_4pairINSD_4IterILb0EEEbEEDpOT_, symObjAddr: 0x27E2, symBinAddr: 0x1A812, symSize: 0x138 }
  - { offsetInCU: 0x1EBD5, offset: 0x1B036D, size: 0x8, addend: 0x0, symName: __ZN3tns7Console15TimeEndCallbackERKN2v820FunctionCallbackInfoINS1_5ValueEEE, symObjAddr: 0x1664, symBinAddr: 0x19774, symSize: 0x406 }
  - { offsetInCU: 0x1FF58, offset: 0x1B16F0, size: 0x8, addend: 0x0, symName: __ZNK10robin_hood6detail5TableILb1ELm80ENSt3__112basic_stringIcNS2_11char_traitsIcEENS2_9allocatorIcEEEEdNS_4hashIS8_vEENS2_8equal_toIS8_EEE7findIdxIS8_EEmRKT_, symObjAddr: 0x41F0, symBinAddr: 0x1B440, symSize: 0xEA }
  - { offsetInCU: 0x2008C, offset: 0x1B1824, size: 0x8, addend: 0x0, symName: __ZN10robin_hood6detail5TableILb1ELm80ENSt3__112basic_stringIcNS2_11char_traitsIcEENS2_9allocatorIcEEEEdNS_4hashIS8_vEENS2_8equal_toIS8_EEE5eraseERKS8_, symObjAddr: 0x291A, symBinAddr: 0x1A94A, symSize: 0xB2 }
  - { offsetInCU: 0x2015E, offset: 0x1B18F6, size: 0x8, addend: 0x0, symName: __ZN3tns7Console22SendToDevToolsFrontEndEPN2v87IsolateEN12v8_inspector14ConsoleAPITypeERKNSt3__112basic_stringIcNS6_11char_traitsIcEENS6_9allocatorIcEEEE, symObjAddr: 0x29CC, symBinAddr: 0x1A9FC, symSize: 0xB6 }
  - { offsetInCU: 0x207C7, offset: 0x1B1F5F, size: 0x8, addend: 0x0, symName: __ZN3tns7Console21AttachInspectorClientEPN12v8_inspector19JsV8InspectorClientE, symObjAddr: 0x1A6A, symBinAddr: 0x19B7A, symSize: 0xE }
  - { offsetInCU: 0x20BB9, offset: 0x1B2351, size: 0x8, addend: 0x0, symName: __ZN3tns7Console26VerbosityToInspectorMethodENSt3__112basic_stringIcNS1_11char_traitsIcEENS1_9allocatorIcEEEE.cold.1, symObjAddr: 0x43E4, symBinAddr: 0xCB5C54, symSize: 0x23 }
  - { offsetInCU: 0x216D4, offset: 0x1B2E6C, size: 0x8, addend: 0x0, symName: __ZN10robin_hood6detail5TableILb1ELm80ENSt3__112basic_stringIcNS2_11char_traitsIcEENS2_9allocatorIcEEEEdNS_4hashIS8_vEENS2_8equal_toIS8_EEE25insertKeyPrepareEmptySpotIRKS8_EENS2_4pairImNSD_14InsertionStateEEEOT_, symObjAddr: 0x3802, symBinAddr: 0x1AC42, symSize: 0x15C }
  - { offsetInCU: 0x2182F, offset: 0x1B2FC7, size: 0x8, addend: 0x0, symName: __ZNK10robin_hood6detail5TableILb1ELm80ENSt3__112basic_stringIcNS2_11char_traitsIcEENS2_9allocatorIcEEEEdNS_4hashIS8_vEENS2_8equal_toIS8_EEE18throwOverflowErrorEv, symObjAddr: 0x395E, symBinAddr: 0x1AD9E, symSize: 0x4C }
  - { offsetInCU: 0x21A60, offset: 0x1B31F8, size: 0x8, addend: 0x0, symName: __ZN10robin_hood6detail5TableILb1ELm80ENSt3__112basic_stringIcNS2_11char_traitsIcEENS2_9allocatorIcEEEEdNS_4hashIS8_vEENS2_8equal_toIS8_EEE9shiftDownEm, symObjAddr: 0x42DA, symBinAddr: 0x1B52A, symSize: 0xCC }
  - { offsetInCU: 0x22119, offset: 0x1B38B1, size: 0x8, addend: 0x0, symName: __ZThn16_NSt3__118basic_stringstreamIcNS_11char_traitsIcEENS_9allocatorIcEEED0Ev, symObjAddr: 0x2DD8, symBinAddr: 0x1AAB8, symSize: 0x88 }
  - { offsetInCU: 0x222D1, offset: 0x1B3A69, size: 0x8, addend: 0x0, symName: __ZTv0_n24_NSt3__118basic_stringstreamIcNS_11char_traitsIcEENS_9allocatorIcEEED0Ev, symObjAddr: 0x2E60, symBinAddr: 0x1AB40, symSize: 0x96 }
  - { offsetInCU: 0x224DE, offset: 0x1B3C76, size: 0x8, addend: 0x0, symName: __ZNSt3__115basic_stringbufIcNS_11char_traitsIcEENS_9allocatorIcEEE7seekposENS_4fposI11__mbstate_tEEj, symObjAddr: 0x3070, symBinAddr: 0x1ABE0, symSize: 0x26 }
  - { offsetInCU: 0x22858, offset: 0x1B3FF0, size: 0x8, addend: 0x0, symName: __ZNSt3__120__shared_ptr_emplaceIN3tns6CachesENS_9allocatorIS2_EEED1Ev, symObjAddr: 0x3330, symBinAddr: 0x1AC10, symSize: 0x18 }
  - { offsetInCU: 0x228B1, offset: 0x1B4049, size: 0x8, addend: 0x0, symName: __ZNSt3__120__shared_ptr_emplaceIN3tns6CachesENS_9allocatorIS2_EEE21__on_zero_shared_weakEv, symObjAddr: 0x3380, symBinAddr: 0x1AC30, symSize: 0xA }
  - { offsetInCU: 0x2308D, offset: 0x1B4825, size: 0x8, addend: 0x0, symName: __ZN10robin_hood6detail5TableILb1ELm80ENSt3__112basic_stringIcNS2_11char_traitsIcEENS2_9allocatorIcEEEEdNS_4hashIS8_vEENS2_8equal_toIS8_EEE13increase_sizeEv, symObjAddr: 0x3A44, symBinAddr: 0x1ADF4, symSize: 0x108 }
  - { offsetInCU: 0x23153, offset: 0x1B48EB, size: 0x8, addend: 0x0, symName: __ZN10robin_hood6detail5TableILb1ELm80ENSt3__112basic_stringIcNS2_11char_traitsIcEENS2_9allocatorIcEEEEdNS_4hashIS8_vEENS2_8equal_toIS8_EEE7shiftUpEmm, symObjAddr: 0x3B4C, symBinAddr: 0x1AEFC, symSize: 0x11E }
  - { offsetInCU: 0x2340D, offset: 0x1B4BA5, size: 0x8, addend: 0x0, symName: __ZN10robin_hood6detail5TableILb1ELm80ENSt3__112basic_stringIcNS2_11char_traitsIcEENS2_9allocatorIcEEEEdNS_4hashIS8_vEENS2_8equal_toIS8_EEE17try_increase_infoEv, symObjAddr: 0x3E70, symBinAddr: 0x1B110, symSize: 0xE8 }
  - { offsetInCU: 0x2350C, offset: 0x1B4CA4, size: 0x8, addend: 0x0, symName: __ZN10robin_hood6detail5TableILb1ELm80ENSt3__112basic_stringIcNS2_11char_traitsIcEENS2_9allocatorIcEEEEdNS_4hashIS8_vEENS2_8equal_toIS8_EEE8initDataEm, symObjAddr: 0x3D88, symBinAddr: 0x1B028, symSize: 0xE8 }
  - { offsetInCU: 0x235F6, offset: 0x1B4D8E, size: 0x8, addend: 0x0, symName: __ZN10robin_hood6detail5TableILb1ELm80ENSt3__112basic_stringIcNS2_11char_traitsIcEENS2_9allocatorIcEEEEdNS_4hashIS8_vEENS2_8equal_toIS8_EEE17try_increase_infoEv, symObjAddr: 0x3E70, symBinAddr: 0x1B110, symSize: 0xE8 }
  - { offsetInCU: 0x23602, offset: 0x1B4D9A, size: 0x8, addend: 0x0, symName: __ZN10robin_hood6detail5TableILb1ELm80ENSt3__112basic_stringIcNS2_11char_traitsIcEENS2_9allocatorIcEEEEdNS_4hashIS8_vEENS2_8equal_toIS8_EEE16rehashPowerOfTwoEmb, symObjAddr: 0x3F58, symBinAddr: 0x1B1F8, symSize: 0x101 }
  - { offsetInCU: 0x23998, offset: 0x1B5130, size: 0x8, addend: 0x0, symName: __ZN10robin_hood6detail5TableILb1ELm80ENSt3__112basic_stringIcNS2_11char_traitsIcEENS2_9allocatorIcEEEEdNS_4hashIS8_vEENS2_8equal_toIS8_EEE11insert_moveEONSD_8DataNodeISD_Lb1EEE, symObjAddr: 0x408A, symBinAddr: 0x1B2FA, symSize: 0x142 }
  - { offsetInCU: 0x4A, offset: 0x1B55B8, size: 0x8, addend: 0x0, symName: __ZN3tns9Constants14SwizzledPrefixE, symObjAddr: 0x2B7B0, symBinAddr: 0x16C0D38, symSize: 0x0 }
  - { offsetInCU: 0x33CF, offset: 0x1BD0F0, size: 0x8, addend: 0x0, symName: __ZN3tns12SymbolLoader8instanceEv, symObjAddr: 0x0, symBinAddr: 0x1B630, symSize: 0x98 }
  - { offsetInCU: 0x33F1, offset: 0x1BD112, size: 0x8, addend: 0x0, symName: __ZZN3tns12SymbolLoader8instanceEvE6loader, symObjAddr: 0xA1630, symBinAddr: 0x16AA148, symSize: 0x0 }
  - { offsetInCU: 0x54FE, offset: 0x1BF21F, size: 0x8, addend: 0x0, symName: __ZN3tns12SymbolLoaderD1Ev, symObjAddr: 0x98, symBinAddr: 0x1B6C8, symSize: 0x14 }
  - { offsetInCU: 0x5582, offset: 0x1BF2A3, size: 0x8, addend: 0x0, symName: __ZN10robin_hood6detail5TableILb1ELm80EPKN3tns10ModuleMetaENSt3__110unique_ptrINS2_14SymbolResolverENS6_14default_deleteIS8_EEEENS_4hashIS5_vEENS6_8equal_toIS5_EEE7destroyEv, symObjAddr: 0x76E, symBinAddr: 0x1BD9E, symSize: 0x42 }
  - { offsetInCU: 0x5A0D, offset: 0x1BF72E, size: 0x8, addend: 0x0, symName: __ZN3tns12SymbolLoader13resolveModuleEPKNS_10ModuleMetaE, symObjAddr: 0xAC, symBinAddr: 0x1B6DC, symSize: 0x432 }
  - { offsetInCU: 0x67F6, offset: 0x1C0517, size: 0x8, addend: 0x0, symName: __ZNK10robin_hood6detail5TableILb1ELm80EPKN3tns10ModuleMetaENSt3__110unique_ptrINS2_14SymbolResolverENS6_14default_deleteIS8_EEEENS_4hashIS5_vEENS6_8equal_toIS5_EEE7findIdxIS5_EEmRKT_, symObjAddr: 0x880, symBinAddr: 0x1BEB0, symSize: 0xD0 }
  - { offsetInCU: 0x6980, offset: 0x1C06A1, size: 0x8, addend: 0x0, symName: __ZNK3tns10ModuleMeta7getNameEv, symObjAddr: 0x4DE, symBinAddr: 0x1BB0E, symSize: 0x66 }
  - { offsetInCU: 0x6C7B, offset: 0x1C099C, size: 0x8, addend: 0x0, symName: __ZNK3tns11LibraryMeta7getNameEv, symObjAddr: 0x544, symBinAddr: 0x1BB74, symSize: 0x66 }
  - { offsetInCU: 0x6F51, offset: 0x1C0C72, size: 0x8, addend: 0x0, symName: __ZN10robin_hood6detail5TableILb1ELm80EPKN3tns10ModuleMetaENSt3__110unique_ptrINS2_14SymbolResolverENS6_14default_deleteIS8_EEEENS_4hashIS5_vEENS6_8equal_toIS5_EEE7emplaceIJRS5_SB_EEENS6_4pairINSG_4IterILb0EEEbEEDpOT_, symObjAddr: 0x5AA, symBinAddr: 0x1BBDA, symSize: 0x11A }
  - { offsetInCU: 0x7A8C, offset: 0x1C17AD, size: 0x8, addend: 0x0, symName: __ZN10robin_hood6detail5TableILb1ELm80EPKN3tns10ModuleMetaENSt3__110unique_ptrINS2_14SymbolResolverENS6_14default_deleteIS8_EEEENS_4hashIS5_vEENS6_8equal_toIS5_EEE25insertKeyPrepareEmptySpotIRKS5_EENS6_4pairImNSG_14InsertionStateEEEOT_, symObjAddr: 0xA98, symBinAddr: 0x1C0C8, symSize: 0x160 }
  - { offsetInCU: 0x7C3C, offset: 0x1C195D, size: 0x8, addend: 0x0, symName: __ZNK10robin_hood6detail5TableILb1ELm80EPKN3tns10ModuleMetaENSt3__110unique_ptrINS2_14SymbolResolverENS6_14default_deleteIS8_EEEENS_4hashIS5_vEENS6_8equal_toIS5_EEE18throwOverflowErrorEv, symObjAddr: 0xBF8, symBinAddr: 0x1C228, symSize: 0x4C }
  - { offsetInCU: 0x7C71, offset: 0x1C1992, size: 0x8, addend: 0x0, symName: __ZN3tns12SymbolLoader18loadFunctionSymbolEPKNS_10ModuleMetaEPKc, symObjAddr: 0x6C4, symBinAddr: 0x1BCF4, symSize: 0x3C }
  - { offsetInCU: 0x7D0F, offset: 0x1C1A30, size: 0x8, addend: 0x0, symName: __ZN3tns12SymbolLoader14loadDataSymbolEPKNS_10ModuleMetaEPKc, symObjAddr: 0x700, symBinAddr: 0x1BD30, symSize: 0x3E }
  - { offsetInCU: 0x7D97, offset: 0x1C1AB8, size: 0x8, addend: 0x0, symName: __ZN3tns12SymbolLoader12ensureModuleEPKNS_10ModuleMetaE, symObjAddr: 0x73E, symBinAddr: 0x1BD6E, symSize: 0x30 }
  - { offsetInCU: 0x7E0B, offset: 0x1C1B2C, size: 0x8, addend: 0x0, symName: __ZNK10robin_hood6detail5TableILb1ELm80EPKN3tns10ModuleMetaENSt3__110unique_ptrINS2_14SymbolResolverENS6_14default_deleteIS8_EEEENS_4hashIS5_vEENS6_8equal_toIS5_EEE9DestroyerISG_Lb0EE20nodesDoNotDeallocateERSG_, symObjAddr: 0x7BC, symBinAddr: 0x1BDEC, symSize: 0xC4 }
  - { offsetInCU: 0x813E, offset: 0x1C1E5F, size: 0x8, addend: 0x0, symName: __ZN3tns22CFBundleSymbolResolver18loadFunctionSymbolEPKc, symObjAddr: 0x950, symBinAddr: 0x1BF80, symSize: 0x4A }
  - { offsetInCU: 0x8204, offset: 0x1C1F25, size: 0x8, addend: 0x0, symName: __ZN3tns22CFBundleSymbolResolver14loadDataSymbolEPKc, symObjAddr: 0x99A, symBinAddr: 0x1BFCA, symSize: 0x4A }
  - { offsetInCU: 0x829C, offset: 0x1C1FBD, size: 0x8, addend: 0x0, symName: __ZN3tns22CFBundleSymbolResolver4loadEv, symObjAddr: 0x9E4, symBinAddr: 0x1C014, symSize: 0x6A }
  - { offsetInCU: 0x8348, offset: 0x1C2069, size: 0x8, addend: 0x0, symName: __ZN3tns22CFBundleSymbolResolverD1Ev, symObjAddr: 0xA4E, symBinAddr: 0x1C07E, symSize: 0x6 }
  - { offsetInCU: 0x8373, offset: 0x1C2094, size: 0x8, addend: 0x0, symName: __ZN3tns22CFBundleSymbolResolverD0Ev, symObjAddr: 0xA54, symBinAddr: 0x1C084, symSize: 0xA }
  - { offsetInCU: 0x839E, offset: 0x1C20BF, size: 0x8, addend: 0x0, symName: __ZN3tns16DlSymbolResolver18loadFunctionSymbolEPKc, symObjAddr: 0xA5E, symBinAddr: 0x1C08E, symSize: 0xE }
  - { offsetInCU: 0x83E1, offset: 0x1C2102, size: 0x8, addend: 0x0, symName: __ZN3tns16DlSymbolResolver14loadDataSymbolEPKc, symObjAddr: 0xA6C, symBinAddr: 0x1C09C, symSize: 0xE }
  - { offsetInCU: 0x8424, offset: 0x1C2145, size: 0x8, addend: 0x0, symName: __ZN3tns16DlSymbolResolver4loadEv, symObjAddr: 0xA7A, symBinAddr: 0x1C0AA, symSize: 0xE }
  - { offsetInCU: 0x8449, offset: 0x1C216A, size: 0x8, addend: 0x0, symName: __ZN3tns16DlSymbolResolverD1Ev, symObjAddr: 0xA88, symBinAddr: 0x1C0B8, symSize: 0x6 }
  - { offsetInCU: 0x8474, offset: 0x1C2195, size: 0x8, addend: 0x0, symName: __ZN3tns16DlSymbolResolverD0Ev, symObjAddr: 0xA8E, symBinAddr: 0x1C0BE, symSize: 0xA }
  - { offsetInCU: 0x84CE, offset: 0x1C21EF, size: 0x8, addend: 0x0, symName: __ZN10robin_hood6detail5TableILb1ELm80EPKN3tns10ModuleMetaENSt3__110unique_ptrINS2_14SymbolResolverENS6_14default_deleteIS8_EEEENS_4hashIS5_vEENS6_8equal_toIS5_EEE13increase_sizeEv, symObjAddr: 0xC44, symBinAddr: 0x1C274, symSize: 0x108 }
  - { offsetInCU: 0x8594, offset: 0x1C22B5, size: 0x8, addend: 0x0, symName: __ZN10robin_hood6detail5TableILb1ELm80EPKN3tns10ModuleMetaENSt3__110unique_ptrINS2_14SymbolResolverENS6_14default_deleteIS8_EEEENS_4hashIS5_vEENS6_8equal_toIS5_EEE7shiftUpEmm, symObjAddr: 0xD4C, symBinAddr: 0x1C37C, symSize: 0xD2 }
  - { offsetInCU: 0x876D, offset: 0x1C248E, size: 0x8, addend: 0x0, symName: __ZN10robin_hood6detail5TableILb1ELm80EPKN3tns10ModuleMetaENSt3__110unique_ptrINS2_14SymbolResolverENS6_14default_deleteIS8_EEEENS_4hashIS5_vEENS6_8equal_toIS5_EEE17try_increase_infoEv, symObjAddr: 0xF06, symBinAddr: 0x1C536, symSize: 0xE8 }
  - { offsetInCU: 0x886C, offset: 0x1C258D, size: 0x8, addend: 0x0, symName: __ZN10robin_hood6detail5TableILb1ELm80EPKN3tns10ModuleMetaENSt3__110unique_ptrINS2_14SymbolResolverENS6_14default_deleteIS8_EEEENS_4hashIS5_vEENS6_8equal_toIS5_EEE8initDataEm, symObjAddr: 0xE1E, symBinAddr: 0x1C44E, symSize: 0xE8 }
  - { offsetInCU: 0x8957, offset: 0x1C2678, size: 0x8, addend: 0x0, symName: __ZN10robin_hood6detail5TableILb1ELm80EPKN3tns10ModuleMetaENSt3__110unique_ptrINS2_14SymbolResolverENS6_14default_deleteIS8_EEEENS_4hashIS5_vEENS6_8equal_toIS5_EEE17try_increase_infoEv, symObjAddr: 0xF06, symBinAddr: 0x1C536, symSize: 0xE8 }
  - { offsetInCU: 0x8962, offset: 0x1C2683, size: 0x8, addend: 0x0, symName: __ZN10robin_hood6detail5TableILb1ELm80EPKN3tns10ModuleMetaENSt3__110unique_ptrINS2_14SymbolResolverENS6_14default_deleteIS8_EEEENS_4hashIS5_vEENS6_8equal_toIS5_EEE16rehashPowerOfTwoEmb, symObjAddr: 0xFEE, symBinAddr: 0x1C61E, symSize: 0x109 }
  - { offsetInCU: 0x8C28, offset: 0x1C2949, size: 0x8, addend: 0x0, symName: __ZN10robin_hood6detail5TableILb1ELm80EPKN3tns10ModuleMetaENSt3__110unique_ptrINS2_14SymbolResolverENS6_14default_deleteIS8_EEEENS_4hashIS5_vEENS6_8equal_toIS5_EEE11insert_moveEONSG_8DataNodeISG_Lb1EEE, symObjAddr: 0x1128, symBinAddr: 0x1C728, symSize: 0x144 }
  - { offsetInCU: 0x30FF, offset: 0x1C62D1, size: 0x8, addend: 0x0, symName: __ZN3tns22FastEnumerationAdapterEPN2v87IsolateEP11objc_objectP22NSFastEnumerationStatePS4_mPNS0_10PersistentINS0_8FunctionENS0_27NonCopyablePersistentTraitsIS9_EEEE, symObjAddr: 0x0, symBinAddr: 0x1C870, symSize: 0x5C0 }
  - { offsetInCU: 0xDA, offset: 0x1CA18D, size: 0x8, addend: 0x0, symName: __ZN3tns30collectInheritanceChainMembersEPKcmNS_10MemberTypeEbPKNS_13BaseClassMetaENSt3__18functionIFvPKNS_10MemberMetaEEEE, symObjAddr: 0x11C5, symBinAddr: 0x1DDD5, symSize: 0x6DB }
  - { offsetInCU: 0x10C, offset: 0x1CA1BF, size: 0x8, addend: 0x0, symName: __ZZN3tns30collectInheritanceChainMembersEPKcmNS_10MemberTypeEbPKNS_13BaseClassMetaENSt3__18functionIFvPKNS_10MemberMetaEEEEE11nsObjectLen, symObjAddr: 0x1E7998, symBinAddr: 0x16AA1C8, symSize: 0x0 }
  - { offsetInCU: 0x1C8C, offset: 0x1CBD3F, size: 0x8, addend: 0x0, symName: __ZN3tnsL16metaFileInstanceE, symObjAddr: 0x1E79A8, symBinAddr: 0x16AA1D8, symSize: 0x0 }
  - { offsetInCU: 0x2766, offset: 0x1CC819, size: 0x8, addend: 0x0, symName: __ZN3tns22LogMetadataUnavailableEPKchhS1_, symObjAddr: 0x0, symBinAddr: 0x1CE30, symSize: 0x1E }
  - { offsetInCU: 0x27D9, offset: 0x1CC88C, size: 0x8, addend: 0x0, symName: __ZN3tns17getMetasByJSNamesENSt3__13setIPKNS_10MemberMetaENS0_4lessIS4_EENS0_9allocatorIS4_EEEE, symObjAddr: 0x1E, symBinAddr: 0x1CE4E, symSize: 0x1BE }
  - { offsetInCU: 0x137ED, offset: 0x1DD8A0, size: 0x8, addend: 0x0, symName: __ZNSt3__119__allocate_at_leastB7v160006INS_9allocatorIPKN3tns12PropertyMetaEEEEENS_19__allocation_resultINS_16allocator_traitsIT_E7pointerEEERS9_m, symObjAddr: 0x36F4, symBinAddr: 0x1F9C4, symSize: 0x2E }
  - { offsetInCU: 0x13892, offset: 0x1DD945, size: 0x8, addend: 0x0, symName: __ZNSt3__16vectorIPKN3tns12PropertyMetaENS_9allocatorIS4_EEEC2ERKS7_, symObjAddr: 0x3722, symBinAddr: 0x1F9F2, symSize: 0x72 }
  - { offsetInCU: 0x13B69, offset: 0x1DDC1C, size: 0x8, addend: 0x0, symName: __ZNSt3__16vectorIPKN3tns10MethodMetaENS_9allocatorIS4_EEEC2ERKS7_, symObjAddr: 0x566C, symBinAddr: 0x2178C, symSize: 0x72 }
  - { offsetInCU: 0x14049, offset: 0x1DE0FC, size: 0x8, addend: 0x0, symName: __ZNSt3__127__tree_balance_after_insertB7v160006IPNS_16__tree_node_baseIPvEEEEvT_S5_, symObjAddr: 0x44E0, symBinAddr: 0x20680, symSize: 0x162 }
  - { offsetInCU: 0x15618, offset: 0x1DF6CB, size: 0x8, addend: 0x0, symName: __ZNK3tns10MethodMeta20isImplementedInClassEP10objc_classb, symObjAddr: 0x42A, symBinAddr: 0x1D25A, symSize: 0x244 }
  - { offsetInCU: 0x1563D, offset: 0x1DF6F0, size: 0x8, addend: 0x0, symName: __ZZNK3tns10MethodMeta20isImplementedInClassEP10objc_classbE15sampleInstances, symObjAddr: 0x1E7958, symBinAddr: 0x16AA188, symSize: 0x0 }
  - { offsetInCU: 0x17B5A, offset: 0x1E1C0D, size: 0x8, addend: 0x0, symName: __ZN10robin_hood6detail7doThrowISt9bad_allocJEEEvDpOT0_, symObjAddr: 0x2F20, symBinAddr: 0x1F770, symSize: 0x32 }
  - { offsetInCU: 0x19957, offset: 0x1E3A0A, size: 0x8, addend: 0x0, symName: __ZNK3tns13BaseClassMeta7membersEPKcmNS_10MemberTypeEbbRKNSt3__16vectorIPKNS_12ProtocolMetaENS4_9allocatorIS8_EEEE, symObjAddr: 0xCDE, symBinAddr: 0x1D8EE, symSize: 0x4E7 }
  - { offsetInCU: 0x1D94A, offset: 0x1E79FD, size: 0x8, addend: 0x0, symName: __ZN10robin_hood6detail5TableILb1ELm80ENSt3__112basic_stringIcNS2_11char_traitsIcEENS2_9allocatorIcEEEENS2_3setIPKN3tns10MemberMetaENS2_4lessISD_EENS6_ISD_EEEENS_4hashIS8_vEENS2_8equal_toIS8_EEE25insertKeyPrepareEmptySpotIRS8_EENS2_4pairImNSM_14InsertionStateEEEOT_, symObjAddr: 0x3962, symBinAddr: 0x1FB92, symSize: 0x160 }
  - { offsetInCU: 0x1D961, offset: 0x1E7A14, size: 0x8, addend: 0x0, symName: __ZN10robin_hood6detail5TableILb1ELm80ENSt3__112basic_stringIcNS2_11char_traitsIcEENS2_9allocatorIcEEEENS2_3setIPKN3tns10MemberMetaENS2_4lessISD_EENS6_ISD_EEEENS_4hashIS8_vEENS2_8equal_toIS8_EEEixISH_EENS2_9enable_ifIXntsr3std7is_voidIT_EE5valueERSP_E4typeEOS8_, symObjAddr: 0x1DC, symBinAddr: 0x1D00C, symSize: 0x176 }
  - { offsetInCU: 0x1E15B, offset: 0x1E820E, size: 0x8, addend: 0x0, symName: __ZNSt3__16__treeIPKN3tns10MemberMetaENS_4lessIS4_EENS_9allocatorIS4_EEE25__emplace_unique_key_argsIS4_JRKS4_EEENS_4pairINS_15__tree_iteratorIS4_PNS_11__tree_nodeIS4_PvEElEEbEERKT_DpOT0_, symObjAddr: 0x4410, symBinAddr: 0x205B0, symSize: 0x92 }
  - { offsetInCU: 0x1E3CA, offset: 0x1E847D, size: 0x8, addend: 0x0, symName: __ZN10robin_hood6detail5TableILb1ELm80ENSt3__112basic_stringIcNS2_11char_traitsIcEENS2_9allocatorIcEEEENS2_3setIPKN3tns10MemberMetaENS2_4lessISD_EENS6_ISD_EEEENS_4hashIS8_vEENS2_8equal_toIS8_EEE7destroyEv, symObjAddr: 0x37CE, symBinAddr: 0x1FA6E, symSize: 0x3C }
  - { offsetInCU: 0x1E9D5, offset: 0x1E8A88, size: 0x8, addend: 0x0, symName: __ZN10robin_hood6detail5TableILb1ELm80ENSt3__112basic_stringIcNS2_11char_traitsIcEENS2_9allocatorIcEEEENS2_3setIPKN3tns10MemberMetaENS2_4lessISD_EENS6_ISD_EEEENS_4hashIS8_vEENS2_8equal_toIS8_EEE25insertKeyPrepareEmptySpotIRS8_EENS2_4pairImNSM_14InsertionStateEEEOT_, symObjAddr: 0x3962, symBinAddr: 0x1FB92, symSize: 0x160 }
  - { offsetInCU: 0x1EB30, offset: 0x1E8BE3, size: 0x8, addend: 0x0, symName: __ZNK10robin_hood6detail5TableILb1ELm80ENSt3__112basic_stringIcNS2_11char_traitsIcEENS2_9allocatorIcEEEENS2_3setIPKN3tns10MemberMetaENS2_4lessISD_EENS6_ISD_EEEENS_4hashIS8_vEENS2_8equal_toIS8_EEE18throwOverflowErrorEv, symObjAddr: 0x3AC2, symBinAddr: 0x1FCF2, symSize: 0x4C }
  - { offsetInCU: 0x1EB65, offset: 0x1E8C18, size: 0x8, addend: 0x0, symName: __ZNSt3__16__treeIPKN3tns10MemberMetaENS_4lessIS4_EENS_9allocatorIS4_EEE7destroyEPNS_11__tree_nodeIS4_PvEE, symObjAddr: 0x43DC, symBinAddr: 0x2057C, symSize: 0x34 }
  - { offsetInCU: 0x1ECD7, offset: 0x1E8D8A, size: 0x8, addend: 0x0, symName: __ZNK3tns4Meta11isAvailableEv, symObjAddr: 0x352, symBinAddr: 0x1D182, symSize: 0xD8 }
  - { offsetInCU: 0x1EED8, offset: 0x1E8F8B, size: 0x8, addend: 0x0, symName: __ZNK10robin_hood6detail5TableILb1ELm80EP10objc_classP11objc_objectNS_4hashIS3_vEENSt3__18equal_toIS3_EEE7findIdxIS3_EEmRKT_, symObjAddr: 0x4642, symBinAddr: 0x207E2, symSize: 0xD0 }
  - { offsetInCU: 0x1F067, offset: 0x1E911A, size: 0x8, addend: 0x0, symName: __ZN10robin_hood6detail5TableILb1ELm80EP10objc_classP11objc_objectNS_4hashIS3_vEENSt3__18equal_toIS3_EEE7emplaceIJRS3_S5_EEENS8_4pairINSB_4IterILb0EEEbEEDpOT_, symObjAddr: 0x892, symBinAddr: 0x1D4D2, symSize: 0x92 }
  - { offsetInCU: 0x1F438, offset: 0x1E94EB, size: 0x8, addend: 0x0, symName: __ZNK10robin_hood6detail5TableILb1ELm80EPKN3tns10MethodMetaEP13objc_selectorNS_4hashIS5_vEENSt3__18equal_toIS5_EEE7findIdxIS5_EEmRKT_, symObjAddr: 0x284C, symBinAddr: 0x1F35C, symSize: 0xD0 }
  - { offsetInCU: 0x1F759, offset: 0x1E980C, size: 0x8, addend: 0x0, symName: __ZN10robin_hood6detail5TableILb1ELm80EP10objc_classP11objc_objectNS_4hashIS3_vEENSt3__18equal_toIS3_EEED1Ev, symObjAddr: 0x86A, symBinAddr: 0x1D4AA, symSize: 0x28 }
  - { offsetInCU: 0x1F9BE, offset: 0x1E9A71, size: 0x8, addend: 0x0, symName: __ZN10robin_hood6detail5TableILb1ELm80EP10objc_classP11objc_objectNS_4hashIS3_vEENSt3__18equal_toIS3_EEE25insertKeyPrepareEmptySpotIRKS3_EENS8_4pairImNSB_14InsertionStateEEEOT_, symObjAddr: 0x4712, symBinAddr: 0x208B2, symSize: 0x160 }
  - { offsetInCU: 0x1FB6E, offset: 0x1E9C21, size: 0x8, addend: 0x0, symName: __ZNK10robin_hood6detail5TableILb1ELm80EP10objc_classP11objc_objectNS_4hashIS3_vEENSt3__18equal_toIS3_EEE18throwOverflowErrorEv, symObjAddr: 0x4872, symBinAddr: 0x20A12, symSize: 0x4C }
  - { offsetInCU: 0x1FCF1, offset: 0x1E9DA4, size: 0x8, addend: 0x0, symName: __ZNK3tns13BaseClassMeta12protocolsSetEv, symObjAddr: 0x924, symBinAddr: 0x1D564, symSize: 0x144 }
  - { offsetInCU: 0x2088E, offset: 0x1EA941, size: 0x8, addend: 0x0, symName: __ZNSt3__16__treeIPKN3tns12ProtocolMetaENS_4lessIS4_EENS_9allocatorIS4_EEE25__emplace_unique_key_argsIS4_JRKS4_EEENS_4pairINS_15__tree_iteratorIS4_PNS_11__tree_nodeIS4_PvEElEEbEERKT_DpOT0_, symObjAddr: 0x4E54, symBinAddr: 0x20FF4, symSize: 0x92 }
  - { offsetInCU: 0x20AFD, offset: 0x1EABB0, size: 0x8, addend: 0x0, symName: __ZNSt3__16__treeIPKN3tns12ProtocolMetaENS_4lessIS4_EENS_9allocatorIS4_EEE7destroyEPNS_11__tree_nodeIS4_PvEE, symObjAddr: 0x4E20, symBinAddr: 0x20FC0, symSize: 0x34 }
  - { offsetInCU: 0x20C55, offset: 0x1EAD08, size: 0x8, addend: 0x0, symName: __ZNK3tns13BaseClassMeta16deepProtocolsSetEv, symObjAddr: 0xA68, symBinAddr: 0x1D6A8, symSize: 0x42 }
  - { offsetInCU: 0x20E10, offset: 0x1EAEC3, size: 0x8, addend: 0x0, symName: __ZNK3tns13BaseClassMeta16deepProtocolsSetERNSt3__13setIPKNS_12ProtocolMetaENS1_4lessIS5_EENS1_9allocatorIS5_EEEE, symObjAddr: 0xAAA, symBinAddr: 0x1D6EA, symSize: 0x1A0 }
  - { offsetInCU: 0x21B40, offset: 0x1EBBF3, size: 0x8, addend: 0x0, symName: __ZNK3tns11GlobalTableILNS_15GlobalTableTypeE0EE17findInterfaceMetaEPKc, symObjAddr: 0x30DC, symBinAddr: 0x1F7AC, symSize: 0x3E }
  - { offsetInCU: 0x21BC5, offset: 0x1EBC78, size: 0x8, addend: 0x0, symName: __ZNK3tns13BaseClassMeta6memberEPKcmNS_10MemberTypeEbbRKNSt3__16vectorIPKNS_12ProtocolMetaENS4_9allocatorIS8_EEEE, symObjAddr: 0xC84, symBinAddr: 0x1D894, symSize: 0x5A }
  - { offsetInCU: 0x22788, offset: 0x1EC83B, size: 0x8, addend: 0x0, symName: __ZNSt3__16__treeINS_12__value_typeIiPKN3tns10MemberMetaEEENS_19__map_value_compareIiS6_NS_4lessIiEELb1EEENS_9allocatorIS6_EEE7destroyEPNS_11__tree_nodeIS6_PvEE, symObjAddr: 0x51A6, symBinAddr: 0x212F6, symSize: 0x34 }
  - { offsetInCU: 0x228E0, offset: 0x1EC993, size: 0x8, addend: 0x0, symName: __ZNSt3__13setIPKN3tns10MemberMetaENS_4lessIS4_EENS_9allocatorIS4_EEE6insertB7v160006INS_21__tree_const_iteratorIS4_PNS_11__tree_nodeIS4_PvEElEEEEvT_SH_, symObjAddr: 0x541E, symBinAddr: 0x2156E, symSize: 0x66 }
  - { offsetInCU: 0x22F52, offset: 0x1ED005, size: 0x8, addend: 0x0, symName: __ZNK3tns5ArrayINS_5PtrToINS_10MemberMetaEEEE20binarySearchLeftmostENSt3__18functionIFiRKS3_EEE, symObjAddr: 0x18A0, symBinAddr: 0x1E4B0, symSize: 0xE6 }
  - { offsetInCU: 0x231C2, offset: 0x1ED275, size: 0x8, addend: 0x0, symName: __ZNSt3__110__function12__value_funcIFvPKN3tns10MemberMetaEEEC2B7v160006ERKS7_, symObjAddr: 0x515A, symBinAddr: 0x212AA, symSize: 0x4C }
  - { offsetInCU: 0x232DB, offset: 0x1ED38E, size: 0x8, addend: 0x0, symName: __ZNSt3__110__function12__value_funcIFiRKN3tns5PtrToINS2_10MemberMetaEEEEEC2B7v160006ERKS9_, symObjAddr: 0x4FAC, symBinAddr: 0x2114C, symSize: 0x4C }
  - { offsetInCU: 0x2332F, offset: 0x1ED3E2, size: 0x8, addend: 0x0, symName: __ZNK3tns5ArrayINS_5PtrToINS_10MemberMetaEEEE12binarySearchENSt3__18functionIFiRKS3_EEE, symObjAddr: 0x4F24, symBinAddr: 0x210C4, symSize: 0x88 }
  - { offsetInCU: 0x2342C, offset: 0x1ED4DF, size: 0x8, addend: 0x0, symName: __ZNSt3__110__function12__value_funcIFiRKN3tns5PtrToINS2_10MemberMetaEEEEEC2B7v160006ERKS9_, symObjAddr: 0x4FAC, symBinAddr: 0x2114C, symSize: 0x4C }
  - { offsetInCU: 0x2352A, offset: 0x1ED5DD, size: 0x8, addend: 0x0, symName: __ZNK3tns13BaseClassMeta31instancePropertiesWithProtocolsERNSt3__16vectorIPKNS_12PropertyMetaENS1_9allocatorIS5_EEEENS_21KnownUnknownClassPairERKNS2_IPKNS_12ProtocolMetaENS6_ISD_EEEE, symObjAddr: 0x1986, symBinAddr: 0x1E596, symSize: 0x238 }
  - { offsetInCU: 0x245CF, offset: 0x1EE682, size: 0x8, addend: 0x0, symName: __ZNK3tns13BaseClassMeta18instancePropertiesERNSt3__16vectorIPKNS_12PropertyMetaENS1_9allocatorIS5_EEEENS_21KnownUnknownClassPairE, symObjAddr: 0x1BBE, symBinAddr: 0x1E7CE, symSize: 0x2AE }
  - { offsetInCU: 0x2559A, offset: 0x1EF64D, size: 0x8, addend: 0x0, symName: __ZNK3tns13BaseClassMeta29staticPropertiesWithProtocolsERNSt3__16vectorIPKNS_12PropertyMetaENS1_9allocatorIS5_EEEENS_21KnownUnknownClassPairERKNS2_IPKNS_12ProtocolMetaENS6_ISD_EEEE, symObjAddr: 0x1E6C, symBinAddr: 0x1EA7C, symSize: 0x238 }
  - { offsetInCU: 0x255A6, offset: 0x1EF659, size: 0x8, addend: 0x0, symName: __ZNSt3__16vectorIPKN3tns12PropertyMetaENS_9allocatorIS4_EEEC2ERKS7_, symObjAddr: 0x3722, symBinAddr: 0x1F9F2, symSize: 0x72 }
  - { offsetInCU: 0x2609A, offset: 0x1F014D, size: 0x8, addend: 0x0, symName: __ZNKSt3__16vectorIPKN3tns12PropertyMetaENS_9allocatorIS4_EEE20__throw_length_errorB7v160006Ev, symObjAddr: 0x36E4, symBinAddr: 0x1F9B4, symSize: 0x10 }
  - { offsetInCU: 0x260C3, offset: 0x1F0176, size: 0x8, addend: 0x0, symName: __ZNSt3__119__allocate_at_leastB7v160006INS_9allocatorIPKN3tns12PropertyMetaEEEEENS_19__allocation_resultINS_16allocator_traitsIT_E7pointerEEERS9_m, symObjAddr: 0x36F4, symBinAddr: 0x1F9C4, symSize: 0x2E }
  - { offsetInCU: 0x260CF, offset: 0x1F0182, size: 0x8, addend: 0x0, symName: __ZNK3tns13BaseClassMeta29staticPropertiesWithProtocolsERNSt3__16vectorIPKNS_12PropertyMetaENS1_9allocatorIS5_EEEENS_21KnownUnknownClassPairERKNS2_IPKNS_12ProtocolMetaENS6_ISD_EEEE, symObjAddr: 0x1E6C, symBinAddr: 0x1EA7C, symSize: 0x238 }
  - { offsetInCU: 0x2714C, offset: 0x1F11FF, size: 0x8, addend: 0x0, symName: __ZNK3tns13BaseClassMeta16staticPropertiesERNSt3__16vectorIPKNS_12PropertyMetaENS1_9allocatorIS5_EEEENS_21KnownUnknownClassPairE, symObjAddr: 0x20A4, symBinAddr: 0x1ECB4, symSize: 0x2B4 }
  - { offsetInCU: 0x28117, offset: 0x1F21CA, size: 0x8, addend: 0x0, symName: __ZNK3tns13BaseClassMeta12initializersERNSt3__16vectorIPKNS_10MethodMetaENS1_9allocatorIS5_EEEENS_21KnownUnknownClassPairE, symObjAddr: 0x2358, symBinAddr: 0x1EF68, symSize: 0x1F0 }
  - { offsetInCU: 0x285A5, offset: 0x1F2658, size: 0x8, addend: 0x0, symName: __ZNK3tns13BaseClassMeta12initializersERNSt3__16vectorIPKNS_10MethodMetaENS1_9allocatorIS5_EEEENS_21KnownUnknownClassPairE, symObjAddr: 0x2358, symBinAddr: 0x1EF68, symSize: 0x1F0 }
  - { offsetInCU: 0x28F50, offset: 0x1F3003, size: 0x8, addend: 0x0, symName: __ZNSt3__16vectorIPKN3tns10MethodMetaENS_9allocatorIS4_EEEC2ERKS7_, symObjAddr: 0x566C, symBinAddr: 0x2178C, symSize: 0x72 }
  - { offsetInCU: 0x29357, offset: 0x1F340A, size: 0x8, addend: 0x0, symName: __ZNK3tns13BaseClassMeta25initializersWithProtocolsERNSt3__16vectorIPKNS_10MethodMetaENS1_9allocatorIS5_EEEENS_21KnownUnknownClassPairERKNS2_IPKNS_12ProtocolMetaENS6_ISD_EEEE, symObjAddr: 0x2548, symBinAddr: 0x1F158, symSize: 0x1D6 }
  - { offsetInCU: 0x2A06E, offset: 0x1F4121, size: 0x8, addend: 0x0, symName: __ZN3tns8MetaFile8instanceEv, symObjAddr: 0x271E, symBinAddr: 0x1F32E, symSize: 0xE }
  - { offsetInCU: 0x2A17B, offset: 0x1F422E, size: 0x8, addend: 0x0, symName: __ZNK3tns11GlobalTableILNS_15GlobalTableTypeE0EE8findMetaEPKcmjb, symObjAddr: 0x32F0, symBinAddr: 0x1F7F0, symSize: 0x1B8 }
  - { offsetInCU: 0x2AA3E, offset: 0x1F4AF1, size: 0x8, addend: 0x0, symName: __ZN3tns8MetaFile11setInstanceEPv, symObjAddr: 0x276E, symBinAddr: 0x1F33E, symSize: 0x10 }
  - { offsetInCU: 0x2AC2B, offset: 0x1F4CDE, size: 0x8, addend: 0x0, symName: __ZN10robin_hood6detail5TableILb1ELm80EPKN3tns10MethodMetaEP13objc_selectorNS_4hashIS5_vEENSt3__18equal_toIS5_EEE25insertKeyPrepareEmptySpotIRKS5_EENSA_4pairImNSD_14InsertionStateEEEOT_, symObjAddr: 0x291C, symBinAddr: 0x1F42C, symSize: 0x160 }
  - { offsetInCU: 0x2ADDB, offset: 0x1F4E8E, size: 0x8, addend: 0x0, symName: __ZNK10robin_hood6detail5TableILb1ELm80EPKN3tns10MethodMetaEP13objc_selectorNS_4hashIS5_vEENSt3__18equal_toIS5_EEE18throwOverflowErrorEv, symObjAddr: 0x2A7C, symBinAddr: 0x1F58C, symSize: 0x4C }
  - { offsetInCU: 0x2AF20, offset: 0x1F4FD3, size: 0x8, addend: 0x0, symName: __ZN10robin_hood6detail5TableILb1ELm80EPKN3tns10MethodMetaEP13objc_selectorNS_4hashIS5_vEENSt3__18equal_toIS5_EEE13increase_sizeEv, symObjAddr: 0x2AC8, symBinAddr: 0x1F5D8, symSize: 0x108 }
  - { offsetInCU: 0x2AFE6, offset: 0x1F5099, size: 0x8, addend: 0x0, symName: __ZN10robin_hood6detail5TableILb1ELm80EPKN3tns10MethodMetaEP13objc_selectorNS_4hashIS5_vEENSt3__18equal_toIS5_EEE7shiftUpEmm, symObjAddr: 0x2BD0, symBinAddr: 0x1F6E0, symSize: 0x8E }
  - { offsetInCU: 0x2C08E, offset: 0x1F6141, size: 0x8, addend: 0x0, symName: __ZNK10robin_hood6detail5TableILb1ELm80ENSt3__112basic_stringIcNS2_11char_traitsIcEENS2_9allocatorIcEEEENS2_3setIPKN3tns10MemberMetaENS2_4lessISD_EENS6_ISD_EEEENS_4hashIS8_vEENS2_8equal_toIS8_EEE9DestroyerISM_Lb0EE20nodesDoNotDeallocateERSM_, symObjAddr: 0x380A, symBinAddr: 0x1FAAA, symSize: 0xDE }
  - { offsetInCU: 0x2C52D, offset: 0x1F65E0, size: 0x8, addend: 0x0, symName: __ZNK10robin_hood4hashINSt3__112basic_stringIcNS1_11char_traitsIcEENS1_9allocatorIcEEEEvEclERKS7_, symObjAddr: 0x3E00, symBinAddr: 0x1FFA0, symSize: 0x11C }
  - { offsetInCU: 0x2C719, offset: 0x1F67CC, size: 0x8, addend: 0x0, symName: __ZN10robin_hood6detail5TableILb1ELm80ENSt3__112basic_stringIcNS2_11char_traitsIcEENS2_9allocatorIcEEEENS2_3setIPKN3tns10MemberMetaENS2_4lessISD_EENS6_ISD_EEEENS_4hashIS8_vEENS2_8equal_toIS8_EEE13increase_sizeEv, symObjAddr: 0x3BA8, symBinAddr: 0x1FD48, symSize: 0x108 }
  - { offsetInCU: 0x2C7DF, offset: 0x1F6892, size: 0x8, addend: 0x0, symName: __ZN10robin_hood6detail5TableILb1ELm80ENSt3__112basic_stringIcNS2_11char_traitsIcEENS2_9allocatorIcEEEENS2_3setIPKN3tns10MemberMetaENS2_4lessISD_EENS6_ISD_EEEENS_4hashIS8_vEENS2_8equal_toIS8_EEE7shiftUpEmm, symObjAddr: 0x3CB0, symBinAddr: 0x1FE50, symSize: 0x150 }
  - { offsetInCU: 0x2CB13, offset: 0x1F6BC6, size: 0x8, addend: 0x0, symName: __ZN10robin_hood6detail5TableILb1ELm80ENSt3__112basic_stringIcNS2_11char_traitsIcEENS2_9allocatorIcEEEENS2_3setIPKN3tns10MemberMetaENS2_4lessISD_EENS6_ISD_EEEENS_4hashIS8_vEENS2_8equal_toIS8_EEE17try_increase_infoEv, symObjAddr: 0x4004, symBinAddr: 0x201A4, symSize: 0xE8 }
  - { offsetInCU: 0x2CC12, offset: 0x1F6CC5, size: 0x8, addend: 0x0, symName: __ZN10robin_hood6detail5TableILb1ELm80ENSt3__112basic_stringIcNS2_11char_traitsIcEENS2_9allocatorIcEEEENS2_3setIPKN3tns10MemberMetaENS2_4lessISD_EENS6_ISD_EEEENS_4hashIS8_vEENS2_8equal_toIS8_EEE8initDataEm, symObjAddr: 0x3F1C, symBinAddr: 0x200BC, symSize: 0xE8 }
  - { offsetInCU: 0x2CCFC, offset: 0x1F6DAF, size: 0x8, addend: 0x0, symName: __ZN10robin_hood6detail5TableILb1ELm80ENSt3__112basic_stringIcNS2_11char_traitsIcEENS2_9allocatorIcEEEENS2_3setIPKN3tns10MemberMetaENS2_4lessISD_EENS6_ISD_EEEENS_4hashIS8_vEENS2_8equal_toIS8_EEE17try_increase_infoEv, symObjAddr: 0x4004, symBinAddr: 0x201A4, symSize: 0xE8 }
  - { offsetInCU: 0x2CD08, offset: 0x1F6DBB, size: 0x8, addend: 0x0, symName: __ZN10robin_hood6detail5TableILb1ELm80ENSt3__112basic_stringIcNS2_11char_traitsIcEENS2_9allocatorIcEEEENS2_3setIPKN3tns10MemberMetaENS2_4lessISD_EENS6_ISD_EEEENS_4hashIS8_vEENS2_8equal_toIS8_EEE16rehashPowerOfTwoEmb, symObjAddr: 0x40EC, symBinAddr: 0x2028C, symSize: 0x10E }
  - { offsetInCU: 0x2D223, offset: 0x1F72D6, size: 0x8, addend: 0x0, symName: __ZNSt3__16__treeIPKN3tns10MemberMetaENS_4lessIS4_EENS_9allocatorIS4_EEE13__move_assignERS9_NS_17integral_constantIbLb1EEE, symObjAddr: 0x4382, symBinAddr: 0x20522, symSize: 0x5A }
  - { offsetInCU: 0x2D2C2, offset: 0x1F7375, size: 0x8, addend: 0x0, symName: __ZN10robin_hood6detail5TableILb1ELm80ENSt3__112basic_stringIcNS2_11char_traitsIcEENS2_9allocatorIcEEEENS2_3setIPKN3tns10MemberMetaENS2_4lessISD_EENS6_ISD_EEEENS_4hashIS8_vEENS2_8equal_toIS8_EEE11insert_moveEONSM_8DataNodeISM_Lb1EEE, symObjAddr: 0x41FA, symBinAddr: 0x2039A, symSize: 0x188 }
  - { offsetInCU: 0x2D954, offset: 0x1F7A07, size: 0x8, addend: 0x0, symName: __ZNSt3__16__treeIPKN3tns10MemberMetaENS_4lessIS4_EENS_9allocatorIS4_EEE16__insert_node_atEPNS_15__tree_end_nodeIPNS_16__tree_node_baseIPvEEEERSE_SE_, symObjAddr: 0x44A2, symBinAddr: 0x20642, symSize: 0x3E }
  - { offsetInCU: 0x2DB0A, offset: 0x1F7BBD, size: 0x8, addend: 0x0, symName: __ZN10robin_hood6detail5TableILb1ELm80EP10objc_classP11objc_objectNS_4hashIS3_vEENSt3__18equal_toIS3_EEE13increase_sizeEv, symObjAddr: 0x48BE, symBinAddr: 0x20A5E, symSize: 0x108 }
  - { offsetInCU: 0x2DBD0, offset: 0x1F7C83, size: 0x8, addend: 0x0, symName: __ZN10robin_hood6detail5TableILb1ELm80EP10objc_classP11objc_objectNS_4hashIS3_vEENSt3__18equal_toIS3_EEE7shiftUpEmm, symObjAddr: 0x49C6, symBinAddr: 0x20B66, symSize: 0x8E }
  - { offsetInCU: 0x2DC5D, offset: 0x1F7D10, size: 0x8, addend: 0x0, symName: __ZN10robin_hood6detail5TableILb1ELm80EP10objc_classP11objc_objectNS_4hashIS3_vEENSt3__18equal_toIS3_EEE17try_increase_infoEv, symObjAddr: 0x4B3C, symBinAddr: 0x20CDC, symSize: 0xE8 }
  - { offsetInCU: 0x2DD5C, offset: 0x1F7E0F, size: 0x8, addend: 0x0, symName: __ZN10robin_hood6detail5TableILb1ELm80EP10objc_classP11objc_objectNS_4hashIS3_vEENSt3__18equal_toIS3_EEE8initDataEm, symObjAddr: 0x4A54, symBinAddr: 0x20BF4, symSize: 0xE8 }
  - { offsetInCU: 0x2DE46, offset: 0x1F7EF9, size: 0x8, addend: 0x0, symName: __ZN10robin_hood6detail5TableILb1ELm80EP10objc_classP11objc_objectNS_4hashIS3_vEENSt3__18equal_toIS3_EEE17try_increase_infoEv, symObjAddr: 0x4B3C, symBinAddr: 0x20CDC, symSize: 0xE8 }
  - { offsetInCU: 0x2DE52, offset: 0x1F7F05, size: 0x8, addend: 0x0, symName: __ZN10robin_hood6detail5TableILb1ELm80EP10objc_classP11objc_objectNS_4hashIS3_vEENSt3__18equal_toIS3_EEE16rehashPowerOfTwoEmb, symObjAddr: 0x4C24, symBinAddr: 0x20DC4, symSize: 0xF2 }
  - { offsetInCU: 0x2DFA9, offset: 0x1F805C, size: 0x8, addend: 0x0, symName: __ZN10robin_hood6detail5TableILb1ELm80EP10objc_classP11objc_objectNS_4hashIS3_vEENSt3__18equal_toIS3_EEE11insert_moveEONSB_8DataNodeISB_Lb1EEE, symObjAddr: 0x4D16, symBinAddr: 0x20EB6, symSize: 0x10A }
  - { offsetInCU: 0x2E326, offset: 0x1F83D9, size: 0x8, addend: 0x0, symName: __ZNSt3__16__treeIPKN3tns12ProtocolMetaENS_4lessIS4_EENS_9allocatorIS4_EEE16__insert_node_atEPNS_15__tree_end_nodeIPNS_16__tree_node_baseIPvEEEERSE_SE_, symObjAddr: 0x4EE6, symBinAddr: 0x21086, symSize: 0x3E }
  - { offsetInCU: 0x2E3CE, offset: 0x1F8481, size: 0x8, addend: 0x0, symName: '__ZNSt3__110__function6__funcIZN3tns30collectInheritanceChainMembersEPKcmNS2_10MemberTypeEbPKNS2_13BaseClassMetaENS_8functionIFvPKNS2_10MemberMetaEEEEE3$_2NS_9allocatorISF_EEFiRKNS2_5PtrToISA_EEEED1Ev', symObjAddr: 0x5050, symBinAddr: 0x211A0, symSize: 0x6 }
  - { offsetInCU: 0x2E3F7, offset: 0x1F84AA, size: 0x8, addend: 0x0, symName: '__ZNSt3__110__function6__funcIZN3tns30collectInheritanceChainMembersEPKcmNS2_10MemberTypeEbPKNS2_13BaseClassMetaENS_8functionIFvPKNS2_10MemberMetaEEEEE3$_2NS_9allocatorISF_EEFiRKNS2_5PtrToISA_EEEED0Ev', symObjAddr: 0x5056, symBinAddr: 0x211A6, symSize: 0xA }
  - { offsetInCU: 0x2E5FC, offset: 0x1F86AF, size: 0x8, addend: 0x0, symName: '__ZNKSt3__110__function6__funcIZN3tns30collectInheritanceChainMembersEPKcmNS2_10MemberTypeEbPKNS2_13BaseClassMetaENS_8functionIFvPKNS2_10MemberMetaEEEEE3$_2NS_9allocatorISF_EEFiRKNS2_5PtrToISA_EEEE7__cloneEv', symObjAddr: 0x5060, symBinAddr: 0x211B0, symSize: 0x2C }
  - { offsetInCU: 0x2E927, offset: 0x1F89DA, size: 0x8, addend: 0x0, symName: '__ZNKSt3__110__function6__funcIZN3tns30collectInheritanceChainMembersEPKcmNS2_10MemberTypeEbPKNS2_13BaseClassMetaENS_8functionIFvPKNS2_10MemberMetaEEEEE3$_2NS_9allocatorISF_EEFiRKNS2_5PtrToISA_EEEE7__cloneEPNS0_6__baseISM_EE', symObjAddr: 0x508C, symBinAddr: 0x211DC, symSize: 0x18 }
  - { offsetInCU: 0x2EAA6, offset: 0x1F8B59, size: 0x8, addend: 0x0, symName: '__ZNSt3__110__function6__funcIZN3tns30collectInheritanceChainMembersEPKcmNS2_10MemberTypeEbPKNS2_13BaseClassMetaENS_8functionIFvPKNS2_10MemberMetaEEEEE3$_2NS_9allocatorISF_EEFiRKNS2_5PtrToISA_EEEE7destroyEv', symObjAddr: 0x50A4, symBinAddr: 0x211F4, symSize: 0x6 }
  - { offsetInCU: 0x2EAF5, offset: 0x1F8BA8, size: 0x8, addend: 0x0, symName: '__ZNSt3__110__function6__funcIZN3tns30collectInheritanceChainMembersEPKcmNS2_10MemberTypeEbPKNS2_13BaseClassMetaENS_8functionIFvPKNS2_10MemberMetaEEEEE3$_2NS_9allocatorISF_EEFiRKNS2_5PtrToISA_EEEE18destroy_deallocateEv', symObjAddr: 0x50AA, symBinAddr: 0x211FA, symSize: 0xA }
  - { offsetInCU: 0x2EC5F, offset: 0x1F8D12, size: 0x8, addend: 0x0, symName: '__ZNSt3__110__function6__funcIZN3tns30collectInheritanceChainMembersEPKcmNS2_10MemberTypeEbPKNS2_13BaseClassMetaENS_8functionIFvPKNS2_10MemberMetaEEEEE3$_2NS_9allocatorISF_EEFiRKNS2_5PtrToISA_EEEEclESL_', symObjAddr: 0x50B4, symBinAddr: 0x21204, symSize: 0xA6 }
  - { offsetInCU: 0x2F141, offset: 0x1F91F4, size: 0x8, addend: 0x0, symName: '__ZNSt3__110__function6__funcIZNK3tns13BaseClassMeta7membersEPKcmNS2_10MemberTypeEbbRKNS_6vectorIPKNS2_12ProtocolMetaENS_9allocatorISA_EEEEE3$_3NSB_ISG_EEFvPKNS2_10MemberMetaEEED1Ev', symObjAddr: 0x51DA, symBinAddr: 0x2132A, symSize: 0x6 }
  - { offsetInCU: 0x2F16A, offset: 0x1F921D, size: 0x8, addend: 0x0, symName: '__ZNSt3__110__function6__funcIZNK3tns13BaseClassMeta7membersEPKcmNS2_10MemberTypeEbbRKNS_6vectorIPKNS2_12ProtocolMetaENS_9allocatorISA_EEEEE3$_3NSB_ISG_EEFvPKNS2_10MemberMetaEEED0Ev', symObjAddr: 0x51E0, symBinAddr: 0x21330, symSize: 0xA }
  - { offsetInCU: 0x2F36F, offset: 0x1F9422, size: 0x8, addend: 0x0, symName: '__ZNKSt3__110__function6__funcIZNK3tns13BaseClassMeta7membersEPKcmNS2_10MemberTypeEbbRKNS_6vectorIPKNS2_12ProtocolMetaENS_9allocatorISA_EEEEE3$_3NSB_ISG_EEFvPKNS2_10MemberMetaEEE7__cloneEv', symObjAddr: 0x51EA, symBinAddr: 0x2133A, symSize: 0x2C }
  - { offsetInCU: 0x2F69A, offset: 0x1F974D, size: 0x8, addend: 0x0, symName: '__ZNKSt3__110__function6__funcIZNK3tns13BaseClassMeta7membersEPKcmNS2_10MemberTypeEbbRKNS_6vectorIPKNS2_12ProtocolMetaENS_9allocatorISA_EEEEE3$_3NSB_ISG_EEFvPKNS2_10MemberMetaEEE7__cloneEPNS0_6__baseISL_EE', symObjAddr: 0x5216, symBinAddr: 0x21366, symSize: 0x18 }
  - { offsetInCU: 0x2F819, offset: 0x1F98CC, size: 0x8, addend: 0x0, symName: '__ZNSt3__110__function6__funcIZNK3tns13BaseClassMeta7membersEPKcmNS2_10MemberTypeEbbRKNS_6vectorIPKNS2_12ProtocolMetaENS_9allocatorISA_EEEEE3$_3NSB_ISG_EEFvPKNS2_10MemberMetaEEE7destroyEv', symObjAddr: 0x522E, symBinAddr: 0x2137E, symSize: 0x6 }
  - { offsetInCU: 0x2F868, offset: 0x1F991B, size: 0x8, addend: 0x0, symName: '__ZNSt3__110__function6__funcIZNK3tns13BaseClassMeta7membersEPKcmNS2_10MemberTypeEbbRKNS_6vectorIPKNS2_12ProtocolMetaENS_9allocatorISA_EEEEE3$_3NSB_ISG_EEFvPKNS2_10MemberMetaEEE18destroy_deallocateEv', symObjAddr: 0x5234, symBinAddr: 0x21384, symSize: 0xA }
  - { offsetInCU: 0x2FAA1, offset: 0x1F9B54, size: 0x8, addend: 0x0, symName: '__ZNSt3__110__function6__funcIZNK3tns13BaseClassMeta7membersEPKcmNS2_10MemberTypeEbbRKNS_6vectorIPKNS2_12ProtocolMetaENS_9allocatorISA_EEEEE3$_3NSB_ISG_EEFvPKNS2_10MemberMetaEEEclEOSK_', symObjAddr: 0x523E, symBinAddr: 0x2138E, symSize: 0x7C }
  - { offsetInCU: 0x2FEA6, offset: 0x1F9F59, size: 0x8, addend: 0x0, symName: __ZNSt3__16__treeINS_12__value_typeIiPKN3tns10MemberMetaEEENS_19__map_value_compareIiS6_NS_4lessIiEELb1EEENS_9allocatorIS6_EEE25__emplace_unique_key_argsIiJRiRS5_EEENS_4pairINS_15__tree_iteratorIS6_PNS_11__tree_nodeIS6_PvEElEEbEERKT_DpOT0_, symObjAddr: 0x52BA, symBinAddr: 0x2140A, symSize: 0x9E }
  - { offsetInCU: 0x30467, offset: 0x1FA51A, size: 0x8, addend: 0x0, symName: __ZNSt3__16__treeINS_12__value_typeIiPKN3tns10MemberMetaEEENS_19__map_value_compareIiS6_NS_4lessIiEELb1EEENS_9allocatorIS6_EEE16__insert_node_atEPNS_15__tree_end_nodeIPNS_16__tree_node_baseIPvEEEERSI_SI_, symObjAddr: 0x5358, symBinAddr: 0x214A8, symSize: 0x3E }
  - { offsetInCU: 0x304D1, offset: 0x1FA584, size: 0x8, addend: 0x0, symName: '__ZNSt3__110__function6__funcIZNK3tns13BaseClassMeta7membersEPKcmNS2_10MemberTypeEbbRKNS_6vectorIPKNS2_12ProtocolMetaENS_9allocatorISA_EEEEE3$_4NSB_ISG_EEFvPKNS2_10MemberMetaEEED1Ev', symObjAddr: 0x5396, symBinAddr: 0x214E6, symSize: 0x6 }
  - { offsetInCU: 0x304FA, offset: 0x1FA5AD, size: 0x8, addend: 0x0, symName: '__ZNSt3__110__function6__funcIZNK3tns13BaseClassMeta7membersEPKcmNS2_10MemberTypeEbbRKNS_6vectorIPKNS2_12ProtocolMetaENS_9allocatorISA_EEEEE3$_4NSB_ISG_EEFvPKNS2_10MemberMetaEEED0Ev', symObjAddr: 0x539C, symBinAddr: 0x214EC, symSize: 0xA }
  - { offsetInCU: 0x306FF, offset: 0x1FA7B2, size: 0x8, addend: 0x0, symName: '__ZNKSt3__110__function6__funcIZNK3tns13BaseClassMeta7membersEPKcmNS2_10MemberTypeEbbRKNS_6vectorIPKNS2_12ProtocolMetaENS_9allocatorISA_EEEEE3$_4NSB_ISG_EEFvPKNS2_10MemberMetaEEE7__cloneEv', symObjAddr: 0x53A6, symBinAddr: 0x214F6, symSize: 0x2C }
  - { offsetInCU: 0x30A2A, offset: 0x1FAADD, size: 0x8, addend: 0x0, symName: '__ZNKSt3__110__function6__funcIZNK3tns13BaseClassMeta7membersEPKcmNS2_10MemberTypeEbbRKNS_6vectorIPKNS2_12ProtocolMetaENS_9allocatorISA_EEEEE3$_4NSB_ISG_EEFvPKNS2_10MemberMetaEEE7__cloneEPNS0_6__baseISL_EE', symObjAddr: 0x53D2, symBinAddr: 0x21522, symSize: 0x18 }
  - { offsetInCU: 0x30BA9, offset: 0x1FAC5C, size: 0x8, addend: 0x0, symName: '__ZNSt3__110__function6__funcIZNK3tns13BaseClassMeta7membersEPKcmNS2_10MemberTypeEbbRKNS_6vectorIPKNS2_12ProtocolMetaENS_9allocatorISA_EEEEE3$_4NSB_ISG_EEFvPKNS2_10MemberMetaEEE7destroyEv', symObjAddr: 0x53EA, symBinAddr: 0x2153A, symSize: 0x6 }
  - { offsetInCU: 0x30BF8, offset: 0x1FACAB, size: 0x8, addend: 0x0, symName: '__ZNSt3__110__function6__funcIZNK3tns13BaseClassMeta7membersEPKcmNS2_10MemberTypeEbbRKNS_6vectorIPKNS2_12ProtocolMetaENS_9allocatorISA_EEEEE3$_4NSB_ISG_EEFvPKNS2_10MemberMetaEEE18destroy_deallocateEv', symObjAddr: 0x53F0, symBinAddr: 0x21540, symSize: 0xA }
  - { offsetInCU: 0x30D4D, offset: 0x1FAE00, size: 0x8, addend: 0x0, symName: '__ZNSt3__110__function6__funcIZNK3tns13BaseClassMeta7membersEPKcmNS2_10MemberTypeEbbRKNS_6vectorIPKNS2_12ProtocolMetaENS_9allocatorISA_EEEEE3$_4NSB_ISG_EEFvPKNS2_10MemberMetaEEEclEOSK_', symObjAddr: 0x53FA, symBinAddr: 0x2154A, symSize: 0x24 }
  - { offsetInCU: 0x30ED4, offset: 0x1FAF87, size: 0x8, addend: 0x0, symName: __ZNSt3__16__treeIPKN3tns10MemberMetaENS_4lessIS4_EENS_9allocatorIS4_EEE30__emplace_hint_unique_key_argsIS4_JRKS4_EEENS_4pairINS_15__tree_iteratorIS4_PNS_11__tree_nodeIS4_PvEElEEbEENS_21__tree_const_iteratorIS4_SI_lEERKT_DpOT0_, symObjAddr: 0x5484, symBinAddr: 0x215D4, symSize: 0x6C }
  - { offsetInCU: 0x310F4, offset: 0x1FB1A7, size: 0x8, addend: 0x0, symName: __ZNSt3__16__treeIPKN3tns10MemberMetaENS_4lessIS4_EENS_9allocatorIS4_EEE12__find_equalIS4_EERPNS_16__tree_node_baseIPvEENS_21__tree_const_iteratorIS4_PNS_11__tree_nodeIS4_SC_EElEERPNS_15__tree_end_nodeISE_EESF_RKT_, symObjAddr: 0x54F0, symBinAddr: 0x21640, symSize: 0x13E }
  - { offsetInCU: 0x26, offset: 0x1FB989, size: 0x8, addend: 0x0, symName: __ZN4rnv815createV8RuntimeEv, symObjAddr: 0x0, symBinAddr: 0x217FE, symSize: 0x3D }
  - { offsetInCU: 0x4829, offset: 0x20018C, size: 0x8, addend: 0x0, symName: __ZN4rnv815createV8RuntimeEv, symObjAddr: 0x0, symBinAddr: 0x217FE, symSize: 0x3D }
  - { offsetInCU: 0x11AE7, offset: 0x213D20, size: 0x8, addend: 0x0, symName: '-[DictionaryAdapterMapKeysEnumerator initWithMap:isolate:cache:]', symObjAddr: 0x0, symBinAddr: 0x21840, symSize: 0xF8 }
  - { offsetInCU: 0x11DC7, offset: 0x214000, size: 0x8, addend: 0x0, symName: __ZNSt3__110shared_ptrIN2v810PersistentINS1_5ValueENS1_27NonCopyablePersistentTraitsIS3_EEEEEaSB7v160006ERKS7_, symObjAddr: 0xF8, symBinAddr: 0x21938, symSize: 0x56 }
  - { offsetInCU: 0x12334, offset: 0x21456D, size: 0x8, addend: 0x0, symName: '-[DictionaryAdapterMapKeysEnumerator nextObject]', symObjAddr: 0x14E, symBinAddr: 0x2198E, symSize: 0x20F }
  - { offsetInCU: 0x12C66, offset: 0x214E9F, size: 0x8, addend: 0x0, symName: '-[DictionaryAdapterMapKeysEnumerator dealloc]', symObjAddr: 0x423, symBinAddr: 0x21BA3, symSize: 0x93 }
  - { offsetInCU: 0x12EA7, offset: 0x2150E0, size: 0x8, addend: 0x0, symName: '-[DictionaryAdapterMapKeysEnumerator .cxx_destruct]', symObjAddr: 0x500, symBinAddr: 0x21C40, symSize: 0x11 }
  - { offsetInCU: 0x12F81, offset: 0x2151BA, size: 0x8, addend: 0x0, symName: '-[DictionaryAdapterMapKeysEnumerator .cxx_construct]', symObjAddr: 0x511, symBinAddr: 0x21C51, symSize: 0x17 }
  - { offsetInCU: 0x12FE0, offset: 0x215219, size: 0x8, addend: 0x0, symName: '-[DictionaryAdapterObjectKeysEnumerator initWithProperties:isolate:cache:]', symObjAddr: 0x528, symBinAddr: 0x21C68, symSize: 0xF9 }
  - { offsetInCU: 0x1338B, offset: 0x2155C4, size: 0x8, addend: 0x0, symName: '-[DictionaryAdapterObjectKeysEnumerator getProperties]', symObjAddr: 0x621, symBinAddr: 0x21D61, symSize: 0x1B9 }
  - { offsetInCU: 0x13C06, offset: 0x215E3F, size: 0x8, addend: 0x0, symName: '-[DictionaryAdapterObjectKeysEnumerator nextObject]', symObjAddr: 0x7DA, symBinAddr: 0x21F1A, symSize: 0x23A }
  - { offsetInCU: 0x14684, offset: 0x2168BD, size: 0x8, addend: 0x0, symName: '-[DictionaryAdapterObjectKeysEnumerator allObjects]', symObjAddr: 0xAC8, symBinAddr: 0x22158, symSize: 0x265 }
  - { offsetInCU: 0x14ED2, offset: 0x21710B, size: 0x8, addend: 0x0, symName: '-[DictionaryAdapterObjectKeysEnumerator dealloc]', symObjAddr: 0xD2D, symBinAddr: 0x223BD, symSize: 0x93 }
  - { offsetInCU: 0x15000, offset: 0x217239, size: 0x8, addend: 0x0, symName: '-[DictionaryAdapterObjectKeysEnumerator .cxx_destruct]', symObjAddr: 0xDC0, symBinAddr: 0x22450, symSize: 0x11 }
  - { offsetInCU: 0x1505C, offset: 0x217295, size: 0x8, addend: 0x0, symName: '-[DictionaryAdapterObjectKeysEnumerator .cxx_construct]', symObjAddr: 0xDD1, symBinAddr: 0x22461, symSize: 0x17 }
  - { offsetInCU: 0x15141, offset: 0x21737A, size: 0x8, addend: 0x0, symName: '-[DictionaryAdapter initWithJSObject:isolate:]', symObjAddr: 0xDE8, symBinAddr: 0x22478, symSize: 0x224 }
  - { offsetInCU: 0x157EA, offset: 0x217A23, size: 0x8, addend: 0x0, symName: __ZN10robin_hood6detail5TableILb1ELm80EP11objc_objectNSt3__110shared_ptrIN2v810PersistentINS6_5ValueENS6_27NonCopyablePersistentTraitsIS8_EEEEEENS_4hashIS3_vEENS4_8equal_toIS3_EEE7emplaceIJRP17DictionaryAdapterRSC_EEENS4_4pairINSH_4IterILb0EEEbEEDpOT_, symObjAddr: 0x100C, symBinAddr: 0x2269C, symSize: 0x11D }
  - { offsetInCU: 0x1615B, offset: 0x218394, size: 0x8, addend: 0x0, symName: '-[DictionaryAdapter count]', symObjAddr: 0x1129, symBinAddr: 0x227B9, symSize: 0x1EE }
  - { offsetInCU: 0x1693E, offset: 0x218B77, size: 0x8, addend: 0x0, symName: '-[DictionaryAdapter objectForKey:]', symObjAddr: 0x1317, symBinAddr: 0x229A7, symSize: 0x388 }
  - { offsetInCU: 0x176A6, offset: 0x2198DF, size: 0x8, addend: 0x0, symName: '-[DictionaryAdapter keyEnumerator]', symObjAddr: 0x169F, symBinAddr: 0x22D2F, symSize: 0x2E7 }
  - { offsetInCU: 0x17F0C, offset: 0x21A145, size: 0x8, addend: 0x0, symName: '-[DictionaryAdapter dealloc]', symObjAddr: 0x1986, symBinAddr: 0x23016, symSize: 0x22A }
  - { offsetInCU: 0x1870B, offset: 0x21A944, size: 0x8, addend: 0x0, symName: '-[DictionaryAdapter .cxx_destruct]', symObjAddr: 0x1C5F, symBinAddr: 0x2324F, symSize: 0x11 }
  - { offsetInCU: 0x18767, offset: 0x21A9A0, size: 0x8, addend: 0x0, symName: '-[DictionaryAdapter .cxx_construct]', symObjAddr: 0x1C70, symBinAddr: 0x23260, symSize: 0x17 }
  - { offsetInCU: 0x190BF, offset: 0x21B2F8, size: 0x8, addend: 0x0, symName: __ZNSt3__120__shared_ptr_emplaceIN2v810PersistentINS1_5ValueENS1_27NonCopyablePersistentTraitsIS3_EEEENS_9allocatorIS6_EEED0Ev, symObjAddr: 0x1FF0, symBinAddr: 0x23280, symSize: 0x2A }
  - { offsetInCU: 0x19129, offset: 0x21B362, size: 0x8, addend: 0x0, symName: __ZNSt3__120__shared_ptr_emplaceIN2v810PersistentINS1_5ValueENS1_27NonCopyablePersistentTraitsIS3_EEEENS_9allocatorIS6_EEE21__on_zero_shared_weakEv, symObjAddr: 0x2020, symBinAddr: 0x232B0, symSize: 0xA }
  - { offsetInCU: 0x19487, offset: 0x21B6C0, size: 0x8, addend: 0x0, symName: __ZN10robin_hood6detail5TableILb1ELm80EP11objc_objectNSt3__110shared_ptrIN2v810PersistentINS6_5ValueENS6_27NonCopyablePersistentTraitsIS8_EEEEEENS_4hashIS3_vEENS4_8equal_toIS3_EEE8initDataEm, symObjAddr: 0x23AC, symBinAddr: 0x232BC, symSize: 0xE6 }
  - { offsetInCU: 0x7EE0, offset: 0x223A93, size: 0x8, addend: 0x0, symName: __ZNSt3__142__uninitialized_allocator_move_if_noexceptB7v160006INS_9allocatorINS_10unique_ptrIvPFvPKvEEEEENS_16reverse_iteratorIPS7_EESB_SB_EET2_RT_T0_T1_SC_, symObjAddr: 0x1DD6, symBinAddr: 0x24ED6, symSize: 0x80 }
  - { offsetInCU: 0x80AC, offset: 0x223C5F, size: 0x8, addend: 0x0, symName: __ZNSt3__115allocate_sharedB7v160006INS_6vectorINS_10shared_ptrIN2v810PersistentINS3_5ValueENS3_27NonCopyablePersistentTraitsIS5_EEEEEENS_9allocatorIS9_EEEENSA_ISC_EEJRiEvEENS2_IT_EERKT0_DpOT1_, symObjAddr: 0x20CF, symBinAddr: 0x2512F, symSize: 0x57 }
  - { offsetInCU: 0x84DC, offset: 0x22408F, size: 0x8, addend: 0x0, symName: __ZNSt3__115allocate_sharedB7v160006IN3tns9TimerTaskENS_9allocatorIS2_EEJRPN2v87IsolateERNS5_5LocalINS5_8FunctionEEERlRbRNS_10shared_ptrINS_6vectorINSF_INS5_10PersistentINS5_5ValueENS5_27NonCopyablePersistentTraitsISI_EEEEEENS3_ISM_EEEEEERidEvEENSF_IT_EERKT0_DpOT1_, symObjAddr: 0x2450, symBinAddr: 0x253D0, symSize: 0x82 }
  - { offsetInCU: 0x8BBC, offset: 0x22476F, size: 0x8, addend: 0x0, symName: __ZNSt3__142__uninitialized_allocator_move_if_noexceptB7v160006INS_9allocatorINS_10unique_ptrIvPFvPKvEEEEENS_16reverse_iteratorIPS7_EESB_SB_EET2_RT_T0_T1_SC_, symObjAddr: 0x1DD6, symBinAddr: 0x24ED6, symSize: 0x80 }
  - { offsetInCU: 0x906A, offset: 0x224C1D, size: 0x8, addend: 0x0, symName: __ZNSt3__120__throw_out_of_rangeB7v160006EPKc, symObjAddr: 0x2060, symBinAddr: 0x250E0, symSize: 0x4C }
  - { offsetInCU: 0x9324, offset: 0x224ED7, size: 0x8, addend: 0x0, symName: __ZNSt3__119__allocate_at_leastB7v160006INS_9allocatorINS_10shared_ptrIN2v810PersistentINS3_5ValueENS3_27NonCopyablePersistentTraitsIS5_EEEEEEEEEENS_19__allocation_resultINS_16allocator_traitsIT_E7pointerEEERSD_m, symObjAddr: 0x228C, symBinAddr: 0x252EC, symSize: 0x2E }
  - { offsetInCU: 0xA1B0, offset: 0x225D63, size: 0x8, addend: 0x0, symName: __ZN3tns13TimerCallbackEP16__CFRunLoopTimerPv, symObjAddr: 0x4F3, symBinAddr: 0x238A3, symSize: 0x2CD }
  - { offsetInCU: 0x10DE9, offset: 0x22C99C, size: 0x8, addend: 0x0, symName: __ZNSt3__16vectorINS_10unique_ptrIvPFvPKvEEENS_9allocatorIS6_EEE26__swap_out_circular_bufferERNS_14__split_bufferIS6_RS8_EE, symObjAddr: 0x1CB0, symBinAddr: 0x24E50, symSize: 0x7A }
  - { offsetInCU: 0x131C6, offset: 0x22ED79, size: 0x8, addend: 0x0, symName: __ZN3tns6Timers4InitEPN2v87IsolateENS1_5LocalINS1_14ObjectTemplateEEE, symObjAddr: 0x0, symBinAddr: 0x233B0, symSize: 0x2D2 }
  - { offsetInCU: 0x13A2E, offset: 0x22F5E1, size: 0x8, addend: 0x0, symName: __ZN3tns6Caches24registerCacheBoundObjectINS_10TimerStateEEEvPT_, symObjAddr: 0x2D2, symBinAddr: 0x23682, symSize: 0x136 }
  - { offsetInCU: 0x14567, offset: 0x23011A, size: 0x8, addend: 0x0, symName: __ZZN3tns6Caches11unique_voidINS_10TimerStateEEENSt3__110unique_ptrIvPFvPKvEEEPT_ENUlS6_E_8__invokeES6_, symObjAddr: 0x1F22, symBinAddr: 0x24FA2, symSize: 0x3C }
  - { offsetInCU: 0x14621, offset: 0x2301D4, size: 0x8, addend: 0x0, symName: __ZN3tns6Timers18SetTimeoutCallbackERKN2v820FunctionCallbackInfoINS1_5ValueEEE, symObjAddr: 0x408, symBinAddr: 0x237B8, symSize: 0xC }
  - { offsetInCU: 0x14654, offset: 0x230207, size: 0x8, addend: 0x0, symName: __ZN3tns6Timers8SetTimerERKN2v820FunctionCallbackInfoINS1_5ValueEEEb, symObjAddr: 0x7C0, symBinAddr: 0x23B70, symSize: 0x518 }
  - { offsetInCU: 0x1555C, offset: 0x23110F, size: 0x8, addend: 0x0, symName: __ZN3tns6Timers19SetIntervalCallbackERKN2v820FunctionCallbackInfoINS1_5ValueEEE, symObjAddr: 0x414, symBinAddr: 0x237C4, symSize: 0x10 }
  - { offsetInCU: 0x15836, offset: 0x2313E9, size: 0x8, addend: 0x0, symName: __ZN3tns6Timers20ClearTimeoutCallbackERKN2v820FunctionCallbackInfoINS1_5ValueEEE, symObjAddr: 0x424, symBinAddr: 0x237D4, symSize: 0xCF }
  - { offsetInCU: 0x15B8E, offset: 0x231741, size: 0x8, addend: 0x0, symName: __ZN3tns10TimerState10removeTaskERKi, symObjAddr: 0xDBA, symBinAddr: 0x2412A, symSize: 0xA9 }
  - { offsetInCU: 0x160A1, offset: 0x231C54, size: 0x8, addend: 0x0, symName: __ZNKSt3__16vectorINS_10shared_ptrIN2v810PersistentINS2_5ValueENS2_27NonCopyablePersistentTraitsIS4_EEEEEENS_9allocatorIS8_EEE20__throw_out_of_rangeB7v160006Ev, symObjAddr: 0x2050, symBinAddr: 0x250D0, symSize: 0x10 }
  - { offsetInCU: 0x160CB, offset: 0x231C7E, size: 0x8, addend: 0x0, symName: __ZNSt3__120__throw_out_of_rangeB7v160006EPKc, symObjAddr: 0x2060, symBinAddr: 0x250E0, symSize: 0x4C }
  - { offsetInCU: 0x160D6, offset: 0x231C89, size: 0x8, addend: 0x0, symName: __ZNSt3__110shared_ptrIN3tns9TimerTaskEED2B7v160006Ev, symObjAddr: 0x1C70, symBinAddr: 0x24E10, symSize: 0x40 }
  - { offsetInCU: 0x164FB, offset: 0x2320AE, size: 0x8, addend: 0x0, symName: __ZNSt3__110shared_ptrIN3tns9TimerTaskEEaSB7v160006ERKS3_, symObjAddr: 0xD22, symBinAddr: 0x24092, symSize: 0x56 }
  - { offsetInCU: 0x167A4, offset: 0x232357, size: 0x8, addend: 0x0, symName: __ZN10robin_hood6detail5TableILb1ELm80EiNSt3__110shared_ptrIN3tns9TimerTaskEEENS_4hashIivEENS2_8equal_toIiEEE7emplaceIJRiRS6_EEENS2_4pairINSB_4IterILb0EEEbEEDpOT_, symObjAddr: 0x107E, symBinAddr: 0x242AE, symSize: 0x118 }
  - { offsetInCU: 0x16CD5, offset: 0x232888, size: 0x8, addend: 0x0, symName: __ZN3tns12TimerContext12TimerReleaseEPKv, symObjAddr: 0xD84, symBinAddr: 0x240F4, symSize: 0x36 }
  - { offsetInCU: 0x16DA8, offset: 0x23295B, size: 0x8, addend: 0x0, symName: __ZNSt3__110shared_ptrINS_6vectorINS0_IN2v810PersistentINS2_5ValueENS2_27NonCopyablePersistentTraitsIS4_EEEEEENS_9allocatorIS8_EEEEED2B7v160006Ev, symObjAddr: 0x1C30, symBinAddr: 0x24DD0, symSize: 0x40 }
  - { offsetInCU: 0x16EBD, offset: 0x232A70, size: 0x8, addend: 0x0, symName: __ZN3tns12TimerContext11TimerRetainEPKv, symObjAddr: 0xD78, symBinAddr: 0x240E8, symSize: 0xC }
  - { offsetInCU: 0x16FB8, offset: 0x232B6B, size: 0x8, addend: 0x0, symName: __ZN3tns12TimerContextD2Ev, symObjAddr: 0xFCC, symBinAddr: 0x241FC, symSize: 0x6C }
  - { offsetInCU: 0x17169, offset: 0x232D1C, size: 0x8, addend: 0x0, symName: __ZNK10robin_hood6detail5TableILb1ELm80EiNSt3__110shared_ptrIN3tns9TimerTaskEEENS_4hashIivEENS2_8equal_toIiEEE7findIdxIiEEmRKT_, symObjAddr: 0x1A44, symBinAddr: 0x24C24, symSize: 0xE0 }
  - { offsetInCU: 0x172F6, offset: 0x232EA9, size: 0x8, addend: 0x0, symName: __ZNSt3__110shared_ptrINS_6vectorINS0_IN2v810PersistentINS2_5ValueENS2_27NonCopyablePersistentTraitsIS4_EEEEEENS_9allocatorIS8_EEEEE5resetB7v160006Ev, symObjAddr: 0x1038, symBinAddr: 0x24268, symSize: 0x46 }
  - { offsetInCU: 0x173F8, offset: 0x232FAB, size: 0x8, addend: 0x0, symName: __ZN10robin_hood6detail5TableILb1ELm80EiNSt3__110shared_ptrIN3tns9TimerTaskEEENS_4hashIivEENS2_8equal_toIiEEE5eraseENSB_4IterILb0EEE, symObjAddr: 0x19B8, symBinAddr: 0x24B98, symSize: 0x8C }
  - { offsetInCU: 0x174AD, offset: 0x233060, size: 0x8, addend: 0x0, symName: __Z24_register_isolate_timersPN2v87IsolateENS_5LocalINS_16FunctionTemplateEEE, symObjAddr: 0xE63, symBinAddr: 0x241D3, symSize: 0x22 }
  - { offsetInCU: 0x17B20, offset: 0x2336D3, size: 0x8, addend: 0x0, symName: __ZN10robin_hood6detail5TableILb1ELm80EiNSt3__110shared_ptrIN3tns9TimerTaskEEENS_4hashIivEENS2_8equal_toIiEEE25insertKeyPrepareEmptySpotIRKiEENS2_4pairImNSB_14InsertionStateEEEOT_, symObjAddr: 0x1196, symBinAddr: 0x243C6, symSize: 0x160 }
  - { offsetInCU: 0x17CD0, offset: 0x233883, size: 0x8, addend: 0x0, symName: __ZNSt3__110shared_ptrIN3tns9TimerTaskEEaSB7v160006EOS3_, symObjAddr: 0x194A, symBinAddr: 0x24B4A, symSize: 0x4A }
  - { offsetInCU: 0x17E32, offset: 0x2339E5, size: 0x8, addend: 0x0, symName: __ZNK10robin_hood6detail5TableILb1ELm80EiNSt3__110shared_ptrIN3tns9TimerTaskEEENS_4hashIivEENS2_8equal_toIiEEE18throwOverflowErrorEv, symObjAddr: 0x12F6, symBinAddr: 0x24526, symSize: 0x4C }
  - { offsetInCU: 0x17F77, offset: 0x233B2A, size: 0x8, addend: 0x0, symName: __ZN10robin_hood6detail5TableILb1ELm80EiNSt3__110shared_ptrIN3tns9TimerTaskEEENS_4hashIivEENS2_8equal_toIiEEE13increase_sizeEv, symObjAddr: 0x1342, symBinAddr: 0x24572, symSize: 0x108 }
  - { offsetInCU: 0x1803D, offset: 0x233BF0, size: 0x8, addend: 0x0, symName: __ZN10robin_hood6detail5TableILb1ELm80EiNSt3__110shared_ptrIN3tns9TimerTaskEEENS_4hashIivEENS2_8equal_toIiEEE7shiftUpEmm, symObjAddr: 0x144A, symBinAddr: 0x2467A, symSize: 0xCA }
  - { offsetInCU: 0x181CB, offset: 0x233D7E, size: 0x8, addend: 0x0, symName: __ZN10robin_hood6detail5TableILb1ELm80EiNSt3__110shared_ptrIN3tns9TimerTaskEEENS_4hashIivEENS2_8equal_toIiEEE17try_increase_infoEv, symObjAddr: 0x15FA, symBinAddr: 0x2482A, symSize: 0xE8 }
  - { offsetInCU: 0x182CA, offset: 0x233E7D, size: 0x8, addend: 0x0, symName: __ZN10robin_hood6detail5TableILb1ELm80EiNSt3__110shared_ptrIN3tns9TimerTaskEEENS_4hashIivEENS2_8equal_toIiEEE8initDataEm, symObjAddr: 0x1514, symBinAddr: 0x24744, symSize: 0xE6 }
  - { offsetInCU: 0x183AD, offset: 0x233F60, size: 0x8, addend: 0x0, symName: __ZN10robin_hood6detail5TableILb1ELm80EiNSt3__110shared_ptrIN3tns9TimerTaskEEENS_4hashIivEENS2_8equal_toIiEEE17try_increase_infoEv, symObjAddr: 0x15FA, symBinAddr: 0x2482A, symSize: 0xE8 }
  - { offsetInCU: 0x183B8, offset: 0x233F6B, size: 0x8, addend: 0x0, symName: __ZN10robin_hood6detail5TableILb1ELm80EiNSt3__110shared_ptrIN3tns9TimerTaskEEENS_4hashIivEENS2_8equal_toIiEEE16rehashPowerOfTwoEmb, symObjAddr: 0x16E2, symBinAddr: 0x24912, symSize: 0xFB }
  - { offsetInCU: 0x1861F, offset: 0x2341D2, size: 0x8, addend: 0x0, symName: __ZN10robin_hood6detail5TableILb1ELm80EiNSt3__110shared_ptrIN3tns9TimerTaskEEENS_4hashIivEENS2_8equal_toIiEEE11insert_moveEONSB_8DataNodeISB_Lb1EEE, symObjAddr: 0x180E, symBinAddr: 0x24A0E, symSize: 0x13C }
  - { offsetInCU: 0x18958, offset: 0x23450B, size: 0x8, addend: 0x0, symName: __ZN10robin_hood6detail5TableILb1ELm80EiNSt3__110shared_ptrIN3tns9TimerTaskEEENS_4hashIivEENS2_8equal_toIiEEE9shiftDownEm, symObjAddr: 0x1B24, symBinAddr: 0x24D04, symSize: 0x8C }
  - { offsetInCU: 0x18A6B, offset: 0x23461E, size: 0x8, addend: 0x0, symName: __ZNSt3__110shared_ptrIN2v810PersistentINS1_5ValueENS1_27NonCopyablePersistentTraitsIS3_EEEEED2B7v160006Ev, symObjAddr: 0x1BB0, symBinAddr: 0x24D90, symSize: 0x40 }
  - { offsetInCU: 0x18CB9, offset: 0x23486C, size: 0x8, addend: 0x0, symName: __ZNKSt3__129_AllocatorDestroyRangeReverseINS_9allocatorINS_10unique_ptrIvPFvPKvEEEEENS_16reverse_iteratorIPS7_EEEclB7v160006Ev, symObjAddr: 0x1E70, symBinAddr: 0x24F60, symSize: 0x42 }
  - { offsetInCU: 0x1904A, offset: 0x234BFD, size: 0x8, addend: 0x0, symName: __ZN10robin_hood6detail5TableILb1ELm80EiNSt3__110shared_ptrIN3tns9TimerTaskEEENS_4hashIivEENS2_8equal_toIiEEE7destroyEv, symObjAddr: 0x1F5E, symBinAddr: 0x24FDE, symSize: 0x3C }
  - { offsetInCU: 0x19089, offset: 0x234C3C, size: 0x8, addend: 0x0, symName: __ZNK10robin_hood6detail5TableILb1ELm80EiNSt3__110shared_ptrIN3tns9TimerTaskEEENS_4hashIivEENS2_8equal_toIiEEE9DestroyerISB_Lb0EE20nodesDoNotDeallocateERSB_, symObjAddr: 0x1F9A, symBinAddr: 0x2501A, symSize: 0xB6 }
  - { offsetInCU: 0x19454, offset: 0x235007, size: 0x8, addend: 0x0, symName: __ZNSt3__120__shared_ptr_emplaceINS_6vectorINS_10shared_ptrIN2v810PersistentINS3_5ValueENS3_27NonCopyablePersistentTraitsIS5_EEEEEENS_9allocatorIS9_EEEENSA_ISC_EEEC2B7v160006IJRiEEESD_DpOT_, symObjAddr: 0x2126, symBinAddr: 0x25186, symSize: 0x44 }
  - { offsetInCU: 0x1956B, offset: 0x23511E, size: 0x8, addend: 0x0, symName: __ZNSt3__16vectorINS_10shared_ptrIN2v810PersistentINS2_5ValueENS2_27NonCopyablePersistentTraitsIS4_EEEEEENS_9allocatorIS8_EEEC2Em, symObjAddr: 0x21C4, symBinAddr: 0x25224, symSize: 0x7C }
  - { offsetInCU: 0x197FB, offset: 0x2353AE, size: 0x8, addend: 0x0, symName: __ZNSt3__120__shared_ptr_emplaceINS_6vectorINS_10shared_ptrIN2v810PersistentINS3_5ValueENS3_27NonCopyablePersistentTraitsIS5_EEEEEENS_9allocatorIS9_EEEENSA_ISC_EEED1Ev, symObjAddr: 0x216A, symBinAddr: 0x251CA, symSize: 0x18 }
  - { offsetInCU: 0x19854, offset: 0x235407, size: 0x8, addend: 0x0, symName: __ZNSt3__120__shared_ptr_emplaceINS_6vectorINS_10shared_ptrIN2v810PersistentINS3_5ValueENS3_27NonCopyablePersistentTraitsIS5_EEEEEENS_9allocatorIS9_EEEENSA_ISC_EEED0Ev, symObjAddr: 0x2182, symBinAddr: 0x251E2, symSize: 0x2A }
  - { offsetInCU: 0x198D6, offset: 0x235489, size: 0x8, addend: 0x0, symName: __ZNSt3__120__shared_ptr_emplaceINS_6vectorINS_10shared_ptrIN2v810PersistentINS3_5ValueENS3_27NonCopyablePersistentTraitsIS5_EEEEEENS_9allocatorIS9_EEEENSA_ISC_EEE16__on_zero_sharedEv, symObjAddr: 0x21AC, symBinAddr: 0x2520C, symSize: 0xE }
  - { offsetInCU: 0x19947, offset: 0x2354FA, size: 0x8, addend: 0x0, symName: __ZNSt3__16vectorINS_10shared_ptrIN2v810PersistentINS2_5ValueENS2_27NonCopyablePersistentTraitsIS4_EEEEEENS_9allocatorIS8_EEED2B7v160006Ev, symObjAddr: 0x232A, symBinAddr: 0x2533A, symSize: 0x25 }
  - { offsetInCU: 0x199CE, offset: 0x235581, size: 0x8, addend: 0x0, symName: __ZNSt3__120__shared_ptr_emplaceINS_6vectorINS_10shared_ptrIN2v810PersistentINS3_5ValueENS3_27NonCopyablePersistentTraitsIS5_EEEEEENS_9allocatorIS9_EEEENSA_ISC_EEE21__on_zero_shared_weakEv, symObjAddr: 0x21BA, symBinAddr: 0x2521A, symSize: 0xA }
  - { offsetInCU: 0x19CDA, offset: 0x23588D, size: 0x8, addend: 0x0, symName: __ZNSt3__16vectorINS_10shared_ptrIN2v810PersistentINS2_5ValueENS2_27NonCopyablePersistentTraitsIS4_EEEEEENS_9allocatorIS8_EEE11__vallocateB7v160006Em, symObjAddr: 0x2240, symBinAddr: 0x252A0, symSize: 0x3C }
  - { offsetInCU: 0x19D52, offset: 0x235905, size: 0x8, addend: 0x0, symName: __ZNKSt3__16vectorINS_10shared_ptrIN2v810PersistentINS2_5ValueENS2_27NonCopyablePersistentTraitsIS4_EEEEEENS_9allocatorIS8_EEE20__throw_length_errorB7v160006Ev, symObjAddr: 0x227C, symBinAddr: 0x252DC, symSize: 0x10 }
  - { offsetInCU: 0x19D5D, offset: 0x235910, size: 0x8, addend: 0x0, symName: __ZNSt3__128__exception_guard_exceptionsINS_6vectorINS_10shared_ptrIN2v810PersistentINS3_5ValueENS3_27NonCopyablePersistentTraitsIS5_EEEEEENS_9allocatorIS9_EEE16__destroy_vectorEED2B7v160006Ev, symObjAddr: 0x22BA, symBinAddr: 0x2531A, symSize: 0x1A }
  - { offsetInCU: 0x19DAB, offset: 0x23595E, size: 0x8, addend: 0x0, symName: __ZNKSt3__16vectorINS_10shared_ptrIN2v810PersistentINS2_5ValueENS2_27NonCopyablePersistentTraitsIS4_EEEEEENS_9allocatorIS8_EEE20__throw_length_errorB7v160006Ev, symObjAddr: 0x227C, symBinAddr: 0x252DC, symSize: 0x10 }
  - { offsetInCU: 0x19DD5, offset: 0x235988, size: 0x8, addend: 0x0, symName: __ZNSt3__119__allocate_at_leastB7v160006INS_9allocatorINS_10shared_ptrIN2v810PersistentINS3_5ValueENS3_27NonCopyablePersistentTraitsIS5_EEEEEEEEEENS_19__allocation_resultINS_16allocator_traitsIT_E7pointerEEERSD_m, symObjAddr: 0x228C, symBinAddr: 0x252EC, symSize: 0x2E }
  - { offsetInCU: 0x1A22C, offset: 0x235DDF, size: 0x8, addend: 0x0, symName: __ZNSt3__120__shared_ptr_emplaceIN2v810PersistentINS1_5ValueENS1_27NonCopyablePersistentTraitsIS3_EEEENS_9allocatorIS6_EEEC2B7v160006IJRPNS1_7IsolateENS1_5LocalIS3_EEEEES8_DpOT_, symObjAddr: 0x23AC, symBinAddr: 0x2536C, symSize: 0x52 }
  - { offsetInCU: 0x1A466, offset: 0x236019, size: 0x8, addend: 0x0, symName: __ZNSt3__120__shared_ptr_emplaceIN2v810PersistentINS1_5ValueENS1_27NonCopyablePersistentTraitsIS3_EEEENS_9allocatorIS6_EEE16__on_zero_sharedEv, symObjAddr: 0x2440, symBinAddr: 0x253C0, symSize: 0x6 }
  - { offsetInCU: 0x1A712, offset: 0x2362C5, size: 0x8, addend: 0x0, symName: __ZNSt3__120__shared_ptr_emplaceIN3tns9TimerTaskENS_9allocatorIS2_EEEC2B7v160006IJRPN2v87IsolateERNS7_5LocalINS7_8FunctionEEERlRbRNS_10shared_ptrINS_6vectorINSH_INS7_10PersistentINS7_5ValueENS7_27NonCopyablePersistentTraitsISK_EEEEEENS3_ISO_EEEEEERidEEES4_DpOT_, symObjAddr: 0x24D2, symBinAddr: 0x25452, symSize: 0x66 }
  - { offsetInCU: 0x1A911, offset: 0x2364C4, size: 0x8, addend: 0x0, symName: __ZN3tns9TimerTaskC2EPN2v87IsolateERKNS1_5LocalINS1_8FunctionEEEdbRKNSt3__110shared_ptrINS9_6vectorINSA_INS1_10PersistentINS1_5ValueENS1_27NonCopyablePersistentTraitsISD_EEEEEENS9_9allocatorISH_EEEEEEid, symObjAddr: 0x2592, symBinAddr: 0x25512, symSize: 0x13B }
  - { offsetInCU: 0x1ADA8, offset: 0x23695B, size: 0x8, addend: 0x0, symName: __ZNSt3__120__shared_ptr_emplaceIN3tns9TimerTaskENS_9allocatorIS2_EEED1Ev, symObjAddr: 0x2538, symBinAddr: 0x254B8, symSize: 0x18 }
  - { offsetInCU: 0x1AE01, offset: 0x2369B4, size: 0x8, addend: 0x0, symName: __ZNSt3__120__shared_ptr_emplaceIN3tns9TimerTaskENS_9allocatorIS2_EEED0Ev, symObjAddr: 0x2550, symBinAddr: 0x254D0, symSize: 0x2A }
  - { offsetInCU: 0x1AE9F, offset: 0x236A52, size: 0x8, addend: 0x0, symName: __ZNSt3__120__shared_ptr_emplaceIN3tns9TimerTaskENS_9allocatorIS2_EEE16__on_zero_sharedEv, symObjAddr: 0x257A, symBinAddr: 0x254FA, symSize: 0xE }
  - { offsetInCU: 0x1AF30, offset: 0x236AE3, size: 0x8, addend: 0x0, symName: __ZNSt3__120__shared_ptr_emplaceIN3tns9TimerTaskENS_9allocatorIS2_EEE21__on_zero_shared_weakEv, symObjAddr: 0x2588, symBinAddr: 0x25508, symSize: 0xA }
  - { offsetInCU: 0x26, offset: 0x236DB5, size: 0x8, addend: 0x0, symName: __ZN3tns9TSHelpers4InitEN2v85LocalINS1_7ContextEEE, symObjAddr: 0x0, symBinAddr: 0x2564E, symSize: 0x206 }
  - { offsetInCU: 0xCFA0, offset: 0x243D2F, size: 0x8, addend: 0x0, symName: __ZN3tns9TSHelpers4InitEN2v85LocalINS1_7ContextEEE, symObjAddr: 0x0, symBinAddr: 0x2564E, symSize: 0x206 }
  - { offsetInCU: 0x9FB7, offset: 0x24EB93, size: 0x8, addend: 0x0, symName: __ZNSt3__1eqB7v160006IcNS_11char_traitsIcEENS_9allocatorIcEEEEbRKNS_12basic_stringIT_T0_T1_EEPKS6_, symObjAddr: 0x42C, symBinAddr: 0x25C8C, symSize: 0x84 }
  - { offsetInCU: 0xCFE3, offset: 0x251BBF, size: 0x8, addend: 0x0, symName: __ZN3tns15InlineFunctions4InitEN2v85LocalINS1_7ContextEEE, symObjAddr: 0x0, symBinAddr: 0x25860, symSize: 0x166 }
  - { offsetInCU: 0xDC14, offset: 0x2527F0, size: 0x8, addend: 0x0, symName: __ZN3tns15InlineFunctions16IsGlobalFunctionENSt3__112basic_stringIcNS1_11char_traitsIcEENS1_9allocatorIcEEEE, symObjAddr: 0x166, symBinAddr: 0x259C6, symSize: 0x2C6 }
  - { offsetInCU: 0x11ECD, offset: 0x2650C5, size: 0x8, addend: 0x0, symName: __ZNSt3__111make_uniqueB7v160006IN2v810PersistentINS1_8FunctionENS1_27NonCopyablePersistentTraitsIS3_EEEEJRPNS1_7IsolateERNS1_5LocalIS3_EEEEENS_11__unique_ifIT_E15__unique_singleEDpOT0_, symObjAddr: 0x181C, symBinAddr: 0x273CC, symSize: 0x5C }
  - { offsetInCU: 0x12850, offset: 0x265A48, size: 0x8, addend: 0x0, symName: __ZNSt3__115allocate_sharedB7v160006IN2v810PersistentINS1_5ValueENS1_27NonCopyablePersistentTraitsIS3_EEEENS_9allocatorIS6_EEJRPNS1_7IsolateENS1_5LocalIS3_EEEvEENS_10shared_ptrIT_EERKT0_DpOT1_, symObjAddr: 0x10576, symBinAddr: 0x32FF6, symSize: 0x5C }
  - { offsetInCU: 0x13466, offset: 0x26665E, size: 0x8, addend: 0x0, symName: __ZNSt3__115allocate_sharedB7v160006IN2v810PersistentINS1_5ValueENS1_27NonCopyablePersistentTraitsIS3_EEEENS_9allocatorIS6_EEJRPNS1_7IsolateERNS1_5LocalIS3_EEEvEENS_10shared_ptrIT_EERKT0_DpOT1_, symObjAddr: 0x10FC4, symBinAddr: 0x337E4, symSize: 0x5C }
  - { offsetInCU: 0x13702, offset: 0x2668FA, size: 0x8, addend: 0x0, symName: __ZNSt3__1plB7v160006IcNS_11char_traitsIcEENS_9allocatorIcEEEENS_12basic_stringIT_T0_T1_EERKS9_SB_, symObjAddr: 0xA71C, symBinAddr: 0x2FC9C, symSize: 0xBA }
  - { offsetInCU: 0x141F0, offset: 0x2673E8, size: 0x8, addend: 0x0, symName: __ZNSt3__115allocate_sharedB7v160006IN2v810PersistentINS1_8FunctionENS1_27NonCopyablePersistentTraitsIS3_EEEENS_9allocatorIS6_EEJRPNS1_7IsolateENS1_5LocalIS3_EEEvEENS_10shared_ptrIT_EERKT0_DpOT1_, symObjAddr: 0x112F4, symBinAddr: 0x33AB4, symSize: 0x5C }
  - { offsetInCU: 0x14762, offset: 0x26795A, size: 0x8, addend: 0x0, symName: __ZNSt3__119__allocate_at_leastB7v160006INS_9allocatorINS_12basic_stringIcNS_11char_traitsIcEENS1_IcEEEEEEEENS_19__allocation_resultINS_16allocator_traitsIT_E7pointerEEERSA_m, symObjAddr: 0xFFC8, symBinAddr: 0x32D28, symSize: 0x38 }
  - { offsetInCU: 0x14807, offset: 0x2679FF, size: 0x8, addend: 0x0, symName: __ZNSt3__128__exception_guard_exceptionsINS_29_AllocatorDestroyRangeReverseINS_9allocatorINS_12basic_stringIcNS_11char_traitsIcEENS2_IcEEEEEENS_16reverse_iteratorIPS7_EEEEED2B7v160006Ev, symObjAddr: 0x10000, symBinAddr: 0x32D60, symSize: 0x1A }
  - { offsetInCU: 0x20094, offset: 0x27328C, size: 0x8, addend: 0x0, symName: __ZN3tns15MetadataBuilder17CFunctionCallbackERKN2v820FunctionCallbackInfoINS1_5ValueEEE, symObjAddr: 0x129E, symBinAddr: 0x26E4E, symSize: 0x3F0 }
  - { offsetInCU: 0x21126, offset: 0x27431E, size: 0x8, addend: 0x0, symName: __ZN3tns15MetadataBuilder30SwizzledInstanceMethodCallbackEN2v85LocalINS1_4NameEEENS2_INS1_5ValueEEERKNS1_20PropertyCallbackInfoIS5_EE, symObjAddr: 0x5E12, symBinAddr: 0x2B6F2, symSize: 0x762 }
  - { offsetInCU: 0x23D2D, offset: 0x276F25, size: 0x8, addend: 0x0, symName: __ZN3tns15MetadataBuilder24SwizzledPropertyCallbackEN2v85LocalINS1_4NameEEERKNS1_18PropertyDescriptorERKNS1_20PropertyCallbackInfoINS1_5ValueEEE, symObjAddr: 0x6574, symBinAddr: 0x2BE54, symSize: 0xC2E }
  - { offsetInCU: 0x29EB4, offset: 0x27D0AC, size: 0x8, addend: 0x0, symName: __ZN3tns15MetadataBuilder31RegisterConstantsOnGlobalObjectEPN2v87IsolateENS1_5LocalINS1_14ObjectTemplateEEEb, symObjAddr: 0x0, symBinAddr: 0x25D10, symSize: 0xFE }
  - { offsetInCU: 0x2A25A, offset: 0x27D452, size: 0x8, addend: 0x0, symName: __ZN3tns6Caches24registerCacheBoundObjectINS_15MetadataBuilder20GlobalHandlerContextEEEvPT_, symObjAddr: 0x14E, symBinAddr: 0x25E0E, symSize: 0x12E }
  - { offsetInCU: 0x2ADF0, offset: 0x27DFE8, size: 0x8, addend: 0x0, symName: __ZNSt3__114__split_bufferINS_10unique_ptrIvPFvPKvEEERNS_9allocatorIS6_EEED2Ev, symObjAddr: 0xC990, symBinAddr: 0x30D80, symSize: 0x28 }
  - { offsetInCU: 0x2B929, offset: 0x27EB21, size: 0x8, addend: 0x0, symName: __ZN3tns15MetadataBuilder20GlobalPropertyGetterEN2v85LocalINS1_4NameEEERKNS1_20PropertyCallbackInfoINS1_5ValueEEE, symObjAddr: 0x27C, symBinAddr: 0x25F3C, symSize: 0xC44 }
  - { offsetInCU: 0x2EB78, offset: 0x281D70, size: 0x8, addend: 0x0, symName: __ZNK10robin_hood6detail5TableILb1ELm80ENSt3__112basic_stringIcNS2_11char_traitsIcEENS2_9allocatorIcEEEENS2_10unique_ptrIN2v810PersistentINSA_8FunctionENSA_27NonCopyablePersistentTraitsISC_EEEENS2_14default_deleteISF_EEEENS_4hashIS8_vEENS2_8equal_toIS8_EEE7findIdxIS8_EEmRKT_, symObjAddr: 0xCA8C, symBinAddr: 0x30DCC, symSize: 0xEA }
  - { offsetInCU: 0x2EB8F, offset: 0x281D87, size: 0x8, addend: 0x0, symName: __ZN3tns10StructInfoC1ERKS0_, symObjAddr: 0x1EE2, symBinAddr: 0x27A52, symSize: 0x48 }
  - { offsetInCU: 0x2ED2D, offset: 0x281F25, size: 0x8, addend: 0x0, symName: __ZN3tns15MetadataBuilder29GetOrCreateStructCtorFunctionEN2v85LocalINS1_7ContextEEENS_10StructInfoE, symObjAddr: 0x1AE4, symBinAddr: 0x27654, symSize: 0x3FE }
  - { offsetInCU: 0x3027D, offset: 0x283475, size: 0x8, addend: 0x0, symName: __ZNK3tns4Meta4nameEv, symObjAddr: 0xF74, symBinAddr: 0x26B84, symSize: 0xDA }
  - { offsetInCU: 0x3062A, offset: 0x283822, size: 0x8, addend: 0x0, symName: __ZNK10robin_hood6detail5TableILb1ELm80ENSt3__112basic_stringIcNS2_11char_traitsIcEENS2_9allocatorIcEEEENS2_10unique_ptrIN2v810PersistentINSA_8FunctionENSA_27NonCopyablePersistentTraitsISC_EEEENS2_14default_deleteISF_EEEENS_4hashIS8_vEENS2_8equal_toIS8_EEE7findIdxIS8_EEmRKT_, symObjAddr: 0xCA8C, symBinAddr: 0x30DCC, symSize: 0xEA }
  - { offsetInCU: 0x3075E, offset: 0x283956, size: 0x8, addend: 0x0, symName: __ZNK3tns10JsCodeMeta6jsCodeEv, symObjAddr: 0x1A3C, symBinAddr: 0x275EC, symSize: 0x66 }
  - { offsetInCU: 0x30BA3, offset: 0x283D9B, size: 0x8, addend: 0x0, symName: __ZNK3tns7VarMeta8encodingEv, symObjAddr: 0x19D6, symBinAddr: 0x27586, symSize: 0x66 }
  - { offsetInCU: 0x30EC0, offset: 0x2840B8, size: 0x8, addend: 0x0, symName: __ZN3tns6Caches24registerCacheBoundObjectINS_15MetadataBuilder9CacheItemINS_12FunctionMetaEEEEEvPT_, symObjAddr: 0x1168, symBinAddr: 0x26D18, symSize: 0x136 }
  - { offsetInCU: 0x313B7, offset: 0x2845AF, size: 0x8, addend: 0x0, symName: __ZNK3tns12FunctionMeta9encodingsEv, symObjAddr: 0x17B6, symBinAddr: 0x27366, symSize: 0x66 }
  - { offsetInCU: 0x31672, offset: 0x28486A, size: 0x8, addend: 0x0, symName: __ZN3tns15MetadataBuilder28DefineFunctionLengthPropertyEN2v85LocalINS1_7ContextEEEPKNS_17TypeEncodingsListIiEENS2_INS1_8FunctionEEE, symObjAddr: 0x168E, symBinAddr: 0x2723E, symSize: 0x128 }
  - { offsetInCU: 0x31ACB, offset: 0x284CC3, size: 0x8, addend: 0x0, symName: __ZN10robin_hood6detail5TableILb1ELm80ENSt3__112basic_stringIcNS2_11char_traitsIcEENS2_9allocatorIcEEEENS2_10unique_ptrIN2v810PersistentINSA_8FunctionENSA_27NonCopyablePersistentTraitsISC_EEEENS2_14default_deleteISF_EEEENS_4hashIS8_vEENS2_8equal_toIS8_EEE7emplaceIJRS8_SI_EEENS2_4pairINSN_4IterILb0EEEbEEDpOT_, symObjAddr: 0x1878, symBinAddr: 0x27428, symSize: 0x15E }
  - { offsetInCU: 0x323B3, offset: 0x2855AB, size: 0x8, addend: 0x0, symName: __ZN3tns15MetadataBuilder38GetOrCreateConstructorFunctionTemplateEN2v85LocalINS1_7ContextEEEPKNS_13BaseClassMetaENS_21KnownUnknownClassPairERKNSt3__16vectorINS9_12basic_stringIcNS9_11char_traitsIcEENS9_9allocatorIcEEEENSE_ISG_EEEE, symObjAddr: 0x104E, symBinAddr: 0x26C5E, symSize: 0xB4 }
  - { offsetInCU: 0x32A14, offset: 0x285C0C, size: 0x8, addend: 0x0, symName: __ZN3tns15MetadataBuilder46GetOrCreateConstructorFunctionTemplateInternalEN2v85LocalINS1_7ContextEEEPKNS_13BaseClassMetaENS_21KnownUnknownClassPairERN10robin_hood6detail5TableILb1ELm80ENSt3__112basic_stringIcNSC_11char_traitsIcEENSC_9allocatorIcEEEEhNS9_4hashISI_vEENSC_8equal_toISI_EEEESO_RKNSC_6vectorISI_NSG_ISI_EEEE, symObjAddr: 0x2BD2, symBinAddr: 0x28512, symSize: 0x1884 }
  - { offsetInCU: 0x3908C, offset: 0x28C284, size: 0x8, addend: 0x0, symName: __ZN10robin_hood6detail5TableILb1ELm80ENSt3__112basic_stringIcNS2_11char_traitsIcEENS2_9allocatorIcEEEEhNS_4hashIS8_vEENS2_8equal_toIS8_EEE7destroyEv, symObjAddr: 0xE46C, symBinAddr: 0x3129C, symSize: 0x3C }
  - { offsetInCU: 0x39114, offset: 0x28C30C, size: 0x8, addend: 0x0, symName: __ZZN3tns6Caches11unique_voidINS_15MetadataBuilder9CacheItemINS_12FunctionMetaEEEEENSt3__110unique_ptrIvPFvPKvEEEPT_ENUlS9_E_8__invokeES9_, symObjAddr: 0xCD2C, symBinAddr: 0x30EBC, symSize: 0x2C }
  - { offsetInCU: 0x3913F, offset: 0x28C337, size: 0x8, addend: 0x0, symName: __ZZN3tns6Caches11unique_voidINS_15MetadataBuilder9CacheItemINS_12FunctionMetaEEEEENSt3__110unique_ptrIvPFvPKvEEEPT_ENUlS9_E_8__invokeES9_, symObjAddr: 0xCD2C, symBinAddr: 0x30EBC, symSize: 0x2C }
  - { offsetInCU: 0x39B0E, offset: 0x28CD06, size: 0x8, addend: 0x0, symName: __ZNSt3__16vectorINS_10shared_ptrIN2v810PersistentINS2_5ValueENS2_27NonCopyablePersistentTraitsIS4_EEEEEENS_9allocatorIS8_EEE9push_backB7v160006EOS8_, symObjAddr: 0xA358, symBinAddr: 0x2FAD8, symSize: 0x134 }
  - { offsetInCU: 0x3A08D, offset: 0x28D285, size: 0x8, addend: 0x0, symName: __ZNK3tns5ArrayINS_5PtrToINS_10MethodMetaEEEE12binarySearchENSt3__18functionIFiRKS3_EEE, symObjAddr: 0xA48C, symBinAddr: 0x2FC0C, symSize: 0x88 }
  - { offsetInCU: 0x3A099, offset: 0x28D291, size: 0x8, addend: 0x0, symName: __ZNSt3__16vectorINS_10shared_ptrIN2v810PersistentINS2_5ValueENS2_27NonCopyablePersistentTraitsIS4_EEEEEENS_9allocatorIS8_EEEC2ERKSB_, symObjAddr: 0x106F4, symBinAddr: 0x33094, symSize: 0x9A }
  - { offsetInCU: 0x3ACCA, offset: 0x28DEC2, size: 0x8, addend: 0x0, symName: __ZNK10robin_hood6detail5TableILb1ELm80ENSt3__112basic_stringIcNS2_11char_traitsIcEENS2_9allocatorIcEEEENS2_10unique_ptrIN2v810PersistentINSA_8FunctionENSA_27NonCopyablePersistentTraitsISC_EEEENS2_14default_deleteISF_EEEENS_4hashIS8_vEENS2_8equal_toIS8_EEE18throwOverflowErrorEv, symObjAddr: 0xCEB4, symBinAddr: 0x30EF4, symSize: 0x4C }
  - { offsetInCU: 0x3ACFF, offset: 0x28DEF7, size: 0x8, addend: 0x0, symName: __ZN10robin_hood6detail5TableILb1ELm80ENSt3__112basic_stringIcNS2_11char_traitsIcEENS2_9allocatorIcEEEENS2_10unique_ptrIN2v810PersistentINSA_8FunctionENSA_27NonCopyablePersistentTraitsISC_EEEENS2_14default_deleteISF_EEEENS_4hashIS8_vEENS2_8equal_toIS8_EEE8DataNodeISN_Lb1EED1Ev, symObjAddr: 0xCF00, symBinAddr: 0x30F40, symSize: 0x3A }
  - { offsetInCU: 0x3B1CB, offset: 0x28E3C3, size: 0x8, addend: 0x0, symName: __ZN3tns17StructTypeWrapperC2ENS_10StructInfoE, symObjAddr: 0xAD4C, symBinAddr: 0x2FE0C, symSize: 0x6C }
  - { offsetInCU: 0x3B3BA, offset: 0x28E5B2, size: 0x8, addend: 0x0, symName: __ZNSt3__16vectorIN3tns11StructFieldENS_9allocatorIS2_EEED2B7v160006Ev, symObjAddr: 0xC6BC, symBinAddr: 0x30D3C, symSize: 0x26 }
  - { offsetInCU: 0x3B441, offset: 0x28E639, size: 0x8, addend: 0x0, symName: __ZN10robin_hood6detail5TableILb1ELm80ENSt3__112basic_stringIcNS2_11char_traitsIcEENS2_9allocatorIcEEEENS2_10unique_ptrIN2v810PersistentINSA_8FunctionENSA_27NonCopyablePersistentTraitsISC_EEEENS2_14default_deleteISF_EEEENS_4hashIS8_vEENS2_8equal_toIS8_EEE7emplaceIJS8_SI_EEENS2_4pairINSN_4IterILb0EEEbEEDpOT_, symObjAddr: 0x2748, symBinAddr: 0x28298, symSize: 0x162 }
  - { offsetInCU: 0x3C024, offset: 0x28F21C, size: 0x8, addend: 0x0, symName: __ZN3tns15MetadataBuilder25StructConstructorCallbackERKN2v820FunctionCallbackInfoINS1_5ValueEEE, symObjAddr: 0x1F58, symBinAddr: 0x27AA8, symSize: 0x4F0 }
  - { offsetInCU: 0x3D4B0, offset: 0x2906A8, size: 0x8, addend: 0x0, symName: __ZN3tns13StructWrapperC2ENS_10StructInfoEPvNSt3__110shared_ptrIN2v810PersistentINS5_5ValueENS5_27NonCopyablePersistentTraitsIS7_EEEEEE, symObjAddr: 0xAE3E, symBinAddr: 0x2FECE, symSize: 0xD2 }
  - { offsetInCU: 0x3DF89, offset: 0x291181, size: 0x8, addend: 0x0, symName: __ZN3tns15MetadataBuilder20StructEqualsCallbackERKN2v820FunctionCallbackInfoINS1_5ValueEEE, symObjAddr: 0x2448, symBinAddr: 0x27F98, symSize: 0x300 }
  - { offsetInCU: 0x3E952, offset: 0x291B4A, size: 0x8, addend: 0x0, symName: __ZN3tns15MetadataBuilder13GetStructDataEN2v85LocalINS1_7ContextEEENS2_INS1_6ObjectEEENS_10StructInfoE, symObjAddr: 0x2ABC, symBinAddr: 0x283FC, symSize: 0x116 }
  - { offsetInCU: 0x3F379, offset: 0x292571, size: 0x8, addend: 0x0, symName: __ZN10robin_hood6detail5TableILb1ELm80ENSt3__14pairIPvNS2_12basic_stringIcNS2_11char_traitsIcEENS2_9allocatorIcEEEEEENS2_10shared_ptrIN2v810PersistentINSD_5ValueENSD_27NonCopyablePersistentTraitsISF_EEEEEEN3tns9pair_hashENS2_8equal_toISB_EEE25insertKeyPrepareEmptySpotIRKSB_EENS3_ImNSO_14InsertionStateEEEOT_, symObjAddr: 0xD5A8, symBinAddr: 0x30F88, symSize: 0x160 }
  - { offsetInCU: 0x3F59D, offset: 0x292795, size: 0x8, addend: 0x0, symName: __ZNK10robin_hood6detail5TableILb1ELm80ENSt3__14pairIPvNS2_12basic_stringIcNS2_11char_traitsIcEENS2_9allocatorIcEEEEEENS2_10shared_ptrIN2v810PersistentINSD_5ValueENSD_27NonCopyablePersistentTraitsISF_EEEEEEN3tns9pair_hashENS2_8equal_toISB_EEE18throwOverflowErrorEv, symObjAddr: 0xD708, symBinAddr: 0x310E8, symSize: 0x4C }
  - { offsetInCU: 0x3F5D2, offset: 0x2927CA, size: 0x8, addend: 0x0, symName: __ZN10robin_hood6detail5TableILb1ELm80ENSt3__14pairIPvNS2_12basic_stringIcNS2_11char_traitsIcEENS2_9allocatorIcEEEEEENS2_10shared_ptrIN2v810PersistentINSD_5ValueENSD_27NonCopyablePersistentTraitsISF_EEEEEEN3tns9pair_hashENS2_8equal_toISB_EEE8DataNodeISO_Lb1EED1Ev, symObjAddr: 0xD754, symBinAddr: 0x31134, symSize: 0x2E }
  - { offsetInCU: 0x3FF2C, offset: 0x293124, size: 0x8, addend: 0x0, symName: __ZNK10robin_hood6detail5TableILb1ELm80EPKN3tns13BaseClassMetaENSt3__110unique_ptrIN2v810PersistentINS8_16FunctionTemplateENS8_27NonCopyablePersistentTraitsISA_EEEENS6_14default_deleteISD_EEEENS_4hashIS5_vEENS6_8equal_toIS5_EEE7findIdxIS5_EEmRKT_, symObjAddr: 0xE566, symBinAddr: 0x31396, symSize: 0xD0 }
  - { offsetInCU: 0x400B6, offset: 0x2932AE, size: 0x8, addend: 0x0, symName: __ZN3tns6Caches24registerCacheBoundObjectINS_15MetadataBuilder9CacheItemINS_13BaseClassMetaEEEEEvPT_, symObjAddr: 0x4456, symBinAddr: 0x29D96, symSize: 0x136 }
  - { offsetInCU: 0x40735, offset: 0x29392D, size: 0x8, addend: 0x0, symName: __ZN3tns15MetadataBuilder26RegisterInstancePropertiesEN2v85LocalINS1_7ContextEEENS2_INS1_16FunctionTemplateEEEPKNS_13BaseClassMetaENSt3__112basic_stringIcNSA_11char_traitsIcEENSA_9allocatorIcEEEENS_21KnownUnknownClassPairERN10robin_hood6detail5TableILb1ELm80ESG_hNSI_4hashISG_vEENSA_8equal_toISG_EEEE, symObjAddr: 0x47D2, symBinAddr: 0x2A0B2, symSize: 0x604 }
  - { offsetInCU: 0x42363, offset: 0x29555B, size: 0x8, addend: 0x0, symName: __ZN3tns15MetadataBuilder23RegisterInstanceMethodsEN2v85LocalINS1_7ContextEEENS2_INS1_16FunctionTemplateEEEPKNS_13BaseClassMetaENS_21KnownUnknownClassPairERN10robin_hood6detail5TableILb1ELm80ENSt3__112basic_stringIcNSE_11char_traitsIcEENSE_9allocatorIcEEEEhNSB_4hashISK_vEENSE_8equal_toISK_EEEE, symObjAddr: 0x4DD6, symBinAddr: 0x2A6B6, symSize: 0x660 }
  - { offsetInCU: 0x44377, offset: 0x29756F, size: 0x8, addend: 0x0, symName: __ZN3tns15MetadataBuilder25RegisterInstanceProtocolsEN2v85LocalINS1_7ContextEEENS2_INS1_16FunctionTemplateEEEPKNS_13BaseClassMetaENSt3__112basic_stringIcNSA_11char_traitsIcEENSA_9allocatorIcEEEENS_21KnownUnknownClassPairERN10robin_hood6detail5TableILb1ELm80ESG_hNSI_4hashISG_vEENSA_8equal_toISG_EEEE, symObjAddr: 0x5436, symBinAddr: 0x2AD16, symSize: 0x2C4 }
  - { offsetInCU: 0x454E1, offset: 0x2986D9, size: 0x8, addend: 0x0, symName: __ZN3tns15MetadataBuilder27RegisterAdditionalProtocolsEN2v85LocalINS1_7ContextEEENS2_INS1_16FunctionTemplateEEENS_21KnownUnknownClassPairERKNSt3__16vectorINS8_12basic_stringIcNS8_11char_traitsIcEENS8_9allocatorIcEEEENSD_ISF_EEEERN10robin_hood6detail5TableILb1ELm80ESF_hNSK_4hashISF_vEENS8_8equal_toISF_EEEE, symObjAddr: 0x56FA, symBinAddr: 0x2AFDA, symSize: 0x402 }
  - { offsetInCU: 0x46C82, offset: 0x299E7A, size: 0x8, addend: 0x0, symName: __ZN3tns15MetadataBuilder19RegisterAllocMethodEPN2v87IsolateENS1_5LocalINS1_16FunctionTemplateEEEPKNS_13InterfaceMetaE, symObjAddr: 0x5C04, symBinAddr: 0x2B4E4, symSize: 0x20E }
  - { offsetInCU: 0x477A0, offset: 0x29A998, size: 0x8, addend: 0x0, symName: __ZN10robin_hood6detail5TableILb1ELm80EPKN3tns13BaseClassMetaENSt3__110unique_ptrIN2v810PersistentINS8_16FunctionTemplateENS8_27NonCopyablePersistentTraitsISA_EEEENS6_14default_deleteISD_EEEENS_4hashIS5_vEENS6_8equal_toIS5_EEE7emplaceIJRS5_SG_EEENS6_4pairINSL_4IterILb0EEEbEEDpOT_, symObjAddr: 0x71A2, symBinAddr: 0x2CA82, symSize: 0x116 }
  - { offsetInCU: 0x47E32, offset: 0x29B02A, size: 0x8, addend: 0x0, symName: __ZN10robin_hood6detail5TableILb1ELm80ENSt3__112basic_stringIcNS2_11char_traitsIcEENS2_9allocatorIcEEEENS2_10unique_ptrIN2v810PersistentINSA_8FunctionENSA_27NonCopyablePersistentTraitsISC_EEEENS2_14default_deleteISF_EEEENS_4hashIS8_vEENS2_8equal_toIS8_EEE7emplaceIJPKcPSF_EEENS2_4pairINSN_4IterILb0EEEbEEDpOT_, symObjAddr: 0x72B8, symBinAddr: 0x2CB98, symSize: 0x158 }
  - { offsetInCU: 0x4870A, offset: 0x29B902, size: 0x8, addend: 0x0, symName: __ZN10robin_hood6detail5TableILb1ELm80ENSt3__112basic_stringIcNS2_11char_traitsIcEENS2_9allocatorIcEEEENS2_10unique_ptrIN2v810PersistentINSA_8FunctionENSA_27NonCopyablePersistentTraitsISC_EEEENS2_14default_deleteISF_EEEENS_4hashIS8_vEENS2_8equal_toIS8_EEE7emplaceIJPKcSI_EEENS2_4pairINSN_4IterILb0EEEbEEDpOT_, symObjAddr: 0x7410, symBinAddr: 0x2CCF0, symSize: 0x15E }
  - { offsetInCU: 0x49016, offset: 0x29C20E, size: 0x8, addend: 0x0, symName: __ZN3tns15MetadataBuilder21RegisterStaticMethodsEN2v85LocalINS1_7ContextEEENS2_INS1_8FunctionEEEPKNS_13BaseClassMetaENS_21KnownUnknownClassPairERN10robin_hood6detail5TableILb1ELm80ENSt3__112basic_stringIcNSE_11char_traitsIcEENSE_9allocatorIcEEEEhNSB_4hashISK_vEENSE_8equal_toISK_EEEE, symObjAddr: 0x756E, symBinAddr: 0x2CE4E, symSize: 0x8B4 }
  - { offsetInCU: 0x4BBA4, offset: 0x29ED9C, size: 0x8, addend: 0x0, symName: __ZN3tns15MetadataBuilder24RegisterStaticPropertiesEN2v85LocalINS1_7ContextEEENS2_INS1_8FunctionEEEPKNS_13BaseClassMetaENSt3__112basic_stringIcNSA_11char_traitsIcEENSA_9allocatorIcEEEENS_21KnownUnknownClassPairERN10robin_hood6detail5TableILb1ELm80ESG_hNSI_4hashISG_vEENSA_8equal_toISG_EEEE, symObjAddr: 0x7E22, symBinAddr: 0x2D702, symSize: 0x5E0 }
  - { offsetInCU: 0x4D91A, offset: 0x2A0B12, size: 0x8, addend: 0x0, symName: __ZN3tns15MetadataBuilder23RegisterStaticProtocolsEN2v85LocalINS1_7ContextEEENS2_INS1_8FunctionEEEPKNS_13BaseClassMetaENSt3__112basic_stringIcNSA_11char_traitsIcEENSA_9allocatorIcEEEENS_21KnownUnknownClassPairERN10robin_hood6detail5TableILb1ELm80ESG_hNSI_4hashISG_vEENSA_8equal_toISG_EEEE, symObjAddr: 0x8402, symBinAddr: 0x2DCE2, symSize: 0x28E }
  - { offsetInCU: 0x4E963, offset: 0x2A1B5B, size: 0x8, addend: 0x0, symName: __ZN10robin_hood6detail5TableILb1ELm80EPKN3tns4MetaENSt3__110unique_ptrIN2v810PersistentINS8_5ValueENS8_27NonCopyablePersistentTraitsISA_EEEENS6_14default_deleteISD_EEEENS_4hashIS5_vEENS6_8equal_toIS5_EEE7emplaceIJRPKNS2_13BaseClassMetaERPSD_EEENS6_4pairINSL_4IterILb0EEEbEEDpOT_, symObjAddr: 0x8690, symBinAddr: 0x2DF70, symSize: 0x110 }
  - { offsetInCU: 0x4EFD3, offset: 0x2A21CB, size: 0x8, addend: 0x0, symName: __ZZN3tns6Caches11unique_voidINS_15MetadataBuilder9CacheItemINS_13BaseClassMetaEEEEENSt3__110unique_ptrIvPFvPKvEEEPT_ENUlS9_E_8__invokeES9_, symObjAddr: 0xE636, symBinAddr: 0x31466, symSize: 0x2C }
  - { offsetInCU: 0x4EFFE, offset: 0x2A21F6, size: 0x8, addend: 0x0, symName: __ZZN3tns6Caches11unique_voidINS_15MetadataBuilder9CacheItemINS_13BaseClassMetaEEEEENSt3__110unique_ptrIvPFvPKvEEEPT_ENUlS9_E_8__invokeES9_, symObjAddr: 0xE636, symBinAddr: 0x31466, symSize: 0x2C }
  - { offsetInCU: 0x4F178, offset: 0x2A2370, size: 0x8, addend: 0x0, symName: __ZN3tns15MetadataBuilder24ClassConstructorCallbackERKN2v820FunctionCallbackInfoINS1_5ValueEEE, symObjAddr: 0x458C, symBinAddr: 0x29ECC, symSize: 0x1E0 }
  - { offsetInCU: 0x4FC96, offset: 0x2A2E8E, size: 0x8, addend: 0x0, symName: __ZNK3tns12PropertyMeta20isImplementedInClassEP10objc_classb, symObjAddr: 0xAFFC, symBinAddr: 0x3008C, symSize: 0x118 }
  - { offsetInCU: 0x500FF, offset: 0x2A32F7, size: 0x8, addend: 0x0, symName: __ZNK10robin_hood6detail5TableILb1ELm80ENSt3__112basic_stringIcNS2_11char_traitsIcEENS2_9allocatorIcEEEEhNS_4hashIS8_vEENS2_8equal_toIS8_EEE7findIdxIS8_EEmRKT_, symObjAddr: 0xF5CE, symBinAddr: 0x323FE, symSize: 0xEA }
  - { offsetInCU: 0x50233, offset: 0x2A342B, size: 0x8, addend: 0x0, symName: __ZN3tns6Caches24registerCacheBoundObjectINS_15MetadataBuilder9CacheItemINS_12PropertyMetaEEEEEvPT_, symObjAddr: 0x8F22, symBinAddr: 0x2E802, symSize: 0x136 }
  - { offsetInCU: 0x5072A, offset: 0x2A3922, size: 0x8, addend: 0x0, symName: __ZN10robin_hood6detail5TableILb1ELm80ENSt3__112basic_stringIcNS2_11char_traitsIcEENS2_9allocatorIcEEEEhNS_4hashIS8_vEENS2_8equal_toIS8_EEE7emplaceIJRS8_RhEEENS2_4pairINSD_4IterILb0EEEbEEDpOT_, symObjAddr: 0x93FC, symBinAddr: 0x2ECDC, symSize: 0x128 }
  - { offsetInCU: 0x51100, offset: 0x2A42F8, size: 0x8, addend: 0x0, symName: __ZN3tns6Caches24registerCacheBoundObjectINS_15MetadataBuilder9CacheItemINS_10MethodMetaEEEEEvPT_, symObjAddr: 0x8B2A, symBinAddr: 0x2E40A, symSize: 0x136 }
  - { offsetInCU: 0x515F7, offset: 0x2A47EF, size: 0x8, addend: 0x0, symName: __ZN10robin_hood6detail5TableILb1ELm80ENSt3__112basic_stringIcNS2_11char_traitsIcEENS2_9allocatorIcEEEEhNS_4hashIS8_vEENS2_8equal_toIS8_EEE7emplaceIJRS8_iEEENS2_4pairINSD_4IterILb0EEEbEEDpOT_, symObjAddr: 0x8DFA, symBinAddr: 0x2E6DA, symSize: 0x128 }
  - { offsetInCU: 0x5217D, offset: 0x2A5375, size: 0x8, addend: 0x0, symName: __ZN3tns15MetadataBuilder24ToStringFunctionCallbackERKN2v820FunctionCallbackInfoINS1_5ValueEEE, symObjAddr: 0x5AFC, symBinAddr: 0x2B3DC, symSize: 0x108 }
  - { offsetInCU: 0x526FC, offset: 0x2A58F4, size: 0x8, addend: 0x0, symName: __ZN3tns6Caches24registerCacheBoundObjectINS_15MetadataBuilder9CacheItemINS_13InterfaceMetaEEEEEvPT_, symObjAddr: 0x87A0, symBinAddr: 0x2E080, symSize: 0x136 }
  - { offsetInCU: 0x5315F, offset: 0x2A6357, size: 0x8, addend: 0x0, symName: __ZNK3tns5ArrayINS_5PtrToINS_10MethodMetaEEEE12binarySearchENSt3__18functionIFiRKS3_EEE, symObjAddr: 0xA48C, symBinAddr: 0x2FC0C, symSize: 0x88 }
  - { offsetInCU: 0x53268, offset: 0x2A6460, size: 0x8, addend: 0x0, symName: __ZN3tns21MethodCallbackWrapperC2EPN2v87IsolateENSt3__110shared_ptrINS1_10PersistentINS1_5ValueENS1_27NonCopyablePersistentTraitsIS7_EEEEEEhhPKNS_12TypeEncodingE, symObjAddr: 0xB190, symBinAddr: 0x30220, symSize: 0xE2 }
  - { offsetInCU: 0x53CEF, offset: 0x2A6EE7, size: 0x8, addend: 0x0, symName: __ZNK3tns5ArrayINS_5PtrToINS_12PropertyMetaEEEE12binarySearchENSt3__18functionIFiRKS3_EEE, symObjAddr: 0xA7D6, symBinAddr: 0x2FD56, symSize: 0x88 }
  - { offsetInCU: 0x542A8, offset: 0x2A74A0, size: 0x8, addend: 0x0, symName: __ZN10robin_hood6detail5TableILb1ELm80EPKN3tns13BaseClassMetaENSt3__110unique_ptrIN2v810PersistentINS8_16FunctionTemplateENS8_27NonCopyablePersistentTraitsISA_EEEENS6_14default_deleteISD_EEEENS_4hashIS5_vEENS6_8equal_toIS5_EEE25insertKeyPrepareEmptySpotIRKS5_EENS6_4pairImNSL_14InsertionStateEEEOT_, symObjAddr: 0xE662, symBinAddr: 0x31492, symSize: 0x160 }
  - { offsetInCU: 0x54458, offset: 0x2A7650, size: 0x8, addend: 0x0, symName: __ZNK10robin_hood6detail5TableILb1ELm80EPKN3tns13BaseClassMetaENSt3__110unique_ptrIN2v810PersistentINS8_16FunctionTemplateENS8_27NonCopyablePersistentTraitsISA_EEEENS6_14default_deleteISD_EEEENS_4hashIS5_vEENS6_8equal_toIS5_EEE18throwOverflowErrorEv, symObjAddr: 0xE7C2, symBinAddr: 0x315F2, symSize: 0x4C }
  - { offsetInCU: 0x546EA, offset: 0x2A78E2, size: 0x8, addend: 0x0, symName: __ZNK3tns11GlobalTableILNS_15GlobalTableTypeE0EE12findProtocolEPKc, symObjAddr: 0x9990, symBinAddr: 0x2F160, symSize: 0x42 }
  - { offsetInCU: 0x54DA0, offset: 0x2A7F98, size: 0x8, addend: 0x0, symName: __ZN10robin_hood6detail5TableILb1ELm80EPKN3tns4MetaENSt3__110unique_ptrIN2v810PersistentINS8_5ValueENS8_27NonCopyablePersistentTraitsISA_EEEENS6_14default_deleteISD_EEEENS_4hashIS5_vEENS6_8equal_toIS5_EEE25insertKeyPrepareEmptySpotIRKS5_EENS6_4pairImNSL_14InsertionStateEEEOT_, symObjAddr: 0xEE02, symBinAddr: 0x31C32, symSize: 0x160 }
  - { offsetInCU: 0x54F50, offset: 0x2A8148, size: 0x8, addend: 0x0, symName: __ZNK10robin_hood6detail5TableILb1ELm80EPKN3tns4MetaENSt3__110unique_ptrIN2v810PersistentINS8_5ValueENS8_27NonCopyablePersistentTraitsISA_EEEENS6_14default_deleteISD_EEEENS_4hashIS5_vEENS6_8equal_toIS5_EEE18throwOverflowErrorEv, symObjAddr: 0xEF62, symBinAddr: 0x31D92, symSize: 0x4C }
  - { offsetInCU: 0x54FAE, offset: 0x2A81A6, size: 0x8, addend: 0x0, symName: __ZZN3tns6Caches11unique_voidINS_15MetadataBuilder9CacheItemINS_13InterfaceMetaEEEEENSt3__110unique_ptrIvPFvPKvEEEPT_ENUlS9_E_8__invokeES9_, symObjAddr: 0xF5A2, symBinAddr: 0x323D2, symSize: 0x2C }
  - { offsetInCU: 0x54FD9, offset: 0x2A81D1, size: 0x8, addend: 0x0, symName: __ZZN3tns6Caches11unique_voidINS_15MetadataBuilder9CacheItemINS_13InterfaceMetaEEEEENSt3__110unique_ptrIvPFvPKvEEEPT_ENUlS9_E_8__invokeES9_, symObjAddr: 0xF5A2, symBinAddr: 0x323D2, symSize: 0x2C }
  - { offsetInCU: 0x551BC, offset: 0x2A83B4, size: 0x8, addend: 0x0, symName: __ZN3tns15MetadataBuilder13AllocCallbackERKN2v820FunctionCallbackInfoINS1_5ValueEEE, symObjAddr: 0x88D6, symBinAddr: 0x2E1B6, symSize: 0x254 }
  - { offsetInCU: 0x55BB8, offset: 0x2A8DB0, size: 0x8, addend: 0x0, symName: __ZZN3tns6Caches11unique_voidINS_15MetadataBuilder9CacheItemINS_10MethodMetaEEEEENSt3__110unique_ptrIvPFvPKvEEEPT_ENUlS9_E_8__invokeES9_, symObjAddr: 0xF6B8, symBinAddr: 0x324E8, symSize: 0x2C }
  - { offsetInCU: 0x55BE3, offset: 0x2A8DDB, size: 0x8, addend: 0x0, symName: __ZZN3tns6Caches11unique_voidINS_15MetadataBuilder9CacheItemINS_10MethodMetaEEEEENSt3__110unique_ptrIvPFvPKvEEEPT_ENUlS9_E_8__invokeES9_, symObjAddr: 0xF6B8, symBinAddr: 0x324E8, symSize: 0x2C }
  - { offsetInCU: 0x55D7F, offset: 0x2A8F77, size: 0x8, addend: 0x0, symName: __ZN3tns15MetadataBuilder14MethodCallbackERKN2v820FunctionCallbackInfoINS1_5ValueEEE, symObjAddr: 0x8C60, symBinAddr: 0x2E540, symSize: 0x19A }
  - { offsetInCU: 0x5648E, offset: 0x2A9686, size: 0x8, addend: 0x0, symName: __ZN3tns15MetadataBuilder12InvokeMethodEN2v85LocalINS1_7ContextEEEPKNS_10MethodMetaENS2_INS1_6ObjectEEERNS_6V8ArgsENSt3__112basic_stringIcNSC_11char_traitsIcEENSC_9allocatorIcEEEEb, symObjAddr: 0x99D2, symBinAddr: 0x2F1A2, symSize: 0xA2 }
  - { offsetInCU: 0x5693E, offset: 0x2A9B36, size: 0x8, addend: 0x0, symName: __ZN10robin_hood6detail5TableILb1ELm80ENSt3__112basic_stringIcNS2_11char_traitsIcEENS2_9allocatorIcEEEEhNS_4hashIS8_vEENS2_8equal_toIS8_EEE25insertKeyPrepareEmptySpotIRKS8_EENS2_4pairImNSD_14InsertionStateEEEOT_, symObjAddr: 0xF6E4, symBinAddr: 0x32514, symSize: 0x15C }
  - { offsetInCU: 0x56A99, offset: 0x2A9C91, size: 0x8, addend: 0x0, symName: __ZNK10robin_hood6detail5TableILb1ELm80ENSt3__112basic_stringIcNS2_11char_traitsIcEENS2_9allocatorIcEEEEhNS_4hashIS8_vEENS2_8equal_toIS8_EEE18throwOverflowErrorEv, symObjAddr: 0xF840, symBinAddr: 0x32670, symSize: 0x4C }
  - { offsetInCU: 0x56AF7, offset: 0x2A9CEF, size: 0x8, addend: 0x0, symName: __ZZN3tns6Caches11unique_voidINS_15MetadataBuilder9CacheItemINS_12PropertyMetaEEEEENSt3__110unique_ptrIvPFvPKvEEEPT_ENUlS9_E_8__invokeES9_, symObjAddr: 0xFEBA, symBinAddr: 0x32CEA, symSize: 0x2C }
  - { offsetInCU: 0x56B22, offset: 0x2A9D1A, size: 0x8, addend: 0x0, symName: __ZZN3tns6Caches11unique_voidINS_15MetadataBuilder9CacheItemINS_12PropertyMetaEEEEENSt3__110unique_ptrIvPFvPKvEEEPT_ENUlS9_E_8__invokeES9_, symObjAddr: 0xFEBA, symBinAddr: 0x32CEA, symSize: 0x2C }
  - { offsetInCU: 0x56CE4, offset: 0x2A9EDC, size: 0x8, addend: 0x0, symName: __ZN3tns15MetadataBuilder22PropertyGetterCallbackERKN2v820FunctionCallbackInfoINS1_5ValueEEE, symObjAddr: 0x9058, symBinAddr: 0x2E938, symSize: 0x1C6 }
  - { offsetInCU: 0x57663, offset: 0x2AA85B, size: 0x8, addend: 0x0, symName: __ZN3tns15MetadataBuilder22PropertySetterCallbackERKN2v820FunctionCallbackInfoINS1_5ValueEEE, symObjAddr: 0x921E, symBinAddr: 0x2EAFE, symSize: 0x1DE }
  - { offsetInCU: 0x5820B, offset: 0x2AB403, size: 0x8, addend: 0x0, symName: __ZNSt3__114__split_bufferINS_12basic_stringIcNS_11char_traitsIcEENS_9allocatorIcEEEERNS4_IS6_EEED2Ev, symObjAddr: 0x10050, symBinAddr: 0x32D80, symSize: 0x28 }
  - { offsetInCU: 0x582F0, offset: 0x2AB4E8, size: 0x8, addend: 0x0, symName: __ZNKSt3__16vectorINS_12basic_stringIcNS_11char_traitsIcEENS_9allocatorIcEEEENS4_IS6_EEE20__throw_length_errorB7v160006Ev, symObjAddr: 0xFFB8, symBinAddr: 0x32D18, symSize: 0x10 }
  - { offsetInCU: 0x58319, offset: 0x2AB511, size: 0x8, addend: 0x0, symName: __ZNSt3__119__allocate_at_leastB7v160006INS_9allocatorINS_12basic_stringIcNS_11char_traitsIcEENS1_IcEEEEEEEENS_19__allocation_resultINS_16allocator_traitsIT_E7pointerEEERSA_m, symObjAddr: 0xFFC8, symBinAddr: 0x32D28, symSize: 0x38 }
  - { offsetInCU: 0x58325, offset: 0x2AB51D, size: 0x8, addend: 0x0, symName: __ZN3tns15MetadataBuilder26PropertyNameGetterCallbackEN2v85LocalINS1_4NameEEERKNS1_20PropertyCallbackInfoINS1_5ValueEEE, symObjAddr: 0x9636, symBinAddr: 0x2EE06, symSize: 0x1AA }
  - { offsetInCU: 0x58C5F, offset: 0x2ABE57, size: 0x8, addend: 0x0, symName: __ZN3tns15MetadataBuilder26PropertyNameSetterCallbackEN2v85LocalINS1_4NameEEENS2_INS1_5ValueEEERKNS1_20PropertyCallbackInfoIvEE, symObjAddr: 0x97E0, symBinAddr: 0x2EFB0, symSize: 0x1B0 }
  - { offsetInCU: 0x598ED, offset: 0x2ACAE5, size: 0x8, addend: 0x0, symName: __ZN3tns15MetadataBuilder28StructPropertyGetterCallbackEN2v85LocalINS1_4NameEEERKNS1_20PropertyCallbackInfoINS1_5ValueEEE, symObjAddr: 0x9A74, symBinAddr: 0x2F244, symSize: 0x550 }
  - { offsetInCU: 0x5B59F, offset: 0x2AE797, size: 0x8, addend: 0x0, symName: __ZNK10robin_hood6detail5TableILb1ELm80ENSt3__14pairIPvNS2_12basic_stringIcNS2_11char_traitsIcEENS2_9allocatorIcEEEEEENS2_10shared_ptrIN2v810PersistentINSD_5ValueENSD_27NonCopyablePersistentTraitsISF_EEEEEEN3tns9pair_hashENS2_8equal_toISB_EEE7findIdxISB_EEmRKT_, symObjAddr: 0x10400, symBinAddr: 0x32EA0, symSize: 0xFA }
  - { offsetInCU: 0x5B800, offset: 0x2AE9F8, size: 0x8, addend: 0x0, symName: __ZN3tns15MetadataBuilder28StructPropertySetterCallbackEN2v85LocalINS1_4NameEEENS2_INS1_5ValueEEERKNS1_20PropertyCallbackInfoIS5_EE, symObjAddr: 0xA01A, symBinAddr: 0x2F79A, symSize: 0x33E }
  - { offsetInCU: 0x5CDAC, offset: 0x2AFFA4, size: 0x8, addend: 0x0, symName: __ZNSt3__114__split_bufferINS_10shared_ptrIN2v810PersistentINS2_5ValueENS2_27NonCopyablePersistentTraitsIS4_EEEEEERNS_9allocatorIS8_EEED2Ev, symObjAddr: 0x106B4, symBinAddr: 0x33054, symSize: 0x40 }
  - { offsetInCU: 0x5D5E1, offset: 0x2B07D9, size: 0x8, addend: 0x0, symName: '__ZNSt3__110__function6__funcIZN3tns15MetadataBuilder24SwizzledPropertyCallbackEN2v85LocalINS4_4NameEEERKNS4_18PropertyDescriptorERKNS4_20PropertyCallbackInfoINS4_5ValueEEEE3$_4NS_9allocatorISG_EEFiRKNS2_5PtrToINS2_12PropertyMetaEEEEED1Ev', symObjAddr: 0x110D6, symBinAddr: 0x33896, symSize: 0x20 }
  - { offsetInCU: 0x5DAA1, offset: 0x2B0C99, size: 0x8, addend: 0x0, symName: __ZN3tns15FunctionWrapperD1Ev, symObjAddr: 0xAA88, symBinAddr: 0x2FDE8, symSize: 0x6 }
  - { offsetInCU: 0x5DACD, offset: 0x2B0CC5, size: 0x8, addend: 0x0, symName: __ZN3tns15FunctionWrapperD0Ev, symObjAddr: 0xAA8E, symBinAddr: 0x2FDEE, symSize: 0xA }
  - { offsetInCU: 0x5DAF9, offset: 0x2B0CF1, size: 0x8, addend: 0x0, symName: __ZN3tns15FunctionWrapper4TypeEv, symObjAddr: 0xAA98, symBinAddr: 0x2FDF8, symSize: 0xC }
  - { offsetInCU: 0x5E313, offset: 0x2B150B, size: 0x8, addend: 0x0, symName: __ZN3tns17StructTypeWrapperD1Ev, symObjAddr: 0xADB8, symBinAddr: 0x2FE78, symSize: 0x3C }
  - { offsetInCU: 0x5E4DB, offset: 0x2B16D3, size: 0x8, addend: 0x0, symName: __ZN3tns17StructTypeWrapper4TypeEv, symObjAddr: 0xAE32, symBinAddr: 0x2FEC2, symSize: 0xC }
  - { offsetInCU: 0x5E51C, offset: 0x2B1714, size: 0x8, addend: 0x0, symName: __ZN3tns13StructWrapperD1Ev, symObjAddr: 0xAF10, symBinAddr: 0x2FFA0, symSize: 0x54 }
  - { offsetInCU: 0x5E729, offset: 0x2B1921, size: 0x8, addend: 0x0, symName: __ZN3tns13StructWrapperD0Ev, symObjAddr: 0xAF64, symBinAddr: 0x2FFF4, symSize: 0x54 }
  - { offsetInCU: 0x5E966, offset: 0x2B1B5E, size: 0x8, addend: 0x0, symName: __ZN3tns19ObjCProtocolWrapperD1Ev, symObjAddr: 0xAFC4, symBinAddr: 0x30054, symSize: 0x6 }
  - { offsetInCU: 0x5E992, offset: 0x2B1B8A, size: 0x8, addend: 0x0, symName: __ZN3tns19ObjCProtocolWrapperD0Ev, symObjAddr: 0xAFCA, symBinAddr: 0x3005A, symSize: 0xA }
  - { offsetInCU: 0x5E9BE, offset: 0x2B1BB6, size: 0x8, addend: 0x0, symName: __ZN3tns19ObjCProtocolWrapper4TypeEv, symObjAddr: 0xAFD4, symBinAddr: 0x30064, symSize: 0xC }
  - { offsetInCU: 0x5E9E3, offset: 0x2B1BDB, size: 0x8, addend: 0x0, symName: __ZN3tns16ObjCClassWrapperD1Ev, symObjAddr: 0xAFE0, symBinAddr: 0x30070, symSize: 0x6 }
  - { offsetInCU: 0x5EA0F, offset: 0x2B1C07, size: 0x8, addend: 0x0, symName: __ZN3tns16ObjCClassWrapper4TypeEv, symObjAddr: 0xAFF0, symBinAddr: 0x30080, symSize: 0xC }
  - { offsetInCU: 0x5EA34, offset: 0x2B1C2C, size: 0x8, addend: 0x0, symName: __ZN3tns20ObjCAllocDataWrapperD1Ev, symObjAddr: 0xB114, symBinAddr: 0x301A4, symSize: 0x6 }
  - { offsetInCU: 0x5EA60, offset: 0x2B1C58, size: 0x8, addend: 0x0, symName: __ZN3tns20ObjCAllocDataWrapperD0Ev, symObjAddr: 0xB11A, symBinAddr: 0x301AA, symSize: 0xA }
  - { offsetInCU: 0x5EA8C, offset: 0x2B1C84, size: 0x8, addend: 0x0, symName: __ZN3tns20ObjCAllocDataWrapper4TypeEv, symObjAddr: 0xB124, symBinAddr: 0x301B4, symSize: 0xC }
  - { offsetInCU: 0x5EAB1, offset: 0x2B1CA9, size: 0x8, addend: 0x0, symName: __ZNK3tns22V8FunctionCallbackArgsixEi, symObjAddr: 0xB130, symBinAddr: 0x301C0, symSize: 0x28 }
  - { offsetInCU: 0x5EB2B, offset: 0x2B1D23, size: 0x8, addend: 0x0, symName: __ZNK3tns22V8FunctionCallbackArgs6LengthEv, symObjAddr: 0xB158, symBinAddr: 0x301E8, symSize: 0xE }
  - { offsetInCU: 0x5EB6C, offset: 0x2B1D64, size: 0x8, addend: 0x0, symName: __ZNK3tns16V8EmptyValueArgsixEi, symObjAddr: 0xB166, symBinAddr: 0x301F6, symSize: 0x8 }
  - { offsetInCU: 0x5EB9F, offset: 0x2B1D97, size: 0x8, addend: 0x0, symName: __ZNK3tns16V8EmptyValueArgs6LengthEv, symObjAddr: 0xB16E, symBinAddr: 0x301FE, symSize: 0x8 }
  - { offsetInCU: 0x5EBC4, offset: 0x2B1DBC, size: 0x8, addend: 0x0, symName: __ZNK3tns17V8SimpleValueArgsixEi, symObjAddr: 0xB176, symBinAddr: 0x30206, symSize: 0xE }
  - { offsetInCU: 0x5EBF7, offset: 0x2B1DEF, size: 0x8, addend: 0x0, symName: __ZNK3tns17V8SimpleValueArgs6LengthEv, symObjAddr: 0xB184, symBinAddr: 0x30214, symSize: 0xC }
  - { offsetInCU: 0x5F8E2, offset: 0x2B2ADA, size: 0x8, addend: 0x0, symName: '__ZZN3tns15MetadataBuilder24SwizzledPropertyCallbackEN2v85LocalINS1_4NameEEERKNS1_18PropertyDescriptorERKNS1_20PropertyCallbackInfoINS1_5ValueEEEEN3$_58__invokeEP7ffi_cifPvPSG_SG_', symObjAddr: 0xBB60, symBinAddr: 0x30310, symSize: 0x446 }
  - { offsetInCU: 0x60F22, offset: 0x2B411A, size: 0x8, addend: 0x0, symName: '__ZZN3tns15MetadataBuilder24SwizzledPropertyCallbackEN2v85LocalINS1_4NameEEERKNS1_18PropertyDescriptorERKNS1_20PropertyCallbackInfoINS1_5ValueEEEEN3$_68__invokeEP7ffi_cifPvPSG_SG_', symObjAddr: 0xC0A2, symBinAddr: 0x30762, symSize: 0x4DE }
  - { offsetInCU: 0x62175, offset: 0x2B536D, size: 0x8, addend: 0x0, symName: __ZNK3tns12TypeEncoding4nextEv, symObjAddr: 0xC580, symBinAddr: 0x30C40, symSize: 0xFC }
  - { offsetInCU: 0x627CA, offset: 0x2B59C2, size: 0x8, addend: 0x0, symName: __ZNSt3__128__exception_guard_exceptionsINS_29_AllocatorDestroyRangeReverseINS_9allocatorINS_10unique_ptrIvPFvPKvEEEEENS_16reverse_iteratorIPS8_EEEEED2B7v160006Ev, symObjAddr: 0xC934, symBinAddr: 0x30D64, symSize: 0x1A }
  - { offsetInCU: 0x62A76, offset: 0x2B5C6E, size: 0x8, addend: 0x0, symName: __ZZN3tns6Caches11unique_voidINS_15MetadataBuilder20GlobalHandlerContextEEENSt3__110unique_ptrIvPFvPKvEEEPT_ENUlS7_E_8__invokeES7_, symObjAddr: 0xCA00, symBinAddr: 0x30DB0, symSize: 0x12 }
  - { offsetInCU: 0x63A31, offset: 0x2B6C29, size: 0x8, addend: 0x0, symName: __ZN10robin_hood6detail5TableILb1ELm80ENSt3__14pairIPvNS2_12basic_stringIcNS2_11char_traitsIcEENS2_9allocatorIcEEEEEENS2_10shared_ptrIN2v810PersistentINSD_5ValueENSD_27NonCopyablePersistentTraitsISF_EEEEEEN3tns9pair_hashENS2_8equal_toISB_EEE7shiftUpEmm, symObjAddr: 0xD930, symBinAddr: 0x31170, symSize: 0x12C }
  - { offsetInCU: 0x64E31, offset: 0x2B8029, size: 0x8, addend: 0x0, symName: __ZNK10robin_hood6detail5TableILb1ELm80ENSt3__112basic_stringIcNS2_11char_traitsIcEENS2_9allocatorIcEEEEhNS_4hashIS8_vEENS2_8equal_toIS8_EEE9DestroyerISD_Lb0EE20nodesDoNotDeallocateERSD_, symObjAddr: 0xE4A8, symBinAddr: 0x312D8, symSize: 0xBE }
  - { offsetInCU: 0x652B9, offset: 0x2B84B1, size: 0x8, addend: 0x0, symName: __ZN10robin_hood6detail5TableILb1ELm80EPKN3tns13BaseClassMetaENSt3__110unique_ptrIN2v810PersistentINS8_16FunctionTemplateENS8_27NonCopyablePersistentTraitsISA_EEEENS6_14default_deleteISD_EEEENS_4hashIS5_vEENS6_8equal_toIS5_EEE13increase_sizeEv, symObjAddr: 0xE80E, symBinAddr: 0x3163E, symSize: 0x108 }
  - { offsetInCU: 0x6537F, offset: 0x2B8577, size: 0x8, addend: 0x0, symName: __ZN10robin_hood6detail5TableILb1ELm80EPKN3tns13BaseClassMetaENSt3__110unique_ptrIN2v810PersistentINS8_16FunctionTemplateENS8_27NonCopyablePersistentTraitsISA_EEEENS6_14default_deleteISD_EEEENS_4hashIS5_vEENS6_8equal_toIS5_EEE7shiftUpEmm, symObjAddr: 0xE916, symBinAddr: 0x31746, symSize: 0xD2 }
  - { offsetInCU: 0x65535, offset: 0x2B872D, size: 0x8, addend: 0x0, symName: __ZN10robin_hood6detail5TableILb1ELm80EPKN3tns13BaseClassMetaENSt3__110unique_ptrIN2v810PersistentINS8_16FunctionTemplateENS8_27NonCopyablePersistentTraitsISA_EEEENS6_14default_deleteISD_EEEENS_4hashIS5_vEENS6_8equal_toIS5_EEE17try_increase_infoEv, symObjAddr: 0xEAD0, symBinAddr: 0x31900, symSize: 0xE8 }
  - { offsetInCU: 0x65634, offset: 0x2B882C, size: 0x8, addend: 0x0, symName: __ZN10robin_hood6detail5TableILb1ELm80EPKN3tns13BaseClassMetaENSt3__110unique_ptrIN2v810PersistentINS8_16FunctionTemplateENS8_27NonCopyablePersistentTraitsISA_EEEENS6_14default_deleteISD_EEEENS_4hashIS5_vEENS6_8equal_toIS5_EEE8initDataEm, symObjAddr: 0xE9E8, symBinAddr: 0x31818, symSize: 0xE8 }
  - { offsetInCU: 0x6571E, offset: 0x2B8916, size: 0x8, addend: 0x0, symName: __ZN10robin_hood6detail5TableILb1ELm80EPKN3tns13BaseClassMetaENSt3__110unique_ptrIN2v810PersistentINS8_16FunctionTemplateENS8_27NonCopyablePersistentTraitsISA_EEEENS6_14default_deleteISD_EEEENS_4hashIS5_vEENS6_8equal_toIS5_EEE17try_increase_infoEv, symObjAddr: 0xEAD0, symBinAddr: 0x31900, symSize: 0xE8 }
  - { offsetInCU: 0x6572A, offset: 0x2B8922, size: 0x8, addend: 0x0, symName: __ZN10robin_hood6detail5TableILb1ELm80EPKN3tns13BaseClassMetaENSt3__110unique_ptrIN2v810PersistentINS8_16FunctionTemplateENS8_27NonCopyablePersistentTraitsISA_EEEENS6_14default_deleteISD_EEEENS_4hashIS5_vEENS6_8equal_toIS5_EEE16rehashPowerOfTwoEmb, symObjAddr: 0xEBB8, symBinAddr: 0x319E8, symSize: 0x108 }
  - { offsetInCU: 0x65A13, offset: 0x2B8C0B, size: 0x8, addend: 0x0, symName: __ZN10robin_hood6detail5TableILb1ELm80EPKN3tns13BaseClassMetaENSt3__110unique_ptrIN2v810PersistentINS8_16FunctionTemplateENS8_27NonCopyablePersistentTraitsISA_EEEENS6_14default_deleteISD_EEEENS_4hashIS5_vEENS6_8equal_toIS5_EEE11insert_moveEONSL_8DataNodeISL_Lb1EEE, symObjAddr: 0xECC0, symBinAddr: 0x31AF0, symSize: 0x142 }
  - { offsetInCU: 0x65F11, offset: 0x2B9109, size: 0x8, addend: 0x0, symName: __ZN10robin_hood6detail5TableILb1ELm80EPKN3tns4MetaENSt3__110unique_ptrIN2v810PersistentINS8_5ValueENS8_27NonCopyablePersistentTraitsISA_EEEENS6_14default_deleteISD_EEEENS_4hashIS5_vEENS6_8equal_toIS5_EEE13increase_sizeEv, symObjAddr: 0xEFAE, symBinAddr: 0x31DDE, symSize: 0x108 }
  - { offsetInCU: 0x65FD7, offset: 0x2B91CF, size: 0x8, addend: 0x0, symName: __ZN10robin_hood6detail5TableILb1ELm80EPKN3tns4MetaENSt3__110unique_ptrIN2v810PersistentINS8_5ValueENS8_27NonCopyablePersistentTraitsISA_EEEENS6_14default_deleteISD_EEEENS_4hashIS5_vEENS6_8equal_toIS5_EEE7shiftUpEmm, symObjAddr: 0xF0B6, symBinAddr: 0x31EE6, symSize: 0xD2 }
  - { offsetInCU: 0x66192, offset: 0x2B938A, size: 0x8, addend: 0x0, symName: __ZN10robin_hood6detail5TableILb1ELm80EPKN3tns4MetaENSt3__110unique_ptrIN2v810PersistentINS8_5ValueENS8_27NonCopyablePersistentTraitsISA_EEEENS6_14default_deleteISD_EEEENS_4hashIS5_vEENS6_8equal_toIS5_EEE17try_increase_infoEv, symObjAddr: 0xF270, symBinAddr: 0x320A0, symSize: 0xE8 }
  - { offsetInCU: 0x66291, offset: 0x2B9489, size: 0x8, addend: 0x0, symName: __ZN10robin_hood6detail5TableILb1ELm80EPKN3tns4MetaENSt3__110unique_ptrIN2v810PersistentINS8_5ValueENS8_27NonCopyablePersistentTraitsISA_EEEENS6_14default_deleteISD_EEEENS_4hashIS5_vEENS6_8equal_toIS5_EEE8initDataEm, symObjAddr: 0xF188, symBinAddr: 0x31FB8, symSize: 0xE8 }
  - { offsetInCU: 0x6637B, offset: 0x2B9573, size: 0x8, addend: 0x0, symName: __ZN10robin_hood6detail5TableILb1ELm80EPKN3tns4MetaENSt3__110unique_ptrIN2v810PersistentINS8_5ValueENS8_27NonCopyablePersistentTraitsISA_EEEENS6_14default_deleteISD_EEEENS_4hashIS5_vEENS6_8equal_toIS5_EEE17try_increase_infoEv, symObjAddr: 0xF270, symBinAddr: 0x320A0, symSize: 0xE8 }
  - { offsetInCU: 0x66387, offset: 0x2B957F, size: 0x8, addend: 0x0, symName: __ZN10robin_hood6detail5TableILb1ELm80EPKN3tns4MetaENSt3__110unique_ptrIN2v810PersistentINS8_5ValueENS8_27NonCopyablePersistentTraitsISA_EEEENS6_14default_deleteISD_EEEENS_4hashIS5_vEENS6_8equal_toIS5_EEE16rehashPowerOfTwoEmb, symObjAddr: 0xF358, symBinAddr: 0x32188, symSize: 0x108 }
  - { offsetInCU: 0x66670, offset: 0x2B9868, size: 0x8, addend: 0x0, symName: __ZN10robin_hood6detail5TableILb1ELm80EPKN3tns4MetaENSt3__110unique_ptrIN2v810PersistentINS8_5ValueENS8_27NonCopyablePersistentTraitsISA_EEEENS6_14default_deleteISD_EEEENS_4hashIS5_vEENS6_8equal_toIS5_EEE11insert_moveEONSL_8DataNodeISL_Lb1EEE, symObjAddr: 0xF460, symBinAddr: 0x32290, symSize: 0x142 }
  - { offsetInCU: 0x66BF7, offset: 0x2B9DEF, size: 0x8, addend: 0x0, symName: __ZN10robin_hood6detail5TableILb1ELm80ENSt3__112basic_stringIcNS2_11char_traitsIcEENS2_9allocatorIcEEEEhNS_4hashIS8_vEENS2_8equal_toIS8_EEE13increase_sizeEv, symObjAddr: 0xF88C, symBinAddr: 0x326BC, symSize: 0x108 }
  - { offsetInCU: 0x66CBD, offset: 0x2B9EB5, size: 0x8, addend: 0x0, symName: __ZN10robin_hood6detail5TableILb1ELm80ENSt3__112basic_stringIcNS2_11char_traitsIcEENS2_9allocatorIcEEEEhNS_4hashIS8_vEENS2_8equal_toIS8_EEE7shiftUpEmm, symObjAddr: 0xF994, symBinAddr: 0x327C4, symSize: 0x116 }
  - { offsetInCU: 0x66F1C, offset: 0x2BA114, size: 0x8, addend: 0x0, symName: __ZN10robin_hood6detail5TableILb1ELm80ENSt3__112basic_stringIcNS2_11char_traitsIcEENS2_9allocatorIcEEEEhNS_4hashIS8_vEENS2_8equal_toIS8_EEE17try_increase_infoEv, symObjAddr: 0xFB92, symBinAddr: 0x329C2, symSize: 0xE8 }
  - { offsetInCU: 0x6701B, offset: 0x2BA213, size: 0x8, addend: 0x0, symName: __ZN10robin_hood6detail5TableILb1ELm80ENSt3__112basic_stringIcNS2_11char_traitsIcEENS2_9allocatorIcEEEEhNS_4hashIS8_vEENS2_8equal_toIS8_EEE8initDataEm, symObjAddr: 0xFAAA, symBinAddr: 0x328DA, symSize: 0xE8 }
  - { offsetInCU: 0x67105, offset: 0x2BA2FD, size: 0x8, addend: 0x0, symName: __ZN10robin_hood6detail5TableILb1ELm80ENSt3__112basic_stringIcNS2_11char_traitsIcEENS2_9allocatorIcEEEEhNS_4hashIS8_vEENS2_8equal_toIS8_EEE17try_increase_infoEv, symObjAddr: 0xFB92, symBinAddr: 0x329C2, symSize: 0xE8 }
  - { offsetInCU: 0x67111, offset: 0x2BA309, size: 0x8, addend: 0x0, symName: __ZN10robin_hood6detail5TableILb1ELm80ENSt3__112basic_stringIcNS2_11char_traitsIcEENS2_9allocatorIcEEEEhNS_4hashIS8_vEENS2_8equal_toIS8_EEE16rehashPowerOfTwoEmb, symObjAddr: 0xFC7A, symBinAddr: 0x32AAA, symSize: 0x102 }
  - { offsetInCU: 0x6746E, offset: 0x2BA666, size: 0x8, addend: 0x0, symName: __ZN10robin_hood6detail5TableILb1ELm80ENSt3__112basic_stringIcNS2_11char_traitsIcEENS2_9allocatorIcEEEEhNS_4hashIS8_vEENS2_8equal_toIS8_EEE11insert_moveEONSD_8DataNodeISD_Lb1EEE, symObjAddr: 0xFD7C, symBinAddr: 0x32BAC, symSize: 0x13E }
  - { offsetInCU: 0x67A0A, offset: 0x2BAC02, size: 0x8, addend: 0x0, symName: __ZNSt3__128__exception_guard_exceptionsINS_29_AllocatorDestroyRangeReverseINS_9allocatorINS_12basic_stringIcNS_11char_traitsIcEENS2_IcEEEEEENS_16reverse_iteratorIPS7_EEEEED2B7v160006Ev, symObjAddr: 0x10000, symBinAddr: 0x32D60, symSize: 0x1A }
  - { offsetInCU: 0x67BCA, offset: 0x2BADC2, size: 0x8, addend: 0x0, symName: __ZNSt3__114__split_bufferINS_12basic_stringIcNS_11char_traitsIcEENS_9allocatorIcEEEERNS4_IS6_EEE17__destruct_at_endB7v160006EPS6_, symObjAddr: 0x10078, symBinAddr: 0x32DA8, symSize: 0x3E }
  - { offsetInCU: 0x67E0A, offset: 0x2BB002, size: 0x8, addend: 0x0, symName: __ZN3WTF12StringHasher28addCharactersAssumingAlignedIcXadL_ZNS0_16defaultConverterEcEEEEvPKT_, symObjAddr: 0x100FC, symBinAddr: 0x32DEC, symSize: 0x68 }
  - { offsetInCU: 0x67ED3, offset: 0x2BB0CB, size: 0x8, addend: 0x0, symName: __ZNK3WTF12StringHasher13avalancheBitsEv, symObjAddr: 0x10164, symBinAddr: 0x32E54, symSize: 0x46 }
  - { offsetInCU: 0x68317, offset: 0x2BB50F, size: 0x8, addend: 0x0, symName: __ZNSt3__16vectorINS_10shared_ptrIN2v810PersistentINS2_5ValueENS2_27NonCopyablePersistentTraitsIS4_EEEEEENS_9allocatorIS8_EEE16__destroy_vectorclB7v160006Ev, symObjAddr: 0x10520, symBinAddr: 0x32FA0, symSize: 0x56 }
  - { offsetInCU: 0x68C70, offset: 0x2BBE68, size: 0x8, addend: 0x0, symName: '__ZNSt3__110__function6__funcIZN3tns15MetadataBuilder17CFunctionCallbackERKN2v820FunctionCallbackInfoINS4_5ValueEEEE3$_2NS_9allocatorISA_EEFvvEED1Ev', symObjAddr: 0x107E4, symBinAddr: 0x33134, symSize: 0x18 }
  - { offsetInCU: 0x68DD8, offset: 0x2BBFD0, size: 0x8, addend: 0x0, symName: '__ZNSt3__110__function6__funcIZN3tns15MetadataBuilder17CFunctionCallbackERKN2v820FunctionCallbackInfoINS4_5ValueEEEE3$_2NS_9allocatorISA_EEFvvEED0Ev', symObjAddr: 0x107FC, symBinAddr: 0x3314C, symSize: 0x2A }
  - { offsetInCU: 0x6924B, offset: 0x2BC443, size: 0x8, addend: 0x0, symName: '__ZNKSt3__110__function6__funcIZN3tns15MetadataBuilder17CFunctionCallbackERKN2v820FunctionCallbackInfoINS4_5ValueEEEE3$_2NS_9allocatorISA_EEFvvEE7__cloneEv', symObjAddr: 0x10826, symBinAddr: 0x33176, symSize: 0x56 }
  - { offsetInCU: 0x6970D, offset: 0x2BC905, size: 0x8, addend: 0x0, symName: '__ZNKSt3__110__function6__funcIZN3tns15MetadataBuilder17CFunctionCallbackERKN2v820FunctionCallbackInfoINS4_5ValueEEEE3$_2NS_9allocatorISA_EEFvvEE7__cloneEPNS0_6__baseISD_EE', symObjAddr: 0x1087C, symBinAddr: 0x331CC, symSize: 0x28 }
  - { offsetInCU: 0x69944, offset: 0x2BCB3C, size: 0x8, addend: 0x0, symName: '__ZNSt3__110__function6__funcIZN3tns15MetadataBuilder17CFunctionCallbackERKN2v820FunctionCallbackInfoINS4_5ValueEEEE3$_2NS_9allocatorISA_EEFvvEE7destroyEv', symObjAddr: 0x108A4, symBinAddr: 0x331F4, symSize: 0xE }
  - { offsetInCU: 0x69A57, offset: 0x2BCC4F, size: 0x8, addend: 0x0, symName: '__ZNSt3__110__function6__funcIZN3tns15MetadataBuilder17CFunctionCallbackERKN2v820FunctionCallbackInfoINS4_5ValueEEEE3$_2NS_9allocatorISA_EEFvvEE18destroy_deallocateEv', symObjAddr: 0x108B2, symBinAddr: 0x33202, symSize: 0x20 }
  - { offsetInCU: 0x6A256, offset: 0x2BD44E, size: 0x8, addend: 0x0, symName: '__ZNSt3__110__function6__funcIZN3tns15MetadataBuilder17CFunctionCallbackERKN2v820FunctionCallbackInfoINS4_5ValueEEEE3$_2NS_9allocatorISA_EEFvvEEclEv', symObjAddr: 0x108D2, symBinAddr: 0x33222, symSize: 0x386 }
  - { offsetInCU: 0x6B4F7, offset: 0x2BE6EF, size: 0x8, addend: 0x0, symName: __ZNSt3__117bad_function_callD1Ev, symObjAddr: 0x10D80, symBinAddr: 0x335B0, symSize: 0xA }
  - { offsetInCU: 0x6B5E8, offset: 0x2BE7E0, size: 0x8, addend: 0x0, symName: '__ZNSt3__110__function6__funcIZN3tns15MetadataBuilder30SwizzledInstanceMethodCallbackEN2v85LocalINS4_4NameEEENS5_INS4_5ValueEEERKNS4_20PropertyCallbackInfoIS8_EEE3$_3NS_9allocatorISE_EEFiRKNS2_5PtrToINS2_10MethodMetaEEEEED1Ev', symObjAddr: 0x10DA6, symBinAddr: 0x335C6, symSize: 0x20 }
  - { offsetInCU: 0x6B7EC, offset: 0x2BE9E4, size: 0x8, addend: 0x0, symName: '__ZNSt3__110__function6__funcIZN3tns15MetadataBuilder30SwizzledInstanceMethodCallbackEN2v85LocalINS4_4NameEEENS5_INS4_5ValueEEERKNS4_20PropertyCallbackInfoIS8_EEE3$_3NS_9allocatorISE_EEFiRKNS2_5PtrToINS2_10MethodMetaEEEEED0Ev', symObjAddr: 0x10DC6, symBinAddr: 0x335E6, symSize: 0x30 }
  - { offsetInCU: 0x6BD50, offset: 0x2BEF48, size: 0x8, addend: 0x0, symName: '__ZNKSt3__110__function6__funcIZN3tns15MetadataBuilder30SwizzledInstanceMethodCallbackEN2v85LocalINS4_4NameEEENS5_INS4_5ValueEEERKNS4_20PropertyCallbackInfoIS8_EEE3$_3NS_9allocatorISE_EEFiRKNS2_5PtrToINS2_10MethodMetaEEEEE7__cloneEv', symObjAddr: 0x10DF6, symBinAddr: 0x33616, symSize: 0x4A }
  - { offsetInCU: 0x6C1B6, offset: 0x2BF3AE, size: 0x8, addend: 0x0, symName: '__ZNKSt3__110__function6__funcIZN3tns15MetadataBuilder30SwizzledInstanceMethodCallbackEN2v85LocalINS4_4NameEEENS5_INS4_5ValueEEERKNS4_20PropertyCallbackInfoIS8_EEE3$_3NS_9allocatorISE_EEFiRKNS2_5PtrToINS2_10MethodMetaEEEEE7__cloneEPNS0_6__baseISM_EE', symObjAddr: 0x10E40, symBinAddr: 0x33660, symSize: 0x20 }
  - { offsetInCU: 0x6C378, offset: 0x2BF570, size: 0x8, addend: 0x0, symName: '__ZNSt3__110__function6__funcIZN3tns15MetadataBuilder30SwizzledInstanceMethodCallbackEN2v85LocalINS4_4NameEEENS5_INS4_5ValueEEERKNS4_20PropertyCallbackInfoIS8_EEE3$_3NS_9allocatorISE_EEFiRKNS2_5PtrToINS2_10MethodMetaEEEEE7destroyEv', symObjAddr: 0x10E60, symBinAddr: 0x33680, symSize: 0x16 }
  - { offsetInCU: 0x6C536, offset: 0x2BF72E, size: 0x8, addend: 0x0, symName: '__ZNSt3__110__function6__funcIZN3tns15MetadataBuilder30SwizzledInstanceMethodCallbackEN2v85LocalINS4_4NameEEENS5_INS4_5ValueEEERKNS4_20PropertyCallbackInfoIS8_EEE3$_3NS_9allocatorISE_EEFiRKNS2_5PtrToINS2_10MethodMetaEEEEE18destroy_deallocateEv', symObjAddr: 0x10E76, symBinAddr: 0x33696, symSize: 0x26 }
  - { offsetInCU: 0x6C87D, offset: 0x2BFA75, size: 0x8, addend: 0x0, symName: '__ZNSt3__110__function6__funcIZN3tns15MetadataBuilder30SwizzledInstanceMethodCallbackEN2v85LocalINS4_4NameEEENS5_INS4_5ValueEEERKNS4_20PropertyCallbackInfoIS8_EEE3$_3NS_9allocatorISE_EEFiRKNS2_5PtrToINS2_10MethodMetaEEEEEclESL_', symObjAddr: 0x10E9C, symBinAddr: 0x336BC, symSize: 0x128 }
  - { offsetInCU: 0x6CFF7, offset: 0x2C01EF, size: 0x8, addend: 0x0, symName: __ZNSt3__120__shared_ptr_emplaceIN2v810PersistentINS1_5ValueENS1_27NonCopyablePersistentTraitsIS3_EEEENS_9allocatorIS6_EEEC2B7v160006IJRPNS1_7IsolateERNS1_5LocalIS3_EEEEES8_DpOT_, symObjAddr: 0x11020, symBinAddr: 0x33840, symSize: 0x52 }
  - { offsetInCU: 0x6D226, offset: 0x2C041E, size: 0x8, addend: 0x0, symName: '__ZNSt3__110__function6__funcIZN3tns15MetadataBuilder24SwizzledPropertyCallbackEN2v85LocalINS4_4NameEEERKNS4_18PropertyDescriptorERKNS4_20PropertyCallbackInfoINS4_5ValueEEEE3$_4NS_9allocatorISG_EEFiRKNS2_5PtrToINS2_12PropertyMetaEEEEED1Ev', symObjAddr: 0x110D6, symBinAddr: 0x33896, symSize: 0x20 }
  - { offsetInCU: 0x6D42A, offset: 0x2C0622, size: 0x8, addend: 0x0, symName: '__ZNSt3__110__function6__funcIZN3tns15MetadataBuilder24SwizzledPropertyCallbackEN2v85LocalINS4_4NameEEERKNS4_18PropertyDescriptorERKNS4_20PropertyCallbackInfoINS4_5ValueEEEE3$_4NS_9allocatorISG_EEFiRKNS2_5PtrToINS2_12PropertyMetaEEEEED0Ev', symObjAddr: 0x110F6, symBinAddr: 0x338B6, symSize: 0x30 }
  - { offsetInCU: 0x6D98E, offset: 0x2C0B86, size: 0x8, addend: 0x0, symName: '__ZNKSt3__110__function6__funcIZN3tns15MetadataBuilder24SwizzledPropertyCallbackEN2v85LocalINS4_4NameEEERKNS4_18PropertyDescriptorERKNS4_20PropertyCallbackInfoINS4_5ValueEEEE3$_4NS_9allocatorISG_EEFiRKNS2_5PtrToINS2_12PropertyMetaEEEEE7__cloneEv', symObjAddr: 0x11126, symBinAddr: 0x338E6, symSize: 0x4A }
  - { offsetInCU: 0x6DDF4, offset: 0x2C0FEC, size: 0x8, addend: 0x0, symName: '__ZNKSt3__110__function6__funcIZN3tns15MetadataBuilder24SwizzledPropertyCallbackEN2v85LocalINS4_4NameEEERKNS4_18PropertyDescriptorERKNS4_20PropertyCallbackInfoINS4_5ValueEEEE3$_4NS_9allocatorISG_EEFiRKNS2_5PtrToINS2_12PropertyMetaEEEEE7__cloneEPNS0_6__baseISO_EE', symObjAddr: 0x11170, symBinAddr: 0x33930, symSize: 0x20 }
  - { offsetInCU: 0x6DFB6, offset: 0x2C11AE, size: 0x8, addend: 0x0, symName: '__ZNSt3__110__function6__funcIZN3tns15MetadataBuilder24SwizzledPropertyCallbackEN2v85LocalINS4_4NameEEERKNS4_18PropertyDescriptorERKNS4_20PropertyCallbackInfoINS4_5ValueEEEE3$_4NS_9allocatorISG_EEFiRKNS2_5PtrToINS2_12PropertyMetaEEEEE7destroyEv', symObjAddr: 0x11190, symBinAddr: 0x33950, symSize: 0x16 }
  - { offsetInCU: 0x6E174, offset: 0x2C136C, size: 0x8, addend: 0x0, symName: '__ZNSt3__110__function6__funcIZN3tns15MetadataBuilder24SwizzledPropertyCallbackEN2v85LocalINS4_4NameEEERKNS4_18PropertyDescriptorERKNS4_20PropertyCallbackInfoINS4_5ValueEEEE3$_4NS_9allocatorISG_EEFiRKNS2_5PtrToINS2_12PropertyMetaEEEEE18destroy_deallocateEv', symObjAddr: 0x111A6, symBinAddr: 0x33966, symSize: 0x26 }
  - { offsetInCU: 0x6E4BB, offset: 0x2C16B3, size: 0x8, addend: 0x0, symName: '__ZNSt3__110__function6__funcIZN3tns15MetadataBuilder24SwizzledPropertyCallbackEN2v85LocalINS4_4NameEEERKNS4_18PropertyDescriptorERKNS4_20PropertyCallbackInfoINS4_5ValueEEEE3$_4NS_9allocatorISG_EEFiRKNS2_5PtrToINS2_12PropertyMetaEEEEEclESN_', symObjAddr: 0x111CC, symBinAddr: 0x3398C, symSize: 0x128 }
  - { offsetInCU: 0x6EE0B, offset: 0x2C2003, size: 0x8, addend: 0x0, symName: __ZNSt3__120__shared_ptr_emplaceIN2v810PersistentINS1_8FunctionENS1_27NonCopyablePersistentTraitsIS3_EEEENS_9allocatorIS6_EEEC2B7v160006IJRPNS1_7IsolateENS1_5LocalIS3_EEEEES8_DpOT_, symObjAddr: 0x11350, symBinAddr: 0x33B10, symSize: 0x52 }
  - { offsetInCU: 0x6EF7A, offset: 0x2C2172, size: 0x8, addend: 0x0, symName: __ZNSt3__120__shared_ptr_emplaceIN2v810PersistentINS1_8FunctionENS1_27NonCopyablePersistentTraitsIS3_EEEENS_9allocatorIS6_EEE16__on_zero_sharedEv, symObjAddr: 0x113E4, symBinAddr: 0x33B64, symSize: 0x6 }
  - { offsetInCU: 0x5D86, offset: 0x2C7FC8, size: 0x8, addend: 0x0, symName: __ZNSt3__119__allocate_at_leastB7v160006INS_9allocatorIN3tns11StructFieldEEEEENS_19__allocation_resultINS_16allocator_traitsIT_E7pointerEEERS7_m, symObjAddr: 0x1830, symBinAddr: 0x351F0, symSize: 0x37 }
  - { offsetInCU: 0xE02A, offset: 0x2D026C, size: 0x8, addend: 0x0, symName: __ZN3tns9Reference8RegisterEN2v85LocalINS1_7ContextEEENS2_INS1_6ObjectEEE, symObjAddr: 0x0, symBinAddr: 0x33B70, symSize: 0x100 }
  - { offsetInCU: 0xE45F, offset: 0x2D06A1, size: 0x8, addend: 0x0, symName: __ZN3tns9Reference27GetInteropReferenceCtorFuncEN2v85LocalINS1_7ContextEEE, symObjAddr: 0x100, symBinAddr: 0x33C70, symSize: 0x448 }
  - { offsetInCU: 0xFD5D, offset: 0x2D1F9F, size: 0x8, addend: 0x0, symName: __ZN3tns9Reference22RegisterToStringMethodEN2v85LocalINS1_7ContextEEENS2_INS1_6ObjectEEE, symObjAddr: 0xB8E, symBinAddr: 0x346FE, symSize: 0x16A }
  - { offsetInCU: 0x1045E, offset: 0x2D26A0, size: 0x8, addend: 0x0, symName: __ZN3tns9Reference11FromPointerEN2v85LocalINS1_7ContextEEENS2_INS1_5ValueEEEPv, symObjAddr: 0x548, symBinAddr: 0x340B8, symSize: 0x154 }
  - { offsetInCU: 0x10C5C, offset: 0x2D2E9E, size: 0x8, addend: 0x0, symName: __ZN3tns9Reference28ReferenceConstructorCallbackERKN2v820FunctionCallbackInfoINS1_5ValueEEE, symObjAddr: 0x69C, symBinAddr: 0x3420C, symSize: 0x266 }
  - { offsetInCU: 0x11877, offset: 0x2D3AB9, size: 0x8, addend: 0x0, symName: __ZN3tns9Reference26IndexedPropertyGetCallbackEjRKN2v820PropertyCallbackInfoINS1_5ValueEEE, symObjAddr: 0x902, symBinAddr: 0x34472, symSize: 0xE4 }
  - { offsetInCU: 0x11B60, offset: 0x2D3DA2, size: 0x8, addend: 0x0, symName: __ZN3tns9Reference23GetTypeEncodingDataPairEN2v85LocalINS1_6ObjectEEE, symObjAddr: 0xCF8, symBinAddr: 0x34868, symSize: 0x212 }
  - { offsetInCU: 0x12847, offset: 0x2D4A89, size: 0x8, addend: 0x0, symName: __ZN3tns9Reference26IndexedPropertySetCallbackEjN2v85LocalINS1_5ValueEEERKNS1_20PropertyCallbackInfoIS3_EE, symObjAddr: 0x9E6, symBinAddr: 0x34556, symSize: 0x60 }
  - { offsetInCU: 0x12991, offset: 0x2D4BD3, size: 0x8, addend: 0x0, symName: __ZN3tns9Reference16GetValueCallbackEN2v85LocalINS1_4NameEEERKNS1_20PropertyCallbackInfoINS1_5ValueEEE, symObjAddr: 0xA46, symBinAddr: 0x345B6, symSize: 0x44 }
  - { offsetInCU: 0x12A87, offset: 0x2D4CC9, size: 0x8, addend: 0x0, symName: __ZN3tns9Reference16GetReferredValueEN2v85LocalINS1_7ContextEEENS2_INS1_5ValueEEE, symObjAddr: 0xF0A, symBinAddr: 0x34A7A, symSize: 0x2F4 }
  - { offsetInCU: 0x13363, offset: 0x2D55A5, size: 0x8, addend: 0x0, symName: __ZN3tns9Reference16SetValueCallbackEN2v85LocalINS1_4NameEEENS2_INS1_5ValueEEERKNS1_20PropertyCallbackInfoIvEE, symObjAddr: 0xA8A, symBinAddr: 0x345FA, symSize: 0x104 }
  - { offsetInCU: 0x13AE3, offset: 0x2D5D25, size: 0x8, addend: 0x0, symName: __ZN3tns9Reference17GetWrappedPointerEN2v85LocalINS1_7ContextEEENS2_INS1_5ValueEEEPKNS_12TypeEncodingE, symObjAddr: 0x11FE, symBinAddr: 0x34D6E, symSize: 0x2CA }
  - { offsetInCU: 0x1444F, offset: 0x2D6691, size: 0x8, addend: 0x0, symName: __ZN3tns17StructTypeWrapper10StructInfoEv, symObjAddr: 0x14C8, symBinAddr: 0x35038, symSize: 0x50 }
  - { offsetInCU: 0x1460B, offset: 0x2D684D, size: 0x8, addend: 0x0, symName: __ZNSt3__16vectorIN3tns11StructFieldENS_9allocatorIS2_EEEC2ERKS5_, symObjAddr: 0x1740, symBinAddr: 0x35140, symSize: 0x9A }
  - { offsetInCU: 0x14CAF, offset: 0x2D6EF1, size: 0x8, addend: 0x0, symName: __ZN3tns20ReferenceTypeWrapperD1Ev, symObjAddr: 0x168C, symBinAddr: 0x3508C, symSize: 0x6 }
  - { offsetInCU: 0x14CDA, offset: 0x2D6F1C, size: 0x8, addend: 0x0, symName: __ZN3tns20ReferenceTypeWrapperD0Ev, symObjAddr: 0x1692, symBinAddr: 0x35092, symSize: 0xA }
  - { offsetInCU: 0x14D05, offset: 0x2D6F47, size: 0x8, addend: 0x0, symName: __ZN3tns20ReferenceTypeWrapper4TypeEv, symObjAddr: 0x169C, symBinAddr: 0x3509C, symSize: 0xC }
  - { offsetInCU: 0x14D2A, offset: 0x2D6F6C, size: 0x8, addend: 0x0, symName: __ZN3tns16ReferenceWrapperD1Ev, symObjAddr: 0x16A8, symBinAddr: 0x350A8, symSize: 0xA }
  - { offsetInCU: 0x14D57, offset: 0x2D6F99, size: 0x8, addend: 0x0, symName: __ZN3tns16ReferenceWrapperD2Ev, symObjAddr: 0x16DA, symBinAddr: 0x350DA, symSize: 0x66 }
  - { offsetInCU: 0x14DE4, offset: 0x2D7026, size: 0x8, addend: 0x0, symName: __ZN3tns16ReferenceWrapperD0Ev, symObjAddr: 0x16B2, symBinAddr: 0x350B2, symSize: 0x1C }
  - { offsetInCU: 0x14E3B, offset: 0x2D707D, size: 0x8, addend: 0x0, symName: __ZN3tns16ReferenceWrapper4TypeEv, symObjAddr: 0x16CE, symBinAddr: 0x350CE, symSize: 0xC }
  - { offsetInCU: 0x1504F, offset: 0x2D7291, size: 0x8, addend: 0x0, symName: __ZNKSt3__16vectorIN3tns11StructFieldENS_9allocatorIS2_EEE20__throw_length_errorB7v160006Ev, symObjAddr: 0x1820, symBinAddr: 0x351E0, symSize: 0x10 }
  - { offsetInCU: 0x15095, offset: 0x2D72D7, size: 0x8, addend: 0x0, symName: __ZNKSt3__16vectorIN3tns11StructFieldENS_9allocatorIS2_EEE20__throw_length_errorB7v160006Ev, symObjAddr: 0x1820, symBinAddr: 0x351E0, symSize: 0x10 }
  - { offsetInCU: 0x150BF, offset: 0x2D7301, size: 0x8, addend: 0x0, symName: __ZNSt3__119__allocate_at_leastB7v160006INS_9allocatorIN3tns11StructFieldEEEEENS_19__allocation_resultINS_16allocator_traitsIT_E7pointerEEERS7_m, symObjAddr: 0x1830, symBinAddr: 0x351F0, symSize: 0x37 }
  - { offsetInCU: 0x154D8, offset: 0x2D771A, size: 0x8, addend: 0x0, symName: __ZNSt3__16vectorIN3tns11StructFieldENS_9allocatorIS2_EEE16__destroy_vectorclB7v160006Ev, symObjAddr: 0x19E0, symBinAddr: 0x35230, symSize: 0x32 }
  - { offsetInCU: 0x15855, offset: 0x2D7A97, size: 0x8, addend: 0x0, symName: '__ZZN3tns9Reference22RegisterToStringMethodEN2v85LocalINS1_7ContextEEENS2_INS1_6ObjectEEEEN3$_08__invokeERKNS1_20FunctionCallbackInfoINS1_5ValueEEE', symObjAddr: 0x1A56, symBinAddr: 0x35266, symSize: 0x184 }
  - { offsetInCU: 0x56, offset: 0x2D83C1, size: 0x8, addend: 0x0, symName: __ZN3tns10SetTimeout6cache_E, symObjAddr: 0x1708C0, symBinAddr: 0x16C0D58, symSize: 0x0 }
  - { offsetInCU: 0x120, offset: 0x2D848B, size: 0x8, addend: 0x0, symName: __ZN3tns10SetTimeout6count_E, symObjAddr: 0x1708B8, symBinAddr: 0x16C0D50, symSize: 0x0 }
  - { offsetInCU: 0xDBEE, offset: 0x2E5F59, size: 0x8, addend: 0x0, symName: __ZN3tns10SetTimeout4InitEPN2v87IsolateENS1_5LocalINS1_14ObjectTemplateEEE, symObjAddr: 0x0, symBinAddr: 0x353F0, symSize: 0x186 }
  - { offsetInCU: 0xE62D, offset: 0x2E6998, size: 0x8, addend: 0x0, symName: __ZN3tns10SetTimeout18SetTimeoutCallbackERKN2v820FunctionCallbackInfoINS1_5ValueEEE, symObjAddr: 0x186, symBinAddr: 0x35576, symSize: 0x22A }
  - { offsetInCU: 0xEE07, offset: 0x2E7172, size: 0x8, addend: 0x0, symName: __ZN10robin_hood6detail5TableILb1ELm80EjN3tns10SetTimeout10CacheEntryENS_4hashIjvEENSt3__18equal_toIjEEE7emplaceIJRjRS4_EEENS7_4pairINSA_4IterILb0EEEbEEDpOT_, symObjAddr: 0x6AA, symBinAddr: 0x35A9A, symSize: 0x98 }
  - { offsetInCU: 0xF04F, offset: 0x2E73BA, size: 0x8, addend: 0x0, symName: __ZN3tns10SetTimeout20ClearTimeoutCallbackERKN2v820FunctionCallbackInfoINS1_5ValueEEE, symObjAddr: 0x3B0, symBinAddr: 0x357A0, symSize: 0x11E }
  - { offsetInCU: 0xF542, offset: 0x2E78AD, size: 0x8, addend: 0x0, symName: __ZNK10robin_hood6detail5TableILb1ELm80EjN3tns10SetTimeout10CacheEntryENS_4hashIjvEENSt3__18equal_toIjEEE7findIdxIjEEmRKT_, symObjAddr: 0x121A, symBinAddr: 0x3636A, symSize: 0xD6 }
  - { offsetInCU: 0xF6CC, offset: 0x2E7A37, size: 0x8, addend: 0x0, symName: __ZN3tns10SetTimeout9RemoveKeyEj, symObjAddr: 0x742, symBinAddr: 0x35B32, symSize: 0x70 }
  - { offsetInCU: 0xF7BE, offset: 0x2E7B29, size: 0x8, addend: 0x0, symName: ____ZN3tns10SetTimeout18SetTimeoutCallbackERKN2v820FunctionCallbackInfoINS1_5ValueEEE_block_invoke, symObjAddr: 0x4CE, symBinAddr: 0x358BE, symSize: 0xE }
  - { offsetInCU: 0xF807, offset: 0x2E7B72, size: 0x8, addend: 0x0, symName: __ZN3tns10SetTimeout7ElapsedEj, symObjAddr: 0x4DC, symBinAddr: 0x358CC, symSize: 0x1CE }
  - { offsetInCU: 0x1050E, offset: 0x2E8879, size: 0x8, addend: 0x0, symName: __ZN10robin_hood6detail5TableILb1ELm80EjN3tns10SetTimeout10CacheEntryENS_4hashIjvEENSt3__18equal_toIjEEE25insertKeyPrepareEmptySpotIRKjEENS7_4pairImNSA_14InsertionStateEEEOT_, symObjAddr: 0xAB6, symBinAddr: 0x35C56, symSize: 0x158 }
  - { offsetInCU: 0x106BE, offset: 0x2E8A29, size: 0x8, addend: 0x0, symName: __ZNK10robin_hood6detail5TableILb1ELm80EjN3tns10SetTimeout10CacheEntryENS_4hashIjvEENSt3__18equal_toIjEEE18throwOverflowErrorEv, symObjAddr: 0xC0E, symBinAddr: 0x35DAE, symSize: 0x4C }
  - { offsetInCU: 0x1071F, offset: 0x2E8A8A, size: 0x8, addend: 0x0, symName: __ZN10robin_hood6detail5TableILb1ELm80EjN3tns10SetTimeout10CacheEntryENS_4hashIjvEENSt3__18equal_toIjEEE5eraseENSA_4IterILb0EEE, symObjAddr: 0x7B2, symBinAddr: 0x35BA2, symSize: 0x8C }
  - { offsetInCU: 0x10810, offset: 0x2E8B7B, size: 0x8, addend: 0x0, symName: __ZN10robin_hood6detail5TableILb1ELm80EjN3tns10SetTimeout10CacheEntryENS_4hashIjvEENSt3__18equal_toIjEEE9shiftDownEm, symObjAddr: 0x12F0, symBinAddr: 0x36440, symSize: 0x65 }
  - { offsetInCU: 0x108A4, offset: 0x2E8C0F, size: 0x8, addend: 0x0, symName: __ZN10robin_hood6detail5TableILb1ELm80EjN3tns10SetTimeout10CacheEntryENS_4hashIjvEENSt3__18equal_toIjEEED1Ev, symObjAddr: 0x83E, symBinAddr: 0x35C2E, symSize: 0x28 }
  - { offsetInCU: 0x10F5A, offset: 0x2E92C5, size: 0x8, addend: 0x0, symName: __ZN10robin_hood6detail5TableILb1ELm80EjN3tns10SetTimeout10CacheEntryENS_4hashIjvEENSt3__18equal_toIjEEE13increase_sizeEv, symObjAddr: 0xC5A, symBinAddr: 0x35DFA, symSize: 0x108 }
  - { offsetInCU: 0x11020, offset: 0x2E938B, size: 0x8, addend: 0x0, symName: __ZN10robin_hood6detail5TableILb1ELm80EjN3tns10SetTimeout10CacheEntryENS_4hashIjvEENSt3__18equal_toIjEEE7shiftUpEmm, symObjAddr: 0xD62, symBinAddr: 0x35F02, symSize: 0x9C }
  - { offsetInCU: 0x110E6, offset: 0x2E9451, size: 0x8, addend: 0x0, symName: __ZN10robin_hood6detail5TableILb1ELm80EjN3tns10SetTimeout10CacheEntryENS_4hashIjvEENSt3__18equal_toIjEEE17try_increase_infoEv, symObjAddr: 0xEE4, symBinAddr: 0x36084, symSize: 0xE8 }
  - { offsetInCU: 0x111E5, offset: 0x2E9550, size: 0x8, addend: 0x0, symName: __ZN10robin_hood6detail5TableILb1ELm80EjN3tns10SetTimeout10CacheEntryENS_4hashIjvEENSt3__18equal_toIjEEE8initDataEm, symObjAddr: 0xDFE, symBinAddr: 0x35F9E, symSize: 0xE6 }
  - { offsetInCU: 0x112C8, offset: 0x2E9633, size: 0x8, addend: 0x0, symName: __ZN10robin_hood6detail5TableILb1ELm80EjN3tns10SetTimeout10CacheEntryENS_4hashIjvEENSt3__18equal_toIjEEE17try_increase_infoEv, symObjAddr: 0xEE4, symBinAddr: 0x36084, symSize: 0xE8 }
  - { offsetInCU: 0x112D3, offset: 0x2E963E, size: 0x8, addend: 0x0, symName: __ZN10robin_hood6detail5TableILb1ELm80EjN3tns10SetTimeout10CacheEntryENS_4hashIjvEENSt3__18equal_toIjEEE16rehashPowerOfTwoEmb, symObjAddr: 0xFCC, symBinAddr: 0x3616C, symSize: 0xF2 }
  - { offsetInCU: 0x1142A, offset: 0x2E9795, size: 0x8, addend: 0x0, symName: __ZN10robin_hood6detail5TableILb1ELm80EjN3tns10SetTimeout10CacheEntryENS_4hashIjvEENSt3__18equal_toIjEEE11insert_moveEONSA_8DataNodeISA_Lb1EEE, symObjAddr: 0x10F0, symBinAddr: 0x36260, symSize: 0x106 }
  - { offsetInCU: 0x41, offset: 0x2E9A25, size: 0x8, addend: 0x0, symName: __ZL2rt, symObjAddr: 0xAADC0, symBinAddr: 0x16AA1E8, symSize: 0x0 }
  - { offsetInCU: 0x322D, offset: 0x2ECC11, size: 0x8, addend: 0x0, symName: __ZNSt3__115allocate_sharedB7v160006IN4rnv89V8RuntimeENS_9allocatorIS2_EEJEvEENS_10shared_ptrIT_EERKT0_DpOT1_, symObjAddr: 0x123, symBinAddr: 0x3662D, symSize: 0x49 }
  - { offsetInCU: 0x6E64, offset: 0x2F0848, size: 0x8, addend: 0x0, symName: __ZNSt3__110shared_ptrIN8facebook3jsi7RuntimeEED1B7v160006Ev, symObjAddr: 0x0, symBinAddr: 0x3650A, symSize: 0xA }
  - { offsetInCU: 0x6E91, offset: 0x2F0875, size: 0x8, addend: 0x0, symName: __ZNSt3__110shared_ptrIN8facebook3jsi7RuntimeEED2B7v160006Ev, symObjAddr: 0xE4, symBinAddr: 0x365EE, symSize: 0x3F }
  - { offsetInCU: 0x7042, offset: 0x2F0A26, size: 0x8, addend: 0x0, symName: '+[JSIRuntime runtime]', symObjAddr: 0xA, symBinAddr: 0x36514, symSize: 0x90 }
  - { offsetInCU: 0x7209, offset: 0x2F0BED, size: 0x8, addend: 0x0, symName: __ZNSt3__110shared_ptrIN8facebook3jsi7RuntimeEEaSB7v160006IN4rnv89V8RuntimeEvEERS4_ONS0_IT_EE, symObjAddr: 0x9A, symBinAddr: 0x365A4, symSize: 0x4A }
  - { offsetInCU: 0x763D, offset: 0x2F1021, size: 0x8, addend: 0x0, symName: __ZNSt3__120__shared_ptr_emplaceIN4rnv89V8RuntimeENS_9allocatorIS2_EEEC2B7v160006IJEEES4_DpOT_, symObjAddr: 0x16C, symBinAddr: 0x36676, symSize: 0x40 }
  - { offsetInCU: 0x7743, offset: 0x2F1127, size: 0x8, addend: 0x0, symName: __ZNSt3__120__shared_ptr_emplaceIN4rnv89V8RuntimeENS_9allocatorIS2_EEED1Ev, symObjAddr: 0x1AC, symBinAddr: 0x366B6, symSize: 0x18 }
  - { offsetInCU: 0x779C, offset: 0x2F1180, size: 0x8, addend: 0x0, symName: __ZNSt3__120__shared_ptr_emplaceIN4rnv89V8RuntimeENS_9allocatorIS2_EEED0Ev, symObjAddr: 0x1C4, symBinAddr: 0x366CE, symSize: 0x2A }
  - { offsetInCU: 0x7806, offset: 0x2F11EA, size: 0x8, addend: 0x0, symName: __ZNSt3__120__shared_ptr_emplaceIN4rnv89V8RuntimeENS_9allocatorIS2_EEE16__on_zero_sharedEv, symObjAddr: 0x1EE, symBinAddr: 0x366F8, symSize: 0x10 }
  - { offsetInCU: 0x7857, offset: 0x2F123B, size: 0x8, addend: 0x0, symName: __ZNSt3__120__shared_ptr_emplaceIN4rnv89V8RuntimeENS_9allocatorIS2_EEE21__on_zero_shared_weakEv, symObjAddr: 0x1FE, symBinAddr: 0x36708, symSize: 0xA }
  - { offsetInCU: 0x27, offset: 0x2F1370, size: 0x8, addend: 0x0, symName: __ZN12v8_inspector15InspectorServer4InitENSt3__18functionIFvNS2_IFvNS1_12basic_stringIcNS1_11char_traitsIcEENS1_9allocatorIcEEEEEEEEEESA_, symObjAddr: 0x0, symBinAddr: 0x36732, symSize: 0x305 }
  - { offsetInCU: 0x47D4, offset: 0x2F5B1D, size: 0x8, addend: 0x0, symName: ____ZN12v8_inspector15InspectorServer4InitENSt3__18functionIFvNS2_IFvNS1_12basic_stringIcNS1_11char_traitsIcEENS1_9allocatorIcEEEEEEEEEESA__block_invoke, symObjAddr: 0x305, symBinAddr: 0x36A37, symSize: 0x36C }
  - { offsetInCU: 0x7038, offset: 0x2F8381, size: 0x8, addend: 0x0, symName: __ZN12v8_inspector15InspectorServer4InitENSt3__18functionIFvNS2_IFvNS1_12basic_stringIcNS1_11char_traitsIcEENS1_9allocatorIcEEEEEEEEEESA_, symObjAddr: 0x0, symBinAddr: 0x36732, symSize: 0x305 }
  - { offsetInCU: 0x7553, offset: 0x2F889C, size: 0x8, addend: 0x0, symName: __ZNSt3__110__function12__value_funcIFvNS_8functionIFvNS_12basic_stringIcNS_11char_traitsIcEENS_9allocatorIcEEEEEEEEEC2B7v160006ERKSC_, symObjAddr: 0x10DE, symBinAddr: 0x37672, symSize: 0x4C }
  - { offsetInCU: 0x762B, offset: 0x2F8974, size: 0x8, addend: 0x0, symName: __ZN12v8_inspector15InspectorServer4InitENSt3__18functionIFvNS2_IFvNS1_12basic_stringIcNS1_11char_traitsIcEENS1_9allocatorIcEEEEEEEEEESA_.cold.1, symObjAddr: 0x112A, symBinAddr: 0xCB5C78, symSize: 0x21 }
  - { offsetInCU: 0x7643, offset: 0x2F898C, size: 0x8, addend: 0x0, symName: __ZN12v8_inspector15InspectorServer4InitENSt3__18functionIFvNS2_IFvNS1_12basic_stringIcNS1_11char_traitsIcEENS1_9allocatorIcEEEEEEEEEESA_.cold.2, symObjAddr: 0x114B, symBinAddr: 0xCB5C99, symSize: 0x34 }
  - { offsetInCU: 0x7BD7, offset: 0x2F8F20, size: 0x8, addend: 0x0, symName: ____ZN12v8_inspector15InspectorServer4InitENSt3__18functionIFvNS2_IFvNS1_12basic_stringIcNS1_11char_traitsIcEENS1_9allocatorIcEEEEEEEEEESA__block_invoke_2, symObjAddr: 0x671, symBinAddr: 0x36DA3, symSize: 0x33 }
  - { offsetInCU: 0x7C3E, offset: 0x2F8F87, size: 0x8, addend: 0x0, symName: ___Block_byref_object_copy_, symObjAddr: 0x6A4, symBinAddr: 0x36DD6, symSize: 0x1D }
  - { offsetInCU: 0x7C67, offset: 0x2F8FB0, size: 0x8, addend: 0x0, symName: ___Block_byref_object_dispose_, symObjAddr: 0x6C1, symBinAddr: 0x36DF3, symSize: 0xF }
  - { offsetInCU: 0x7C92, offset: 0x2F8FDB, size: 0x8, addend: 0x0, symName: ____ZN12v8_inspector15InspectorServer4InitENSt3__18functionIFvNS2_IFvNS1_12basic_stringIcNS1_11char_traitsIcEENS1_9allocatorIcEEEEEEEEEESA__block_invoke.5, symObjAddr: 0x6D0, symBinAddr: 0x36E02, symSize: 0x1B1 }
  - { offsetInCU: 0x803F, offset: 0x2F9388, size: 0x8, addend: 0x0, symName: ____ZN12v8_inspector15InspectorServer4InitENSt3__18functionIFvNS2_IFvNS1_12basic_stringIcNS1_11char_traitsIcEENS1_9allocatorIcEEEEEEEEEESA__block_invoke_2.6, symObjAddr: 0x881, symBinAddr: 0x36FB3, symSize: 0x157 }
  - { offsetInCU: 0x871D, offset: 0x2F9A66, size: 0x8, addend: 0x0, symName: ___copy_helper_block_ea16_32c84_ZTSNSt3__18functionIFvNS_12basic_stringIcNS_11char_traitsIcEENS_9allocatorIcEEEEEEE80s88s96r, symObjAddr: 0x9D8, symBinAddr: 0x3710A, symSize: 0x51 }
  - { offsetInCU: 0x87D9, offset: 0x2F9B22, size: 0x8, addend: 0x0, symName: ___destroy_helper_block_ea16_32c84_ZTSNSt3__18functionIFvNS_12basic_stringIcNS_11char_traitsIcEENS_9allocatorIcEEEEEEE80s88s96r, symObjAddr: 0xA29, symBinAddr: 0x3715B, symSize: 0x6A }
  - { offsetInCU: 0x887E, offset: 0x2F9BC7, size: 0x8, addend: 0x0, symName: ___copy_helper_block_ea16_32c94_ZTSNSt3__18functionIFvNS0_IFvNS_12basic_stringIcNS_11char_traitsIcEENS_9allocatorIcEEEEEEEEEE80c84_ZTSNSt3__18functionIFvNS_12basic_stringIcNS_11char_traitsIcEENS_9allocatorIcEEEEEEE128s136s, symObjAddr: 0xA93, symBinAddr: 0x371C5, symSize: 0x82 }
  - { offsetInCU: 0x8A43, offset: 0x2F9D8C, size: 0x8, addend: 0x0, symName: ___destroy_helper_block_ea16_32c94_ZTSNSt3__18functionIFvNS0_IFvNS_12basic_stringIcNS_11char_traitsIcEENS_9allocatorIcEEEEEEEEEE80c84_ZTSNSt3__18functionIFvNS_12basic_stringIcNS_11char_traitsIcEENS_9allocatorIcEEEEEEE128s136s, symObjAddr: 0xB15, symBinAddr: 0x37247, symSize: 0x87 }
  - { offsetInCU: 0x8BD3, offset: 0x2F9F1C, size: 0x8, addend: 0x0, symName: __ZN12v8_inspector15InspectorServer4SendEPU25objcproto14OS_dispatch_io8NSObjectPU28objcproto17OS_dispatch_queueS1_NSt3__112basic_stringIcNS6_11char_traitsIcEENS6_9allocatorIcEEEE, symObjAddr: 0xB9C, symBinAddr: 0x372CE, symSize: 0x199 }
  - { offsetInCU: 0x8E0E, offset: 0x2FA157, size: 0x8, addend: 0x0, symName: ____ZN12v8_inspector15InspectorServer4SendEPU25objcproto14OS_dispatch_io8NSObjectPU28objcproto17OS_dispatch_queueS1_NSt3__112basic_stringIcNS6_11char_traitsIcEENS6_9allocatorIcEEEE_block_invoke, symObjAddr: 0xD35, symBinAddr: 0x37467, symSize: 0xE }
  - { offsetInCU: 0x8E49, offset: 0x2FA192, size: 0x8, addend: 0x0, symName: ____ZN12v8_inspector15InspectorServer4SendEPU25objcproto14OS_dispatch_io8NSObjectPU28objcproto17OS_dispatch_queueS1_NSt3__112basic_stringIcNS6_11char_traitsIcEENS6_9allocatorIcEEEE_block_invoke_2, symObjAddr: 0xD43, symBinAddr: 0x37475, symSize: 0x22 }
  - { offsetInCU: 0x8FB4, offset: 0x2FA2FD, size: 0x8, addend: 0x0, symName: '__ZNSt3__110__function6__funcIZZN12v8_inspector15InspectorServer4InitENS_8functionIFvNS4_IFvNS_12basic_stringIcNS_11char_traitsIcEENS_9allocatorIcEEEEEEEEEESC_EUb_E3$_0NS8_ISF_EESB_ED1Ev', symObjAddr: 0xDBE, symBinAddr: 0x37498, symSize: 0x26 }
  - { offsetInCU: 0x9106, offset: 0x2FA44F, size: 0x8, addend: 0x0, symName: '__ZNSt3__110__function6__funcIZZN12v8_inspector15InspectorServer4InitENS_8functionIFvNS4_IFvNS_12basic_stringIcNS_11char_traitsIcEENS_9allocatorIcEEEEEEEEEESC_EUb_E3$_0NS8_ISF_EESB_ED0Ev', symObjAddr: 0xDE4, symBinAddr: 0x374BE, symSize: 0x2C }
  - { offsetInCU: 0x9479, offset: 0x2FA7C2, size: 0x8, addend: 0x0, symName: '__ZNKSt3__110__function6__funcIZZN12v8_inspector15InspectorServer4InitENS_8functionIFvNS4_IFvNS_12basic_stringIcNS_11char_traitsIcEENS_9allocatorIcEEEEEEEEEESC_EUb_E3$_0NS8_ISF_EESB_E7__cloneEv', symObjAddr: 0xE10, symBinAddr: 0x374EA, symSize: 0x50 }
  - { offsetInCU: 0x980A, offset: 0x2FAB53, size: 0x8, addend: 0x0, symName: '__ZNKSt3__110__function6__funcIZZN12v8_inspector15InspectorServer4InitENS_8functionIFvNS4_IFvNS_12basic_stringIcNS_11char_traitsIcEENS_9allocatorIcEEEEEEEEEESC_EUb_E3$_0NS8_ISF_EESB_E7__cloneEPNS0_6__baseISB_EE', symObjAddr: 0xE60, symBinAddr: 0x3753A, symSize: 0x42 }
  - { offsetInCU: 0x9A08, offset: 0x2FAD51, size: 0x8, addend: 0x0, symName: '__ZNSt3__110__function6__funcIZZN12v8_inspector15InspectorServer4InitENS_8functionIFvNS4_IFvNS_12basic_stringIcNS_11char_traitsIcEENS_9allocatorIcEEEEEEEEEESC_EUb_E3$_0NS8_ISF_EESB_E7destroyEv', symObjAddr: 0xEA2, symBinAddr: 0x3757C, symSize: 0x26 }
  - { offsetInCU: 0x9B30, offset: 0x2FAE79, size: 0x8, addend: 0x0, symName: '__ZNSt3__110__function6__funcIZZN12v8_inspector15InspectorServer4InitENS_8functionIFvNS4_IFvNS_12basic_stringIcNS_11char_traitsIcEENS_9allocatorIcEEEEEEEEEESC_EUb_E3$_0NS8_ISF_EESB_E18destroy_deallocateEv', symObjAddr: 0xEC8, symBinAddr: 0x375A2, symSize: 0x2C }
  - { offsetInCU: 0x9DBD, offset: 0x2FB106, size: 0x8, addend: 0x0, symName: '__ZNSt3__110__function6__funcIZZN12v8_inspector15InspectorServer4InitENS_8functionIFvNS4_IFvNS_12basic_stringIcNS_11char_traitsIcEENS_9allocatorIcEEEEEEEEEESC_EUb_E3$_0NS8_ISF_EESB_EclEOSA_', symObjAddr: 0xEF4, symBinAddr: 0x375CE, symSize: 0xA4 }
  - { offsetInCU: 0x6346, offset: 0x3020F8, size: 0x8, addend: 0x0, symName: __ZNSt3__1plB7v160006IcNS_11char_traitsIcEENS_9allocatorIcEEEENS_12basic_stringIT_T0_T1_EEOS9_SA_, symObjAddr: 0x946, symBinAddr: 0x38006, symSize: 0x5A }
  - { offsetInCU: 0x97A2, offset: 0x305554, size: 0x8, addend: 0x0, symName: __ZN4rnv815HostObjectProxyC2ERNS_9V8RuntimeEPN2v87IsolateENSt3__110shared_ptrIN8facebook3jsi10HostObjectEEE, symObjAddr: 0x0, symBinAddr: 0x376C0, symSize: 0x2E }
  - { offsetInCU: 0x991B, offset: 0x3056CD, size: 0x8, addend: 0x0, symName: __ZN4rnv815HostObjectProxyC1ERNS_9V8RuntimeEPN2v87IsolateENSt3__110shared_ptrIN8facebook3jsi10HostObjectEEE, symObjAddr: 0x2E, symBinAddr: 0x376EE, symSize: 0x2E }
  - { offsetInCU: 0x9B9B, offset: 0x30594D, size: 0x8, addend: 0x0, symName: __ZN4rnv815HostObjectProxy13BindFinalizerERKN2v85LocalINS1_6ObjectEEE, symObjAddr: 0x5C, symBinAddr: 0x3771C, symSize: 0x8E }
  - { offsetInCU: 0x9DAE, offset: 0x305B60, size: 0x8, addend: 0x0, symName: __ZN4rnv815HostObjectProxy9FinalizerERKN2v816WeakCallbackInfoIS0_EE, symObjAddr: 0xEA, symBinAddr: 0x377AA, symSize: 0x54 }
  - { offsetInCU: 0x9F31, offset: 0x305CE3, size: 0x8, addend: 0x0, symName: __ZNSt3__110shared_ptrIN8facebook3jsi10HostObjectEE5resetB7v160006Ev, symObjAddr: 0x1208, symBinAddr: 0x388C8, symSize: 0x46 }
  - { offsetInCU: 0xA033, offset: 0x305DE5, size: 0x8, addend: 0x0, symName: __ZNSt3__110shared_ptrIN8facebook3jsi10HostObjectEED2B7v160006Ev, symObjAddr: 0x1BEC, symBinAddr: 0x392AC, symSize: 0x40 }
  - { offsetInCU: 0xA0B0, offset: 0x305E62, size: 0x8, addend: 0x0, symName: __ZN4rnv815HostObjectProxy13GetHostObjectEv, symObjAddr: 0x13E, symBinAddr: 0x377FE, symSize: 0x22 }
  - { offsetInCU: 0xA714, offset: 0x3064C6, size: 0x8, addend: 0x0, symName: __ZN4rnv815HostObjectProxy6GetterEN2v85LocalINS1_4NameEEERKNS1_20PropertyCallbackInfoINS1_5ValueEEE, symObjAddr: 0x160, symBinAddr: 0x37820, symSize: 0x70C }
  - { offsetInCU: 0xCFCD, offset: 0x308D7F, size: 0x8, addend: 0x0, symName: __ZNK8facebook3jsi8Function4callIJNSt3__112basic_stringIcNS3_11char_traitsIcEENS3_9allocatorIcEEEEEEENS0_5ValueERNS0_7RuntimeEDpOT_, symObjAddr: 0x86C, symBinAddr: 0x37F2C, symSize: 0xDA }
  - { offsetInCU: 0xD332, offset: 0x3090E4, size: 0x8, addend: 0x0, symName: __ZN4rnv815HostObjectProxy6SetterEN2v85LocalINS1_4NameEEENS2_INS1_5ValueEEERKNS1_20PropertyCallbackInfoIS5_EE, symObjAddr: 0x9AC, symBinAddr: 0x3806C, symSize: 0x6BA }
  - { offsetInCU: 0xF9C3, offset: 0x30B775, size: 0x8, addend: 0x0, symName: __ZN4rnv815HostObjectProxy10EnumeratorERKN2v820PropertyCallbackInfoINS1_5ArrayEEE, symObjAddr: 0x1066, symBinAddr: 0x38726, symSize: 0x1A2 }
  - { offsetInCU: 0xFD7D, offset: 0x30BB2F, size: 0x8, addend: 0x0, symName: __ZNSt3__16vectorIN8facebook3jsi10PropNameIDENS_9allocatorIS3_EEED2B7v160006Ev, symObjAddr: 0x1D70, symBinAddr: 0x39340, symSize: 0x26 }
  - { offsetInCU: 0xFEF6, offset: 0x30BCA8, size: 0x8, addend: 0x0, symName: __ZN4rnv817HostFunctionProxyC2ERNS_9V8RuntimeEPN2v87IsolateEONSt3__18functionIFN8facebook3jsi5ValueERNS9_7RuntimeERKSA_PSD_mEEE, symObjAddr: 0x124E, symBinAddr: 0x3890E, symSize: 0x2C }
  - { offsetInCU: 0x10019, offset: 0x30BDCB, size: 0x8, addend: 0x0, symName: __ZNSt3__110__function12__value_funcIFN8facebook3jsi5ValueERNS3_7RuntimeERKS4_PS7_mEEC2B7v160006EOSB_, symObjAddr: 0x1D26, symBinAddr: 0x392F6, symSize: 0x4A }
  - { offsetInCU: 0x1009C, offset: 0x30BE4E, size: 0x8, addend: 0x0, symName: __ZN4rnv817HostFunctionProxyC1ERNS_9V8RuntimeEPN2v87IsolateEONSt3__18functionIFN8facebook3jsi5ValueERNS9_7RuntimeERKSA_PSD_mEEE, symObjAddr: 0x127A, symBinAddr: 0x3893A, symSize: 0x2C }
  - { offsetInCU: 0x1025A, offset: 0x30C00C, size: 0x8, addend: 0x0, symName: __ZN4rnv817HostFunctionProxy13BindFinalizerERKN2v85LocalINS1_6ObjectEEE, symObjAddr: 0x12A6, symBinAddr: 0x38966, symSize: 0x8E }
  - { offsetInCU: 0x10466, offset: 0x30C218, size: 0x8, addend: 0x0, symName: __ZN4rnv817HostFunctionProxy9FinalizerERKN2v816WeakCallbackInfoIS0_EE, symObjAddr: 0x1334, symBinAddr: 0x389F4, symSize: 0x56 }
  - { offsetInCU: 0x105CD, offset: 0x30C37F, size: 0x8, addend: 0x0, symName: __ZN4rnv817HostFunctionProxy15GetHostFunctionEv, symObjAddr: 0x138A, symBinAddr: 0x38A4A, symSize: 0xA }
  - { offsetInCU: 0x108AF, offset: 0x30C661, size: 0x8, addend: 0x0, symName: __ZN4rnv817HostFunctionProxy16FunctionCallbackERKN2v820FunctionCallbackInfoINS1_5ValueEEE, symObjAddr: 0x1394, symBinAddr: 0x38A54, symSize: 0x744 }
  - { offsetInCU: 0x11957, offset: 0x30D709, size: 0x8, addend: 0x0, symName: __ZNKSt3__18functionIFN8facebook3jsi5ValueERNS2_7RuntimeERKS3_PS6_mEEclES5_S7_S8_m, symObjAddr: 0x1AD8, symBinAddr: 0x39198, symSize: 0x3A }
  - { offsetInCU: 0x119FE, offset: 0x30D7B0, size: 0x8, addend: 0x0, symName: __ZNK8facebook3jsi8Function4callIJRNSt3__112basic_stringIcNS3_11char_traitsIcEENS3_9allocatorIcEEEEEEENS0_5ValueERNS0_7RuntimeEDpOT_, symObjAddr: 0x1B12, symBinAddr: 0x391D2, symSize: 0xDA }
  - { offsetInCU: 0x11A0E, offset: 0x30D7C0, size: 0x8, addend: 0x0, symName: __ZNKSt3__114default_deleteIA_N8facebook3jsi5ValueEEclB7v160006IS3_EENS5_20_EnableIfConvertibleIT_E4typeEPS8_, symObjAddr: 0x1E10, symBinAddr: 0x393E0, symSize: 0x49 }
  - { offsetInCU: 0x11A53, offset: 0x30D805, size: 0x8, addend: 0x0, symName: __ZNK8facebook3jsi8Function4callIJRNSt3__112basic_stringIcNS3_11char_traitsIcEENS3_9allocatorIcEEEEEEENS0_5ValueERNS0_7RuntimeEDpOT_, symObjAddr: 0x1B12, symBinAddr: 0x391D2, symSize: 0xDA }
  - { offsetInCU: 0x11FC0, offset: 0x30DD72, size: 0x8, addend: 0x0, symName: __ZNSt3__16vectorIN8facebook3jsi10PropNameIDENS_9allocatorIS3_EEE16__destroy_vectorclB7v160006Ev, symObjAddr: 0x1D96, symBinAddr: 0x39366, symSize: 0x32 }
  - { offsetInCU: 0x1214C, offset: 0x30DEFE, size: 0x8, addend: 0x0, symName: __ZNSt3__16vectorIN8facebook3jsi10PropNameIDENS_9allocatorIS3_EEE22__base_destruct_at_endB7v160006EPS3_, symObjAddr: 0x1DC8, symBinAddr: 0x39398, symSize: 0x48 }
  - { offsetInCU: 0x1709, offset: 0x30F772, size: 0x8, addend: 0x0, symName: __ZN8facebook3jsi12_GLOBAL__N_112kindToStringERKNS0_5ValueEPNS0_7RuntimeE, symObjAddr: 0x94F, symBinAddr: 0x39D2F, symSize: 0x141 }
  - { offsetInCU: 0x19C0, offset: 0x30FA29, size: 0x8, addend: 0x0, symName: __ZN8facebook3jsi12_GLOBAL__N_118callGlobalFunctionERNS0_7RuntimeEPKcRKNS0_5ValueE, symObjAddr: 0x35BB, symBinAddr: 0x3C96B, symSize: 0x5D5 }
  - { offsetInCU: 0x9AA9, offset: 0x317B12, size: 0x8, addend: 0x0, symName: __ZNSt3__115allocate_sharedB7v160006IN8facebook3jsi5ValueENS_9allocatorIS3_EEJS3_EvEENS_10shared_ptrIT_EERKT0_DpOT1_, symObjAddr: 0x45B8, symBinAddr: 0x3D878, symSize: 0x58 }
  - { offsetInCU: 0x9D27, offset: 0x317D90, size: 0x8, addend: 0x0, symName: __ZNSt3__1plB7v160006IcNS_11char_traitsIcEENS_9allocatorIcEEEENS_12basic_stringIT_T0_T1_EEOS9_RKS9_, symObjAddr: 0x3B9B, symBinAddr: 0x3CF4B, symSize: 0x55 }
  - { offsetInCU: 0xA91B, offset: 0x318984, size: 0x8, addend: 0x0, symName: __ZN8facebook3jsi7Runtime15instrumentationEv, symObjAddr: 0x186, symBinAddr: 0x395B6, symSize: 0x36 }
  - { offsetInCU: 0xA941, offset: 0x3189AA, size: 0x8, addend: 0x0, symName: __ZZN8facebook3jsi7Runtime15instrumentationEvE14sharedInstance, symObjAddr: 0x5BB8, symBinAddr: 0xE35CD0, symSize: 0x0 }
  - { offsetInCU: 0xC90A, offset: 0x31A973, size: 0x8, addend: 0x0, symName: __ZN8facebook3jsi6BufferD2Ev, symObjAddr: 0x0, symBinAddr: 0x39430, symSize: 0x6 }
  - { offsetInCU: 0xC935, offset: 0x31A99E, size: 0x8, addend: 0x0, symName: __ZN8facebook3jsi6BufferD1Ev, symObjAddr: 0x6, symBinAddr: 0x39436, symSize: 0x6 }
  - { offsetInCU: 0xC95D, offset: 0x31A9C6, size: 0x8, addend: 0x0, symName: __ZN8facebook3jsi6BufferD0Ev, symObjAddr: 0xC, symBinAddr: 0x3943C, symSize: 0x6 }
  - { offsetInCU: 0xC98A, offset: 0x31A9F3, size: 0x8, addend: 0x0, symName: __ZN8facebook3jsi18PreparedJavaScriptD2Ev, symObjAddr: 0x12, symBinAddr: 0x39442, symSize: 0x6 }
  - { offsetInCU: 0xC9B5, offset: 0x31AA1E, size: 0x8, addend: 0x0, symName: __ZN8facebook3jsi18PreparedJavaScriptD1Ev, symObjAddr: 0x18, symBinAddr: 0x39448, symSize: 0x6 }
  - { offsetInCU: 0xC9E0, offset: 0x31AA49, size: 0x8, addend: 0x0, symName: __ZN8facebook3jsi18PreparedJavaScriptD0Ev, symObjAddr: 0x1E, symBinAddr: 0x3944E, symSize: 0x6 }
  - { offsetInCU: 0xCA6D, offset: 0x31AAD6, size: 0x8, addend: 0x0, symName: __ZN8facebook3jsi10HostObject3getERNS0_7RuntimeERKNS0_10PropNameIDE, symObjAddr: 0x24, symBinAddr: 0x39454, symSize: 0x10 }
  - { offsetInCU: 0xCD06, offset: 0x31AD6F, size: 0x8, addend: 0x0, symName: __ZN8facebook3jsi10HostObject3setERNS0_7RuntimeERKNS0_10PropNameIDERKNS0_5ValueE, symObjAddr: 0x34, symBinAddr: 0x39464, symSize: 0x116 }
  - { offsetInCU: 0xD5FF, offset: 0x31B668, size: 0x8, addend: 0x0, symName: __ZN8facebook3jsi7JSErrorC2ERNS0_7RuntimeENSt3__112basic_stringIcNS4_11char_traitsIcEENS4_9allocatorIcEEEE, symObjAddr: 0x31D2, symBinAddr: 0x3C582, symSize: 0x3E9 }
  - { offsetInCU: 0xEB69, offset: 0x31CBD2, size: 0x8, addend: 0x0, symName: __ZN8facebook3jsi7JSErrorC1ERNS0_7RuntimeENSt3__112basic_stringIcNS4_11char_traitsIcEENS4_9allocatorIcEEEE, symObjAddr: 0x14A, symBinAddr: 0x3957A, symSize: 0xA }
  - { offsetInCU: 0xEBA5, offset: 0x31CC0E, size: 0x8, addend: 0x0, symName: __ZN8facebook3jsi7JSErrorD1Ev, symObjAddr: 0x154, symBinAddr: 0x39584, symSize: 0xA }
  - { offsetInCU: 0xEBD2, offset: 0x31CC3B, size: 0x8, addend: 0x0, symName: __ZN8facebook3jsi7JSErrorD2Ev, symObjAddr: 0x41A4, symBinAddr: 0x3D554, symSize: 0x48 }
  - { offsetInCU: 0xEE77, offset: 0x31CEE0, size: 0x8, addend: 0x0, symName: __ZN8facebook3jsi10HostObjectD2Ev, symObjAddr: 0x15E, symBinAddr: 0x3958E, symSize: 0x6 }
  - { offsetInCU: 0xEEA2, offset: 0x31CF0B, size: 0x8, addend: 0x0, symName: __ZN8facebook3jsi10HostObjectD1Ev, symObjAddr: 0x164, symBinAddr: 0x39594, symSize: 0x6 }
  - { offsetInCU: 0xEECA, offset: 0x31CF33, size: 0x8, addend: 0x0, symName: __ZN8facebook3jsi10HostObjectD0Ev, symObjAddr: 0x16A, symBinAddr: 0x3959A, symSize: 0xA }
  - { offsetInCU: 0xEEF5, offset: 0x31CF5E, size: 0x8, addend: 0x0, symName: __ZN8facebook3jsi7RuntimeD2Ev, symObjAddr: 0x174, symBinAddr: 0x395A4, symSize: 0x6 }
  - { offsetInCU: 0xEF20, offset: 0x31CF89, size: 0x8, addend: 0x0, symName: __ZN8facebook3jsi7RuntimeD1Ev, symObjAddr: 0x17A, symBinAddr: 0x395AA, symSize: 0x6 }
  - { offsetInCU: 0xEF48, offset: 0x31CFB1, size: 0x8, addend: 0x0, symName: __ZN8facebook3jsi7RuntimeD0Ev, symObjAddr: 0x180, symBinAddr: 0x395B0, symSize: 0x6 }
  - { offsetInCU: 0xEF70, offset: 0x31CFD9, size: 0x8, addend: 0x0, symName: __ZZN8facebook3jsi7Runtime15instrumentationEvEN17NoInstrumentationD1Ev, symObjAddr: 0x1BC, symBinAddr: 0x395EC, symSize: 0x6 }
  - { offsetInCU: 0xF09B, offset: 0x31D104, size: 0x8, addend: 0x0, symName: __ZN8facebook3jsi7Runtime23createValueFromJsonUtf8EPKhm, symObjAddr: 0x1C2, symBinAddr: 0x395F2, symSize: 0x132 }
  - { offsetInCU: 0xF4EF, offset: 0x31D558, size: 0x8, addend: 0x0, symName: __ZNK8facebook3jsi6Object19getPropertyAsObjectERNS0_7RuntimeEPKc, symObjAddr: 0x2F4, symBinAddr: 0x39724, symSize: 0x288 }
  - { offsetInCU: 0x101BB, offset: 0x31E224, size: 0x8, addend: 0x0, symName: __ZNK8facebook3jsi6Object21getPropertyAsFunctionERNS0_7RuntimeEPKc, symObjAddr: 0x57C, symBinAddr: 0x399AC, symSize: 0x278 }
  - { offsetInCU: 0x10E05, offset: 0x31EE6E, size: 0x8, addend: 0x0, symName: __ZNK8facebook3jsi8Function4callIJNS0_6StringEEEENS0_5ValueERNS0_7RuntimeEDpOT_, symObjAddr: 0x7F4, symBinAddr: 0x39C24, symSize: 0xD8 }
  - { offsetInCU: 0x1135B, offset: 0x31F3C4, size: 0x8, addend: 0x0, symName: __ZN8facebook3jsi5ValueD2Ev, symObjAddr: 0x1122, symBinAddr: 0x3A502, symSize: 0x22 }
  - { offsetInCU: 0x115D6, offset: 0x31F63F, size: 0x8, addend: 0x0, symName: __ZN8facebook3jsi7PointeraSEOS1_, symObjAddr: 0x8CC, symBinAddr: 0x39CFC, symSize: 0x2F }
  - { offsetInCU: 0x11645, offset: 0x31F6AE, size: 0x8, addend: 0x0, symName: __ZNKR8facebook3jsi5Value9getObjectERNS0_7RuntimeE, symObjAddr: 0xA90, symBinAddr: 0x39E70, symSize: 0x30 }
  - { offsetInCU: 0x11718, offset: 0x31F781, size: 0x8, addend: 0x0, symName: __ZN8facebook3jsi12_GLOBAL__N_112kindToStringERKNS0_5ValueEPNS0_7RuntimeE.cold.1, symObjAddr: 0x4728, symBinAddr: 0xCB5CD8, symSize: 0x21 }
  - { offsetInCU: 0x11730, offset: 0x31F799, size: 0x8, addend: 0x0, symName: __ZNKR8facebook3jsi5Value9getObjectERNS0_7RuntimeE.cold.1, symObjAddr: 0x4749, symBinAddr: 0xCB5CF9, symSize: 0x23 }
  - { offsetInCU: 0x11748, offset: 0x31F7B1, size: 0x8, addend: 0x0, symName: __ZN8facebook3jsi5ValueD1Ev, symObjAddr: 0xAC0, symBinAddr: 0x39EA0, symSize: 0xA }
  - { offsetInCU: 0x1183A, offset: 0x31F8A3, size: 0x8, addend: 0x0, symName: __ZNKR8facebook3jsi6Object7asArrayERNS0_7RuntimeE, symObjAddr: 0xACA, symBinAddr: 0x39EAA, symSize: 0x186 }
  - { offsetInCU: 0x11FA7, offset: 0x320010, size: 0x8, addend: 0x0, symName: __ZNKR8facebook3jsi6Object7asArrayERNS0_7RuntimeE.cold.1, symObjAddr: 0x476C, symBinAddr: 0xCB5D1C, symSize: 0x23 }
  - { offsetInCU: 0x12003, offset: 0x32006C, size: 0x8, addend: 0x0, symName: __ZNO8facebook3jsi6Object7asArrayERNS0_7RuntimeE, symObjAddr: 0xC50, symBinAddr: 0x3A030, symSize: 0x184 }
  - { offsetInCU: 0x1276E, offset: 0x3207D7, size: 0x8, addend: 0x0, symName: __ZNO8facebook3jsi6Object7asArrayERNS0_7RuntimeE.cold.1, symObjAddr: 0x478F, symBinAddr: 0xCB5D3F, symSize: 0x23 }
  - { offsetInCU: 0x127BE, offset: 0x320827, size: 0x8, addend: 0x0, symName: __ZNKR8facebook3jsi6Object10asFunctionERNS0_7RuntimeE, symObjAddr: 0xDD4, symBinAddr: 0x3A1B4, symSize: 0x186 }
  - { offsetInCU: 0x12F2B, offset: 0x320F94, size: 0x8, addend: 0x0, symName: __ZNKR8facebook3jsi6Object10asFunctionERNS0_7RuntimeE.cold.1, symObjAddr: 0x47B2, symBinAddr: 0xCB5D62, symSize: 0x23 }
  - { offsetInCU: 0x12F59, offset: 0x320FC2, size: 0x8, addend: 0x0, symName: __ZNO8facebook3jsi6Object10asFunctionERNS0_7RuntimeE, symObjAddr: 0xF5A, symBinAddr: 0x3A33A, symSize: 0x184 }
  - { offsetInCU: 0x136C4, offset: 0x32172D, size: 0x8, addend: 0x0, symName: __ZNO8facebook3jsi6Object10asFunctionERNS0_7RuntimeE.cold.1, symObjAddr: 0x47D5, symBinAddr: 0xCB5D85, symSize: 0x23 }
  - { offsetInCU: 0x13717, offset: 0x321780, size: 0x8, addend: 0x0, symName: __ZN8facebook3jsi5ValueC2EOS1_, symObjAddr: 0x10DE, symBinAddr: 0x3A4BE, symSize: 0x44 }
  - { offsetInCU: 0x137C3, offset: 0x32182C, size: 0x8, addend: 0x0, symName: __ZN8facebook3jsi5ValueC1EOS1_, symObjAddr: 0x1144, symBinAddr: 0x3A524, symSize: 0x44 }
  - { offsetInCU: 0x13881, offset: 0x3218EA, size: 0x8, addend: 0x0, symName: __ZN8facebook3jsi5ValueC2ERNS0_7RuntimeERKS1_, symObjAddr: 0x1188, symBinAddr: 0x3A568, symSize: 0xB8 }
  - { offsetInCU: 0x1392F, offset: 0x321998, size: 0x8, addend: 0x0, symName: __ZN8facebook3jsi5ValueC1ERNS0_7RuntimeERKS1_, symObjAddr: 0x1240, symBinAddr: 0x3A620, symSize: 0xB8 }
  - { offsetInCU: 0x13A1E, offset: 0x321A87, size: 0x8, addend: 0x0, symName: __ZN8facebook3jsi5Value12strictEqualsERNS0_7RuntimeERKS1_S5_, symObjAddr: 0x12F8, symBinAddr: 0x3A6D8, symSize: 0xB8 }
  - { offsetInCU: 0x13AFD, offset: 0x321B66, size: 0x8, addend: 0x0, symName: __ZNK8facebook3jsi5Value6asBoolEv, symObjAddr: 0x13B0, symBinAddr: 0x3A790, symSize: 0x16C }
  - { offsetInCU: 0x13FA3, offset: 0x32200C, size: 0x8, addend: 0x0, symName: __ZN8facebook3jsi18JSINativeExceptionD1Ev, symObjAddr: 0x151C, symBinAddr: 0x3A8FC, symSize: 0xA }
  - { offsetInCU: 0x13FEE, offset: 0x322057, size: 0x8, addend: 0x0, symName: __ZN8facebook3jsi12JSIExceptionD2Ev, symObjAddr: 0x3198, symBinAddr: 0x3C548, symSize: 0x30 }
  - { offsetInCU: 0x14163, offset: 0x3221CC, size: 0x8, addend: 0x0, symName: __ZNK8facebook3jsi5Value8asNumberEv, symObjAddr: 0x1526, symBinAddr: 0x3A906, symSize: 0x16E }
  - { offsetInCU: 0x145ED, offset: 0x322656, size: 0x8, addend: 0x0, symName: __ZNKR8facebook3jsi5Value8asObjectERNS0_7RuntimeE, symObjAddr: 0x1694, symBinAddr: 0x3AA74, symSize: 0x13E }
  - { offsetInCU: 0x14B42, offset: 0x322BAB, size: 0x8, addend: 0x0, symName: __ZNO8facebook3jsi5Value8asObjectERNS0_7RuntimeE, symObjAddr: 0x17D2, symBinAddr: 0x3ABB2, symSize: 0x13E }
  - { offsetInCU: 0x1511E, offset: 0x323187, size: 0x8, addend: 0x0, symName: __ZNKR8facebook3jsi5Value8asSymbolERNS0_7RuntimeE, symObjAddr: 0x1910, symBinAddr: 0x3ACF0, symSize: 0x13E }
  - { offsetInCU: 0x15673, offset: 0x3236DC, size: 0x8, addend: 0x0, symName: __ZNKR8facebook3jsi5Value9getSymbolERNS0_7RuntimeE, symObjAddr: 0x1A4E, symBinAddr: 0x3AE2E, symSize: 0x30 }
  - { offsetInCU: 0x15799, offset: 0x323802, size: 0x8, addend: 0x0, symName: __ZNKR8facebook3jsi5Value9getSymbolERNS0_7RuntimeE.cold.1, symObjAddr: 0x47F8, symBinAddr: 0xCB5DA8, symSize: 0x23 }
  - { offsetInCU: 0x157DC, offset: 0x323845, size: 0x8, addend: 0x0, symName: __ZNO8facebook3jsi5Value8asSymbolERNS0_7RuntimeE, symObjAddr: 0x1A7E, symBinAddr: 0x3AE5E, symSize: 0x13E }
  - { offsetInCU: 0x15DD6, offset: 0x323E3F, size: 0x8, addend: 0x0, symName: __ZNKR8facebook3jsi5Value8asBigIntERNS0_7RuntimeE, symObjAddr: 0x1BBC, symBinAddr: 0x3AF9C, symSize: 0x13E }
  - { offsetInCU: 0x1632B, offset: 0x324394, size: 0x8, addend: 0x0, symName: __ZNKR8facebook3jsi5Value9getBigIntERNS0_7RuntimeE, symObjAddr: 0x1CFA, symBinAddr: 0x3B0DA, symSize: 0x30 }
  - { offsetInCU: 0x16451, offset: 0x3244BA, size: 0x8, addend: 0x0, symName: __ZNKR8facebook3jsi5Value9getBigIntERNS0_7RuntimeE.cold.1, symObjAddr: 0x481B, symBinAddr: 0xCB5DCB, symSize: 0x23 }
  - { offsetInCU: 0x16494, offset: 0x3244FD, size: 0x8, addend: 0x0, symName: __ZNO8facebook3jsi5Value8asBigIntERNS0_7RuntimeE, symObjAddr: 0x1D2A, symBinAddr: 0x3B10A, symSize: 0x13E }
  - { offsetInCU: 0x16A8E, offset: 0x324AF7, size: 0x8, addend: 0x0, symName: __ZNKR8facebook3jsi5Value8asStringERNS0_7RuntimeE, symObjAddr: 0x1E68, symBinAddr: 0x3B248, symSize: 0x13E }
  - { offsetInCU: 0x1709F, offset: 0x325108, size: 0x8, addend: 0x0, symName: __ZNO8facebook3jsi5Value8asStringERNS0_7RuntimeE, symObjAddr: 0x1FD6, symBinAddr: 0x3B386, symSize: 0x13E }
  - { offsetInCU: 0x176BC, offset: 0x325725, size: 0x8, addend: 0x0, symName: __ZNK8facebook3jsi5Value8toStringERNS0_7RuntimeE, symObjAddr: 0x2114, symBinAddr: 0x3B4C4, symSize: 0x186 }
  - { offsetInCU: 0x17D3D, offset: 0x325DA6, size: 0x8, addend: 0x0, symName: __ZN8facebook3jsi5Array18createWithElementsERNS0_7RuntimeESt16initializer_listINS0_5ValueEE, symObjAddr: 0x229A, symBinAddr: 0x3B64A, symSize: 0x90 }
  - { offsetInCU: 0x17F4E, offset: 0x325FB7, size: 0x8, addend: 0x0, symName: __ZN8facebook3jsi5Array15setValueAtIndexIRKNS0_5ValueEEEvRNS0_7RuntimeEmOT_, symObjAddr: 0x232A, symBinAddr: 0x3B6DA, symSize: 0x7A }
  - { offsetInCU: 0x18113, offset: 0x32617C, size: 0x8, addend: 0x0, symName: __ZN8facebook3jsi10HostObject16getPropertyNamesERNS0_7RuntimeE, symObjAddr: 0x23A4, symBinAddr: 0x3B754, symSize: 0x18 }
  - { offsetInCU: 0x1817D, offset: 0x3261E6, size: 0x8, addend: 0x0, symName: __ZN8facebook3jsi7Runtime9pushScopeEv, symObjAddr: 0x23BC, symBinAddr: 0x3B76C, symSize: 0x8 }
  - { offsetInCU: 0x181A2, offset: 0x32620B, size: 0x8, addend: 0x0, symName: __ZN8facebook3jsi7Runtime8popScopeEPNS1_10ScopeStateE, symObjAddr: 0x23C4, symBinAddr: 0x3B774, symSize: 0x6 }
  - { offsetInCU: 0x18235, offset: 0x32629E, size: 0x8, addend: 0x0, symName: __ZN8facebook3jsi7JSErrorC2ERNS0_7RuntimeEONS0_5ValueE, symObjAddr: 0x23CA, symBinAddr: 0x3B77A, symSize: 0x84 }
  - { offsetInCU: 0x1860B, offset: 0x326674, size: 0x8, addend: 0x0, symName: __ZN8facebook3jsi7JSError8setValueERNS0_7RuntimeEONS0_5ValueE, symObjAddr: 0x244E, symBinAddr: 0x3B7FE, symSize: 0xD4A }
  - { offsetInCU: 0x1CB74, offset: 0x32ABDD, size: 0x8, addend: 0x0, symName: __ZNSt3__110shared_ptrIN8facebook3jsi5ValueEED2B7v160006Ev, symObjAddr: 0x44F8, symBinAddr: 0x3D7B8, symSize: 0x40 }
  - { offsetInCU: 0x1CE87, offset: 0x32AEF0, size: 0x8, addend: 0x0, symName: __ZNSt3__110shared_ptrIN8facebook3jsi5ValueEEaSB7v160006EOS4_, symObjAddr: 0x40B2, symBinAddr: 0x3D462, symSize: 0x4A }
  - { offsetInCU: 0x1D111, offset: 0x32B17A, size: 0x8, addend: 0x0, symName: __ZN8facebook3jsi12_GLOBAL__N_112kindToStringERKNS0_5ValueEPNS0_7RuntimeE.cold.1, symObjAddr: 0x4728, symBinAddr: 0xCB5CD8, symSize: 0x21 }
  - { offsetInCU: 0x1D11D, offset: 0x32B186, size: 0x8, addend: 0x0, symName: __ZN8facebook3jsi5ValueaSEOS1_, symObjAddr: 0x40FC, symBinAddr: 0x3D4AC, symSize: 0x5C }
  - { offsetInCU: 0x1D23E, offset: 0x32B2A7, size: 0x8, addend: 0x0, symName: __ZN8facebook3jsi7JSErrorC1ERNS0_7RuntimeEONS0_5ValueE, symObjAddr: 0x31C8, symBinAddr: 0x3C578, symSize: 0xA }
  - { offsetInCU: 0x1D385, offset: 0x32B3EE, size: 0x8, addend: 0x0, symName: __ZN8facebook3jsi7JSErrorC2ERNS0_7RuntimeENSt3__112basic_stringIcNS4_11char_traitsIcEENS4_9allocatorIcEEEESA_, symObjAddr: 0x3BF0, symBinAddr: 0x3CFA0, symSize: 0x342 }
  - { offsetInCU: 0x1E3FC, offset: 0x32C465, size: 0x8, addend: 0x0, symName: __ZN8facebook3jsi6Object11setPropertyINS0_6StringEEEvRNS0_7RuntimeEPKcOT_, symObjAddr: 0x3F32, symBinAddr: 0x3D2E2, symSize: 0x8E }
  - { offsetInCU: 0x1E599, offset: 0x32C602, size: 0x8, addend: 0x0, symName: __ZN8facebook3jsi6Object11setPropertyINS0_6StringEEEvRNS0_7RuntimeERKS3_OT_, symObjAddr: 0x4538, symBinAddr: 0x3D7F8, symSize: 0x80 }
  - { offsetInCU: 0x1E7AB, offset: 0x32C814, size: 0x8, addend: 0x0, symName: __ZN8facebook3jsi7JSErrorC1ERNS0_7RuntimeENSt3__112basic_stringIcNS4_11char_traitsIcEENS4_9allocatorIcEEEESA_, symObjAddr: 0x3FC0, symBinAddr: 0x3D370, symSize: 0xA }
  - { offsetInCU: 0x1E814, offset: 0x32C87D, size: 0x8, addend: 0x0, symName: __ZN8facebook3jsi7JSErrorC2ENSt3__112basic_stringIcNS2_11char_traitsIcEENS2_9allocatorIcEEEERNS0_7RuntimeEONS0_5ValueE, symObjAddr: 0x3FCA, symBinAddr: 0x3D37A, symSize: 0xDE }
  - { offsetInCU: 0x1EC35, offset: 0x32CC9E, size: 0x8, addend: 0x0, symName: __ZN8facebook3jsi7JSErrorC1ENSt3__112basic_stringIcNS2_11char_traitsIcEENS2_9allocatorIcEEEERNS0_7RuntimeEONS0_5ValueE, symObjAddr: 0x40A8, symBinAddr: 0x3D458, symSize: 0xA }
  - { offsetInCU: 0x1ED38, offset: 0x32CDA1, size: 0x8, addend: 0x0, symName: __ZN8facebook3jsi12JSIExceptionD1Ev, symObjAddr: 0x4158, symBinAddr: 0x3D508, symSize: 0xA }
  - { offsetInCU: 0x1ED81, offset: 0x32CDEA, size: 0x8, addend: 0x0, symName: __ZN8facebook3jsi12JSIExceptionD0Ev, symObjAddr: 0x4162, symBinAddr: 0x3D512, symSize: 0x1C }
  - { offsetInCU: 0x1EDDB, offset: 0x32CE44, size: 0x8, addend: 0x0, symName: __ZN8facebook3jsi18JSINativeExceptionD2Ev, symObjAddr: 0x417E, symBinAddr: 0x3D52E, symSize: 0xA }
  - { offsetInCU: 0x1EE24, offset: 0x32CE8D, size: 0x8, addend: 0x0, symName: __ZN8facebook3jsi18JSINativeExceptionD0Ev, symObjAddr: 0x4188, symBinAddr: 0x3D538, symSize: 0x1C }
  - { offsetInCU: 0x1EEB8, offset: 0x32CF21, size: 0x8, addend: 0x0, symName: __ZN8facebook3jsi7JSErrorD0Ev, symObjAddr: 0x41EC, symBinAddr: 0x3D59C, symSize: 0x1C }
  - { offsetInCU: 0x1EF51, offset: 0x32CFBA, size: 0x8, addend: 0x0, symName: __ZNK8facebook3jsi12JSIException4whatEv, symObjAddr: 0x4208, symBinAddr: 0x3D5B8, symSize: 0x1A }
  - { offsetInCU: 0x1F034, offset: 0x32D09D, size: 0x8, addend: 0x0, symName: __ZZN8facebook3jsi7Runtime15instrumentationEvEN17NoInstrumentationD0Ev, symObjAddr: 0x4222, symBinAddr: 0x3D5D2, symSize: 0xA }
  - { offsetInCU: 0x1F05F, offset: 0x32D0C8, size: 0x8, addend: 0x0, symName: __ZZN8facebook3jsi7Runtime15instrumentationEvEN17NoInstrumentation18getRecordedGCStatsEv, symObjAddr: 0x422C, symBinAddr: 0x3D5DC, symSize: 0x20 }
  - { offsetInCU: 0x1F279, offset: 0x32D2E2, size: 0x8, addend: 0x0, symName: __ZZN8facebook3jsi7Runtime15instrumentationEvEN17NoInstrumentation11getHeapInfoEb, symObjAddr: 0x424C, symBinAddr: 0x3D5FC, symSize: 0x1A }
  - { offsetInCU: 0x1F411, offset: 0x32D47A, size: 0x8, addend: 0x0, symName: __ZZN8facebook3jsi7Runtime15instrumentationEvEN17NoInstrumentation14collectGarbageENSt3__112basic_stringIcNS3_11char_traitsIcEENS3_9allocatorIcEEEE, symObjAddr: 0x4266, symBinAddr: 0x3D616, symSize: 0x6 }
  - { offsetInCU: 0x1F43F, offset: 0x32D4A8, size: 0x8, addend: 0x0, symName: __ZZN8facebook3jsi7Runtime15instrumentationEvEN17NoInstrumentation34startTrackingHeapObjectStackTracesENSt3__18functionIFvyNS3_6chrono8durationIxNS3_5ratioILl1ELl1000000EEEEENS3_6vectorINS3_5tupleIJyyyEEENS3_9allocatorISC_EEEEEEE, symObjAddr: 0x426C, symBinAddr: 0x3D61C, symSize: 0x6 }
  - { offsetInCU: 0x1F46D, offset: 0x32D4D6, size: 0x8, addend: 0x0, symName: __ZZN8facebook3jsi7Runtime15instrumentationEvEN17NoInstrumentation33stopTrackingHeapObjectStackTracesEv, symObjAddr: 0x4272, symBinAddr: 0x3D622, symSize: 0x6 }
  - { offsetInCU: 0x1F493, offset: 0x32D4FC, size: 0x8, addend: 0x0, symName: __ZZN8facebook3jsi7Runtime15instrumentationEvEN17NoInstrumentation17startHeapSamplingEm, symObjAddr: 0x4278, symBinAddr: 0x3D628, symSize: 0x6 }
  - { offsetInCU: 0x1F4C1, offset: 0x32D52A, size: 0x8, addend: 0x0, symName: __ZZN8facebook3jsi7Runtime15instrumentationEvEN17NoInstrumentation16stopHeapSamplingERNSt3__113basic_ostreamIcNS3_11char_traitsIcEEEE, symObjAddr: 0x427E, symBinAddr: 0x3D62E, symSize: 0x6 }
  - { offsetInCU: 0x1F4EF, offset: 0x32D558, size: 0x8, addend: 0x0, symName: __ZZN8facebook3jsi7Runtime15instrumentationEvEN17NoInstrumentation20createSnapshotToFileERKNSt3__112basic_stringIcNS3_11char_traitsIcEENS3_9allocatorIcEEEE, symObjAddr: 0x4284, symBinAddr: 0x3D634, symSize: 0xAE }
  - { offsetInCU: 0x1F795, offset: 0x32D7FE, size: 0x8, addend: 0x0, symName: __ZZN8facebook3jsi7Runtime15instrumentationEvEN17NoInstrumentation22createSnapshotToStreamERNSt3__113basic_ostreamIcNS3_11char_traitsIcEEEE, symObjAddr: 0x4332, symBinAddr: 0x3D6E2, symSize: 0xAE }
  - { offsetInCU: 0x1FA3B, offset: 0x32DAA4, size: 0x8, addend: 0x0, symName: __ZZN8facebook3jsi7Runtime15instrumentationEvEN17NoInstrumentation33flushAndDisableBridgeTrafficTraceEv, symObjAddr: 0x43E0, symBinAddr: 0x3D790, symSize: 0xA }
  - { offsetInCU: 0x1FA61, offset: 0x32DACA, size: 0x8, addend: 0x0, symName: __ZZN8facebook3jsi7Runtime15instrumentationEvENK17NoInstrumentation33writeBasicBlockProfileTraceToFileERKNSt3__112basic_stringIcNS3_11char_traitsIcEENS3_9allocatorIcEEEE, symObjAddr: 0x43EA, symBinAddr: 0x3D79A, symSize: 0xA }
  - { offsetInCU: 0x1FA8F, offset: 0x32DAF8, size: 0x8, addend: 0x0, symName: __ZZN8facebook3jsi7Runtime15instrumentationEvENK17NoInstrumentation25dumpProfilerSymbolsToFileERKNSt3__112basic_stringIcNS3_11char_traitsIcEENS3_9allocatorIcEEEE, symObjAddr: 0x43F4, symBinAddr: 0x3D7A4, symSize: 0xA }
  - { offsetInCU: 0x1FEE2, offset: 0x32DF4B, size: 0x8, addend: 0x0, symName: __ZNSt3__120__shared_ptr_emplaceIN8facebook3jsi5ValueENS_9allocatorIS3_EEEC2B7v160006IJS3_EEES5_DpOT_, symObjAddr: 0x4610, symBinAddr: 0x3D8D0, symSize: 0x5A }
  - { offsetInCU: 0x200A1, offset: 0x32E10A, size: 0x8, addend: 0x0, symName: __ZNSt3__120__shared_ptr_emplaceIN8facebook3jsi5ValueENS_9allocatorIS3_EEED1Ev, symObjAddr: 0x466A, symBinAddr: 0x3D92A, symSize: 0x18 }
  - { offsetInCU: 0x200FA, offset: 0x32E163, size: 0x8, addend: 0x0, symName: __ZNSt3__120__shared_ptr_emplaceIN8facebook3jsi5ValueENS_9allocatorIS3_EEED0Ev, symObjAddr: 0x4682, symBinAddr: 0x3D942, symSize: 0x2A }
  - { offsetInCU: 0x20164, offset: 0x32E1CD, size: 0x8, addend: 0x0, symName: __ZNSt3__120__shared_ptr_emplaceIN8facebook3jsi5ValueENS_9allocatorIS3_EEE16__on_zero_sharedEv, symObjAddr: 0x46AC, symBinAddr: 0x3D96C, symSize: 0xE }
  - { offsetInCU: 0x201D5, offset: 0x32E23E, size: 0x8, addend: 0x0, symName: __ZNSt3__120__shared_ptr_emplaceIN8facebook3jsi5ValueENS_9allocatorIS3_EEE21__on_zero_shared_weakEv, symObjAddr: 0x46BA, symBinAddr: 0x3D97A, symSize: 0xA }
  - { offsetInCU: 0x53, offset: 0x32E3D7, size: 0x8, addend: 0x0, symName: __ZN3tns12ClassBuilder17classNameCounter_E, symObjAddr: 0x326A50, symBinAddr: 0x16C0D90, symSize: 0x0 }
  - { offsetInCU: 0x8B44, offset: 0x336EC8, size: 0x8, addend: 0x0, symName: __ZNSt3__124__put_character_sequenceB7v160006IcNS_11char_traitsIcEEEERNS_13basic_ostreamIT_T0_EES7_PKS4_m, symObjAddr: 0xA010, symBinAddr: 0x45600, symSize: 0x150 }
  - { offsetInCU: 0xA098, offset: 0x33841C, size: 0x8, addend: 0x0, symName: __ZNSt3__115allocate_sharedB7v160006IN3tns6CachesENS_9allocatorIS2_EEJRPN2v87IsolateEEvEENS_10shared_ptrIT_EERKT0_DpOT1_, symObjAddr: 0x53A0, symBinAddr: 0x42690, symSize: 0x57 }
  - { offsetInCU: 0xA9C6, offset: 0x338D4A, size: 0x8, addend: 0x0, symName: __ZNSt3__119__allocate_at_leastB7v160006INS_9allocatorIPKN3tns12ProtocolMetaEEEEENS_19__allocation_resultINS_16allocator_traitsIT_E7pointerEEERS9_m, symObjAddr: 0xA3DE, symBinAddr: 0x4586E, symSize: 0x2E }
  - { offsetInCU: 0xB3D7, offset: 0x33975B, size: 0x8, addend: 0x0, symName: __ZNSt3__110shared_ptrIN2v810PersistentINS1_8FunctionENS1_27NonCopyablePersistentTraitsIS3_EEEEED2B7v160006Ev, symObjAddr: 0x9348, symBinAddr: 0x44D58, symSize: 0x40 }
  - { offsetInCU: 0xB4FC, offset: 0x339880, size: 0x8, addend: 0x0, symName: __ZNSt3__115allocate_sharedB7v160006IN2v810PersistentINS1_6ObjectENS1_27NonCopyablePersistentTraitsIS3_EEEENS_9allocatorIS6_EEJRPNS1_7IsolateERNS1_5LocalIS3_EEEvEENS_10shared_ptrIT_EERKT0_DpOT1_, symObjAddr: 0xA676, symBinAddr: 0x45966, symSize: 0x5C }
  - { offsetInCU: 0xBCB3, offset: 0x33A037, size: 0x8, addend: 0x0, symName: __ZNSt3__115allocate_sharedB7v160006IN2v810PersistentINS1_6ObjectENS1_27NonCopyablePersistentTraitsIS3_EEEENS_9allocatorIS6_EEJRPNS1_7IsolateERNS1_5LocalIS3_EEEvEENS_10shared_ptrIT_EERKT0_DpOT1_, symObjAddr: 0xA676, symBinAddr: 0x45966, symSize: 0x5C }
  - { offsetInCU: 0xC720, offset: 0x33AAA4, size: 0x8, addend: 0x0, symName: __ZNSt3__116__pad_and_outputB7v160006IcNS_11char_traitsIcEEEENS_19ostreambuf_iteratorIT_T0_EES6_PKS4_S8_S8_RNS_8ios_baseES4_, symObjAddr: 0xA160, symBinAddr: 0x45750, symSize: 0x10C }
  - { offsetInCU: 0x166EA, offset: 0x344A6E, size: 0x8, addend: 0x0, symName: __ZN3tns12ClassBuilder17GetExtendFunctionEPN2v87IsolateEPKNS_13InterfaceMetaE, symObjAddr: 0x0, symBinAddr: 0x3D990, symSize: 0x102 }
  - { offsetInCU: 0x169D8, offset: 0x344D5C, size: 0x8, addend: 0x0, symName: __ZN3tns6Caches24registerCacheBoundObjectINS_12ClassBuilder9CacheItemEEEvPT_, symObjAddr: 0x102, symBinAddr: 0x3DA92, symSize: 0x12E }
  - { offsetInCU: 0x18423, offset: 0x3467A7, size: 0x8, addend: 0x0, symName: __ZN3tns12ClassBuilder14ExtendCallbackERKN2v820FunctionCallbackInfoINS1_5ValueEEE, symObjAddr: 0x230, symBinAddr: 0x3DBC0, symSize: 0xDF1 }
  - { offsetInCU: 0x1C65C, offset: 0x34A9E0, size: 0x8, addend: 0x0, symName: __ZN3tns12ClassBuilder20ExposeDynamicMembersEN2v85LocalINS1_7ContextEEEP10objc_classNS2_INS1_6ObjectEEES8_, symObjAddr: 0x10D6, symBinAddr: 0x3E9B6, symSize: 0x1BC }
  - { offsetInCU: 0x1CEC8, offset: 0x34B24C, size: 0x8, addend: 0x0, symName: __ZN3tns12ClassBuilder20ExposeDynamicMethodsEN2v85LocalINS1_7ContextEEEP10objc_classNS2_INS1_5ValueEEES8_NS2_INS1_6ObjectEEE, symObjAddr: 0x1292, symBinAddr: 0x3EB72, symSize: 0x142A }
  - { offsetInCU: 0x2352B, offset: 0x3518AF, size: 0x8, addend: 0x0, symName: __ZN10robin_hood6detail5TableILb1ELm80ENSt3__112basic_stringIcNS2_11char_traitsIcEENS2_9allocatorIcEEEENS2_10unique_ptrIN2v810PersistentINSA_6ObjectENSA_27NonCopyablePersistentTraitsISC_EEEENS2_14default_deleteISF_EEEENS_4hashIS8_vEENS2_8equal_toIS8_EEE7emplaceIJRS8_SI_EEENS2_4pairINSN_4IterILb0EEEbEEDpOT_, symObjAddr: 0x2A68, symBinAddr: 0x401F8, symSize: 0x168 }
  - { offsetInCU: 0x2496C, offset: 0x352CF0, size: 0x8, addend: 0x0, symName: __ZN3tns12ClassBuilder19GetTypeEncodingTypeEPN2v87IsolateENS1_5LocalINS1_5ValueEEE, symObjAddr: 0x3AA4, symBinAddr: 0x40FD4, symSize: 0xD9 }
  - { offsetInCU: 0x25050, offset: 0x3533D4, size: 0x8, addend: 0x0, symName: __ZN3tns12ClassBuilder15GetTypeEncodingEPKNS_12TypeEncodingEi, symObjAddr: 0x3900, symBinAddr: 0x40E30, symSize: 0x1A4 }
  - { offsetInCU: 0x256CF, offset: 0x353A53, size: 0x8, addend: 0x0, symName: __ZNSt3__16vectorIPKN3tns12ProtocolMetaENS_9allocatorIS4_EEEC2ERKS7_, symObjAddr: 0xA50C, symBinAddr: 0x4589C, symSize: 0x72 }
  - { offsetInCU: 0x259FD, offset: 0x353D81, size: 0x8, addend: 0x0, symName: __ZN3tns12ClassBuilder12VisitMethodsEP10objc_classNSt3__112basic_stringIcNS3_11char_traitsIcEENS3_9allocatorIcEEEEPKNS_13BaseClassMetaERNS3_6vectorIPKNS_10MethodMetaENS7_ISG_EEEENSD_IPKNS_12ProtocolMetaENS7_ISM_EEEE, symObjAddr: 0x49F4, symBinAddr: 0x41F24, symSize: 0x72A }
  - { offsetInCU: 0x28889, offset: 0x356C0D, size: 0x8, addend: 0x0, symName: __ZN3tns12ClassBuilder15VisitPropertiesENSt3__112basic_stringIcNS1_11char_traitsIcEENS1_9allocatorIcEEEEPKNS_13BaseClassMetaERNS1_6vectorIPKNS_12PropertyMetaENS5_ISE_EEEENSB_IPKNS_12ProtocolMetaENS5_ISK_EEEE, symObjAddr: 0x3B92, symBinAddr: 0x410C2, symSize: 0x710 }
  - { offsetInCU: 0x2B8CD, offset: 0x359C51, size: 0x8, addend: 0x0, symName: __ZN3tns12ClassBuilder16ExposePropertiesEPN2v87IsolateEP10objc_classNSt3__16vectorIPKNS_12PropertyMetaENS6_9allocatorISA_EEEENS1_5LocalINS1_6ObjectEEENSE_INS1_5ValueEEESI_, symObjAddr: 0x42A2, symBinAddr: 0x417D2, symSize: 0x752 }
  - { offsetInCU: 0x2DAE1, offset: 0x35BE65, size: 0x8, addend: 0x0, symName: __ZNKSt3__16vectorIPKN3tns12ProtocolMetaENS_9allocatorIS4_EEE20__throw_length_errorB7v160006Ev, symObjAddr: 0xA3CE, symBinAddr: 0x4585E, symSize: 0x10 }
  - { offsetInCU: 0x2DB0A, offset: 0x35BE8E, size: 0x8, addend: 0x0, symName: __ZNSt3__119__allocate_at_leastB7v160006INS_9allocatorIPKN3tns12ProtocolMetaEEEEENS_19__allocation_resultINS_16allocator_traitsIT_E7pointerEEERS9_m, symObjAddr: 0xA3DE, symBinAddr: 0x4586E, symSize: 0x2E }
  - { offsetInCU: 0x2DB64, offset: 0x35BEE8, size: 0x8, addend: 0x0, symName: __ZN3tns12ClassBuilder32ExtendedClassConstructorCallbackERKN2v820FunctionCallbackInfoINS1_5ValueEEE, symObjAddr: 0x26BC, symBinAddr: 0x3FF9C, symSize: 0x8C }
  - { offsetInCU: 0x2DDCB, offset: 0x35C14F, size: 0x8, addend: 0x0, symName: __ZN3tns12ClassBuilder27SuperAccessorGetterCallbackEN2v85LocalINS1_4NameEEERKNS1_20PropertyCallbackInfoINS1_5ValueEEE, symObjAddr: 0x2748, symBinAddr: 0x40028, symSize: 0x1C2 }
  - { offsetInCU: 0x2EA33, offset: 0x35CDB7, size: 0x8, addend: 0x0, symName: __ZN10robin_hood6detail5TableILb1ELm80ENSt3__112basic_stringIcNS2_11char_traitsIcEENS2_9allocatorIcEEEENS2_10unique_ptrIN2v810PersistentINSA_8FunctionENSA_27NonCopyablePersistentTraitsISC_EEEENS2_14default_deleteISF_EEEENS_4hashIS8_vEENS2_8equal_toIS8_EEE25insertKeyPrepareEmptySpotIRKS8_EENS2_4pairImNSN_14InsertionStateEEEOT_, symObjAddr: 0x6A60, symBinAddr: 0x43B70, symSize: 0x15C }
  - { offsetInCU: 0x2F158, offset: 0x35D4DC, size: 0x8, addend: 0x0, symName: __ZN10robin_hood6detail5TableILb1ELm80ENSt3__112basic_stringIcNS2_11char_traitsIcEENS2_9allocatorIcEEEENS2_10unique_ptrIN2v810PersistentINSA_6ObjectENSA_27NonCopyablePersistentTraitsISC_EEEENS2_14default_deleteISF_EEEENS_4hashIS8_vEENS2_8equal_toIS8_EEE25insertKeyPrepareEmptySpotIRKS8_EENS2_4pairImNSN_14InsertionStateEEEOT_, symObjAddr: 0x97C0, symBinAddr: 0x44DB0, symSize: 0x15C }
  - { offsetInCU: 0x2F2B3, offset: 0x35D637, size: 0x8, addend: 0x0, symName: __ZNK10robin_hood6detail5TableILb1ELm80ENSt3__112basic_stringIcNS2_11char_traitsIcEENS2_9allocatorIcEEEENS2_10unique_ptrIN2v810PersistentINSA_6ObjectENSA_27NonCopyablePersistentTraitsISC_EEEENS2_14default_deleteISF_EEEENS_4hashIS8_vEENS2_8equal_toIS8_EEE18throwOverflowErrorEv, symObjAddr: 0x991C, symBinAddr: 0x44F0C, symSize: 0x4C }
  - { offsetInCU: 0x2F2E8, offset: 0x35D66C, size: 0x8, addend: 0x0, symName: __ZN10robin_hood6detail5TableILb1ELm80ENSt3__112basic_stringIcNS2_11char_traitsIcEENS2_9allocatorIcEEEENS2_10unique_ptrIN2v810PersistentINSA_6ObjectENSA_27NonCopyablePersistentTraitsISC_EEEENS2_14default_deleteISF_EEEENS_4hashIS8_vEENS2_8equal_toIS8_EEE8DataNodeISN_Lb1EED1Ev, symObjAddr: 0x9968, symBinAddr: 0x44F58, symSize: 0x3A }
  - { offsetInCU: 0x2F556, offset: 0x35D8DA, size: 0x8, addend: 0x0, symName: __ZN3tns12ClassBuilder37RegisterBaseTypeScriptExtendsFunctionEN2v85LocalINS1_7ContextEEE, symObjAddr: 0x2BDC, symBinAddr: 0x4036C, symSize: 0x24E }
  - { offsetInCU: 0x30363, offset: 0x35E6E7, size: 0x8, addend: 0x0, symName: __ZN3tns12ClassBuilder39RegisterNativeTypeScriptExtendsFunctionEN2v85LocalINS1_7ContextEEE, symObjAddr: 0x2E2A, symBinAddr: 0x405BA, symSize: 0x13C }
  - { offsetInCU: 0x30960, offset: 0x35ECE4, size: 0x8, addend: 0x0, symName: __ZN3tns12ClassBuilder15GetTypeEncodingEPKNS_12TypeEncodingE, symObjAddr: 0x2F66, symBinAddr: 0x406F6, symSize: 0x72E }
  - { offsetInCU: 0x3295F, offset: 0x360CE3, size: 0x8, addend: 0x0, symName: ____ZN3tns12ClassBuilder20ExposeDynamicMethodsEN2v85LocalINS1_7ContextEEEP10objc_classNS2_INS1_5ValueEEES8_NS2_INS1_6ObjectEEE_block_invoke, symObjAddr: 0x3B7D, symBinAddr: 0x410AD, symSize: 0x15 }
  - { offsetInCU: 0x331C0, offset: 0x361544, size: 0x8, addend: 0x0, symName: __ZNKSt3__112basic_stringIcNS_11char_traitsIcEENS_9allocatorIcEEE20__throw_out_of_rangeB7v160006Ev, symObjAddr: 0xA5B8, symBinAddr: 0x45948, symSize: 0x10 }
  - { offsetInCU: 0x334F3, offset: 0x361877, size: 0x8, addend: 0x0, symName: __ZNSt3__110shared_ptrIN2v810PersistentINS1_8FunctionENS1_27NonCopyablePersistentTraitsIS3_EEEEED2B7v160006Ev, symObjAddr: 0x9348, symBinAddr: 0x44D58, symSize: 0x40 }
  - { offsetInCU: 0x340C6, offset: 0x36244A, size: 0x8, addend: 0x0, symName: __ZN3tns12ClassBuilder22FindNotOverridenMethodEP10objc_classP13objc_selector, symObjAddr: 0x5360, symBinAddr: 0x42650, symSize: 0x40 }
  - { offsetInCU: 0x343F6, offset: 0x36277A, size: 0x8, addend: 0x0, symName: __ZNSt3__120__shared_ptr_emplaceIN3tns6CachesENS_9allocatorIS2_EEE16__on_zero_sharedEv, symObjAddr: 0x54C0, symBinAddr: 0x426F0, symSize: 0xE }
  - { offsetInCU: 0x3467E, offset: 0x362A02, size: 0x8, addend: 0x0, symName: __ZN3tns16ObjCClassWrapperD0Ev, symObjAddr: 0x55D0, symBinAddr: 0x42700, symSize: 0xA }
  - { offsetInCU: 0x349A7, offset: 0x362D2B, size: 0x8, addend: 0x0, symName: '__ZZN3tns12ClassBuilder39RegisterNativeTypeScriptExtendsFunctionEN2v85LocalINS1_7ContextEEEEN3$_08__invokeERKNS1_20FunctionCallbackInfoINS1_5ValueEEE', symObjAddr: 0x55E6, symBinAddr: 0x42716, symSize: 0xB3C }
  - { offsetInCU: 0x376AE, offset: 0x365A32, size: 0x8, addend: 0x0, symName: __ZN10robin_hood6detail5TableILb1ELm80ENSt3__112basic_stringIcNS2_11char_traitsIcEENS2_9allocatorIcEEEENS2_10unique_ptrIN2v810PersistentINSA_8FunctionENSA_27NonCopyablePersistentTraitsISC_EEEENS2_14default_deleteISF_EEEENS_4hashIS8_vEENS2_8equal_toIS8_EEE7emplaceIJRS8_RPSF_EEENS2_4pairINSN_4IterILb0EEEbEEDpOT_, symObjAddr: 0x614C, symBinAddr: 0x4327C, symSize: 0x157 }
  - { offsetInCU: 0x37F50, offset: 0x3662D4, size: 0x8, addend: 0x0, symName: ___Block_byref_object_copy_, symObjAddr: 0x6122, symBinAddr: 0x43252, symSize: 0x17 }
  - { offsetInCU: 0x37F79, offset: 0x3662FD, size: 0x8, addend: 0x0, symName: ___Block_byref_object_dispose_, symObjAddr: 0x6139, symBinAddr: 0x43269, symSize: 0x13 }
  - { offsetInCU: 0x38195, offset: 0x366519, size: 0x8, addend: 0x0, symName: '____ZZN3tns12ClassBuilder39RegisterNativeTypeScriptExtendsFunctionEN2v85LocalINS1_7ContextEEEENK3$_0clERKNS1_20FunctionCallbackInfoINS1_5ValueEEE_block_invoke', symObjAddr: 0x62A3, symBinAddr: 0x433D3, symSize: 0x3B9 }
  - { offsetInCU: 0x3926A, offset: 0x3675EE, size: 0x8, addend: 0x0, symName: '____ZZN3tns12ClassBuilder39RegisterNativeTypeScriptExtendsFunctionEN2v85LocalINS1_7ContextEEEENK3$_0clERKNS1_20FunctionCallbackInfoINS1_5ValueEEE_block_invoke.53', symObjAddr: 0x6686, symBinAddr: 0x43796, symSize: 0x1EA }
  - { offsetInCU: 0x39949, offset: 0x367CCD, size: 0x8, addend: 0x0, symName: '____ZZN3tns12ClassBuilder39RegisterNativeTypeScriptExtendsFunctionEN2v85LocalINS1_7ContextEEEENK3$_0clERKNS1_20FunctionCallbackInfoINS1_5ValueEEE_block_invoke_2', symObjAddr: 0x6870, symBinAddr: 0x43980, symSize: 0x1F0 }
  - { offsetInCU: 0x3A181, offset: 0x368505, size: 0x8, addend: 0x0, symName: __ZN10robin_hood6detail5TableILb1ELm80ENSt3__112basic_stringIcNS2_11char_traitsIcEENS2_9allocatorIcEEEENS2_10unique_ptrIN2v810PersistentINSA_8FunctionENSA_27NonCopyablePersistentTraitsISC_EEEENS2_14default_deleteISF_EEEENS_4hashIS8_vEENS2_8equal_toIS8_EEE13increase_sizeEv, symObjAddr: 0x6CDC, symBinAddr: 0x43CCC, symSize: 0x108 }
  - { offsetInCU: 0x3A247, offset: 0x3685CB, size: 0x8, addend: 0x0, symName: __ZN10robin_hood6detail5TableILb1ELm80ENSt3__112basic_stringIcNS2_11char_traitsIcEENS2_9allocatorIcEEEENS2_10unique_ptrIN2v810PersistentINSA_8FunctionENSA_27NonCopyablePersistentTraitsISC_EEEENS2_14default_deleteISF_EEEENS_4hashIS8_vEENS2_8equal_toIS8_EEE7shiftUpEmm, symObjAddr: 0x6DE4, symBinAddr: 0x43DD4, symSize: 0x120 }
  - { offsetInCU: 0x3A5C8, offset: 0x36894C, size: 0x8, addend: 0x0, symName: __ZN10robin_hood6detail5TableILb1ELm80ENSt3__112basic_stringIcNS2_11char_traitsIcEENS2_9allocatorIcEEEENS2_10unique_ptrIN2v810PersistentINSA_8FunctionENSA_27NonCopyablePersistentTraitsISC_EEEENS2_14default_deleteISF_EEEENS_4hashIS8_vEENS2_8equal_toIS8_EEE17try_increase_infoEv, symObjAddr: 0x7108, symBinAddr: 0x43FE8, symSize: 0xE8 }
  - { offsetInCU: 0x3A6C7, offset: 0x368A4B, size: 0x8, addend: 0x0, symName: __ZN10robin_hood6detail5TableILb1ELm80ENSt3__112basic_stringIcNS2_11char_traitsIcEENS2_9allocatorIcEEEENS2_10unique_ptrIN2v810PersistentINSA_8FunctionENSA_27NonCopyablePersistentTraitsISC_EEEENS2_14default_deleteISF_EEEENS_4hashIS8_vEENS2_8equal_toIS8_EEE8initDataEm, symObjAddr: 0x7020, symBinAddr: 0x43F00, symSize: 0xE8 }
  - { offsetInCU: 0x3A7B1, offset: 0x368B35, size: 0x8, addend: 0x0, symName: __ZN10robin_hood6detail5TableILb1ELm80ENSt3__112basic_stringIcNS2_11char_traitsIcEENS2_9allocatorIcEEEENS2_10unique_ptrIN2v810PersistentINSA_8FunctionENSA_27NonCopyablePersistentTraitsISC_EEEENS2_14default_deleteISF_EEEENS_4hashIS8_vEENS2_8equal_toIS8_EEE17try_increase_infoEv, symObjAddr: 0x7108, symBinAddr: 0x43FE8, symSize: 0xE8 }
  - { offsetInCU: 0x3A7BD, offset: 0x368B41, size: 0x8, addend: 0x0, symName: __ZN10robin_hood6detail5TableILb1ELm80ENSt3__112basic_stringIcNS2_11char_traitsIcEENS2_9allocatorIcEEEENS2_10unique_ptrIN2v810PersistentINSA_8FunctionENSA_27NonCopyablePersistentTraitsISC_EEEENS2_14default_deleteISF_EEEENS_4hashIS8_vEENS2_8equal_toIS8_EEE16rehashPowerOfTwoEmb, symObjAddr: 0x71F0, symBinAddr: 0x440D0, symSize: 0x117 }
  - { offsetInCU: 0x3AC0F, offset: 0x368F93, size: 0x8, addend: 0x0, symName: __ZN10robin_hood6detail5TableILb1ELm80ENSt3__112basic_stringIcNS2_11char_traitsIcEENS2_9allocatorIcEEEENS2_10unique_ptrIN2v810PersistentINSA_8FunctionENSA_27NonCopyablePersistentTraitsISC_EEEENS2_14default_deleteISF_EEEENS_4hashIS8_vEENS2_8equal_toIS8_EEE11insert_moveEONSN_8DataNodeISN_Lb1EEE, symObjAddr: 0x7338, symBinAddr: 0x441E8, symSize: 0x15E }
  - { offsetInCU: 0x3B49F, offset: 0x369823, size: 0x8, addend: 0x0, symName: __ZNSt3__115basic_stringbufIcNS_11char_traitsIcEENS_9allocatorIcEEE8overflowEi, symObjAddr: 0x7A90, symBinAddr: 0x44350, symSize: 0x14E }
  - { offsetInCU: 0x3B992, offset: 0x369D16, size: 0x8, addend: 0x0, symName: __ZN10robin_hood6detail5TableILb1ELm80EPKN3tns10MethodMetaEP13objc_selectorNS_4hashIS5_vEENSt3__18equal_toIS5_EEED1Ev, symObjAddr: 0x7CC0, symBinAddr: 0x444A0, symSize: 0x28 }
  - { offsetInCU: 0x3CF8D, offset: 0x36B311, size: 0x8, addend: 0x0, symName: '__ZZN3tns12ClassBuilder16ExposePropertiesEPN2v87IsolateEP10objc_classNSt3__16vectorIPKNS_12PropertyMetaENS6_9allocatorISA_EEEENS1_5LocalINS1_6ObjectEEENSE_INS1_5ValueEEESI_EN3$_18__invokeEP7ffi_cifPvPSM_SM_', symObjAddr: 0x8A22, symBinAddr: 0x444D2, symSize: 0x3BA }
  - { offsetInCU: 0x3E2CC, offset: 0x36C650, size: 0x8, addend: 0x0, symName: '__ZZN3tns12ClassBuilder16ExposePropertiesEPN2v87IsolateEP10objc_classNSt3__16vectorIPKNS_12PropertyMetaENS6_9allocatorISA_EEEENS1_5LocalINS1_6ObjectEEENSE_INS1_5ValueEEESI_EN3$_28__invokeEP7ffi_cifPvPSM_SM_', symObjAddr: 0x8DDC, symBinAddr: 0x4488C, symSize: 0x482 }
  - { offsetInCU: 0x3F523, offset: 0x36D8A7, size: 0x8, addend: 0x0, symName: __ZNSt3__16vectorIPKN3tns12PropertyMetaENS_9allocatorIS4_EEE11__vallocateB7v160006Em, symObjAddr: 0x92D0, symBinAddr: 0x44D10, symSize: 0x3A }
  - { offsetInCU: 0x3F9BF, offset: 0x36DD43, size: 0x8, addend: 0x0, symName: __ZZN3tns6Caches11unique_voidINS_12ClassBuilder9CacheItemEEENSt3__110unique_ptrIvPFvPKvEEEPT_ENUlS7_E_8__invokeES7_, symObjAddr: 0x964A, symBinAddr: 0x44D9A, symSize: 0x12 }
  - { offsetInCU: 0x3FAB4, offset: 0x36DE38, size: 0x8, addend: 0x0, symName: __ZN10robin_hood6detail5TableILb1ELm80ENSt3__112basic_stringIcNS2_11char_traitsIcEENS2_9allocatorIcEEEENS2_10unique_ptrIN2v810PersistentINSA_6ObjectENSA_27NonCopyablePersistentTraitsISC_EEEENS2_14default_deleteISF_EEEENS_4hashIS8_vEENS2_8equal_toIS8_EEE13increase_sizeEv, symObjAddr: 0x99A2, symBinAddr: 0x44F92, symSize: 0x108 }
  - { offsetInCU: 0x3FB7A, offset: 0x36DEFE, size: 0x8, addend: 0x0, symName: __ZN10robin_hood6detail5TableILb1ELm80ENSt3__112basic_stringIcNS2_11char_traitsIcEENS2_9allocatorIcEEEENS2_10unique_ptrIN2v810PersistentINSA_6ObjectENSA_27NonCopyablePersistentTraitsISC_EEEENS2_14default_deleteISF_EEEENS_4hashIS8_vEENS2_8equal_toIS8_EEE7shiftUpEmm, symObjAddr: 0x9AAA, symBinAddr: 0x4509A, symSize: 0x120 }
  - { offsetInCU: 0x3FEC7, offset: 0x36E24B, size: 0x8, addend: 0x0, symName: __ZN10robin_hood6detail5TableILb1ELm80ENSt3__112basic_stringIcNS2_11char_traitsIcEENS2_9allocatorIcEEEENS2_10unique_ptrIN2v810PersistentINSA_6ObjectENSA_27NonCopyablePersistentTraitsISC_EEEENS2_14default_deleteISF_EEEENS_4hashIS8_vEENS2_8equal_toIS8_EEE17try_increase_infoEv, symObjAddr: 0x9CB2, symBinAddr: 0x452A2, symSize: 0xE8 }
  - { offsetInCU: 0x3FFC6, offset: 0x36E34A, size: 0x8, addend: 0x0, symName: __ZN10robin_hood6detail5TableILb1ELm80ENSt3__112basic_stringIcNS2_11char_traitsIcEENS2_9allocatorIcEEEENS2_10unique_ptrIN2v810PersistentINSA_6ObjectENSA_27NonCopyablePersistentTraitsISC_EEEENS2_14default_deleteISF_EEEENS_4hashIS8_vEENS2_8equal_toIS8_EEE8initDataEm, symObjAddr: 0x9BCA, symBinAddr: 0x451BA, symSize: 0xE8 }
  - { offsetInCU: 0x400B0, offset: 0x36E434, size: 0x8, addend: 0x0, symName: __ZN10robin_hood6detail5TableILb1ELm80ENSt3__112basic_stringIcNS2_11char_traitsIcEENS2_9allocatorIcEEEENS2_10unique_ptrIN2v810PersistentINSA_6ObjectENSA_27NonCopyablePersistentTraitsISC_EEEENS2_14default_deleteISF_EEEENS_4hashIS8_vEENS2_8equal_toIS8_EEE17try_increase_infoEv, symObjAddr: 0x9CB2, symBinAddr: 0x452A2, symSize: 0xE8 }
  - { offsetInCU: 0x400BC, offset: 0x36E440, size: 0x8, addend: 0x0, symName: __ZN10robin_hood6detail5TableILb1ELm80ENSt3__112basic_stringIcNS2_11char_traitsIcEENS2_9allocatorIcEEEENS2_10unique_ptrIN2v810PersistentINSA_6ObjectENSA_27NonCopyablePersistentTraitsISC_EEEENS2_14default_deleteISF_EEEENS_4hashIS8_vEENS2_8equal_toIS8_EEE16rehashPowerOfTwoEmb, symObjAddr: 0x9D9A, symBinAddr: 0x4538A, symSize: 0x118 }
  - { offsetInCU: 0x40504, offset: 0x36E888, size: 0x8, addend: 0x0, symName: __ZN10robin_hood6detail5TableILb1ELm80ENSt3__112basic_stringIcNS2_11char_traitsIcEENS2_9allocatorIcEEEENS2_10unique_ptrIN2v810PersistentINSA_6ObjectENSA_27NonCopyablePersistentTraitsISC_EEEENS2_14default_deleteISF_EEEENS_4hashIS8_vEENS2_8equal_toIS8_EEE11insert_moveEONSN_8DataNodeISN_Lb1EEE, symObjAddr: 0x9EB2, symBinAddr: 0x454A2, symSize: 0x15E }
  - { offsetInCU: 0x416C5, offset: 0x36FA49, size: 0x8, addend: 0x0, symName: __ZNSt3__16vectorIPKN3tns12ProtocolMetaENS_9allocatorIS4_EEE11__vallocateB7v160006Em, symObjAddr: 0xA57E, symBinAddr: 0x4590E, symSize: 0x3A }
  - { offsetInCU: 0x419CF, offset: 0x36FD53, size: 0x8, addend: 0x0, symName: __ZNSt3__120__shared_ptr_emplaceIN2v810PersistentINS1_6ObjectENS1_27NonCopyablePersistentTraitsIS3_EEEENS_9allocatorIS6_EEEC2B7v160006IJRPNS1_7IsolateERNS1_5LocalIS3_EEEEES8_DpOT_, symObjAddr: 0xA6D2, symBinAddr: 0x459C2, symSize: 0x52 }
  - { offsetInCU: 0x41B5A, offset: 0x36FEDE, size: 0x8, addend: 0x0, symName: __ZNSt3__120__shared_ptr_emplaceIN2v810PersistentINS1_6ObjectENS1_27NonCopyablePersistentTraitsIS3_EEEENS_9allocatorIS6_EEED1Ev, symObjAddr: 0xA724, symBinAddr: 0x45A14, symSize: 0x18 }
  - { offsetInCU: 0x41BB3, offset: 0x36FF37, size: 0x8, addend: 0x0, symName: __ZNSt3__120__shared_ptr_emplaceIN2v810PersistentINS1_6ObjectENS1_27NonCopyablePersistentTraitsIS3_EEEENS_9allocatorIS6_EEED0Ev, symObjAddr: 0xA73C, symBinAddr: 0x45A2C, symSize: 0x2A }
  - { offsetInCU: 0x41C1D, offset: 0x36FFA1, size: 0x8, addend: 0x0, symName: __ZNSt3__120__shared_ptr_emplaceIN2v810PersistentINS1_6ObjectENS1_27NonCopyablePersistentTraitsIS3_EEEENS_9allocatorIS6_EEE21__on_zero_shared_weakEv, symObjAddr: 0xA76C, symBinAddr: 0x45A5C, symSize: 0xA }
  - { offsetInCU: 0x42022, offset: 0x3703A6, size: 0x8, addend: 0x0, symName: __ZNSt3__120__shared_ptr_emplaceIN2v810PersistentINS1_8FunctionENS1_27NonCopyablePersistentTraitsIS3_EEEENS_9allocatorIS6_EEED1Ev, symObjAddr: 0xA824, symBinAddr: 0x45A74, symSize: 0x18 }
  - { offsetInCU: 0x4207B, offset: 0x3703FF, size: 0x8, addend: 0x0, symName: __ZNSt3__120__shared_ptr_emplaceIN2v810PersistentINS1_8FunctionENS1_27NonCopyablePersistentTraitsIS3_EEEENS_9allocatorIS6_EEED0Ev, symObjAddr: 0xA83C, symBinAddr: 0x45A8C, symSize: 0x2A }
  - { offsetInCU: 0x420E5, offset: 0x370469, size: 0x8, addend: 0x0, symName: __ZNSt3__120__shared_ptr_emplaceIN2v810PersistentINS1_8FunctionENS1_27NonCopyablePersistentTraitsIS3_EEEENS_9allocatorIS6_EEE21__on_zero_shared_weakEv, symObjAddr: 0xA86C, symBinAddr: 0x45ABC, symSize: 0xA }
  - { offsetInCU: 0x40, offset: 0x370886, size: 0x8, addend: 0x0, symName: _RuntimeConfig, symObjAddr: 0x248D0, symBinAddr: 0x16C0D98, symSize: 0x0 }
  - { offsetInCU: 0x492A, offset: 0x375170, size: 0x8, addend: 0x0, symName: __ZN13RuntimeConfigD1Ev, symObjAddr: 0x0, symBinAddr: 0x45AC6, symSize: 0x33 }
  - { offsetInCU: 0x53, offset: 0x37543F, size: 0x8, addend: 0x0, symName: __ZN3tns13WorkerWrapper7nextId_E, symObjAddr: 0x20ECD8, symBinAddr: 0x16C0DD8, symSize: 0x0 }
  - { offsetInCU: 0x40A, offset: 0x3757F6, size: 0x8, addend: 0x0, symName: __ZN3tnsL8workers_E, symObjAddr: 0x20ECD0, symBinAddr: 0x16AA200, symSize: 0x0 }
  - { offsetInCU: 0x98F, offset: 0x375D7B, size: 0x8, addend: 0x0, symName: __ZN3tns16staticInitMethodEv, symObjAddr: 0x0, symBinAddr: 0x45B30, symSize: 0x46 }
  - { offsetInCU: 0xF835, offset: 0x384C21, size: 0x8, addend: 0x0, symName: __ZN3tns13WorkerWrapper37PassUncaughtExceptionFromWorkerToMainEN2v85LocalINS1_7ContextEEERNS1_8TryCatchEb, symObjAddr: 0xA78, symBinAddr: 0x46558, symSize: 0x45B }
  - { offsetInCU: 0x13115, offset: 0x388501, size: 0x8, addend: 0x0, symName: __ZN3tns13WorkerWrapperC2EPN2v87IsolateENSt3__18functionIFvS3_NS1_5LocalINS1_6ObjectEEENS4_12basic_stringIcNS4_11char_traitsIcEENS4_9allocatorIcEEEEEEE, symObjAddr: 0x46, symBinAddr: 0x45B76, symSize: 0xAA }
  - { offsetInCU: 0x1329C, offset: 0x388688, size: 0x8, addend: 0x0, symName: __ZNSt3__110__function12__value_funcIFvPN2v87IsolateENS2_5LocalINS2_6ObjectEEENS_12basic_stringIcNS_11char_traitsIcEENS_9allocatorIcEEEEEEC2B7v160006ERKSF_, symObjAddr: 0x19B4, symBinAddr: 0x46F84, symSize: 0x4C }
  - { offsetInCU: 0x13320, offset: 0x38870C, size: 0x8, addend: 0x0, symName: __ZN3tns13WorkerWrapperC1EPN2v87IsolateENSt3__18functionIFvS3_NS1_5LocalINS1_6ObjectEEENS4_12basic_stringIcNS4_11char_traitsIcEENS4_9allocatorIcEEEEEEE, symObjAddr: 0xF0, symBinAddr: 0x45C20, symSize: 0xAA }
  - { offsetInCU: 0x134F1, offset: 0x3888DD, size: 0x8, addend: 0x0, symName: __ZN3tns13WorkerWrapper4TypeEv, symObjAddr: 0x19A, symBinAddr: 0x45CCA, symSize: 0xC }
  - { offsetInCU: 0x13515, offset: 0x388901, size: 0x8, addend: 0x0, symName: __ZN3tns13WorkerWrapper2IdEv, symObjAddr: 0x1A6, symBinAddr: 0x45CD6, symSize: 0xC }
  - { offsetInCU: 0x1353C, offset: 0x388928, size: 0x8, addend: 0x0, symName: __ZN3tns13WorkerWrapper9IsRunningEv, symObjAddr: 0x1B2, symBinAddr: 0x45CE2, symSize: 0xA }
  - { offsetInCU: 0x13563, offset: 0x38894F, size: 0x8, addend: 0x0, symName: __ZN3tns13WorkerWrapper9IsClosingEv, symObjAddr: 0x1BC, symBinAddr: 0x45CEC, symSize: 0xA }
  - { offsetInCU: 0x1358A, offset: 0x388976, size: 0x8, addend: 0x0, symName: __ZN3tns13WorkerWrapper8WorkerIdEv, symObjAddr: 0x1C6, symBinAddr: 0x45CF6, symSize: 0xC }
  - { offsetInCU: 0x136BB, offset: 0x388AA7, size: 0x8, addend: 0x0, symName: __ZN3tns13WorkerWrapper11PostMessageENSt3__112basic_stringIcNS1_11char_traitsIcEENS1_9allocatorIcEEEE, symObjAddr: 0x1D2, symBinAddr: 0x45D02, symSize: 0x62 }
  - { offsetInCU: 0x13AD4, offset: 0x388EC0, size: 0x8, addend: 0x0, symName: __ZN3tns13WorkerWrapper5StartENSt3__110shared_ptrIN2v810PersistentINS3_5ValueENS3_27NonCopyablePersistentTraitsIS5_EEEEEENS1_8functionIFPNS3_7IsolateEvEEE, symObjAddr: 0x234, symBinAddr: 0x45D64, symSize: 0x114 }
  - { offsetInCU: 0x13E10, offset: 0x3891FC, size: 0x8, addend: 0x0, symName: __ZNSt3__110__function12__value_funcIFPN2v87IsolateEvEEC2B7v160006ERKS6_, symObjAddr: 0x1A00, symBinAddr: 0x46FD0, symSize: 0x4C }
  - { offsetInCU: 0x13F63, offset: 0x38934F, size: 0x8, addend: 0x0, symName: ____ZN3tns13WorkerWrapper5StartENSt3__110shared_ptrIN2v810PersistentINS3_5ValueENS3_27NonCopyablePersistentTraitsIS5_EEEEEENS1_8functionIFPNS3_7IsolateEvEEE_block_invoke, symObjAddr: 0x39E, symBinAddr: 0x45E7E, symSize: 0xAC }
  - { offsetInCU: 0x1414C, offset: 0x389538, size: 0x8, addend: 0x0, symName: __ZN3tns13WorkerWrapper16BackgroundLooperENSt3__18functionIFPN2v87IsolateEvEEE, symObjAddr: 0x44A, symBinAddr: 0x45F2A, symSize: 0x85 }
  - { offsetInCU: 0x142E7, offset: 0x3896D3, size: 0x8, addend: 0x0, symName: ___copy_helper_block_e16_32c40_ZTSNSt3__18functionIFPN2v87IsolateEvEEE, symObjAddr: 0x4CF, symBinAddr: 0x45FAF, symSize: 0x12 }
  - { offsetInCU: 0x14362, offset: 0x38974E, size: 0x8, addend: 0x0, symName: __ZN3tns13WorkerWrapper17DrainPendingTasksEv, symObjAddr: 0x510, symBinAddr: 0x45FF0, symSize: 0x28E }
  - { offsetInCU: 0x14EC1, offset: 0x38A2AD, size: 0x8, addend: 0x0, symName: ___copy_helper_block_e16_32c40_ZTSNSt3__18functionIFPN2v87IsolateEvEEE, symObjAddr: 0x4CF, symBinAddr: 0x45FAF, symSize: 0x12 }
  - { offsetInCU: 0x14F65, offset: 0x38A351, size: 0x8, addend: 0x0, symName: ___destroy_helper_block_e16_32c40_ZTSNSt3__18functionIFPN2v87IsolateEvEEE, symObjAddr: 0x4E1, symBinAddr: 0x45FC1, symSize: 0x2F }
  - { offsetInCU: 0x15240, offset: 0x38A62C, size: 0x8, addend: 0x0, symName: __ZNKSt3__18functionIFvPN2v87IsolateENS1_5LocalINS1_6ObjectEEENS_12basic_stringIcNS_11char_traitsIcEENS_9allocatorIcEEEEEEclES3_S6_SC_, symObjAddr: 0x79E, symBinAddr: 0x4627E, symSize: 0x32 }
  - { offsetInCU: 0x152D4, offset: 0x38A6C0, size: 0x8, addend: 0x0, symName: __ZN3tns13WorkerWrapper19CallOnErrorHandlersERN2v88TryCatchE, symObjAddr: 0x7D0, symBinAddr: 0x462B0, symSize: 0x26A }
  - { offsetInCU: 0x152E0, offset: 0x38A6CC, size: 0x8, addend: 0x0, symName: __ZN3tns13WorkerWrapper19CallOnErrorHandlersERN2v88TryCatchE, symObjAddr: 0x7D0, symBinAddr: 0x462B0, symSize: 0x26A }
  - { offsetInCU: 0x15F6D, offset: 0x38B359, size: 0x8, addend: 0x0, symName: '__ZNSt3__110__function6__funcIZN3tns13WorkerWrapper37PassUncaughtExceptionFromWorkerToMainEN2v85LocalINS4_7ContextEEERNS4_8TryCatchEbE3$_1NS_9allocatorISA_EEFvvEED1Ev', symObjAddr: 0x1B1E, symBinAddr: 0x4701E, symSize: 0x4E }
  - { offsetInCU: 0x15F7F, offset: 0x38B36B, size: 0x8, addend: 0x0, symName: __ZN3tns13WorkerWrapper5CloseEv, symObjAddr: 0xA3A, symBinAddr: 0x4651A, symSize: 0xA }
  - { offsetInCU: 0x15FDF, offset: 0x38B3CB, size: 0x8, addend: 0x0, symName: __ZN3tns13WorkerWrapper9TerminateEv, symObjAddr: 0xA44, symBinAddr: 0x46524, symSize: 0x34 }
  - { offsetInCU: 0x16786, offset: 0x38BB72, size: 0x8, addend: 0x0, symName: '__ZZN3tns13WorkerWrapper37PassUncaughtExceptionFromWorkerToMainEN2v85LocalINS1_7ContextEEERNS1_8TryCatchEbEN3$_1D1Ev', symObjAddr: 0xF88, symBinAddr: 0x469B8, symSize: 0x44 }
  - { offsetInCU: 0x16E46, offset: 0x38C232, size: 0x8, addend: 0x0, symName: __ZN3tns13WorkerWrapper20ConstructErrorObjectEN2v85LocalINS1_7ContextEEENSt3__112basic_stringIcNS5_11char_traitsIcEENS5_9allocatorIcEEEESB_SB_i, symObjAddr: 0xFCC, symBinAddr: 0x469FC, symSize: 0x44A }
  - { offsetInCU: 0x182F9, offset: 0x38D6E5, size: 0x8, addend: 0x0, symName: __ZN3tns13WorkerWrapperD1Ev, symObjAddr: 0x1416, symBinAddr: 0x46E46, symSize: 0x70 }
  - { offsetInCU: 0x18811, offset: 0x38DBFD, size: 0x8, addend: 0x0, symName: __ZN3tns13WorkerWrapperD0Ev, symObjAddr: 0x1486, symBinAddr: 0x46EB6, symSize: 0x7A }
  - { offsetInCU: 0x18CBE, offset: 0x38E0AA, size: 0x8, addend: 0x0, symName: '__ZZN3tns13WorkerWrapper16BackgroundLooperENSt3__18functionIFPN2v87IsolateEvEEEEN3$_08__invokeEPv', symObjAddr: 0x1612, symBinAddr: 0x46F32, symSize: 0xA }
  - { offsetInCU: 0x19469, offset: 0x38E855, size: 0x8, addend: 0x0, symName: __ZNSt3__16vectorINS_12basic_stringIcNS_11char_traitsIcEENS_9allocatorIcEEEENS4_IS6_EEE22__base_destruct_at_endB7v160006EPS6_, symObjAddr: 0x1930, symBinAddr: 0x46F40, symSize: 0x44 }
  - { offsetInCU: 0x1970E, offset: 0x38EAFA, size: 0x8, addend: 0x0, symName: '__ZNSt3__110__function6__funcIZN3tns13WorkerWrapper37PassUncaughtExceptionFromWorkerToMainEN2v85LocalINS4_7ContextEEERNS4_8TryCatchEbE3$_1NS_9allocatorISA_EEFvvEED1Ev', symObjAddr: 0x1B1E, symBinAddr: 0x4701E, symSize: 0x4E }
  - { offsetInCU: 0x19B5D, offset: 0x38EF49, size: 0x8, addend: 0x0, symName: '__ZNSt3__110__function6__funcIZN3tns13WorkerWrapper37PassUncaughtExceptionFromWorkerToMainEN2v85LocalINS4_7ContextEEERNS4_8TryCatchEbE3$_1NS_9allocatorISA_EEFvvEED0Ev', symObjAddr: 0x1B6C, symBinAddr: 0x4706C, symSize: 0x4E }
  - { offsetInCU: 0x1A266, offset: 0x38F652, size: 0x8, addend: 0x0, symName: '__ZNKSt3__110__function6__funcIZN3tns13WorkerWrapper37PassUncaughtExceptionFromWorkerToMainEN2v85LocalINS4_7ContextEEERNS4_8TryCatchEbE3$_1NS_9allocatorISA_EEFvvEE7__cloneEv', symObjAddr: 0x1BBA, symBinAddr: 0x470BA, symSize: 0x4A }
  - { offsetInCU: 0x1A509, offset: 0x38F8F5, size: 0x8, addend: 0x0, symName: '__ZNSt3__122__compressed_pair_elemIZN3tns13WorkerWrapper37PassUncaughtExceptionFromWorkerToMainEN2v85LocalINS3_7ContextEEERNS3_8TryCatchEbE3$_1Li0ELb0EEC2B7v160006IJRKS9_EJLm0EEEENS_21piecewise_construct_tENS_5tupleIJDpT_EEENS_15__tuple_indicesIJXspT0_EEEE', symObjAddr: 0x209C, symBinAddr: 0x4759C, symSize: 0x84 }
  - { offsetInCU: 0x1A966, offset: 0x38FD52, size: 0x8, addend: 0x0, symName: '__ZNKSt3__110__function6__funcIZN3tns13WorkerWrapper37PassUncaughtExceptionFromWorkerToMainEN2v85LocalINS4_7ContextEEERNS4_8TryCatchEbE3$_1NS_9allocatorISA_EEFvvEE7__cloneEPNS0_6__baseISD_EE', symObjAddr: 0x1C04, symBinAddr: 0x47104, symSize: 0x20 }
  - { offsetInCU: 0x1AAB6, offset: 0x38FEA2, size: 0x8, addend: 0x0, symName: '__ZNSt3__110__function6__funcIZN3tns13WorkerWrapper37PassUncaughtExceptionFromWorkerToMainEN2v85LocalINS4_7ContextEEERNS4_8TryCatchEbE3$_1NS_9allocatorISA_EEFvvEE7destroyEv', symObjAddr: 0x1C24, symBinAddr: 0x47124, symSize: 0xE }
  - { offsetInCU: 0x1AAED, offset: 0x38FED9, size: 0x8, addend: 0x0, symName: '__ZNSt3__110__function12__alloc_funcIZN3tns13WorkerWrapper37PassUncaughtExceptionFromWorkerToMainEN2v85LocalINS4_7ContextEEERNS4_8TryCatchEbE3$_1NS_9allocatorISA_EEFvvEE7destroyB7v160006Ev', symObjAddr: 0x2120, symBinAddr: 0x47620, symSize: 0x43 }
  - { offsetInCU: 0x1AED8, offset: 0x3902C4, size: 0x8, addend: 0x0, symName: '__ZNSt3__110__function6__funcIZN3tns13WorkerWrapper37PassUncaughtExceptionFromWorkerToMainEN2v85LocalINS4_7ContextEEERNS4_8TryCatchEbE3$_1NS_9allocatorISA_EEFvvEE18destroy_deallocateEv', symObjAddr: 0x1C32, symBinAddr: 0x47132, symSize: 0x20 }
  - { offsetInCU: 0x1B1E5, offset: 0x3905D1, size: 0x8, addend: 0x0, symName: '__ZNSt3__110__function6__funcIZN3tns13WorkerWrapper37PassUncaughtExceptionFromWorkerToMainEN2v85LocalINS4_7ContextEEERNS4_8TryCatchEbE3$_1NS_9allocatorISA_EEFvvEEclEv', symObjAddr: 0x1C52, symBinAddr: 0x47152, symSize: 0x44A }
  - { offsetInCU: 0x11851, offset: 0x3A328E, size: 0x8, addend: 0x0, symName: '-[NSDataAdapter initWithJSObject:isolate:]', symObjAddr: 0x0, symBinAddr: 0x47670, symSize: 0x27E }
  - { offsetInCU: 0x121D7, offset: 0x3A3C14, size: 0x8, addend: 0x0, symName: __ZN10robin_hood6detail5TableILb1ELm80EP11objc_objectNSt3__110shared_ptrIN2v810PersistentINS6_5ValueENS6_27NonCopyablePersistentTraitsIS8_EEEEEENS_4hashIS3_vEENS4_8equal_toIS3_EEE7emplaceIJRP13NSDataAdapterRSC_EEENS4_4pairINSH_4IterILb0EEEbEEDpOT_, symObjAddr: 0x2C8, symBinAddr: 0x478F8, symSize: 0x11D }
  - { offsetInCU: 0x12C9F, offset: 0x3A46DC, size: 0x8, addend: 0x0, symName: '-[NSDataAdapter bytes]', symObjAddr: 0x3E5, symBinAddr: 0x47A15, symSize: 0x12 }
  - { offsetInCU: 0x12DAB, offset: 0x3A47E8, size: 0x8, addend: 0x0, symName: '-[NSDataAdapter mutableBytes]', symObjAddr: 0x3F7, symBinAddr: 0x47A27, symSize: 0x120 }
  - { offsetInCU: 0x12FBE, offset: 0x3A49FB, size: 0x8, addend: 0x0, symName: '-[NSDataAdapter length]', symObjAddr: 0x517, symBinAddr: 0x47B47, symSize: 0x6F }
  - { offsetInCU: 0x1320C, offset: 0x3A4C49, size: 0x8, addend: 0x0, symName: '-[NSDataAdapter dealloc]', symObjAddr: 0x586, symBinAddr: 0x47BB6, symSize: 0x260 }
  - { offsetInCU: 0x13AA9, offset: 0x3A54E6, size: 0x8, addend: 0x0, symName: '-[NSDataAdapter .cxx_destruct]', symObjAddr: 0x895, symBinAddr: 0x47E25, symSize: 0x11 }
  - { offsetInCU: 0x13B35, offset: 0x3A5572, size: 0x8, addend: 0x0, symName: '-[NSDataAdapter .cxx_construct]', symObjAddr: 0x8A6, symBinAddr: 0x47E36, symSize: 0x17 }
  - { offsetInCU: 0x13E37, offset: 0x3A5874, size: 0x8, addend: 0x0, symName: __ZN3tns15ObjCDataWrapperD1Ev, symObjAddr: 0x9DC, symBinAddr: 0x47E5C, symSize: 0x6 }
  - { offsetInCU: 0x13E63, offset: 0x3A58A0, size: 0x8, addend: 0x0, symName: __ZN3tns15ObjCDataWrapper4TypeEv, symObjAddr: 0x9EC, symBinAddr: 0x47E6C, symSize: 0xC }
  - { offsetInCU: 0x14079, offset: 0x3A5AB6, size: 0x8, addend: 0x0, symName: __ZNSt3__120__shared_ptr_emplaceIN2v810PersistentINS1_5ValueENS1_27NonCopyablePersistentTraitsIS3_EEEENS_9allocatorIS6_EEEC2B7v160006IJRPNS1_7IsolateERNS1_5LocalINS1_6ObjectEEEEEES8_DpOT_, symObjAddr: 0xAD4, symBinAddr: 0x47E84, symSize: 0x52 }
  - { offsetInCU: 0x14406, offset: 0x3A5E43, size: 0x8, addend: 0x0, symName: __ZNSt14overflow_errorC1B7v160006EPKc, symObjAddr: 0x1330, symBinAddr: 0x47EE0, symSize: 0x24 }
  - { offsetInCU: 0x27, offset: 0x3A6432, size: 0x8, addend: 0x0, symName: __ZN3tns11DisposerPHV21VisitPersistentHandleEPN2v810PersistentINS1_5ValueENS1_27NonCopyablePersistentTraitsIS3_EEEEt, symObjAddr: 0x0, symBinAddr: 0x47F04, symSize: 0xFC }
  - { offsetInCU: 0x4B85, offset: 0x3AAF90, size: 0x8, addend: 0x0, symName: __ZN3tns11DisposerPHV21VisitPersistentHandleEPN2v810PersistentINS1_5ValueENS1_27NonCopyablePersistentTraitsIS3_EEEEt, symObjAddr: 0x0, symBinAddr: 0x47F04, symSize: 0xFC }
  - { offsetInCU: 0x4EBE, offset: 0x3AB2C9, size: 0x8, addend: 0x0, symName: __ZN3tns11DisposerPHVD1Ev, symObjAddr: 0xFC, symBinAddr: 0x48000, symSize: 0x6 }
  - { offsetInCU: 0x4EE7, offset: 0x3AB2F2, size: 0x8, addend: 0x0, symName: __ZN3tns11DisposerPHVD0Ev, symObjAddr: 0x102, symBinAddr: 0x48006, symSize: 0xA }
  - { offsetInCU: 0x89C9, offset: 0x3B3D30, size: 0x8, addend: 0x0, symName: __ZN3tns9inspector21NSInMemoryTraceWriter16AppendTraceEventEPN2v88platform7tracing11TraceObjectE, symObjAddr: 0x0, symBinAddr: 0x48010, symSize: 0x50 }
  - { offsetInCU: 0x8AA5, offset: 0x3B3E0C, size: 0x8, addend: 0x0, symName: __ZN3tns9inspector21NSInMemoryTraceWriter5FlushEv, symObjAddr: 0x50, symBinAddr: 0x48060, symSize: 0x1A }
  - { offsetInCU: 0x8C55, offset: 0x3B3FBC, size: 0x8, addend: 0x0, symName: __ZN3tns9inspector21NSInMemoryTraceWriter8getTraceEv, symObjAddr: 0x6A, symBinAddr: 0x4807A, symSize: 0xD4 }
  - { offsetInCU: 0x948A, offset: 0x3B47F1, size: 0x8, addend: 0x0, symName: __ZNSt3__115basic_stringbufIcNS_11char_traitsIcEENS_9allocatorIcEEE3strERKNS_12basic_stringIcS2_S4_EE, symObjAddr: 0x10A0, symBinAddr: 0x48790, symSize: 0x140 }
  - { offsetInCU: 0x9905, offset: 0x3B4C6C, size: 0x8, addend: 0x0, symName: __ZN3tns9inspector16TracingAgentImplC2Ev, symObjAddr: 0x13E, symBinAddr: 0x4814E, symSize: 0xB8 }
  - { offsetInCU: 0x9C64, offset: 0x3B4FCB, size: 0x8, addend: 0x0, symName: __ZN3tns9inspector16TracingAgentImplC1Ev, symObjAddr: 0x1F6, symBinAddr: 0x48206, symSize: 0xA }
  - { offsetInCU: 0x9DDA, offset: 0x3B5141, size: 0x8, addend: 0x0, symName: __ZN3tns9inspector16TracingAgentImpl5startEv, symObjAddr: 0x200, symBinAddr: 0x48210, symSize: 0xB6 }
  - { offsetInCU: 0x9FF8, offset: 0x3B535F, size: 0x8, addend: 0x0, symName: __ZN3tns9inspector16TracingAgentImpl3endEv, symObjAddr: 0x2B6, symBinAddr: 0x482C6, symSize: 0x72 }
  - { offsetInCU: 0xA379, offset: 0x3B56E0, size: 0x8, addend: 0x0, symName: __ZN3tns9inspector16TracingAgentImpl14SendToDevtoolsEN2v85LocalINS2_7ContextEEENSt3__112basic_stringIcNS6_11char_traitsIcEENS6_9allocatorIcEEEE, symObjAddr: 0x328, symBinAddr: 0x48338, symSize: 0x264 }
  - { offsetInCU: 0xAFA8, offset: 0x3B630F, size: 0x8, addend: 0x0, symName: __ZN3tns9inspector21NSInMemoryTraceWriterD1Ev, symObjAddr: 0x58C, symBinAddr: 0x4859C, symSize: 0xB0 }
  - { offsetInCU: 0xB236, offset: 0x3B659D, size: 0x8, addend: 0x0, symName: __ZN3tns9inspector21NSInMemoryTraceWriterD0Ev, symObjAddr: 0x63C, symBinAddr: 0x4864C, symSize: 0xB8 }
  - { offsetInCU: 0xBA40, offset: 0x3B6DA7, size: 0x8, addend: 0x0, symName: __ZNSt3__112basic_stringIcNS_11char_traitsIcEENS_9allocatorIcEEEC2B7v160006IPcvEET_S8_RKS4_, symObjAddr: 0x1020, symBinAddr: 0x48710, symSize: 0x80 }
  - { offsetInCU: 0x43, offset: 0x3B7136, size: 0x8, addend: 0x0, symName: __ZN12_GLOBAL__N_16BufferE, symObjAddr: 0x2B6718, symBinAddr: 0x16AA208, symSize: 0x0 }
  - { offsetInCU: 0x5D, offset: 0x3B7150, size: 0x8, addend: 0x0, symName: __ZN12_GLOBAL__N_19BinBufferE, symObjAddr: 0x2B6720, symBinAddr: 0x16AA210, symSize: 0x0 }
  - { offsetInCU: 0x101BD, offset: 0x3C72B0, size: 0x8, addend: 0x0, symName: __ZNSt3__110shared_ptrIN2v812BackingStoreEED2B7v160006Ev, symObjAddr: 0x6118, symBinAddr: 0x4D1B8, symSize: 0x3F }
  - { offsetInCU: 0x1145C, offset: 0x3C854F, size: 0x8, addend: 0x0, symName: __ZNSt3__119__allocate_at_leastB7v160006INS_9allocatorIDsEEEENS_19__allocation_resultINS_16allocator_traitsIT_E7pointerEEERS5_m, symObjAddr: 0x5790, symBinAddr: 0x4CA70, symSize: 0x26 }
  - { offsetInCU: 0x11501, offset: 0x3C85F4, size: 0x8, addend: 0x0, symName: __ZNSt3__112basic_stringIDsNS_11char_traitsIDsEENS_9allocatorIDsEEE6resizeEmDs, symObjAddr: 0x57B6, symBinAddr: 0x4CA96, symSize: 0x46 }
  - { offsetInCU: 0x11C25, offset: 0x3C8D18, size: 0x8, addend: 0x0, symName: __ZNSt3__119__allocate_at_leastB7v160006INS_9allocatorItEEEENS_19__allocation_resultINS_16allocator_traitsIT_E7pointerEEERS5_m, symObjAddr: 0x5DBA, symBinAddr: 0x4D09A, symSize: 0x26 }
  - { offsetInCU: 0x11CCA, offset: 0x3C8DBD, size: 0x8, addend: 0x0, symName: __ZNSt3__113basic_filebufIcNS_11char_traitsIcEEEC2Ev, symObjAddr: 0x5DE0, symBinAddr: 0x4D0C0, symSize: 0xF8 }
  - { offsetInCU: 0x12DA0, offset: 0x3C9E93, size: 0x8, addend: 0x0, symName: __ZN3tns13ToUtf16StringEPN2v87IsolateERKNS0_5LocalINS0_5ValueEEE, symObjAddr: 0x0, symBinAddr: 0x488D0, symSize: 0x151 }
  - { offsetInCU: 0x1348D, offset: 0x3CA580, size: 0x8, addend: 0x0, symName: __ZN3tns8ToVectorERKNSt3__112basic_stringIcNS0_11char_traitsIcEENS0_9allocatorIcEEEE, symObjAddr: 0x205, symBinAddr: 0x48A25, symSize: 0x17A }
  - { offsetInCU: 0x13ABA, offset: 0x3CABAD, size: 0x8, addend: 0x0, symName: __ZN3tns6ExistsEPKc, symObjAddr: 0x37F, symBinAddr: 0x48B9F, symSize: 0x38 }
  - { offsetInCU: 0x13B1D, offset: 0x3CAC10, size: 0x8, addend: 0x0, symName: __ZN3tns10ReadModuleEPN2v87IsolateERKNSt3__112basic_stringIcNS3_11char_traitsIcEENS3_9allocatorIcEEEE, symObjAddr: 0x3B7, symBinAddr: 0x48BD7, symSize: 0x129 }
  - { offsetInCU: 0x13F37, offset: 0x3CB02A, size: 0x8, addend: 0x0, symName: __ZN3tns6AssertEbPN2v87IsolateERKNSt3__112basic_stringIcNS3_11char_traitsIcEENS3_9allocatorIcEEEE, symObjAddr: 0x4E0, symBinAddr: 0x48D00, symSize: 0x16D }
  - { offsetInCU: 0x145AA, offset: 0x3CB69D, size: 0x8, addend: 0x0, symName: __ZN3tns12LogBacktraceEi, symObjAddr: 0x1E4B, symBinAddr: 0x4A5EB, symSize: 0x206 }
  - { offsetInCU: 0x146D9, offset: 0x3CB7CC, size: 0x8, addend: 0x0, symName: __ZN3tns13GetStackTraceEPN2v87IsolateE, symObjAddr: 0x267A, symBinAddr: 0x4AE1A, symSize: 0x1DA }
  - { offsetInCU: 0x14CD1, offset: 0x3CBDC4, size: 0x8, addend: 0x0, symName: __ZN3tns8ReadTextERKNSt3__112basic_stringIcNS0_11char_traitsIcEENS0_9allocatorIcEEEERlRb, symObjAddr: 0x64D, symBinAddr: 0x48E6D, symSize: 0x10A }
  - { offsetInCU: 0x150CD, offset: 0x3CC1C0, size: 0x8, addend: 0x0, symName: __ZN3tns8ReadTextERKNSt3__112basic_stringIcNS0_11char_traitsIcEENS0_9allocatorIcEEEE, symObjAddr: 0x757, symBinAddr: 0x48F77, symSize: 0x55 }
  - { offsetInCU: 0x15185, offset: 0x3CC278, size: 0x8, addend: 0x0, symName: __ZN3tns10ReadBinaryENSt3__112basic_stringIcNS0_11char_traitsIcEENS0_9allocatorIcEEEERlRb, symObjAddr: 0x7AC, symBinAddr: 0x48FCC, symSize: 0x19C }
  - { offsetInCU: 0x153D0, offset: 0x3CC4C3, size: 0x8, addend: 0x0, symName: __ZN3tns11WriteBinaryERKNSt3__112basic_stringIcNS0_11char_traitsIcEENS0_9allocatorIcEEEEPKvl, symObjAddr: 0xAA6, symBinAddr: 0x492C6, symSize: 0x65 }
  - { offsetInCU: 0x154C3, offset: 0x3CC5B6, size: 0x8, addend: 0x0, symName: __ZN3tns15SetPrivateValueERKN2v85LocalINS0_6ObjectEEERKNS1_INS0_6StringEEERKNS1_INS0_5ValueEEE, symObjAddr: 0xB0B, symBinAddr: 0x4932B, symSize: 0xE2 }
  - { offsetInCU: 0x15909, offset: 0x3CC9FC, size: 0x8, addend: 0x0, symName: __ZN3tns15GetPrivateValueERKN2v85LocalINS0_6ObjectEEERKNS1_INS0_6StringEEE, symObjAddr: 0xBED, symBinAddr: 0x4940D, symSize: 0x172 }
  - { offsetInCU: 0x160D9, offset: 0x3CD1CC, size: 0x8, addend: 0x0, symName: __ZN3tns21DeleteWrapperIfUnusedEPN2v87IsolateERKNS0_5LocalINS0_5ValueEEEPNS_15BaseDataWrapperE, symObjAddr: 0xD5F, symBinAddr: 0x4957F, symSize: 0x30 }
  - { offsetInCU: 0x16142, offset: 0x3CD235, size: 0x8, addend: 0x0, symName: __ZN3tns8GetValueEPN2v87IsolateERKNS0_5LocalINS0_5ValueEEE, symObjAddr: 0xD8F, symBinAddr: 0x495AF, symSize: 0x194 }
  - { offsetInCU: 0x16843, offset: 0x3CD936, size: 0x8, addend: 0x0, symName: __ZN3tns8SetValueEPN2v87IsolateERKNS0_5LocalINS0_6ObjectEEEPNS_15BaseDataWrapperE, symObjAddr: 0xF23, symBinAddr: 0x49743, symSize: 0x11D }
  - { offsetInCU: 0x16E04, offset: 0x3CDEF7, size: 0x8, addend: 0x0, symName: __ZN3tns11DeleteValueEPN2v87IsolateERKNS0_5LocalINS0_5ValueEEE, symObjAddr: 0x1040, symBinAddr: 0x49860, symSize: 0x1F5 }
  - { offsetInCU: 0x177D3, offset: 0x3CE8C6, size: 0x8, addend: 0x0, symName: __ZN3tns12ArgsToVectorERKN2v820FunctionCallbackInfoINS0_5ValueEEE, symObjAddr: 0x1235, symBinAddr: 0x49A55, symSize: 0x17D }
  - { offsetInCU: 0x17F58, offset: 0x3CF04B, size: 0x8, addend: 0x0, symName: __ZN3tns18IsArrayOrArrayLikeEPN2v87IsolateERKNS0_5LocalINS0_5ValueEEE, symObjAddr: 0x1440, symBinAddr: 0x49BE0, symSize: 0x120 }
  - { offsetInCU: 0x1841E, offset: 0x3CF511, size: 0x8, addend: 0x0, symName: __ZN3tns27TryGetBufferFromArrayBufferERKN2v85LocalINS0_5ValueEEERb, symObjAddr: 0x1560, symBinAddr: 0x49D00, symSize: 0xD1 }
  - { offsetInCU: 0x1863A, offset: 0x3CF72D, size: 0x8, addend: 0x0, symName: __ZN3tns16ExecuteOnRunLoopEP11__CFRunLoopNSt3__18functionIFvvEEEb, symObjAddr: 0x1631, symBinAddr: 0x49DD1, symSize: 0x2DD }
  - { offsetInCU: 0x18AA7, offset: 0x3CFB9A, size: 0x8, addend: 0x0, symName: __ZN3tns22ExecuteOnDispatchQueueEPU28objcproto17OS_dispatch_queue8NSObjectNSt3__18functionIFvvEEEb, symObjAddr: 0x1A30, symBinAddr: 0x4A1D0, symSize: 0xF6 }
  - { offsetInCU: 0x18C2A, offset: 0x3CFD1D, size: 0x8, addend: 0x0, symName: __ZN3tns19ExecuteOnMainThreadENSt3__18functionIFvvEEEb, symObjAddr: 0x1B58, symBinAddr: 0x4A2F8, symSize: 0x100 }
  - { offsetInCU: 0x18D9C, offset: 0x3CFE8F, size: 0x8, addend: 0x0, symName: __ZN3tns8LogErrorEPN2v87IsolateERNS0_8TryCatchE, symObjAddr: 0x1C8A, symBinAddr: 0x4A42A, symSize: 0x1C1 }
  - { offsetInCU: 0x19AF3, offset: 0x3D0BE6, size: 0x8, addend: 0x0, symName: __ZN3tns10ReplaceAllENSt3__112basic_stringIcNS0_11char_traitsIcEENS0_9allocatorIcEEEES6_S6_, symObjAddr: 0x2051, symBinAddr: 0x4A7F1, symSize: 0x245 }
  - { offsetInCU: 0x1A142, offset: 0x3D1235, size: 0x8, addend: 0x0, symName: __ZN3tns19JsonStringifyObjectEN2v85LocalINS0_7ContextEEENS1_INS0_5ValueEEEb, symObjAddr: 0x2296, symBinAddr: 0x4AA36, symSize: 0x193 }
  - { offsetInCU: 0x1A415, offset: 0x3D1508, size: 0x8, addend: 0x0, symName: __ZN3tns29GetSmartJSONStringifyFunctionEPN2v87IsolateE, symObjAddr: 0x2429, symBinAddr: 0x4ABC9, symSize: 0x251 }
  - { offsetInCU: 0x1B061, offset: 0x3D2154, size: 0x8, addend: 0x0, symName: __ZN3tns27BuildStacktraceFrameMessageEPN2v87IsolateENS0_5LocalINS0_10StackFrameEEE, symObjAddr: 0x293D, symBinAddr: 0x4AFFD, symSize: 0x361 }
  - { offsetInCU: 0x1BB15, offset: 0x3D2C08, size: 0x8, addend: 0x0, symName: __ZN3tns32BuildStacktraceFrameLocationPartEPN2v87IsolateENS0_5LocalINS0_10StackFrameEEE, symObjAddr: 0x2D8D, symBinAddr: 0x4B3CD, symSize: 0x28B }
  - { offsetInCU: 0x1CABE, offset: 0x3D3BB1, size: 0x8, addend: 0x0, symName: __ZN3tns19GetCurrentScriptUrlEPN2v87IsolateE, symObjAddr: 0x2D22, symBinAddr: 0x4B362, symSize: 0x6B }
  - { offsetInCU: 0x1CB75, offset: 0x3D3C68, size: 0x8, addend: 0x0, symName: __ZN3tns8LiveSyncEPN2v87IsolateE, symObjAddr: 0x3018, symBinAddr: 0x4B658, symSize: 0x238 }
  - { offsetInCU: 0x1D385, offset: 0x3D4478, size: 0x8, addend: 0x0, symName: __ZN3tns29StopExecutionAndLogStackTraceEPN2v87IsolateE, symObjAddr: 0x3250, symBinAddr: 0x4B890, symSize: 0x55 }
  - { offsetInCU: 0x1D67A, offset: 0x3D476D, size: 0x8, addend: 0x0, symName: __ZN3tns19NewFunctionTemplateEPN2v87IsolateEPFvRKNS0_20FunctionCallbackInfoINS0_5ValueEEEENS0_5LocalIS4_EENSA_INS0_9SignatureEEENS0_19ConstructorBehaviorENS0_14SideEffectTypeEPKNS0_9CFunctionE, symObjAddr: 0x32A5, symBinAddr: 0x4B8E5, symSize: 0x29 }
  - { offsetInCU: 0x1D741, offset: 0x3D4834, size: 0x8, addend: 0x0, symName: __ZN3tns9SetMethodEN2v85LocalINS0_7ContextEEENS1_INS0_6ObjectEEEPKcPFvRKNS0_20FunctionCallbackInfoINS0_5ValueEEEENS1_IS9_EE, symObjAddr: 0x32CE, symBinAddr: 0x4B90E, symSize: 0xC0 }
  - { offsetInCU: 0x1D8A8, offset: 0x3D499B, size: 0x8, addend: 0x0, symName: __ZN3tns9SetMethodEPN2v87IsolateENS0_5LocalINS0_8TemplateEEEPKcPFvRKNS0_20FunctionCallbackInfoINS0_5ValueEEEENS3_IS9_EE, symObjAddr: 0x338E, symBinAddr: 0x4B9CE, symSize: 0x76 }
  - { offsetInCU: 0x1D9B9, offset: 0x3D4AAC, size: 0x8, addend: 0x0, symName: __ZN3tns13SetFastMethodEPN2v87IsolateENS0_5LocalINS0_8TemplateEEEPKcPFvRKNS0_20FunctionCallbackInfoINS0_5ValueEEEEPKNS0_9CFunctionENS3_IS9_EE, symObjAddr: 0x3404, symBinAddr: 0x4BA44, symSize: 0x7D }
  - { offsetInCU: 0x1DADE, offset: 0x3D4BD1, size: 0x8, addend: 0x0, symName: __ZN3tns13SetFastMethodEN2v85LocalINS0_7ContextEEENS1_INS0_6ObjectEEEPKcPFvRKNS0_20FunctionCallbackInfoINS0_5ValueEEEEPKNS0_9CFunctionENS1_IS9_EE, symObjAddr: 0x3481, symBinAddr: 0x4BAC1, symSize: 0xC6 }
  - { offsetInCU: 0x1DC56, offset: 0x3D4D49, size: 0x8, addend: 0x0, symName: __ZN3tns25SetFastMethodNoSideEffectEN2v85LocalINS0_7ContextEEENS1_INS0_6ObjectEEEPKcPFvRKNS0_20FunctionCallbackInfoINS0_5ValueEEEEPKNS0_9CFunctionENS1_IS9_EE, symObjAddr: 0x3547, symBinAddr: 0x4BB87, symSize: 0xC7 }
  - { offsetInCU: 0x1DDCE, offset: 0x3D4EC1, size: 0x8, addend: 0x0, symName: __ZN3tns25SetFastMethodNoSideEffectEPN2v87IsolateENS0_5LocalINS0_8TemplateEEEPKcPFvRKNS0_20FunctionCallbackInfoINS0_5ValueEEEEPKNS0_9CFunctionENS3_IS9_EE, symObjAddr: 0x360E, symBinAddr: 0x4BC4E, symSize: 0x7D }
  - { offsetInCU: 0x1DEF3, offset: 0x3D4FE6, size: 0x8, addend: 0x0, symName: __ZN3tns21SetMethodNoSideEffectEN2v85LocalINS0_7ContextEEENS1_INS0_6ObjectEEEPKcPFvRKNS0_20FunctionCallbackInfoINS0_5ValueEEEENS1_IS9_EE, symObjAddr: 0x368B, symBinAddr: 0x4BCCB, symSize: 0xC1 }
  - { offsetInCU: 0x1E05A, offset: 0x3D514D, size: 0x8, addend: 0x0, symName: __ZN3tns21SetMethodNoSideEffectEPN2v87IsolateENS0_5LocalINS0_8TemplateEEEPKcPFvRKNS0_20FunctionCallbackInfoINS0_5ValueEEEENS3_IS9_EE, symObjAddr: 0x374C, symBinAddr: 0x4BD8C, symSize: 0x77 }
  - { offsetInCU: 0x1E16B, offset: 0x3D525E, size: 0x8, addend: 0x0, symName: __ZN3tns14SetProtoMethodEPN2v87IsolateENS0_5LocalINS0_16FunctionTemplateEEEPKcPFvRKNS0_20FunctionCallbackInfoINS0_5ValueEEEENS3_IS9_EE, symObjAddr: 0x37C3, symBinAddr: 0x4BE03, symSize: 0xA6 }
  - { offsetInCU: 0x1E287, offset: 0x3D537A, size: 0x8, addend: 0x0, symName: __ZN3tns26SetProtoMethodNoSideEffectEPN2v87IsolateENS0_5LocalINS0_16FunctionTemplateEEEPKcPFvRKNS0_20FunctionCallbackInfoINS0_5ValueEEEENS3_IS9_EE, symObjAddr: 0x3869, symBinAddr: 0x4BEA9, symSize: 0xA6 }
  - { offsetInCU: 0x1E3A3, offset: 0x3D5496, size: 0x8, addend: 0x0, symName: __ZN3tns17SetInstanceMethodEPN2v87IsolateENS0_5LocalINS0_16FunctionTemplateEEEPKcPFvRKNS0_20FunctionCallbackInfoINS0_5ValueEEEENS3_IS9_EE, symObjAddr: 0x390F, symBinAddr: 0x4BF4F, symSize: 0xA6 }
  - { offsetInCU: 0x1E4F2, offset: 0x3D55E5, size: 0x8, addend: 0x0, symName: __ZN3tns22SetConstructorFunctionEN2v85LocalINS0_7ContextEEENS1_INS0_6ObjectEEEPKcNS1_INS0_16FunctionTemplateEEENS_26SetConstructorFunctionFlagE, symObjAddr: 0x39B5, symBinAddr: 0x4BFF5, symSize: 0x65 }
  - { offsetInCU: 0x1E5CA, offset: 0x3D56BD, size: 0x8, addend: 0x0, symName: __ZN3tns22SetConstructorFunctionEN2v85LocalINS0_7ContextEEENS1_INS0_6ObjectEEENS1_INS0_6StringEEENS1_INS0_16FunctionTemplateEEENS_26SetConstructorFunctionFlagE, symObjAddr: 0x3A1A, symBinAddr: 0x4C05A, symSize: 0x6D }
  - { offsetInCU: 0x1E6D9, offset: 0x3D57CC, size: 0x8, addend: 0x0, symName: __ZN3tns22SetConstructorFunctionEPN2v87IsolateENS0_5LocalINS0_8TemplateEEEPKcNS3_INS0_16FunctionTemplateEEENS_26SetConstructorFunctionFlagE, symObjAddr: 0x3A87, symBinAddr: 0x4C0C7, symSize: 0x5B }
  - { offsetInCU: 0x1E7D1, offset: 0x3D58C4, size: 0x8, addend: 0x0, symName: __ZN3tns22SetConstructorFunctionEPN2v87IsolateENS0_5LocalINS0_8TemplateEEENS3_INS0_6StringEEENS3_INS0_16FunctionTemplateEEENS_26SetConstructorFunctionFlagE, symObjAddr: 0x3AE2, symBinAddr: 0x4C122, symSize: 0x3E }
  - { offsetInCU: 0x25F98, offset: 0x3DD08B, size: 0x8, addend: 0x0, symName: __ZNSt3__115wstring_convertINS_18codecvt_utf8_utf16IDsLm1114111ELNS_12codecvt_modeE0EEEDsNS_9allocatorIDsEENS4_IcEEE10from_bytesEPKcS9_, symObjAddr: 0x529A, symBinAddr: 0x4C5BA, symSize: 0x2C2 }
  - { offsetInCU: 0x2672D, offset: 0x3DD820, size: 0x8, addend: 0x0, symName: __ZNSt3__115wstring_convertINS_18codecvt_utf8_utf16IDsLm1114111ELNS_12codecvt_modeE0EEEDsNS_9allocatorIDsEENS4_IcEEED2Ev, symObjAddr: 0x5258, symBinAddr: 0x4C578, symSize: 0x42 }
  - { offsetInCU: 0x26E5A, offset: 0x3DDF4D, size: 0x8, addend: 0x0, symName: __ZNSt3__16vectorItNS_9allocatorItEEEC2IPKtLi0EEET_S7_, symObjAddr: 0x5CEC, symBinAddr: 0x4CFCC, symSize: 0x88 }
  - { offsetInCU: 0x27507, offset: 0x3DE5FA, size: 0x8, addend: 0x0, symName: __ZN3tns6AssertEbPN2v87IsolateERKNSt3__112basic_stringIcNS3_11char_traitsIcEENS3_9allocatorIcEEEE.cold.1, symObjAddr: 0x65B9, symBinAddr: 0xCB5DF9, symSize: 0x23 }
  - { offsetInCU: 0x2761F, offset: 0x3DE712, size: 0x8, addend: 0x0, symName: __ZNSt3__114basic_ifstreamIcNS_11char_traitsIcEEEC1ERKNS_12basic_stringIcS2_NS_9allocatorIcEEEEj, symObjAddr: 0x948, symBinAddr: 0x49168, symSize: 0x10C }
  - { offsetInCU: 0x2780D, offset: 0x3DE900, size: 0x8, addend: 0x0, symName: __ZNSt3__113basic_filebufIcNS_11char_traitsIcEEED2Ev, symObjAddr: 0x3C50, symBinAddr: 0x4C290, symSize: 0x70 }
  - { offsetInCU: 0x27848, offset: 0x3DE93B, size: 0x8, addend: 0x0, symName: __ZNSt3__114basic_ifstreamIcNS_11char_traitsIcEEED1Ev, symObjAddr: 0xA54, symBinAddr: 0x49274, symSize: 0x52 }
  - { offsetInCU: 0x279AA, offset: 0x3DEA9D, size: 0x8, addend: 0x0, symName: __ZNSt3__113basic_filebufIcNS_11char_traitsIcEEEC2Ev, symObjAddr: 0x5DE0, symBinAddr: 0x4D0C0, symSize: 0xF8 }
  - { offsetInCU: 0x288B1, offset: 0x3DF9A4, size: 0x8, addend: 0x0, symName: __ZN3tns18IsArrayOrArrayLikeEPN2v87IsolateERKNS0_5LocalINS0_5ValueEEE, symObjAddr: 0x1440, symBinAddr: 0x49BE0, symSize: 0x120 }
  - { offsetInCU: 0x289C2, offset: 0x3DFAB5, size: 0x8, addend: 0x0, symName: __ZNSt3__110shared_ptrIN2v812BackingStoreEED2B7v160006Ev, symObjAddr: 0x6118, symBinAddr: 0x4D1B8, symSize: 0x3F }
  - { offsetInCU: 0x28D9F, offset: 0x3DFE92, size: 0x8, addend: 0x0, symName: __ZNSt3__110__function12__value_funcIFvvEEC2B7v160006ERKS3_, symObjAddr: 0x61B0, symBinAddr: 0x4D200, symSize: 0x4C }
  - { offsetInCU: 0x28E8F, offset: 0x3DFF82, size: 0x8, addend: 0x0, symName: ____ZN3tns16ExecuteOnRunLoopEP11__CFRunLoopNSt3__18functionIFvvEEEb_block_invoke, symObjAddr: 0x190E, symBinAddr: 0x4A0AE, symSize: 0x4F }
  - { offsetInCU: 0x28FB6, offset: 0x3E00A9, size: 0x8, addend: 0x0, symName: ___copy_helper_block_e16_32c27_ZTSNSt3__18functionIFvvEEE80r, symObjAddr: 0x195D, symBinAddr: 0x4A0FD, symSize: 0x33 }
  - { offsetInCU: 0x28FC1, offset: 0x3E00B4, size: 0x8, addend: 0x0, symName: ___copy_helper_block_e16_32c27_ZTSNSt3__18functionIFvvEEE80r, symObjAddr: 0x195D, symBinAddr: 0x4A0FD, symSize: 0x33 }
  - { offsetInCU: 0x29065, offset: 0x3E0158, size: 0x8, addend: 0x0, symName: ___destroy_helper_block_e16_32c27_ZTSNSt3__18functionIFvvEEE80r, symObjAddr: 0x1990, symBinAddr: 0x4A130, symSize: 0x46 }
  - { offsetInCU: 0x290F2, offset: 0x3E01E5, size: 0x8, addend: 0x0, symName: ____ZN3tns16ExecuteOnRunLoopEP11__CFRunLoopNSt3__18functionIFvvEEEb_block_invoke.7, symObjAddr: 0x19D6, symBinAddr: 0x4A176, symSize: 0x19 }
  - { offsetInCU: 0x29181, offset: 0x3E0274, size: 0x8, addend: 0x0, symName: ___copy_helper_block_e16_32c27_ZTSNSt3__18functionIFvvEEE, symObjAddr: 0x19EF, symBinAddr: 0x4A18F, symSize: 0x12 }
  - { offsetInCU: 0x2918C, offset: 0x3E027F, size: 0x8, addend: 0x0, symName: ___copy_helper_block_e16_32c27_ZTSNSt3__18functionIFvvEEE, symObjAddr: 0x19EF, symBinAddr: 0x4A18F, symSize: 0x12 }
  - { offsetInCU: 0x29230, offset: 0x3E0323, size: 0x8, addend: 0x0, symName: ___destroy_helper_block_e16_32c27_ZTSNSt3__18functionIFvvEEE, symObjAddr: 0x1A01, symBinAddr: 0x4A1A1, symSize: 0x2F }
  - { offsetInCU: 0x292E2, offset: 0x3E03D5, size: 0x8, addend: 0x0, symName: ____ZN3tns22ExecuteOnDispatchQueueEPU28objcproto17OS_dispatch_queue8NSObjectNSt3__18functionIFvvEEEb_block_invoke, symObjAddr: 0x1B26, symBinAddr: 0x4A2C6, symSize: 0x19 }
  - { offsetInCU: 0x29371, offset: 0x3E0464, size: 0x8, addend: 0x0, symName: ____ZN3tns22ExecuteOnDispatchQueueEPU28objcproto17OS_dispatch_queue8NSObjectNSt3__18functionIFvvEEEb_block_invoke_2, symObjAddr: 0x1B3F, symBinAddr: 0x4A2DF, symSize: 0x19 }
  - { offsetInCU: 0x2937C, offset: 0x3E046F, size: 0x8, addend: 0x0, symName: ____ZN3tns22ExecuteOnDispatchQueueEPU28objcproto17OS_dispatch_queue8NSObjectNSt3__18functionIFvvEEEb_block_invoke_2, symObjAddr: 0x1B3F, symBinAddr: 0x4A2DF, symSize: 0x19 }
  - { offsetInCU: 0x2940B, offset: 0x3E04FE, size: 0x8, addend: 0x0, symName: __ZN3tns19ExecuteOnMainThreadENSt3__18functionIFvvEEEb, symObjAddr: 0x1B58, symBinAddr: 0x4A2F8, symSize: 0x100 }
  - { offsetInCU: 0x29416, offset: 0x3E0509, size: 0x8, addend: 0x0, symName: ____ZN3tns19ExecuteOnMainThreadENSt3__18functionIFvvEEEb_block_invoke, symObjAddr: 0x1C58, symBinAddr: 0x4A3F8, symSize: 0x19 }
  - { offsetInCU: 0x294A5, offset: 0x3E0598, size: 0x8, addend: 0x0, symName: ____ZN3tns19ExecuteOnMainThreadENSt3__18functionIFvvEEEb_block_invoke_2, symObjAddr: 0x1C71, symBinAddr: 0x4A411, symSize: 0x19 }
  - { offsetInCU: 0x294B0, offset: 0x3E05A3, size: 0x8, addend: 0x0, symName: ____ZN3tns19ExecuteOnMainThreadENSt3__18functionIFvvEEEb_block_invoke_2, symObjAddr: 0x1C71, symBinAddr: 0x4A411, symSize: 0x19 }
  - { offsetInCU: 0x2953F, offset: 0x3E0632, size: 0x8, addend: 0x0, symName: __ZN3tns8LogErrorEPN2v87IsolateERNS0_8TryCatchE, symObjAddr: 0x1C8A, symBinAddr: 0x4A42A, symSize: 0x1C1 }
  - { offsetInCU: 0x2A129, offset: 0x3E121C, size: 0x8, addend: 0x0, symName: __ZTv0_n24_NSt3__114basic_ifstreamIcNS_11char_traitsIcEEED1Ev, symObjAddr: 0x3B20, symBinAddr: 0x4C160, symSize: 0x62 }
  - { offsetInCU: 0x2A1AF, offset: 0x3E12A2, size: 0x8, addend: 0x0, symName: __ZNSt3__114basic_ifstreamIcNS_11char_traitsIcEEED0Ev, symObjAddr: 0x3B82, symBinAddr: 0x4C1C2, symSize: 0x5A }
  - { offsetInCU: 0x2A25D, offset: 0x3E1350, size: 0x8, addend: 0x0, symName: __ZTv0_n24_NSt3__114basic_ifstreamIcNS_11char_traitsIcEEED0Ev, symObjAddr: 0x3BDC, symBinAddr: 0x4C21C, symSize: 0x6A }
  - { offsetInCU: 0x2A2FF, offset: 0x3E13F2, size: 0x8, addend: 0x0, symName: __ZNSt3__113basic_filebufIcNS_11char_traitsIcEEE5closeEv, symObjAddr: 0x3CC0, symBinAddr: 0x4C300, symSize: 0x70 }
  - { offsetInCU: 0x2A5AD, offset: 0x3E16A0, size: 0x8, addend: 0x0, symName: __ZNSt3__113basic_filebufIcNS_11char_traitsIcEEE9pbackfailEi, symObjAddr: 0x46E0, symBinAddr: 0x4C370, symSize: 0x4A }
  - { offsetInCU: 0x2A923, offset: 0x3E1A16, size: 0x8, addend: 0x0, symName: __ZThn16_NSt3__118basic_stringstreamIcNS_11char_traitsIcEENS_9allocatorIcEEED1Ev, symObjAddr: 0x4ABC, symBinAddr: 0x4C3BC, symSize: 0x80 }
  - { offsetInCU: 0x2AABF, offset: 0x3E1BB2, size: 0x8, addend: 0x0, symName: __ZTv0_n24_NSt3__118basic_stringstreamIcNS_11char_traitsIcEENS_9allocatorIcEEED1Ev, symObjAddr: 0x4B3C, symBinAddr: 0x4C43C, symSize: 0x8E }
  - { offsetInCU: 0x2AC67, offset: 0x3E1D5A, size: 0x8, addend: 0x0, symName: __ZNSt3__115basic_stringbufIcNS_11char_traitsIcEENS_9allocatorIcEEED1Ev, symObjAddr: 0x4D74, symBinAddr: 0x4C4D4, symSize: 0x34 }
  - { offsetInCU: 0x2ADC6, offset: 0x3E1EB9, size: 0x8, addend: 0x0, symName: __ZNSt3__115basic_stringbufIcNS_11char_traitsIcEENS_9allocatorIcEEED0Ev, symObjAddr: 0x4DA8, symBinAddr: 0x4C508, symSize: 0x3C }
  - { offsetInCU: 0x2B1F5, offset: 0x3E22E8, size: 0x8, addend: 0x0, symName: __ZNSt3__118codecvt_utf8_utf16IDsLm1114111ELNS_12codecvt_modeE0EED1B7v160006Ev, symObjAddr: 0x5232, symBinAddr: 0x4C552, symSize: 0xA }
  - { offsetInCU: 0x2B268, offset: 0x3E235B, size: 0x8, addend: 0x0, symName: __ZNSt3__118codecvt_utf8_utf16IDsLm1114111ELNS_12codecvt_modeE0EED0B7v160006Ev, symObjAddr: 0x523C, symBinAddr: 0x4C55C, symSize: 0x1C }
  - { offsetInCU: 0x2B491, offset: 0x3E2584, size: 0x8, addend: 0x0, symName: __ZNSt3__112basic_stringIDsNS_11char_traitsIDsEENS_9allocatorIDsEEEC2B7v160006EmDs, symObjAddr: 0x56FA, symBinAddr: 0x4C9DA, symSize: 0x86 }
  - { offsetInCU: 0x2B6B8, offset: 0x3E27AB, size: 0x8, addend: 0x0, symName: __ZNKSt3__112basic_stringIDsNS_11char_traitsIDsEENS_9allocatorIDsEEE20__throw_length_errorB7v160006Ev, symObjAddr: 0x5780, symBinAddr: 0x4CA60, symSize: 0x10 }
  - { offsetInCU: 0x2B6C3, offset: 0x3E27B6, size: 0x8, addend: 0x0, symName: __ZNSt3__112basic_stringIDsNS_11char_traitsIDsEENS_9allocatorIDsEEE6resizeEmDs, symObjAddr: 0x57B6, symBinAddr: 0x4CA96, symSize: 0x46 }
  - { offsetInCU: 0x2B8C6, offset: 0x3E29B9, size: 0x8, addend: 0x0, symName: __ZNSt3__112basic_stringIDsNS_11char_traitsIDsEENS_9allocatorIDsEEE6appendIPKDsEENS_9enable_ifIXsr27__is_cpp17_forward_iteratorIT_EE5valueERS5_E4typeESA_SA_, symObjAddr: 0x555C, symBinAddr: 0x4C87C, symSize: 0x153 }
  - { offsetInCU: 0x2BF78, offset: 0x3E306B, size: 0x8, addend: 0x0, symName: __ZNSt3__112basic_stringIDsNS_11char_traitsIDsEENS_9allocatorIDsEEE25__init_copy_ctor_externalEPKDsm, symObjAddr: 0x5C6E, symBinAddr: 0x4CF4E, symSize: 0x7E }
  - { offsetInCU: 0x2C238, offset: 0x3E332B, size: 0x8, addend: 0x0, symName: __ZNSt3__16vectorItNS_9allocatorItEEEC2IPKtLi0EEET_S7_, symObjAddr: 0x5CEC, symBinAddr: 0x4CFCC, symSize: 0x88 }
  - { offsetInCU: 0x2C3D7, offset: 0x3E34CA, size: 0x8, addend: 0x0, symName: __ZNSt3__112basic_stringIDsNS_11char_traitsIDsEENS_9allocatorIDsEEE9__grow_byEmmmmmm, symObjAddr: 0x58BC, symBinAddr: 0x4CB9C, symSize: 0x10C }
  - { offsetInCU: 0x2C9C0, offset: 0x3E3AB3, size: 0x8, addend: 0x0, symName: __ZNSt3__112basic_stringIDsNS_11char_traitsIDsEENS_9allocatorIDsEEE6appendEPKDsm, symObjAddr: 0x59C8, symBinAddr: 0x4CCA8, symSize: 0xAE }
  - { offsetInCU: 0x2C9CB, offset: 0x3E3ABE, size: 0x8, addend: 0x0, symName: __ZNSt3__112basic_stringIDsNS_11char_traitsIDsEENS_9allocatorIDsEEEC2B7v160006IPKDsvEET_S9_RKS4_, symObjAddr: 0x5A76, symBinAddr: 0x4CD56, symSize: 0x80 }
  - { offsetInCU: 0x2CC19, offset: 0x3E3D0C, size: 0x8, addend: 0x0, symName: __ZNSt3__112basic_stringIDsNS_11char_traitsIDsEENS_9allocatorIDsEEE6appendEPKDsm, symObjAddr: 0x59C8, symBinAddr: 0x4CCA8, symSize: 0xAE }
  - { offsetInCU: 0x2CFE4, offset: 0x3E40D7, size: 0x8, addend: 0x0, symName: __ZNSt11range_errorC1B7v160006EPKc, symObjAddr: 0x5C4A, symBinAddr: 0x4CF2A, symSize: 0x24 }
  - { offsetInCU: 0x2D140, offset: 0x3E4233, size: 0x8, addend: 0x0, symName: __ZNKSt3__112basic_stringIDsNS_11char_traitsIDsEENS_9allocatorIDsEEE20__throw_length_errorB7v160006Ev, symObjAddr: 0x5780, symBinAddr: 0x4CA60, symSize: 0x10 }
  - { offsetInCU: 0x2D16A, offset: 0x3E425D, size: 0x8, addend: 0x0, symName: __ZNSt3__119__allocate_at_leastB7v160006INS_9allocatorIDsEEEENS_19__allocation_resultINS_16allocator_traitsIT_E7pointerEEERS5_m, symObjAddr: 0x5790, symBinAddr: 0x4CA70, symSize: 0x26 }
  - { offsetInCU: 0x2D1E6, offset: 0x3E42D9, size: 0x8, addend: 0x0, symName: __ZNSt3__112basic_stringIDsNS_11char_traitsIDsEENS_9allocatorIDsEEE6appendEmDs, symObjAddr: 0x57FC, symBinAddr: 0x4CADC, symSize: 0xC0 }
  - { offsetInCU: 0x2D56A, offset: 0x3E465D, size: 0x8, addend: 0x0, symName: __ZNSt3__112basic_stringIDsNS_11char_traitsIDsEENS_9allocatorIDsEEE21__grow_by_and_replaceEmmmmmmPKDs, symObjAddr: 0x5AF6, symBinAddr: 0x4CDD6, symSize: 0x154 }
  - { offsetInCU: 0x2DD83, offset: 0x3E4E76, size: 0x8, addend: 0x0, symName: __ZNSt11range_errorC1B7v160006EPKc, symObjAddr: 0x5C4A, symBinAddr: 0x4CF2A, symSize: 0x24 }
  - { offsetInCU: 0x2E09A, offset: 0x3E518D, size: 0x8, addend: 0x0, symName: __ZNSt3__16vectorItNS_9allocatorItEEE11__vallocateB7v160006Em, symObjAddr: 0x5D74, symBinAddr: 0x4D054, symSize: 0x36 }
  - { offsetInCU: 0x2E132, offset: 0x3E5225, size: 0x8, addend: 0x0, symName: __ZNKSt3__16vectorItNS_9allocatorItEEE20__throw_length_errorB7v160006Ev, symObjAddr: 0x5DAA, symBinAddr: 0x4D08A, symSize: 0x10 }
  - { offsetInCU: 0x2E15C, offset: 0x3E524F, size: 0x8, addend: 0x0, symName: __ZNSt3__119__allocate_at_leastB7v160006INS_9allocatorItEEEENS_19__allocation_resultINS_16allocator_traitsIT_E7pointerEEERS5_m, symObjAddr: 0x5DBA, symBinAddr: 0x4D09A, symSize: 0x26 }
  - { offsetInCU: 0x7B61, offset: 0x3ED7E4, size: 0x8, addend: 0x0, symName: __ZNSt3__119__allocate_at_leastB7v160006INS_9allocatorINS_10unique_ptrIvPFvPKvEEEEEEENS_19__allocation_resultINS_16allocator_traitsIT_E7pointerEEERSB_m, symObjAddr: 0x4080, symBinAddr: 0x50C20, symSize: 0x2D }
  - { offsetInCU: 0x12168, offset: 0x3F7DEB, size: 0x8, addend: 0x0, symName: __ZN3tns7Interop20RegisterInteropTypesEN2v85LocalINS1_7ContextEEE, symObjAddr: 0x0, symBinAddr: 0x4D280, symSize: 0xE2E }
  - { offsetInCU: 0x15FB3, offset: 0x3FBC36, size: 0x8, addend: 0x0, symName: __ZN3tns7Interop30RegisterBufferFromDataFunctionEN2v85LocalINS1_7ContextEEENS2_INS1_6ObjectEEE, symObjAddr: 0xE2E, symBinAddr: 0x4E0AE, symSize: 0x14C }
  - { offsetInCU: 0x165FB, offset: 0x3FC27E, size: 0x8, addend: 0x0, symName: __ZN3tns7Interop25RegisterStringFromCStringEN2v85LocalINS1_7ContextEEENS2_INS1_6ObjectEEE, symObjAddr: 0xF7A, symBinAddr: 0x4E1FA, symSize: 0x14C }
  - { offsetInCU: 0x16C43, offset: 0x3FC8C6, size: 0x8, addend: 0x0, symName: __ZN3tns7Interop24RegisterHandleOfFunctionEN2v85LocalINS1_7ContextEEENS2_INS1_6ObjectEEE, symObjAddr: 0x10C6, symBinAddr: 0x4E346, symSize: 0x14C }
  - { offsetInCU: 0x1728B, offset: 0x3FCF0E, size: 0x8, addend: 0x0, symName: __ZN3tns7Interop21RegisterAllocFunctionEN2v85LocalINS1_7ContextEEENS2_INS1_6ObjectEEE, symObjAddr: 0x1212, symBinAddr: 0x4E492, symSize: 0x14C }
  - { offsetInCU: 0x178D3, offset: 0x3FD556, size: 0x8, addend: 0x0, symName: __ZN3tns7Interop20RegisterFreeFunctionEN2v85LocalINS1_7ContextEEENS2_INS1_6ObjectEEE, symObjAddr: 0x135E, symBinAddr: 0x4E5DE, symSize: 0x14C }
  - { offsetInCU: 0x17F2F, offset: 0x3FDBB2, size: 0x8, addend: 0x0, symName: __ZN3tns7Interop21RegisterAdoptFunctionEN2v85LocalINS1_7ContextEEENS2_INS1_6ObjectEEE, symObjAddr: 0x14AA, symBinAddr: 0x4E72A, symSize: 0x14C }
  - { offsetInCU: 0x1858F, offset: 0x3FE212, size: 0x8, addend: 0x0, symName: __ZN3tns7Interop22RegisterSizeOfFunctionEN2v85LocalINS1_7ContextEEENS2_INS1_6ObjectEEE, symObjAddr: 0x15F6, symBinAddr: 0x4E876, symSize: 0x14C }
  - { offsetInCU: 0x18E4A, offset: 0x3FEACD, size: 0x8, addend: 0x0, symName: __ZN3tns7Interop19RegisterInteropTypeEN2v85LocalINS1_7ContextEEENS2_INS1_6ObjectEEENSt3__112basic_stringIcNS7_11char_traitsIcEENS7_9allocatorIcEEEEPNS_20PrimitiveDataWrapperEb, symObjAddr: 0x1742, symBinAddr: 0x4E9C2, symSize: 0x3A2 }
  - { offsetInCU: 0x1A19C, offset: 0x3FFE1F, size: 0x8, addend: 0x0, symName: __ZNK10robin_hood6detail5TableILb1ELm80EN3tns22BinaryTypeEncodingTypeENSt3__110unique_ptrIN2v810PersistentINS6_6ObjectENS6_27NonCopyablePersistentTraitsIS8_EEEENS4_14default_deleteISB_EEEENS_4hashIS3_vEENS4_8equal_toIS3_EEE7findIdxIS3_EEmRKT_, symObjAddr: 0x373A, symBinAddr: 0x5039A, symSize: 0xC6 }
  - { offsetInCU: 0x1A33D, offset: 0x3FFFC0, size: 0x8, addend: 0x0, symName: __ZN3tns6Caches24registerCacheBoundObjectINS_20PrimitiveDataWrapperEEEvPT_, symObjAddr: 0x1D00, symBinAddr: 0x4EF80, symSize: 0x130 }
  - { offsetInCU: 0x1A874, offset: 0x4004F7, size: 0x8, addend: 0x0, symName: __ZN10robin_hood6detail5TableILb1ELm80EN3tns22BinaryTypeEncodingTypeENSt3__110unique_ptrIN2v810PersistentINS6_6ObjectENS6_27NonCopyablePersistentTraitsIS8_EEEENS4_14default_deleteISB_EEEENS_4hashIS3_vEENS4_8equal_toIS3_EEE7emplaceIJRS3_SE_EEENS4_4pairINSJ_4IterILb0EEEbEEDpOT_, symObjAddr: 0x1BF0, symBinAddr: 0x4EE70, symSize: 0x110 }
  - { offsetInCU: 0x1AF67, offset: 0x400BEA, size: 0x8, addend: 0x0, symName: __ZN3tns7Interop14CreateEncodingENS_22BinaryTypeEncodingTypeE, symObjAddr: 0x1AE4, symBinAddr: 0x4ED64, symSize: 0x20 }
  - { offsetInCU: 0x1B059, offset: 0x400CDC, size: 0x8, addend: 0x0, symName: __ZN3tns7Interop14GetInteropTypeEN2v85LocalINS1_7ContextEEENS_22BinaryTypeEncodingTypeE, symObjAddr: 0x1B04, symBinAddr: 0x4ED84, symSize: 0xEC }
  - { offsetInCU: 0x1B871, offset: 0x4014F4, size: 0x8, addend: 0x0, symName: __ZN10robin_hood6detail5TableILb1ELm80EN3tns22BinaryTypeEncodingTypeENSt3__110unique_ptrIN2v810PersistentINS6_6ObjectENS6_27NonCopyablePersistentTraitsIS8_EEEENS4_14default_deleteISB_EEEENS_4hashIS3_vEENS4_8equal_toIS3_EEE25insertKeyPrepareEmptySpotIRKS3_EENS4_4pairImNSJ_14InsertionStateEEEOT_, symObjAddr: 0x3800, symBinAddr: 0x50460, symSize: 0x158 }
  - { offsetInCU: 0x1BA38, offset: 0x4016BB, size: 0x8, addend: 0x0, symName: __ZNK10robin_hood6detail5TableILb1ELm80EN3tns22BinaryTypeEncodingTypeENSt3__110unique_ptrIN2v810PersistentINS6_6ObjectENS6_27NonCopyablePersistentTraitsIS8_EEEENS4_14default_deleteISB_EEEENS_4hashIS3_vEENS4_8equal_toIS3_EEE18throwOverflowErrorEv, symObjAddr: 0x3958, symBinAddr: 0x505B8, symSize: 0x4C }
  - { offsetInCU: 0x1C085, offset: 0x401D08, size: 0x8, addend: 0x0, symName: __ZNKSt3__16vectorINS_10unique_ptrIvPFvPKvEEENS_9allocatorIS6_EEE20__throw_length_errorB7v160006Ev, symObjAddr: 0x4070, symBinAddr: 0x50C10, symSize: 0x10 }
  - { offsetInCU: 0x1C0AF, offset: 0x401D32, size: 0x8, addend: 0x0, symName: __ZNSt3__119__allocate_at_leastB7v160006INS_9allocatorINS_10unique_ptrIvPFvPKvEEEEEEENS_19__allocation_resultINS_16allocator_traitsIT_E7pointerEEERSB_m, symObjAddr: 0x4080, symBinAddr: 0x50C20, symSize: 0x2D }
  - { offsetInCU: 0x1C46D, offset: 0x4020F0, size: 0x8, addend: 0x0, symName: __ZN3tns7Interop8HandleOfEN2v85LocalINS1_7ContextEEENS2_INS1_5ValueEEE, symObjAddr: 0x1E30, symBinAddr: 0x4F0B0, symSize: 0x318 }
  - { offsetInCU: 0x1CBBA, offset: 0x40283D, size: 0x8, addend: 0x0, symName: __ZNK3tns4Meta14topLevelModuleEv, symObjAddr: 0x2148, symBinAddr: 0x4F3C8, symSize: 0x66 }
  - { offsetInCU: 0x1D321, offset: 0x402FA4, size: 0x8, addend: 0x0, symName: __ZN3tns20PrimitiveDataWrapperD1Ev, symObjAddr: 0x2288, symBinAddr: 0x4F438, symSize: 0x24 }
  - { offsetInCU: 0x1D37C, offset: 0x402FFF, size: 0x8, addend: 0x0, symName: __ZN3tns20PrimitiveDataWrapperD0Ev, symObjAddr: 0x22AC, symBinAddr: 0x4F45C, symSize: 0x34 }
  - { offsetInCU: 0x1D3F7, offset: 0x40307A, size: 0x8, addend: 0x0, symName: __ZN3tns20PrimitiveDataWrapper4TypeEv, symObjAddr: 0x22E0, symBinAddr: 0x4F490, symSize: 0x10 }
  - { offsetInCU: 0x1DBC3, offset: 0x403846, size: 0x8, addend: 0x0, symName: '__ZZN3tns7Interop30RegisterBufferFromDataFunctionEN2v85LocalINS1_7ContextEEENS2_INS1_6ObjectEEEEN3$_08__invokeERKNS1_20FunctionCallbackInfoINS1_5ValueEEE', symObjAddr: 0x2434, symBinAddr: 0x4F4A4, symSize: 0x2E0 }
  - { offsetInCU: 0x1E955, offset: 0x4045D8, size: 0x8, addend: 0x0, symName: '__ZZN3tns7Interop30RegisterBufferFromDataFunctionEN2v85LocalINS1_7ContextEEENS2_INS1_6ObjectEEEEN3$_08__invokeERKNS1_20FunctionCallbackInfoINS1_5ValueEEE.cold.1', symObjAddr: 0x4249, symBinAddr: 0xCB5E29, symSize: 0x2F }
  - { offsetInCU: 0x1EA19, offset: 0x40469C, size: 0x8, addend: 0x0, symName: '__ZZZN3tns7Interop30RegisterBufferFromDataFunctionEN2v85LocalINS1_7ContextEEENS2_INS1_6ObjectEEEENK3$_0clERKNS1_20FunctionCallbackInfoINS1_5ValueEEEENUlPvmSD_E_8__invokeESD_mSD_', symObjAddr: 0x2714, symBinAddr: 0x4F784, symSize: 0x6 }
  - { offsetInCU: 0x1EA5D, offset: 0x4046E0, size: 0x8, addend: 0x0, symName: __ZNSt3__120__shared_ptr_pointerIPN2v812BackingStoreENS_14default_deleteIS2_EENS_9allocatorIS2_EEED1Ev, symObjAddr: 0x271A, symBinAddr: 0x4F78A, symSize: 0xA }
  - { offsetInCU: 0x1EAB2, offset: 0x404735, size: 0x8, addend: 0x0, symName: __ZNSt3__120__shared_ptr_pointerIPN2v812BackingStoreENS_14default_deleteIS2_EENS_9allocatorIS2_EEED0Ev, symObjAddr: 0x2724, symBinAddr: 0x4F794, symSize: 0x1C }
  - { offsetInCU: 0x1EB25, offset: 0x4047A8, size: 0x8, addend: 0x0, symName: __ZNSt3__120__shared_ptr_pointerIPN2v812BackingStoreENS_14default_deleteIS2_EENS_9allocatorIS2_EEE16__on_zero_sharedEv, symObjAddr: 0x2740, symBinAddr: 0x4F7B0, symSize: 0x2C }
  - { offsetInCU: 0x1EBFB, offset: 0x40487E, size: 0x8, addend: 0x0, symName: __ZNSt3__120__shared_ptr_pointerIPN2v812BackingStoreENS_14default_deleteIS2_EENS_9allocatorIS2_EEE21__on_zero_shared_weakEv, symObjAddr: 0x276C, symBinAddr: 0x4F7DC, symSize: 0xA }
  - { offsetInCU: 0x1EE1F, offset: 0x404AA2, size: 0x8, addend: 0x0, symName: '__ZZN3tns7Interop25RegisterStringFromCStringEN2v85LocalINS1_7ContextEEENS2_INS1_6ObjectEEEEN3$_18__invokeERKNS1_20FunctionCallbackInfoINS1_5ValueEEE', symObjAddr: 0x2776, symBinAddr: 0x4F7E6, symSize: 0x370 }
  - { offsetInCU: 0x1FE80, offset: 0x405B03, size: 0x8, addend: 0x0, symName: '__ZZN3tns7Interop24RegisterHandleOfFunctionEN2v85LocalINS1_7ContextEEENS2_INS1_6ObjectEEEEN3$_28__invokeERKNS1_20FunctionCallbackInfoINS1_5ValueEEE', symObjAddr: 0x2AE6, symBinAddr: 0x4FB56, symSize: 0x162 }
  - { offsetInCU: 0x2052F, offset: 0x4061B2, size: 0x8, addend: 0x0, symName: '__ZZN3tns7Interop21RegisterAllocFunctionEN2v85LocalINS1_7ContextEEENS2_INS1_6ObjectEEEEN3$_38__invokeERKNS1_20FunctionCallbackInfoINS1_5ValueEEE', symObjAddr: 0x2C48, symBinAddr: 0x4FCB8, symSize: 0x1AA }
  - { offsetInCU: 0x20EAD, offset: 0x406B30, size: 0x8, addend: 0x0, symName: '__ZZN3tns7Interop20RegisterFreeFunctionEN2v85LocalINS1_7ContextEEENS2_INS1_6ObjectEEEEN3$_48__invokeERKNS1_20FunctionCallbackInfoINS1_5ValueEEE', symObjAddr: 0x2DF2, symBinAddr: 0x4FE62, symSize: 0x100 }
  - { offsetInCU: 0x21422, offset: 0x4070A5, size: 0x8, addend: 0x0, symName: '__ZZN3tns7Interop21RegisterAdoptFunctionEN2v85LocalINS1_7ContextEEENS2_INS1_6ObjectEEEEN3$_58__invokeERKNS1_20FunctionCallbackInfoINS1_5ValueEEE', symObjAddr: 0x2EF2, symBinAddr: 0x4FF62, symSize: 0xF6 }
  - { offsetInCU: 0x21A74, offset: 0x4076F7, size: 0x8, addend: 0x0, symName: '__ZZN3tns7Interop22RegisterSizeOfFunctionEN2v85LocalINS1_7ContextEEENS2_INS1_6ObjectEEEEN3$_68__invokeERKNS1_20FunctionCallbackInfoINS1_5ValueEEE', symObjAddr: 0x2FE8, symBinAddr: 0x50058, symSize: 0x2FC }
  - { offsetInCU: 0x22AD2, offset: 0x408755, size: 0x8, addend: 0x0, symName: __ZNKSt3__129_AllocatorDestroyRangeReverseINS_9allocatorIN3tns11StructFieldEEEPS3_EclB7v160006Ev, symObjAddr: 0x3580, symBinAddr: 0x50360, symSize: 0x3A }
  - { offsetInCU: 0x232D1, offset: 0x408F54, size: 0x8, addend: 0x0, symName: __ZNK10robin_hood6detail5TableILb1ELm80EN3tns22BinaryTypeEncodingTypeENSt3__110unique_ptrIN2v810PersistentINS6_6ObjectENS6_27NonCopyablePersistentTraitsIS8_EEEENS4_14default_deleteISB_EEEENS_4hashIS3_vEENS4_8equal_toIS3_EEE7findIdxIS3_EEmRKT_, symObjAddr: 0x373A, symBinAddr: 0x5039A, symSize: 0xC6 }
  - { offsetInCU: 0x23427, offset: 0x4090AA, size: 0x8, addend: 0x0, symName: __ZN10robin_hood6detail5TableILb1ELm80EN3tns22BinaryTypeEncodingTypeENSt3__110unique_ptrIN2v810PersistentINS6_6ObjectENS6_27NonCopyablePersistentTraitsIS8_EEEENS4_14default_deleteISB_EEEENS_4hashIS3_vEENS4_8equal_toIS3_EEE13increase_sizeEv, symObjAddr: 0x39A4, symBinAddr: 0x50604, symSize: 0x108 }
  - { offsetInCU: 0x234ED, offset: 0x409170, size: 0x8, addend: 0x0, symName: __ZN10robin_hood6detail5TableILb1ELm80EN3tns22BinaryTypeEncodingTypeENSt3__110unique_ptrIN2v810PersistentINS6_6ObjectENS6_27NonCopyablePersistentTraitsIS8_EEEENS4_14default_deleteISB_EEEENS_4hashIS3_vEENS4_8equal_toIS3_EEE7shiftUpEmm, symObjAddr: 0x3AAC, symBinAddr: 0x5070C, symSize: 0xE2 }
  - { offsetInCU: 0x23753, offset: 0x4093D6, size: 0x8, addend: 0x0, symName: __ZN10robin_hood6detail5TableILb1ELm80EN3tns22BinaryTypeEncodingTypeENSt3__110unique_ptrIN2v810PersistentINS6_6ObjectENS6_27NonCopyablePersistentTraitsIS8_EEEENS4_14default_deleteISB_EEEENS_4hashIS3_vEENS4_8equal_toIS3_EEE17try_increase_infoEv, symObjAddr: 0x3C76, symBinAddr: 0x508D6, symSize: 0xE8 }
  - { offsetInCU: 0x23852, offset: 0x4094D5, size: 0x8, addend: 0x0, symName: __ZN10robin_hood6detail5TableILb1ELm80EN3tns22BinaryTypeEncodingTypeENSt3__110unique_ptrIN2v810PersistentINS6_6ObjectENS6_27NonCopyablePersistentTraitsIS8_EEEENS4_14default_deleteISB_EEEENS_4hashIS3_vEENS4_8equal_toIS3_EEE8initDataEm, symObjAddr: 0x3B8E, symBinAddr: 0x507EE, symSize: 0xE8 }
  - { offsetInCU: 0x2393D, offset: 0x4095C0, size: 0x8, addend: 0x0, symName: __ZN10robin_hood6detail5TableILb1ELm80EN3tns22BinaryTypeEncodingTypeENSt3__110unique_ptrIN2v810PersistentINS6_6ObjectENS6_27NonCopyablePersistentTraitsIS8_EEEENS4_14default_deleteISB_EEEENS_4hashIS3_vEENS4_8equal_toIS3_EEE17try_increase_infoEv, symObjAddr: 0x3C76, symBinAddr: 0x508D6, symSize: 0xE8 }
  - { offsetInCU: 0x23948, offset: 0x4095CB, size: 0x8, addend: 0x0, symName: __ZN10robin_hood6detail5TableILb1ELm80EN3tns22BinaryTypeEncodingTypeENSt3__110unique_ptrIN2v810PersistentINS6_6ObjectENS6_27NonCopyablePersistentTraitsIS8_EEEENS4_14default_deleteISB_EEEENS_4hashIS3_vEENS4_8equal_toIS3_EEE16rehashPowerOfTwoEmb, symObjAddr: 0x3D5E, symBinAddr: 0x509BE, symSize: 0x108 }
  - { offsetInCU: 0x23C3F, offset: 0x4098C2, size: 0x8, addend: 0x0, symName: __ZN10robin_hood6detail5TableILb1ELm80EN3tns22BinaryTypeEncodingTypeENSt3__110unique_ptrIN2v810PersistentINS6_6ObjectENS6_27NonCopyablePersistentTraitsIS8_EEEENS4_14default_deleteISB_EEEENS_4hashIS3_vEENS4_8equal_toIS3_EEE11insert_moveEONSJ_8DataNodeISJ_Lb1EEE, symObjAddr: 0x3E98, symBinAddr: 0x50AC8, symSize: 0x13A }
  - { offsetInCU: 0x24393, offset: 0x40A016, size: 0x8, addend: 0x0, symName: __ZNSt3__114__split_bufferINS_10unique_ptrIvPFvPKvEEERNS_9allocatorIS6_EEE17__destruct_at_endB7v160006EPS6_, symObjAddr: 0x41B0, symBinAddr: 0x50C50, symSize: 0x48 }
  - { offsetInCU: 0x244B2, offset: 0x40A135, size: 0x8, addend: 0x0, symName: __ZZN3tns6Caches11unique_voidINS_20PrimitiveDataWrapperEEENSt3__110unique_ptrIvPFvPKvEEEPT_ENUlS6_E_8__invokeES6_, symObjAddr: 0x41F8, symBinAddr: 0x50C98, symSize: 0x12 }
  - { offsetInCU: 0x26, offset: 0x40A1C4, size: 0x8, addend: 0x0, symName: _nativescript_module_register, symObjAddr: 0x0, symBinAddr: 0x50CAA, symSize: 0x4F }
  - { offsetInCU: 0x44, offset: 0x40A1E2, size: 0x8, addend: 0x0, symName: __ZN3tns19node_is_initializedE, symObjAddr: 0x63A83, symBinAddr: 0x16C0DDC, symSize: 0x0 }
  - { offsetInCU: 0x5E, offset: 0x40A1FC, size: 0x8, addend: 0x0, symName: __ZN3tnsL16modlist_internalE, symObjAddr: 0x63A88, symBinAddr: 0x16AA218, symSize: 0x0 }
  - { offsetInCU: 0x104, offset: 0x40A2A2, size: 0x8, addend: 0x0, symName: __ZN3tnsL14modlist_linkedE, symObjAddr: 0x63A90, symBinAddr: 0x16AA220, symSize: 0x0 }
  - { offsetInCU: 0x117, offset: 0x40A2B5, size: 0x8, addend: 0x0, symName: __ZN3tns7binding23RegisterBuiltinBindingsEv, symObjAddr: 0x4F, symBinAddr: 0x50CF9, symSize: 0x6 }
  - { offsetInCU: 0x131, offset: 0x40A2CF, size: 0x8, addend: 0x0, symName: __ZN3tns7binding30CreateInternalBindingTemplatesEPN2v87IsolateENS1_5LocalINS1_16FunctionTemplateEEE, symObjAddr: 0x55, symBinAddr: 0x50CFF, symSize: 0x21 }
  - { offsetInCU: 0x2D15, offset: 0x40CEB3, size: 0x8, addend: 0x0, symName: _nativescript_module_register, symObjAddr: 0x0, symBinAddr: 0x50CAA, symSize: 0x4F }
  - { offsetInCU: 0x3CCA, offset: 0x410BC0, size: 0x8, addend: 0x0, symName: __ZN3tns10ToV8StringEPN2v87IsolateERKNSt3__112basic_stringIcNS3_11char_traitsIcEENS3_9allocatorIcEEEE, symObjAddr: 0x838, symBinAddr: 0x51558, symSize: 0x42 }
  - { offsetInCU: 0x5D55, offset: 0x412C4B, size: 0x8, addend: 0x0, symName: __ZN3tns14SymbolIterator3SetEN2v85LocalINS1_7ContextEEENS2_INS1_5ValueEEE, symObjAddr: 0x0, symBinAddr: 0x50D20, symSize: 0xB0 }
  - { offsetInCU: 0x61D7, offset: 0x4130CD, size: 0x8, addend: 0x0, symName: __ZN3tns14SymbolIterator20CreateIteratorObjectEN2v85LocalINS1_7ContextEEENS2_INS1_5ValueEEE, symObjAddr: 0xB0, symBinAddr: 0x50DD0, symSize: 0x1C2 }
  - { offsetInCU: 0x7009, offset: 0x413EFF, size: 0x8, addend: 0x0, symName: __ZN3tns14SymbolIterator12NextCallbackERKN2v820FunctionCallbackInfoINS1_5ValueEEE, symObjAddr: 0x272, symBinAddr: 0x50F92, symSize: 0x5C6 }
  - { offsetInCU: 0x8918, offset: 0x41580E, size: 0x8, addend: 0x0, symName: '__ZZN3tns14SymbolIterator3SetEN2v85LocalINS1_7ContextEEENS2_INS1_5ValueEEEEN3$_08__invokeERKNS1_20FunctionCallbackInfoIS5_EE', symObjAddr: 0x87A, symBinAddr: 0x5159A, symSize: 0x40 }
  - { offsetInCU: 0x8A27, offset: 0x41591D, size: 0x8, addend: 0x0, symName: __ZN3tns15ObjCDataWrapperD0Ev, symObjAddr: 0x8C0, symBinAddr: 0x515E0, symSize: 0xA }
  - { offsetInCU: 0x40, offset: 0x415EC8, size: 0x8, addend: 0x0, symName: __ZN3tns7Runtime13nextIsolateIdE, symObjAddr: 0x2B8180, symBinAddr: 0x16C0DE0, symSize: 0x0 }
  - { offsetInCU: 0xB8D, offset: 0x416A15, size: 0x8, addend: 0x0, symName: __ZN3tns10allocator_E, symObjAddr: 0x2B8188, symBinAddr: 0x16C0DE8, symSize: 0x0 }
  - { offsetInCU: 0xBA7, offset: 0x416A2F, size: 0x8, addend: 0x0, symName: __ZN3tns14AppPackageJsonE, symObjAddr: 0x2B8190, symBinAddr: 0x16C0DF0, symSize: 0x0 }
  - { offsetInCU: 0xBBB, offset: 0x416A43, size: 0x8, addend: 0x0, symName: __ZN3tns7Runtime9platform_E, symObjAddr: 0x2B81B8, symBinAddr: 0x16C0E18, symSize: 0x0 }
  - { offsetInCU: 0xBCF, offset: 0x416A57, size: 0x8, addend: 0x0, symName: __ZN3tns7Runtime9isolates_E, symObjAddr: 0x2B8198, symBinAddr: 0x16C0DF8, symSize: 0x0 }
  - { offsetInCU: 0xBE3, offset: 0x416A6B, size: 0x8, addend: 0x0, symName: __ZN3tns7Runtime14v8Initialized_E, symObjAddr: 0x2B81B0, symBinAddr: 0x16C0E10, symSize: 0x0 }
  - { offsetInCU: 0xBF7, offset: 0x416A7F, size: 0x8, addend: 0x0, symName: __ZN3tns7Runtime14isolatesMutex_E, symObjAddr: 0x2B81C8, symBinAddr: 0x16C0E28, symSize: 0x0 }
  - { offsetInCU: 0xFA5, offset: 0x416E2D, size: 0x8, addend: 0x0, symName: __ZN3tns26DisposeIsolateWhenPossibleEPN2v87IsolateE, symObjAddr: 0x0, symBinAddr: 0x515F0, symSize: 0x89 }
  - { offsetInCU: 0x10042, offset: 0x425ECA, size: 0x8, addend: 0x0, symName: __ZNSt3__16removeB7v160006INS_11__wrap_iterIPPN2v87IsolateEEES4_EET_S7_S7_RKT0_, symObjAddr: 0x46B, symBinAddr: 0x51A5B, symSize: 0x47 }
  - { offsetInCU: 0x10F7C, offset: 0x426E04, size: 0x8, addend: 0x0, symName: __ZNSt3__119__allocate_at_leastB7v160006INS_9allocatorIPN2v87IsolateEEEEENS_19__allocation_resultINS_16allocator_traitsIT_E7pointerEEERS8_m, symObjAddr: 0x2448, symBinAddr: 0x53608, symSize: 0x2E }
  - { offsetInCU: 0x11020, offset: 0x426EA8, size: 0x8, addend: 0x0, symName: __ZNSt3__110__function6__funcIPFN2v85LocalINS2_16FunctionTemplateEEENS3_INS2_7ContextEEEPKN3tns13BaseClassMetaENS8_21KnownUnknownClassPairERKNS_6vectorINS_12basic_stringIcNS_11char_traitsIcEENS_9allocatorIcEEEENSH_ISJ_EEEEENSH_ISP_EESO_ED1Ev, symObjAddr: 0x2476, symBinAddr: 0x53636, symSize: 0x6 }
  - { offsetInCU: 0x1159B, offset: 0x427423, size: 0x8, addend: 0x0, symName: __ZNSt3__115allocate_sharedB7v160006IN3tns6CachesENS_9allocatorIS2_EEJRPN2v87IsolateERKiEvEENS_10shared_ptrIT_EERKT0_DpOT1_, symObjAddr: 0x1C08, symBinAddr: 0x530C8, symSize: 0x5C }
  - { offsetInCU: 0x1B27F, offset: 0x431107, size: 0x8, addend: 0x0, symName: __ZN3tns7RuntimeD1Ev, symObjAddr: 0x5F2, symBinAddr: 0x51BE2, symSize: 0xA }
  - { offsetInCU: 0x1D8AD, offset: 0x433735, size: 0x8, addend: 0x0, symName: ____ZN3tns26DisposeIsolateWhenPossibleEPN2v87IsolateE_block_invoke, symObjAddr: 0x89, symBinAddr: 0x51679, symSize: 0xF }
  - { offsetInCU: 0x1D8F6, offset: 0x43377E, size: 0x8, addend: 0x0, symName: __ZN3tns7Runtime10InitializeEv, symObjAddr: 0x98, symBinAddr: 0x51688, symSize: 0x16 }
  - { offsetInCU: 0x1DA33, offset: 0x4338BB, size: 0x8, addend: 0x0, symName: __ZN3tns7RuntimeC2Ev, symObjAddr: 0xAE, symBinAddr: 0x5169E, symSize: 0x3E }
  - { offsetInCU: 0x1DB3F, offset: 0x4339C7, size: 0x8, addend: 0x0, symName: __ZNSt3__110shared_ptrIN3tns13ConcurrentMapIiNS0_INS1_6Caches11WorkerStateEEEEEEaSB7v160006ERKS7_, symObjAddr: 0xEC, symBinAddr: 0x516DC, symSize: 0x56 }
  - { offsetInCU: 0x1DE27, offset: 0x433CAF, size: 0x8, addend: 0x0, symName: __ZN3tns7RuntimeC1Ev, symObjAddr: 0x142, symBinAddr: 0x51732, symSize: 0x3E }
  - { offsetInCU: 0x1EA67, offset: 0x4348EF, size: 0x8, addend: 0x0, symName: __ZN3tns7RuntimeD2Ev, symObjAddr: 0x180, symBinAddr: 0x51770, symSize: 0x2E0 }
  - { offsetInCU: 0x1F784, offset: 0x43560C, size: 0x8, addend: 0x0, symName: __ZN3tns13ConcurrentMapIiNSt3__110shared_ptrINS_6Caches11WorkerStateEEEE7ForEachERKNS1_8functionIFbRiRS5_EEE, symObjAddr: 0x4B2, symBinAddr: 0x51AA2, symSize: 0x140 }
  - { offsetInCU: 0x1FC88, offset: 0x435B10, size: 0x8, addend: 0x0, symName: __ZN10robin_hood6detail5TableILb1ELm80EiNSt3__110shared_ptrIN3tns6Caches11WorkerStateEEENS_4hashIivEENS2_8equal_toIiEEE5eraseERKi, symObjAddr: 0x2172, symBinAddr: 0x53462, symSize: 0xB0 }
  - { offsetInCU: 0x1FDB0, offset: 0x435C38, size: 0x8, addend: 0x0, symName: __ZNSt3__110shared_ptrIN3tns13ConcurrentMapIiNS0_INS1_6Caches11WorkerStateEEEEEED2B7v160006Ev, symObjAddr: 0x1EEC, symBinAddr: 0x5332C, symSize: 0x40 }
  - { offsetInCU: 0x1FE2D, offset: 0x435CB5, size: 0x8, addend: 0x0, symName: __ZNKSt3__114default_deleteIN3tns14ModuleInternalEEclB7v160006EPS2_, symObjAddr: 0x1D3A, symBinAddr: 0x531BA, symSize: 0x5E }
  - { offsetInCU: 0x20155, offset: 0x435FDD, size: 0x8, addend: 0x0, symName: __ZN10robin_hood6detail5TableILb1ELm80EiNSt3__110shared_ptrIN3tns6Caches11WorkerStateEEENS_4hashIivEENS2_8equal_toIiEEE5beginEv, symObjAddr: 0x1F2C, symBinAddr: 0x5336C, symSize: 0x48 }
  - { offsetInCU: 0x2029A, offset: 0x436122, size: 0x8, addend: 0x0, symName: __ZN3tns7Runtime10GetRuntimeEPN2v87IsolateE, symObjAddr: 0x5FC, symBinAddr: 0x51BEC, symSize: 0xE }
  - { offsetInCU: 0x20BE9, offset: 0x436A71, size: 0x8, addend: 0x0, symName: __ZN3tns7Runtime13CreateIsolateEv, symObjAddr: 0x60A, symBinAddr: 0x51BFA, symSize: 0x2E6 }
  - { offsetInCU: 0x219D0, offset: 0x437858, size: 0x8, addend: 0x0, symName: __ZNSt3__110shared_ptrIN2v88PlatformEEaSB7v160006IS2_NS_14default_deleteIS2_EEvEERS3_ONS_10unique_ptrIT_T0_EE, symObjAddr: 0x8F0, symBinAddr: 0x51EE0, symSize: 0x88 }
  - { offsetInCU: 0x21EC3, offset: 0x437D4B, size: 0x8, addend: 0x0, symName: __ZNKSt3__16vectorIPN2v87IsolateENS_9allocatorIS3_EEE20__throw_length_errorB7v160006Ev, symObjAddr: 0x2438, symBinAddr: 0x535F8, symSize: 0x10 }
  - { offsetInCU: 0x21EEC, offset: 0x437D74, size: 0x8, addend: 0x0, symName: __ZNSt3__119__allocate_at_leastB7v160006INS_9allocatorIPN2v87IsolateEEEEENS_19__allocation_resultINS_16allocator_traitsIT_E7pointerEEERS8_m, symObjAddr: 0x2448, symBinAddr: 0x53608, symSize: 0x2E }
  - { offsetInCU: 0x222E8, offset: 0x438170, size: 0x8, addend: 0x0, symName: __ZN3tns7Runtime4InitEPN2v87IsolateEb, symObjAddr: 0x978, symBinAddr: 0x51F68, symSize: 0x358 }
  - { offsetInCU: 0x22A42, offset: 0x4388CA, size: 0x8, addend: 0x0, symName: __ZNSt3__18functionIFN2v85LocalINS1_16FunctionTemplateEEENS2_INS1_7ContextEEEPKN3tns13BaseClassMetaENS7_21KnownUnknownClassPairERKNS_6vectorINS_12basic_stringIcNS_11char_traitsIcEENS_9allocatorIcEEEENSG_ISI_EEEEEEaSIRSN_vEERSO_OT_, symObjAddr: 0xCD0, symBinAddr: 0x522C0, symSize: 0x86 }
  - { offsetInCU: 0x22CB2, offset: 0x438B3A, size: 0x8, addend: 0x0, symName: __ZNSt3__18functionIFN2v85LocalINS1_8FunctionEEENS2_INS1_7ContextEEEN3tns10StructInfoEEEaSIRS9_vEERSA_OT_, symObjAddr: 0xD56, symBinAddr: 0x52346, symSize: 0x86 }
  - { offsetInCU: 0x22F1D, offset: 0x438DA5, size: 0x8, addend: 0x0, symName: __ZN3tns7Runtime25DefineNativeScriptVersionEPN2v87IsolateENS1_5LocalINS1_14ObjectTemplateEEE, symObjAddr: 0xDDC, symBinAddr: 0x523CC, symSize: 0x110 }
  - { offsetInCU: 0x2360F, offset: 0x439497, size: 0x8, addend: 0x0, symName: __ZN3tns7Runtime23DefinePerformanceObjectEPN2v87IsolateENS1_5LocalINS1_14ObjectTemplateEEE, symObjAddr: 0xEEC, symBinAddr: 0x524DC, symSize: 0x15C }
  - { offsetInCU: 0x23ABB, offset: 0x439943, size: 0x8, addend: 0x0, symName: __ZN3tns7Runtime16DefineTimeMethodEPN2v87IsolateENS1_5LocalINS1_14ObjectTemplateEEE, symObjAddr: 0x1048, symBinAddr: 0x52638, symSize: 0xDE }
  - { offsetInCU: 0x23E82, offset: 0x439D0A, size: 0x8, addend: 0x0, symName: __ZN3tns7Runtime26DefineDrainMicrotaskMethodEPN2v87IsolateENS1_5LocalINS1_14ObjectTemplateEEE, symObjAddr: 0x1126, symBinAddr: 0x52716, symSize: 0xDE }
  - { offsetInCU: 0x24249, offset: 0x43A0D1, size: 0x8, addend: 0x0, symName: __ZN3tns7Runtime18DefineGlobalObjectEN2v85LocalINS1_7ContextEEEb, symObjAddr: 0x1204, symBinAddr: 0x527F4, symSize: 0x1EC }
  - { offsetInCU: 0x24A41, offset: 0x43A8C9, size: 0x8, addend: 0x0, symName: __ZN3tns7Runtime21DefineCollectFunctionEN2v85LocalINS1_7ContextEEE, symObjAddr: 0x13F0, symBinAddr: 0x529E0, symSize: 0x1D0 }
  - { offsetInCU: 0x25699, offset: 0x43B521, size: 0x8, addend: 0x0, symName: __ZNSt3__110__function12__value_funcIFN2v85LocalINS2_16FunctionTemplateEEENS3_INS2_7ContextEEEPKN3tns13BaseClassMetaENS8_21KnownUnknownClassPairERKNS_6vectorINS_12basic_stringIcNS_11char_traitsIcEENS_9allocatorIcEEEENSH_ISJ_EEEEEE4swapB7v160006ERSP_, symObjAddr: 0x24FA, symBinAddr: 0x536BA, symSize: 0x114 }
  - { offsetInCU: 0x25B51, offset: 0x43B9D9, size: 0x8, addend: 0x0, symName: __ZNSt3__110__function12__value_funcIFN2v85LocalINS2_8FunctionEEENS3_INS2_7ContextEEEN3tns10StructInfoEEE4swapB7v160006ERSB_, symObjAddr: 0x27BA, symBinAddr: 0x538EA, symSize: 0x114 }
  - { offsetInCU: 0x25D56, offset: 0x43BBDE, size: 0x8, addend: 0x0, symName: __ZN3tns7Runtime13RunMainScriptEv, symObjAddr: 0x15C0, symBinAddr: 0x52BB0, symSize: 0xD4 }
  - { offsetInCU: 0x2616D, offset: 0x43BFF5, size: 0x8, addend: 0x0, symName: __ZN3tns7Runtime10GetIsolateEv, symObjAddr: 0x1694, symBinAddr: 0x52C84, symSize: 0xA }
  - { offsetInCU: 0x2618C, offset: 0x43C014, size: 0x8, addend: 0x0, symName: __ZN3tns7Runtime9RunModuleENSt3__112basic_stringIcNS1_11char_traitsIcEENS1_9allocatorIcEEEE, symObjAddr: 0x169E, symBinAddr: 0x52C8E, symSize: 0xB4 }
  - { offsetInCU: 0x26525, offset: 0x43C3AD, size: 0x8, addend: 0x0, symName: __ZN3tns7Runtime9RunScriptENSt3__112basic_stringIcNS1_11char_traitsIcEENS1_9allocatorIcEEEE, symObjAddr: 0x1752, symBinAddr: 0x52D42, symSize: 0xD6 }
  - { offsetInCU: 0x26917, offset: 0x43C79F, size: 0x8, addend: 0x0, symName: __ZN3tns7Runtime8WorkerIdEv, symObjAddr: 0x1828, symBinAddr: 0x52E18, symSize: 0xA }
  - { offsetInCU: 0x2693E, offset: 0x43C7C6, size: 0x8, addend: 0x0, symName: __ZN3tns7Runtime11SetWorkerIdEi, symObjAddr: 0x1832, symBinAddr: 0x52E22, symSize: 0xA }
  - { offsetInCU: 0x2699D, offset: 0x43C825, size: 0x8, addend: 0x0, symName: __ZN3tns7Runtime17GetAppConfigValueENSt3__112basic_stringIcNS1_11char_traitsIcEENS1_9allocatorIcEEEE, symObjAddr: 0x183C, symBinAddr: 0x52E2C, symSize: 0x110 }
  - { offsetInCU: 0x26C7D, offset: 0x43CB05, size: 0x8, addend: 0x0, symName: __ZN3tns7Runtime22PerformanceNowCallbackERKN2v820FunctionCallbackInfoINS1_5ValueEEE, symObjAddr: 0x194C, symBinAddr: 0x52F3C, symSize: 0x54 }
  - { offsetInCU: 0x26DB6, offset: 0x43CC3E, size: 0x8, addend: 0x0, symName: __ZN3tns7Runtime7IsAliveEPKN2v87IsolateE, symObjAddr: 0x19A0, symBinAddr: 0x52F90, symSize: 0x10A }
  - { offsetInCU: 0x2721A, offset: 0x43D0A2, size: 0x8, addend: 0x0, symName: __ZNSt3__110shared_ptrIN2v88PlatformEED1B7v160006Ev, symObjAddr: 0x1AAA, symBinAddr: 0x5309A, symSize: 0xA }
  - { offsetInCU: 0x272DC, offset: 0x43D164, size: 0x8, addend: 0x0, symName: __ZNSt3__16vectorIPN2v87IsolateENS_9allocatorIS3_EEED1B7v160006Ev, symObjAddr: 0x1AB4, symBinAddr: 0x530A4, symSize: 0x1B }
  - { offsetInCU: 0x27719, offset: 0x43D5A1, size: 0x8, addend: 0x0, symName: __ZNSt3__120__shared_ptr_emplaceIN3tns6CachesENS_9allocatorIS2_EEEC2B7v160006IJRPN2v87IsolateERKiEEES4_DpOT_, symObjAddr: 0x1C64, symBinAddr: 0x53124, symSize: 0x44 }
  - { offsetInCU: 0x2783A, offset: 0x43D6C2, size: 0x8, addend: 0x0, symName: '__ZZN3tns7Runtime16DefineTimeMethodEPN2v87IsolateENS1_5LocalINS1_14ObjectTemplateEEEEN3$_18__invokeERKNS1_20FunctionCallbackInfoINS1_5ValueEEE', symObjAddr: 0x1CA8, symBinAddr: 0x53168, symSize: 0x40 }
  - { offsetInCU: 0x2796E, offset: 0x43D7F6, size: 0x8, addend: 0x0, symName: '__ZZN3tns7Runtime26DefineDrainMicrotaskMethodEPN2v87IsolateENS1_5LocalINS1_14ObjectTemplateEEEEN3$_28__invokeERKNS1_20FunctionCallbackInfoINS1_5ValueEEE', symObjAddr: 0x1CE8, symBinAddr: 0x531A8, symSize: 0x12 }
  - { offsetInCU: 0x27AC9, offset: 0x43D951, size: 0x8, addend: 0x0, symName: __ZN10robin_hood6detail5TableILb1ELm80ENSt3__112basic_stringIcNS2_11char_traitsIcEENS2_9allocatorIcEEEENS2_10shared_ptrIN2v810PersistentINSA_6ObjectENSA_27NonCopyablePersistentTraitsISC_EEEEEENS_4hashIS8_vEENS2_8equal_toIS8_EEE7destroyEv, symObjAddr: 0x1D98, symBinAddr: 0x53218, symSize: 0x3C }
  - { offsetInCU: 0x27B08, offset: 0x43D990, size: 0x8, addend: 0x0, symName: __ZNK10robin_hood6detail5TableILb1ELm80ENSt3__112basic_stringIcNS2_11char_traitsIcEENS2_9allocatorIcEEEENS2_10shared_ptrIN2v810PersistentINSA_6ObjectENSA_27NonCopyablePersistentTraitsISC_EEEEEENS_4hashIS8_vEENS2_8equal_toIS8_EEE9DestroyerISL_Lb0EE20nodesDoNotDeallocateERSL_, symObjAddr: 0x1DD4, symBinAddr: 0x53254, symSize: 0xD8 }
  - { offsetInCU: 0x28024, offset: 0x43DEAC, size: 0x8, addend: 0x0, symName: __ZNSt3__117bad_function_callD0Ev, symObjAddr: 0x1FB0, symBinAddr: 0x533C0, symSize: 0x1C }
  - { offsetInCU: 0x28087, offset: 0x43DF0F, size: 0x8, addend: 0x0, symName: '__ZNSt3__110__function6__funcIZN3tns7RuntimeD1EvE3$_0NS_9allocatorIS4_EEFbRiRNS_10shared_ptrINS2_6Caches11WorkerStateEEEEED1Ev', symObjAddr: 0x1FCC, symBinAddr: 0x533DC, symSize: 0x6 }
  - { offsetInCU: 0x280B0, offset: 0x43DF38, size: 0x8, addend: 0x0, symName: '__ZNSt3__110__function6__funcIZN3tns7RuntimeD1EvE3$_0NS_9allocatorIS4_EEFbRiRNS_10shared_ptrINS2_6Caches11WorkerStateEEEEED0Ev', symObjAddr: 0x1FD2, symBinAddr: 0x533E2, symSize: 0xA }
  - { offsetInCU: 0x282B5, offset: 0x43E13D, size: 0x8, addend: 0x0, symName: '__ZNKSt3__110__function6__funcIZN3tns7RuntimeD1EvE3$_0NS_9allocatorIS4_EEFbRiRNS_10shared_ptrINS2_6Caches11WorkerStateEEEEE7__cloneEv', symObjAddr: 0x1FDC, symBinAddr: 0x533EC, symSize: 0x2C }
  - { offsetInCU: 0x285E0, offset: 0x43E468, size: 0x8, addend: 0x0, symName: '__ZNKSt3__110__function6__funcIZN3tns7RuntimeD1EvE3$_0NS_9allocatorIS4_EEFbRiRNS_10shared_ptrINS2_6Caches11WorkerStateEEEEE7__cloneEPNS0_6__baseISD_EE', symObjAddr: 0x2008, symBinAddr: 0x53418, symSize: 0x18 }
  - { offsetInCU: 0x2875F, offset: 0x43E5E7, size: 0x8, addend: 0x0, symName: '__ZNSt3__110__function6__funcIZN3tns7RuntimeD1EvE3$_0NS_9allocatorIS4_EEFbRiRNS_10shared_ptrINS2_6Caches11WorkerStateEEEEE7destroyEv', symObjAddr: 0x2020, symBinAddr: 0x53430, symSize: 0x6 }
  - { offsetInCU: 0x287AE, offset: 0x43E636, size: 0x8, addend: 0x0, symName: '__ZNSt3__110__function6__funcIZN3tns7RuntimeD1EvE3$_0NS_9allocatorIS4_EEFbRiRNS_10shared_ptrINS2_6Caches11WorkerStateEEEEE18destroy_deallocateEv', symObjAddr: 0x2026, symBinAddr: 0x53436, symSize: 0xA }
  - { offsetInCU: 0x28967, offset: 0x43E7EF, size: 0x8, addend: 0x0, symName: '__ZNSt3__110__function6__funcIZN3tns7RuntimeD1EvE3$_0NS_9allocatorIS4_EEFbRiRNS_10shared_ptrINS2_6Caches11WorkerStateEEEEEclES7_SC_', symObjAddr: 0x2030, symBinAddr: 0x53440, symSize: 0x22 }
  - { offsetInCU: 0x28B86, offset: 0x43EA0E, size: 0x8, addend: 0x0, symName: __ZN10robin_hood6detail5TableILb1ELm80EiNSt3__110shared_ptrIN3tns6Caches11WorkerStateEEENS_4hashIivEENS2_8equal_toIiEEE9shiftDownEm, symObjAddr: 0x2222, symBinAddr: 0x53512, symSize: 0x8C }
  - { offsetInCU: 0x28E64, offset: 0x43ECEC, size: 0x8, addend: 0x0, symName: __ZNSt3__120__shared_ptr_pointerIPN2v88PlatformENS_14default_deleteIS2_EENS_9allocatorIS2_EEED1Ev, symObjAddr: 0x22F8, symBinAddr: 0x535A8, symSize: 0xA }
  - { offsetInCU: 0x28EB9, offset: 0x43ED41, size: 0x8, addend: 0x0, symName: __ZNSt3__120__shared_ptr_pointerIPN2v88PlatformENS_14default_deleteIS2_EENS_9allocatorIS2_EEED0Ev, symObjAddr: 0x2302, symBinAddr: 0x535B2, symSize: 0x1C }
  - { offsetInCU: 0x28F1E, offset: 0x43EDA6, size: 0x8, addend: 0x0, symName: __ZNSt3__120__shared_ptr_pointerIPN2v88PlatformENS_14default_deleteIS2_EENS_9allocatorIS2_EEE16__on_zero_sharedEv, symObjAddr: 0x231E, symBinAddr: 0x535CE, symSize: 0x16 }
  - { offsetInCU: 0x28FC6, offset: 0x43EE4E, size: 0x8, addend: 0x0, symName: __ZNSt3__120__shared_ptr_pointerIPN2v88PlatformENS_14default_deleteIS2_EENS_9allocatorIS2_EEE21__on_zero_shared_weakEv, symObjAddr: 0x2334, symBinAddr: 0x535E4, symSize: 0xA }
  - { offsetInCU: 0x29334, offset: 0x43F1BC, size: 0x8, addend: 0x0, symName: __ZNSt3__110__function6__funcIPFN2v85LocalINS2_16FunctionTemplateEEENS3_INS2_7ContextEEEPKN3tns13BaseClassMetaENS8_21KnownUnknownClassPairERKNS_6vectorINS_12basic_stringIcNS_11char_traitsIcEENS_9allocatorIcEEEENSH_ISJ_EEEEENSH_ISP_EESO_ED1Ev, symObjAddr: 0x2476, symBinAddr: 0x53636, symSize: 0x6 }
  - { offsetInCU: 0x29360, offset: 0x43F1E8, size: 0x8, addend: 0x0, symName: __ZNSt3__110__function6__funcIPFN2v85LocalINS2_16FunctionTemplateEEENS3_INS2_7ContextEEEPKN3tns13BaseClassMetaENS8_21KnownUnknownClassPairERKNS_6vectorINS_12basic_stringIcNS_11char_traitsIcEENS_9allocatorIcEEEENSH_ISJ_EEEEENSH_ISP_EESO_ED0Ev, symObjAddr: 0x247C, symBinAddr: 0x5363C, symSize: 0xA }
  - { offsetInCU: 0x29565, offset: 0x43F3ED, size: 0x8, addend: 0x0, symName: __ZNKSt3__110__function6__funcIPFN2v85LocalINS2_16FunctionTemplateEEENS3_INS2_7ContextEEEPKN3tns13BaseClassMetaENS8_21KnownUnknownClassPairERKNS_6vectorINS_12basic_stringIcNS_11char_traitsIcEENS_9allocatorIcEEEENSH_ISJ_EEEEENSH_ISP_EESO_E7__cloneEv, symObjAddr: 0x2486, symBinAddr: 0x53646, symSize: 0x30 }
  - { offsetInCU: 0x29890, offset: 0x43F718, size: 0x8, addend: 0x0, symName: __ZNKSt3__110__function6__funcIPFN2v85LocalINS2_16FunctionTemplateEEENS3_INS2_7ContextEEEPKN3tns13BaseClassMetaENS8_21KnownUnknownClassPairERKNS_6vectorINS_12basic_stringIcNS_11char_traitsIcEENS_9allocatorIcEEEENSH_ISJ_EEEEENSH_ISP_EESO_E7__cloneEPNS0_6__baseISO_EE, symObjAddr: 0x24B6, symBinAddr: 0x53676, symSize: 0x1C }
  - { offsetInCU: 0x29A0F, offset: 0x43F897, size: 0x8, addend: 0x0, symName: __ZNSt3__110__function6__funcIPFN2v85LocalINS2_16FunctionTemplateEEENS3_INS2_7ContextEEEPKN3tns13BaseClassMetaENS8_21KnownUnknownClassPairERKNS_6vectorINS_12basic_stringIcNS_11char_traitsIcEENS_9allocatorIcEEEENSH_ISJ_EEEEENSH_ISP_EESO_E7destroyEv, symObjAddr: 0x24D2, symBinAddr: 0x53692, symSize: 0x6 }
  - { offsetInCU: 0x29A61, offset: 0x43F8E9, size: 0x8, addend: 0x0, symName: __ZNSt3__110__function6__funcIPFN2v85LocalINS2_16FunctionTemplateEEENS3_INS2_7ContextEEEPKN3tns13BaseClassMetaENS8_21KnownUnknownClassPairERKNS_6vectorINS_12basic_stringIcNS_11char_traitsIcEENS_9allocatorIcEEEENSH_ISJ_EEEEENSH_ISP_EESO_E18destroy_deallocateEv, symObjAddr: 0x24D8, symBinAddr: 0x53698, symSize: 0xA }
  - { offsetInCU: 0x29BE8, offset: 0x43FA70, size: 0x8, addend: 0x0, symName: __ZNSt3__110__function6__funcIPFN2v85LocalINS2_16FunctionTemplateEEENS3_INS2_7ContextEEEPKN3tns13BaseClassMetaENS8_21KnownUnknownClassPairERKNS_6vectorINS_12basic_stringIcNS_11char_traitsIcEENS_9allocatorIcEEEENSH_ISJ_EEEEENSH_ISP_EESO_EclEOS7_OSB_OSC_SN_, symObjAddr: 0x24E2, symBinAddr: 0x536A2, symSize: 0x18 }
  - { offsetInCU: 0x29D34, offset: 0x43FBBC, size: 0x8, addend: 0x0, symName: __ZNSt3__110__function6__funcIPFN2v85LocalINS2_8FunctionEEENS3_INS2_7ContextEEEN3tns10StructInfoEENS_9allocatorISB_EESA_ED1Ev, symObjAddr: 0x260E, symBinAddr: 0x537CE, symSize: 0x6 }
  - { offsetInCU: 0x29D60, offset: 0x43FBE8, size: 0x8, addend: 0x0, symName: __ZNSt3__110__function6__funcIPFN2v85LocalINS2_8FunctionEEENS3_INS2_7ContextEEEN3tns10StructInfoEENS_9allocatorISB_EESA_ED0Ev, symObjAddr: 0x2614, symBinAddr: 0x537D4, symSize: 0xA }
  - { offsetInCU: 0x29F65, offset: 0x43FDED, size: 0x8, addend: 0x0, symName: __ZNKSt3__110__function6__funcIPFN2v85LocalINS2_8FunctionEEENS3_INS2_7ContextEEEN3tns10StructInfoEENS_9allocatorISB_EESA_E7__cloneEv, symObjAddr: 0x261E, symBinAddr: 0x537DE, symSize: 0x30 }
  - { offsetInCU: 0x2A290, offset: 0x440118, size: 0x8, addend: 0x0, symName: __ZNKSt3__110__function6__funcIPFN2v85LocalINS2_8FunctionEEENS3_INS2_7ContextEEEN3tns10StructInfoEENS_9allocatorISB_EESA_E7__cloneEPNS0_6__baseISA_EE, symObjAddr: 0x264E, symBinAddr: 0x5380E, symSize: 0x1C }
  - { offsetInCU: 0x2A40F, offset: 0x440297, size: 0x8, addend: 0x0, symName: __ZNSt3__110__function6__funcIPFN2v85LocalINS2_8FunctionEEENS3_INS2_7ContextEEEN3tns10StructInfoEENS_9allocatorISB_EESA_E7destroyEv, symObjAddr: 0x266A, symBinAddr: 0x5382A, symSize: 0x6 }
  - { offsetInCU: 0x2A461, offset: 0x4402E9, size: 0x8, addend: 0x0, symName: __ZNSt3__110__function6__funcIPFN2v85LocalINS2_8FunctionEEENS3_INS2_7ContextEEEN3tns10StructInfoEENS_9allocatorISB_EESA_E18destroy_deallocateEv, symObjAddr: 0x2670, symBinAddr: 0x53830, symSize: 0xA }
  - { offsetInCU: 0x2A564, offset: 0x4403EC, size: 0x8, addend: 0x0, symName: __ZNSt3__110__function6__funcIPFN2v85LocalINS2_8FunctionEEENS3_INS2_7ContextEEEN3tns10StructInfoEENS_9allocatorISB_EESA_EclEOS7_OS9_, symObjAddr: 0x267A, symBinAddr: 0x5383A, symSize: 0xE }
  - { offsetInCU: 0x2A5E5, offset: 0x44046D, size: 0x8, addend: 0x0, symName: __ZNSt3__128__invoke_void_return_wrapperIN2v85LocalINS1_8FunctionEEELb0EE6__callIJRPFS4_NS2_INS1_7ContextEEEN3tns10StructInfoEES8_SA_EEES4_DpOT_, symObjAddr: 0x2688, symBinAddr: 0x53848, symSize: 0x96 }
  - { offsetInCU: 0x3F, offset: 0x441095, size: 0x8, addend: 0x0, symName: __ZN4rnv89V8Runtime10s_platformE, symObjAddr: 0x18CAF8, symBinAddr: 0x16C0E30, symSize: 0x0 }
  - { offsetInCU: 0x9B4, offset: 0x441A0A, size: 0x8, addend: 0x0, symName: __ZN4rnv816s_platform_mutexE, symObjAddr: 0x75E0, symBinAddr: 0xE35D98, symSize: 0x0 }
  - { offsetInCU: 0x9D0, offset: 0x441A26, size: 0x8, addend: 0x0, symName: __ZN4rnv812_GLOBAL__N_122kHostFunctionProxyPropE, symObjAddr: 0x7A40, symBinAddr: 0xCB99D0, symSize: 0x0 }
  - { offsetInCU: 0x66FE, offset: 0x447754, size: 0x8, addend: 0x0, symName: __ZNSt3__1lsB7v160006IcNS_11char_traitsIcEENS_9allocatorIcEEEERNS_13basic_ostreamIT_T0_EES9_RKNS_12basic_stringIS6_S7_T1_EE, symObjAddr: 0x828, symBinAddr: 0x541F8, symSize: 0x22 }
  - { offsetInCU: 0x67C1, offset: 0x447817, size: 0x8, addend: 0x0, symName: __ZNSt3__14endlB7v160006IcNS_11char_traitsIcEEEERNS_13basic_ostreamIT_T0_EES7_, symObjAddr: 0x84A, symBinAddr: 0x5421A, symSize: 0x82 }
  - { offsetInCU: 0x6B3C, offset: 0x447B92, size: 0x8, addend: 0x0, symName: __ZNSt3__119__allocate_at_leastB7v160006INS_9allocatorIN2v85LocalINS2_5ValueEEEEEEENS_19__allocation_resultINS_16allocator_traitsIT_E7pointerEEERS9_m, symObjAddr: 0x61CC, symBinAddr: 0x5911C, symSize: 0x2E }
  - { offsetInCU: 0x6BE0, offset: 0x447C36, size: 0x8, addend: 0x0, symName: __ZN4rnv89V8RuntimeC2Ev.cold.1, symObjAddr: 0x61FA, symBinAddr: 0xCB5E5A, symSize: 0x1B }
  - { offsetInCU: 0x6ED3, offset: 0x447F29, size: 0x8, addend: 0x0, symName: __ZNSt3__120__throw_length_errorB7v160006EPKc, symObjAddr: 0x5CE0, symBinAddr: 0x59070, symSize: 0x4C }
  - { offsetInCU: 0x9EE2, offset: 0x44AF38, size: 0x8, addend: 0x0, symName: __ZNSt3__110unique_ptrIN2v88PlatformENS_14default_deleteIS2_EEED1B7v160006Ev, symObjAddr: 0x0, symBinAddr: 0x53A90, symSize: 0x20 }
  - { offsetInCU: 0xA312, offset: 0x44B368, size: 0x8, addend: 0x0, symName: __ZN4rnv89V8RuntimeC2Ev, symObjAddr: 0x20, symBinAddr: 0x53AB0, symSize: 0x148 }
  - { offsetInCU: 0xA71A, offset: 0x44B770, size: 0x8, addend: 0x0, symName: __ZN4rnv89V8RuntimeC2Ev.cold.1, symObjAddr: 0x61FA, symBinAddr: 0xCB5E5A, symSize: 0x1B }
  - { offsetInCU: 0xA7A5, offset: 0x44B7FB, size: 0x8, addend: 0x0, symName: __ZN4rnv89V8RuntimeC1Ev, symObjAddr: 0x168, symBinAddr: 0x53BF8, symSize: 0xA }
  - { offsetInCU: 0xA7DE, offset: 0x44B834, size: 0x8, addend: 0x0, symName: __ZN4rnv89V8Runtime10GetIsolateEv, symObjAddr: 0x172, symBinAddr: 0x53C02, symSize: 0x12 }
  - { offsetInCU: 0xA834, offset: 0x44B88A, size: 0x8, addend: 0x0, symName: __ZN4rnv89V8RuntimeD2Ev, symObjAddr: 0x184, symBinAddr: 0x53C14, symSize: 0xBC }
  - { offsetInCU: 0xAABD, offset: 0x44BB13, size: 0x8, addend: 0x0, symName: __ZN4rnv89V8RuntimeD1Ev, symObjAddr: 0x24C, symBinAddr: 0x53CDC, symSize: 0xA }
  - { offsetInCU: 0xAB09, offset: 0x44BB5F, size: 0x8, addend: 0x0, symName: __ZN4rnv89V8RuntimeD0Ev, symObjAddr: 0x256, symBinAddr: 0x53CE6, symSize: 0x1C }
  - { offsetInCU: 0xAB60, offset: 0x44BBB6, size: 0x8, addend: 0x0, symName: __ZN4rnv89V8Runtime14OnMainLoopIdleEv, symObjAddr: 0x272, symBinAddr: 0x53D02, symSize: 0x6 }
  - { offsetInCU: 0xAF3C, offset: 0x44BF92, size: 0x8, addend: 0x0, symName: __ZNK4rnv89V8Runtime15ReportExceptionEPN2v87IsolateEPNS1_8TryCatchE, symObjAddr: 0x278, symBinAddr: 0x53D08, symSize: 0x4EC }
  - { offsetInCU: 0xC2D9, offset: 0x44D32F, size: 0x8, addend: 0x0, symName: __ZN4rnv89V8Runtime11GetPlatformEv, symObjAddr: 0x942, symBinAddr: 0x542A2, symSize: 0xE }
  - { offsetInCU: 0xC36C, offset: 0x44D3C2, size: 0x8, addend: 0x0, symName: __ZN4rnv89V8Runtime18evaluateJavaScriptERKNSt3__110shared_ptrIKN8facebook3jsi6BufferEEERKNS1_12basic_stringIcNS1_11char_traitsIcEENS1_9allocatorIcEEEE, symObjAddr: 0x950, symBinAddr: 0x542B0, symSize: 0x10 }
  - { offsetInCU: 0xC453, offset: 0x44D4A9, size: 0x8, addend: 0x0, symName: __ZN4rnv89V8Runtime17prepareJavaScriptERKNSt3__110shared_ptrIKN8facebook3jsi6BufferEEENS1_12basic_stringIcNS1_11char_traitsIcEENS1_9allocatorIcEEEE, symObjAddr: 0x960, symBinAddr: 0x542C0, symSize: 0x10 }
  - { offsetInCU: 0xC5AB, offset: 0x44D601, size: 0x8, addend: 0x0, symName: __ZN4rnv89V8Runtime26evaluatePreparedJavaScriptERKNSt3__110shared_ptrIKN8facebook3jsi18PreparedJavaScriptEEE, symObjAddr: 0x970, symBinAddr: 0x542D0, symSize: 0xA6 }
  - { offsetInCU: 0xCBE6, offset: 0x44DC3C, size: 0x8, addend: 0x0, symName: __ZNKSt3__112basic_stringIcNS_11char_traitsIcEENS_9allocatorIcEEE20__throw_length_errorB7v160006Ev, symObjAddr: 0x5CD0, symBinAddr: 0x59060, symSize: 0x10 }
  - { offsetInCU: 0xCBF8, offset: 0x44DC4E, size: 0x8, addend: 0x0, symName: __ZNSt3__110shared_ptrIKN8facebook3jsi6BufferEED2B7v160006Ev, symObjAddr: 0x5D80, symBinAddr: 0x590C0, symSize: 0x3F }
  - { offsetInCU: 0xCD72, offset: 0x44DDC8, size: 0x8, addend: 0x0, symName: __ZN4rnv89V8Runtime15drainMicrotasksEi, symObjAddr: 0xA16, symBinAddr: 0x54376, symSize: 0xF6 }
  - { offsetInCU: 0xD0CC, offset: 0x44E122, size: 0x8, addend: 0x0, symName: __ZN4rnv89V8Runtime6globalEv, symObjAddr: 0xB0C, symBinAddr: 0x5446C, symSize: 0x140 }
  - { offsetInCU: 0xD46E, offset: 0x44E4C4, size: 0x8, addend: 0x0, symName: __ZN4rnv89V8Runtime11descriptionEv, symObjAddr: 0xC4C, symBinAddr: 0x545AC, symSize: 0xF8 }
  - { offsetInCU: 0xD6D0, offset: 0x44E726, size: 0x8, addend: 0x0, symName: __ZN4rnv89V8Runtime13isInspectableEv, symObjAddr: 0xD44, symBinAddr: 0x546A4, symSize: 0x8 }
  - { offsetInCU: 0xD6F4, offset: 0x44E74A, size: 0x8, addend: 0x0, symName: __ZN4rnv89V8Runtime11cloneSymbolEPKN8facebook3jsi7Runtime12PointerValueE, symObjAddr: 0xD4C, symBinAddr: 0x546AC, symSize: 0x166 }
  - { offsetInCU: 0xD95C, offset: 0x44E9B2, size: 0x8, addend: 0x0, symName: __ZN4rnv89V8Runtime11cloneBigIntEPKN8facebook3jsi7Runtime12PointerValueE, symObjAddr: 0xEB2, symBinAddr: 0x54812, symSize: 0x166 }
  - { offsetInCU: 0xDBFC, offset: 0x44EC52, size: 0x8, addend: 0x0, symName: __ZN4rnv89V8Runtime11cloneStringEPKN8facebook3jsi7Runtime12PointerValueE, symObjAddr: 0x1018, symBinAddr: 0x54978, symSize: 0x17A }
  - { offsetInCU: 0xDF7A, offset: 0x44EFD0, size: 0x8, addend: 0x0, symName: __ZN4rnv89V8Runtime11cloneObjectEPKN8facebook3jsi7Runtime12PointerValueE, symObjAddr: 0x1192, symBinAddr: 0x54AF2, symSize: 0x166 }
  - { offsetInCU: 0xE1E2, offset: 0x44F238, size: 0x8, addend: 0x0, symName: __ZN4rnv89V8Runtime15clonePropNameIDEPKN8facebook3jsi7Runtime12PointerValueE, symObjAddr: 0x12F8, symBinAddr: 0x54C58, symSize: 0xE }
  - { offsetInCU: 0xE281, offset: 0x44F2D7, size: 0x8, addend: 0x0, symName: __ZN4rnv89V8Runtime25createPropNameIDFromAsciiEPKcm, symObjAddr: 0x1306, symBinAddr: 0x54C66, symSize: 0x14C }
  - { offsetInCU: 0xE5D1, offset: 0x44F627, size: 0x8, addend: 0x0, symName: __ZN8facebook3jsi7JSErrorC1ERNS0_7RuntimeEPKc, symObjAddr: 0x1452, symBinAddr: 0x54DB2, symSize: 0x64 }
  - { offsetInCU: 0xE8AD, offset: 0x44F903, size: 0x8, addend: 0x0, symName: __ZN4rnv89V8Runtime24createPropNameIDFromUtf8EPKhm, symObjAddr: 0x14B6, symBinAddr: 0x54E16, symSize: 0x14C }
  - { offsetInCU: 0xEC23, offset: 0x44FC79, size: 0x8, addend: 0x0, symName: __ZN4rnv89V8Runtime26createPropNameIDFromStringERKN8facebook3jsi6StringE, symObjAddr: 0x1602, symBinAddr: 0x54F62, symSize: 0x18C }
  - { offsetInCU: 0xF038, offset: 0x45008E, size: 0x8, addend: 0x0, symName: __ZN4rnv89V8Runtime26createPropNameIDFromSymbolERKN8facebook3jsi6SymbolE, symObjAddr: 0x178E, symBinAddr: 0x550EE, symSize: 0x122 }
  - { offsetInCU: 0xF37D, offset: 0x4503D3, size: 0x8, addend: 0x0, symName: __ZN4rnv89V8Runtime4utf8ERKN8facebook3jsi10PropNameIDE, symObjAddr: 0x18B0, symBinAddr: 0x55210, symSize: 0x12A }
  - { offsetInCU: 0xF62C, offset: 0x450682, size: 0x8, addend: 0x0, symName: __ZN4rnv89V8Runtime7compareERKN8facebook3jsi10PropNameIDES5_, symObjAddr: 0x19DA, symBinAddr: 0x5533A, symSize: 0x114 }
  - { offsetInCU: 0xFA1F, offset: 0x450A75, size: 0x8, addend: 0x0, symName: __ZN4rnv89V8Runtime14symbolToStringERKN8facebook3jsi6SymbolE, symObjAddr: 0x1AEE, symBinAddr: 0x5544E, symSize: 0xA2 }
  - { offsetInCU: 0xFC92, offset: 0x450CE8, size: 0x8, addend: 0x0, symName: __ZN4rnv89V8Runtime21createStringFromAsciiEPKcm, symObjAddr: 0x1B90, symBinAddr: 0x554F0, symSize: 0x14C }
  - { offsetInCU: 0xFFBA, offset: 0x451010, size: 0x8, addend: 0x0, symName: __ZN4rnv89V8Runtime20createStringFromUtf8EPKhm, symObjAddr: 0x1CDC, symBinAddr: 0x5563C, symSize: 0x14C }
  - { offsetInCU: 0x102E2, offset: 0x451338, size: 0x8, addend: 0x0, symName: __ZN4rnv89V8Runtime4utf8ERKN8facebook3jsi6StringE, symObjAddr: 0x1E28, symBinAddr: 0x55788, symSize: 0x17A }
  - { offsetInCU: 0x106A9, offset: 0x4516FF, size: 0x8, addend: 0x0, symName: __ZN4rnv89V8Runtime12createObjectEv, symObjAddr: 0x1FA2, symBinAddr: 0x55902, symSize: 0x122 }
  - { offsetInCU: 0x10BC8, offset: 0x451C1E, size: 0x8, addend: 0x0, symName: __ZN4rnv89V8Runtime12createObjectENSt3__110shared_ptrIN8facebook3jsi10HostObjectEEE, symObjAddr: 0x20C4, symBinAddr: 0x55A24, symSize: 0x2A4 }
  - { offsetInCU: 0x111D9, offset: 0x45222F, size: 0x8, addend: 0x0, symName: __ZN4rnv815HostObjectProxyD1Ev, symObjAddr: 0x2368, symBinAddr: 0x55CC8, symSize: 0x3A }
  - { offsetInCU: 0x11419, offset: 0x45246F, size: 0x8, addend: 0x0, symName: __ZN4rnv89V8Runtime13getHostObjectERKN8facebook3jsi6ObjectE, symObjAddr: 0x23A2, symBinAddr: 0x55D02, symSize: 0x184 }
  - { offsetInCU: 0x1182F, offset: 0x452885, size: 0x8, addend: 0x0, symName: __ZN4rnv89V8Runtime13getHostObjectERKN8facebook3jsi6ObjectE.cold.1, symObjAddr: 0x6215, symBinAddr: 0xCB5E75, symSize: 0x23 }
  - { offsetInCU: 0x11861, offset: 0x4528B7, size: 0x8, addend: 0x0, symName: __ZN4rnv89V8Runtime15getHostFunctionERKN8facebook3jsi8FunctionE, symObjAddr: 0x2526, symBinAddr: 0x55E86, symSize: 0x1E6 }
  - { offsetInCU: 0x11B93, offset: 0x452BE9, size: 0x8, addend: 0x0, symName: __ZN4rnv89V8Runtime15getHostFunctionERKN8facebook3jsi8FunctionE.cold.1, symObjAddr: 0x6238, symBinAddr: 0xCB5E98, symSize: 0x23 }
  - { offsetInCU: 0x11BB2, offset: 0x452C08, size: 0x8, addend: 0x0, symName: __ZN4rnv89V8Runtime11getPropertyERKN8facebook3jsi6ObjectERKNS2_10PropNameIDE, symObjAddr: 0x270C, symBinAddr: 0x5606C, symSize: 0x1AA }
  - { offsetInCU: 0x11F0C, offset: 0x452F62, size: 0x8, addend: 0x0, symName: __ZN4rnv89V8Runtime11getPropertyERKN8facebook3jsi6ObjectERKNS2_6StringE, symObjAddr: 0x28B6, symBinAddr: 0x56216, symSize: 0x1AA }
  - { offsetInCU: 0x12280, offset: 0x4532D6, size: 0x8, addend: 0x0, symName: __ZN4rnv89V8Runtime11hasPropertyERKN8facebook3jsi6ObjectERKNS2_10PropNameIDE, symObjAddr: 0x2A60, symBinAddr: 0x563C0, symSize: 0x188 }
  - { offsetInCU: 0x12555, offset: 0x4535AB, size: 0x8, addend: 0x0, symName: __ZN4rnv89V8Runtime11hasPropertyERKN8facebook3jsi6ObjectERKNS2_6StringE, symObjAddr: 0x2BE8, symBinAddr: 0x56548, symSize: 0x188 }
  - { offsetInCU: 0x1282A, offset: 0x453880, size: 0x8, addend: 0x0, symName: __ZN4rnv89V8Runtime16setPropertyValueERN8facebook3jsi6ObjectERKNS2_10PropNameIDERKNS2_5ValueE, symObjAddr: 0x2D70, symBinAddr: 0x566D0, symSize: 0x176 }
  - { offsetInCU: 0x12AF5, offset: 0x453B4B, size: 0x8, addend: 0x0, symName: __ZN4rnv89V8Runtime16setPropertyValueERN8facebook3jsi6ObjectERKNS2_6StringERKNS2_5ValueE, symObjAddr: 0x2EE6, symBinAddr: 0x56846, symSize: 0x176 }
  - { offsetInCU: 0x12DC0, offset: 0x453E16, size: 0x8, addend: 0x0, symName: __ZNK4rnv89V8Runtime7isArrayERKN8facebook3jsi6ObjectE, symObjAddr: 0x305C, symBinAddr: 0x569BC, symSize: 0xF2 }
  - { offsetInCU: 0x1303E, offset: 0x454094, size: 0x8, addend: 0x0, symName: __ZNK4rnv89V8Runtime13isArrayBufferERKN8facebook3jsi6ObjectE, symObjAddr: 0x314E, symBinAddr: 0x56AAE, symSize: 0xF2 }
  - { offsetInCU: 0x132BC, offset: 0x454312, size: 0x8, addend: 0x0, symName: __ZNK4rnv89V8Runtime10isFunctionERKN8facebook3jsi6ObjectE, symObjAddr: 0x3240, symBinAddr: 0x56BA0, symSize: 0xF2 }
  - { offsetInCU: 0x1353A, offset: 0x454590, size: 0x8, addend: 0x0, symName: __ZNK4rnv89V8Runtime12isHostObjectERKN8facebook3jsi6ObjectE, symObjAddr: 0x3332, symBinAddr: 0x56C92, symSize: 0xF8 }
  - { offsetInCU: 0x137F7, offset: 0x45484D, size: 0x8, addend: 0x0, symName: __ZNK4rnv89V8Runtime14isHostFunctionERKN8facebook3jsi8FunctionE, symObjAddr: 0x342A, symBinAddr: 0x56D8A, symSize: 0x14A }
  - { offsetInCU: 0x13C39, offset: 0x454C8F, size: 0x8, addend: 0x0, symName: __ZN4rnv89V8Runtime16getPropertyNamesERKN8facebook3jsi6ObjectE, symObjAddr: 0x3574, symBinAddr: 0x56ED4, symSize: 0x1BA }
  - { offsetInCU: 0x142BB, offset: 0x455311, size: 0x8, addend: 0x0, symName: __ZN4rnv89V8Runtime16createWeakObjectERKN8facebook3jsi6ObjectE, symObjAddr: 0x372E, symBinAddr: 0x5708E, symSize: 0x1B2 }
  - { offsetInCU: 0x1481F, offset: 0x455875, size: 0x8, addend: 0x0, symName: __ZN4rnv89V8Runtime14lockWeakObjectERN8facebook3jsi10WeakObjectE, symObjAddr: 0x38E0, symBinAddr: 0x57240, symSize: 0x14A }
  - { offsetInCU: 0x14ABB, offset: 0x455B11, size: 0x8, addend: 0x0, symName: __ZN4rnv89V8Runtime11createArrayEm, symObjAddr: 0x3A2A, symBinAddr: 0x5738A, symSize: 0x180 }
  - { offsetInCU: 0x14F54, offset: 0x455FAA, size: 0x8, addend: 0x0, symName: __ZN4rnv89V8Runtime4sizeERKN8facebook3jsi5ArrayE, symObjAddr: 0x3BAA, symBinAddr: 0x5750A, symSize: 0xF6 }
  - { offsetInCU: 0x151D2, offset: 0x456228, size: 0x8, addend: 0x0, symName: __ZN4rnv89V8Runtime4sizeERKN8facebook3jsi11ArrayBufferE, symObjAddr: 0x3CA0, symBinAddr: 0x57600, symSize: 0x128 }
  - { offsetInCU: 0x154B0, offset: 0x456506, size: 0x8, addend: 0x0, symName: __ZN4rnv89V8Runtime4dataERKN8facebook3jsi11ArrayBufferE, symObjAddr: 0x3DC8, symBinAddr: 0x57728, symSize: 0x172 }
  - { offsetInCU: 0x1587F, offset: 0x4568D5, size: 0x8, addend: 0x0, symName: __ZN4rnv89V8Runtime15getValueAtIndexERKN8facebook3jsi5ArrayEm, symObjAddr: 0x3F3A, symBinAddr: 0x5789A, symSize: 0x174 }
  - { offsetInCU: 0x15B45, offset: 0x456B9B, size: 0x8, addend: 0x0, symName: __ZN4rnv89V8Runtime19setValueAtIndexImplERN8facebook3jsi5ArrayEmRKNS2_5ValueE, symObjAddr: 0x40AE, symBinAddr: 0x57A0E, symSize: 0x168 }
  - { offsetInCU: 0x15F7D, offset: 0x456FD3, size: 0x8, addend: 0x0, symName: __ZN4rnv89V8Runtime30createFunctionFromHostFunctionERKN8facebook3jsi10PropNameIDEjNSt3__18functionIFNS2_5ValueERNS2_7RuntimeERKS8_PSB_mEEE, symObjAddr: 0x4216, symBinAddr: 0x57B76, symSize: 0x2B6 }
  - { offsetInCU: 0x16B0F, offset: 0x457B65, size: 0x8, addend: 0x0, symName: __ZN4rnv89V8Runtime30OnHostFuncionContainerCallbackERKN2v820FunctionCallbackInfoINS1_5ValueEEE, symObjAddr: 0x44CC, symBinAddr: 0x57E2C, symSize: 0x1E2 }
  - { offsetInCU: 0x17540, offset: 0x458596, size: 0x8, addend: 0x0, symName: __ZNKSt3__16vectorIN2v85LocalINS1_5ValueEEENS_9allocatorIS4_EEE20__throw_length_errorB7v160006Ev, symObjAddr: 0x61BC, symBinAddr: 0x5910C, symSize: 0x10 }
  - { offsetInCU: 0x17569, offset: 0x4585BF, size: 0x8, addend: 0x0, symName: __ZNSt3__119__allocate_at_leastB7v160006INS_9allocatorIN2v85LocalINS2_5ValueEEEEEEENS_19__allocation_resultINS_16allocator_traitsIT_E7pointerEEERS9_m, symObjAddr: 0x61CC, symBinAddr: 0x5911C, symSize: 0x2E }
  - { offsetInCU: 0x17711, offset: 0x458767, size: 0x8, addend: 0x0, symName: __ZN4rnv89V8Runtime4callERKN8facebook3jsi8FunctionERKNS2_5ValueEPS7_m, symObjAddr: 0x46AE, symBinAddr: 0x5800E, symSize: 0x350 }
  - { offsetInCU: 0x183AE, offset: 0x459404, size: 0x8, addend: 0x0, symName: __ZN4rnv89V8Runtime17callAsConstructorERKN8facebook3jsi8FunctionEPKNS2_5ValueEm, symObjAddr: 0x49FE, symBinAddr: 0x5835E, symSize: 0x336 }
  - { offsetInCU: 0x18F5C, offset: 0x459FB2, size: 0x8, addend: 0x0, symName: __ZNK4rnv89V8Runtime12strictEqualsERKN8facebook3jsi6SymbolES5_, symObjAddr: 0x4D34, symBinAddr: 0x58694, symSize: 0x152 }
  - { offsetInCU: 0x1922C, offset: 0x45A282, size: 0x8, addend: 0x0, symName: __ZNK4rnv89V8Runtime12strictEqualsERKN8facebook3jsi6BigIntES5_, symObjAddr: 0x4E86, symBinAddr: 0x587E6, symSize: 0x156 }
  - { offsetInCU: 0x19538, offset: 0x45A58E, size: 0x8, addend: 0x0, symName: __ZNK4rnv89V8Runtime12strictEqualsERKN8facebook3jsi6StringES5_, symObjAddr: 0x4FDC, symBinAddr: 0x5893C, symSize: 0x152 }
  - { offsetInCU: 0x19808, offset: 0x45A85E, size: 0x8, addend: 0x0, symName: __ZNK4rnv89V8Runtime12strictEqualsERKN8facebook3jsi6ObjectES5_, symObjAddr: 0x512E, symBinAddr: 0x58A8E, symSize: 0x152 }
  - { offsetInCU: 0x19AD8, offset: 0x45AB2E, size: 0x8, addend: 0x0, symName: __ZN4rnv89V8Runtime10instanceOfERKN8facebook3jsi6ObjectERKNS2_8FunctionE, symObjAddr: 0x5280, symBinAddr: 0x58BE0, symSize: 0x17A }
  - { offsetInCU: 0x19E44, offset: 0x45AE9A, size: 0x8, addend: 0x0, symName: __ZN4rnv89V8Runtime14GetRuntimeInfoERKN2v820FunctionCallbackInfoINS1_5ValueEEE, symObjAddr: 0x53FA, symBinAddr: 0x58D5A, symSize: 0x2FE }
  - { offsetInCU: 0x1A3CB, offset: 0x45B421, size: 0x8, addend: 0x0, symName: __ZNKSt3__112basic_stringIcNS_11char_traitsIcEENS_9allocatorIcEEE20__throw_length_errorB7v160006Ev, symObjAddr: 0x5CD0, symBinAddr: 0x59060, symSize: 0x10 }
  - { offsetInCU: 0x1A3F4, offset: 0x45B44A, size: 0x8, addend: 0x0, symName: __ZNSt3__120__throw_length_errorB7v160006EPKc, symObjAddr: 0x5CE0, symBinAddr: 0x59070, symSize: 0x4C }
  - { offsetInCU: 0x2F2D, offset: 0x45EADB, size: 0x8, addend: 0x0, symName: __ZN8facebook3jsi12_GLOBAL__N_119throwFormattedErrorEPKcz, symObjAddr: 0x1DB, symBinAddr: 0x5936B, symSize: 0x203 }
  - { offsetInCU: 0x5358, offset: 0x460F06, size: 0x8, addend: 0x0, symName: __ZN8facebook3jsi10FileBufferC2ERKNSt3__112basic_stringIcNS2_11char_traitsIcEENS2_9allocatorIcEEEE, symObjAddr: 0x0, symBinAddr: 0x59190, symSize: 0x14E }
  - { offsetInCU: 0x5707, offset: 0x4612B5, size: 0x8, addend: 0x0, symName: __ZN8facebook3jsi10FileBufferC1ERKNSt3__112basic_stringIcNS2_11char_traitsIcEENS2_9allocatorIcEEEE, symObjAddr: 0x14E, symBinAddr: 0x592DE, symSize: 0xA }
  - { offsetInCU: 0x574E, offset: 0x4612FC, size: 0x8, addend: 0x0, symName: __ZN8facebook3jsi10FileBufferD2Ev, symObjAddr: 0x158, symBinAddr: 0x592E8, symSize: 0x78 }
  - { offsetInCU: 0x5BDB, offset: 0x461789, size: 0x8, addend: 0x0, symName: __ZN8facebook3jsi10FileBufferD1Ev, symObjAddr: 0x3DE, symBinAddr: 0x5956E, symSize: 0xA }
  - { offsetInCU: 0x5C27, offset: 0x4617D5, size: 0x8, addend: 0x0, symName: __ZN8facebook3jsi10FileBufferD0Ev, symObjAddr: 0x3E8, symBinAddr: 0x59578, symSize: 0x1C }
  - { offsetInCU: 0x5C7E, offset: 0x46182C, size: 0x8, addend: 0x0, symName: __ZNK8facebook3jsi10FileBuffer4sizeEv, symObjAddr: 0x404, symBinAddr: 0x59594, symSize: 0xA }
  - { offsetInCU: 0x5CA3, offset: 0x461851, size: 0x8, addend: 0x0, symName: __ZNK8facebook3jsi10FileBuffer4dataEv, symObjAddr: 0x40E, symBinAddr: 0x5959E, symSize: 0xA }
  - { offsetInCU: 0x52, offset: 0x461B57, size: 0x8, addend: 0x0, symName: __ZN3tns16ParametrizedCall11callsCache_E, symObjAddr: 0x189BE8, symBinAddr: 0x16C0E80, symSize: 0x0 }
  - { offsetInCU: 0xE3, offset: 0x461BE8, size: 0x8, addend: 0x0, symName: __ZN3tns7FFICall17structInfosCache_E, symObjAddr: 0x189BA0, symBinAddr: 0x16C0E38, symSize: 0x0 }
  - { offsetInCU: 0x8CD0, offset: 0x46A7D5, size: 0x8, addend: 0x0, symName: __ZNSt3__119__allocate_at_leastB7v160006INS_9allocatorIP9_ffi_typeEEEENS_19__allocation_resultINS_16allocator_traitsIT_E7pointerEEERS7_m, symObjAddr: 0x2DE8, symBinAddr: 0x5B188, symSize: 0x2E }
  - { offsetInCU: 0x8D74, offset: 0x46A879, size: 0x8, addend: 0x0, symName: __ZN10robin_hood6detail5TableILb0ELm80ENSt3__112basic_stringIcNS2_11char_traitsIcEENS2_9allocatorIcEEEEN3tns10StructInfoENS_4hashIS8_vEENS2_8equal_toIS8_EEE25insertKeyPrepareEmptySpotIRKS8_EENS2_4pairImNSF_14InsertionStateEEEOT_, symObjAddr: 0x2E16, symBinAddr: 0x5B1B6, symSize: 0x146 }
  - { offsetInCU: 0x93EE, offset: 0x46AEF3, size: 0x8, addend: 0x0, symName: __ZNSt3__119__allocate_at_leastB7v160006INS_9allocatorImEEEENS_19__allocation_resultINS_16allocator_traitsIT_E7pointerEEERS5_m, symObjAddr: 0x20EB, symBinAddr: 0x5AD7B, symSize: 0x2E }
  - { offsetInCU: 0x9F96, offset: 0x46BA9B, size: 0x8, addend: 0x0, symName: __ZNSt3__142__uninitialized_allocator_move_if_noexceptB7v160006INS_9allocatorIN3tns11StructFieldEEENS_16reverse_iteratorIPS3_EES7_S7_EET2_RT_T0_T1_S8_, symObjAddr: 0x2B65, symBinAddr: 0x5AF05, symSize: 0x9B }
  - { offsetInCU: 0xC71C, offset: 0x46E221, size: 0x8, addend: 0x0, symName: __ZNSt3__16vectorIN3tns11StructFieldENS_9allocatorIS2_EEE26__swap_out_circular_bufferERNS_14__split_bufferIS2_RS4_EE, symObjAddr: 0x2AEC, symBinAddr: 0x5AE8C, symSize: 0x79 }
  - { offsetInCU: 0xEA78, offset: 0x47057D, size: 0x8, addend: 0x0, symName: __ZN3tns7FFICall15GetArgumentTypeEPKNS_12TypeEncodingEb, symObjAddr: 0x0, symBinAddr: 0x595B0, symSize: 0x45C }
  - { offsetInCU: 0xFA80, offset: 0x471585, size: 0x8, addend: 0x0, symName: __ZN3tns7FFICall13GetStructInfoEmPKNS_12TypeEncodingEPKNS_5PtrToIcEENSt3__112basic_stringIcNS8_11char_traitsIcEENS8_9allocatorIcEEEE, symObjAddr: 0x708, symBinAddr: 0x59C98, symSize: 0x9AE }
  - { offsetInCU: 0x12A4B, offset: 0x474550, size: 0x8, addend: 0x0, symName: __ZN3tns7FFICall13GetStructInfoEPKNS_10StructMetaENSt3__112basic_stringIcNS4_11char_traitsIcEENS4_9allocatorIcEEEE, symObjAddr: 0x45C, symBinAddr: 0x59A0C, symSize: 0x27E }
  - { offsetInCU: 0x14975, offset: 0x47647A, size: 0x8, addend: 0x0, symName: __ZNK10robin_hood6detail5TableILb0ELm80ENSt3__112basic_stringIcNS2_11char_traitsIcEENS2_9allocatorIcEEEEN3tns10StructInfoENS_4hashIS8_vEENS2_8equal_toIS8_EEE7findIdxIS8_EEmRKT_, symObjAddr: 0x2860, symBinAddr: 0x5ADB0, symSize: 0xD6 }
  - { offsetInCU: 0x14C71, offset: 0x476776, size: 0x8, addend: 0x0, symName: __ZNSt3__16vectorIN3tns11StructFieldENS_9allocatorIS2_EEE7reserveEm, symObjAddr: 0x1380, symBinAddr: 0x5A6B0, symSize: 0xB0 }
  - { offsetInCU: 0x14E15, offset: 0x47691A, size: 0x8, addend: 0x0, symName: __ZNSt3__16vectorIN3tns11StructFieldENS_9allocatorIS2_EEE21__push_back_slow_pathIRKS2_EEvOT_, symObjAddr: 0x2CB6, symBinAddr: 0x5B056, symSize: 0x122 }
  - { offsetInCU: 0x1510D, offset: 0x476C12, size: 0x8, addend: 0x0, symName: __ZN3tns10StructInfoC2ENSt3__112basic_stringIcNS1_11char_traitsIcEENS1_9allocatorIcEEEEP9_ffi_typeNS1_6vectorINS_11StructFieldENS5_ISB_EEEE, symObjAddr: 0x1D9E, symBinAddr: 0x5AA8E, symSize: 0x4C }
  - { offsetInCU: 0x152C2, offset: 0x476DC7, size: 0x8, addend: 0x0, symName: __ZN10robin_hood6detail5TableILb0ELm80ENSt3__112basic_stringIcNS2_11char_traitsIcEENS2_9allocatorIcEEEEN3tns10StructInfoENS_4hashIS8_vEENS2_8equal_toIS8_EEE7emplaceIJRS8_RSA_EEENS2_4pairINSF_4IterILb0EEEbEEDpOT_, symObjAddr: 0x1430, symBinAddr: 0x5A760, symSize: 0xBC }
  - { offsetInCU: 0x15452, offset: 0x476F57, size: 0x8, addend: 0x0, symName: __ZNKSt3__16vectorIP9_ffi_typeNS_9allocatorIS2_EEE20__throw_length_errorB7v160006Ev, symObjAddr: 0x2DD8, symBinAddr: 0x5B178, symSize: 0x10 }
  - { offsetInCU: 0x1547B, offset: 0x476F80, size: 0x8, addend: 0x0, symName: __ZNSt3__119__allocate_at_leastB7v160006INS_9allocatorIP9_ffi_typeEEEENS_19__allocation_resultINS_16allocator_traitsIT_E7pointerEEERS7_m, symObjAddr: 0x2DE8, symBinAddr: 0x5B188, symSize: 0x2E }
  - { offsetInCU: 0x1556B, offset: 0x477070, size: 0x8, addend: 0x0, symName: __ZN3tns7FFICall14DisposeFFITypeEP9_ffi_typePKNS_12TypeEncodingE, symObjAddr: 0x10B6, symBinAddr: 0x5A646, symSize: 0x60 }
  - { offsetInCU: 0x15827, offset: 0x47732C, size: 0x8, addend: 0x0, symName: __ZNSt3__114__split_bufferIN3tns11StructFieldERNS_9allocatorIS2_EEED2Ev, symObjAddr: 0x2C50, symBinAddr: 0x5AFF0, symSize: 0x28 }
  - { offsetInCU: 0x15A67, offset: 0x47756C, size: 0x8, addend: 0x0, symName: __ZN10robin_hood6detail5TableILb0ELm80ENSt3__112basic_stringIcNS2_11char_traitsIcEENS2_9allocatorIcEEEEN3tns10StructInfoENS_4hashIS8_vEENS2_8equal_toIS8_EEE8DataNodeISF_Lb0EEC2IJRS8_RSA_EEERSF_DpOT_, symObjAddr: 0x2FFA, symBinAddr: 0x5B39A, symSize: 0x48 }
  - { offsetInCU: 0x15B6A, offset: 0x47766F, size: 0x8, addend: 0x0, symName: __ZN10robin_hood6detail5TableILb0ELm80ENSt3__112basic_stringIcNS2_11char_traitsIcEENS2_9allocatorIcEEEEN3tns10StructInfoENS_4hashIS8_vEENS2_8equal_toIS8_EEE25insertKeyPrepareEmptySpotIRKS8_EENS2_4pairImNSF_14InsertionStateEEEOT_, symObjAddr: 0x2E16, symBinAddr: 0x5B1B6, symSize: 0x146 }
  - { offsetInCU: 0x15CEA, offset: 0x4777EF, size: 0x8, addend: 0x0, symName: __ZN10robin_hood6detail5TableILb0ELm80ENSt3__112basic_stringIcNS2_11char_traitsIcEENS2_9allocatorIcEEEEN3tns10StructInfoENS_4hashIS8_vEENS2_8equal_toIS8_EEE8DataNodeISF_Lb0EE7destroyERSF_, symObjAddr: 0x2F5C, symBinAddr: 0x5B2FC, symSize: 0x52 }
  - { offsetInCU: 0x16027, offset: 0x477B2C, size: 0x8, addend: 0x0, symName: __ZNK10robin_hood6detail5TableILb0ELm80ENSt3__112basic_stringIcNS2_11char_traitsIcEENS2_9allocatorIcEEEEN3tns10StructInfoENS_4hashIS8_vEENS2_8equal_toIS8_EEE18throwOverflowErrorEv, symObjAddr: 0x2FAE, symBinAddr: 0x5B34E, symSize: 0x4C }
  - { offsetInCU: 0x160E9, offset: 0x477BEE, size: 0x8, addend: 0x0, symName: __ZN3tns16ParametrizedCall3GetEPKNS_12TypeEncodingEii, symObjAddr: 0x14EC, symBinAddr: 0x5A81C, symSize: 0x1AA }
  - { offsetInCU: 0x164DC, offset: 0x477FE1, size: 0x8, addend: 0x0, symName: __ZNK10robin_hood6detail5TableILb1ELm80EPKN3tns12TypeEncodingEPNS2_16ParametrizedCallENS_4hashIS5_vEENSt3__18equal_toIS5_EEE7findIdxIS5_EEmRKT_, symObjAddr: 0x3716, symBinAddr: 0x5BA66, symSize: 0xD0 }
  - { offsetInCU: 0x16697, offset: 0x47819C, size: 0x8, addend: 0x0, symName: __ZN3tns16ParametrizedCallC2EP7ffi_cif, symObjAddr: 0x1DEA, symBinAddr: 0x5AADA, symSize: 0x1E2 }
  - { offsetInCU: 0x16E2A, offset: 0x47892F, size: 0x8, addend: 0x0, symName: __ZN10robin_hood6detail5TableILb1ELm80EPKN3tns12TypeEncodingEPNS2_16ParametrizedCallENS_4hashIS5_vEENSt3__18equal_toIS5_EEE7emplaceIJRS5_RS7_EEENSA_4pairINSD_4IterILb0EEEbEEDpOT_, symObjAddr: 0x1696, symBinAddr: 0x5A9C6, symSize: 0x92 }
  - { offsetInCU: 0x171AF, offset: 0x478CB4, size: 0x8, addend: 0x0, symName: __ZN10robin_hood6detail5TableILb1ELm80EPKN3tns12TypeEncodingEPNS2_16ParametrizedCallENS_4hashIS5_vEENSt3__18equal_toIS5_EEE25insertKeyPrepareEmptySpotIRKS5_EENSA_4pairImNSD_14InsertionStateEEEOT_, symObjAddr: 0x37E6, symBinAddr: 0x5BB36, symSize: 0x160 }
  - { offsetInCU: 0x1735F, offset: 0x478E64, size: 0x8, addend: 0x0, symName: __ZNK10robin_hood6detail5TableILb1ELm80EPKN3tns12TypeEncodingEPNS2_16ParametrizedCallENS_4hashIS5_vEENSt3__18equal_toIS5_EEE18throwOverflowErrorEv, symObjAddr: 0x3946, symBinAddr: 0x5BC96, symSize: 0x4C }
  - { offsetInCU: 0x173F2, offset: 0x478EF7, size: 0x8, addend: 0x0, symName: __ZN10robin_hood6detail5TableILb1ELm80EPKN3tns12TypeEncodingEPNS2_16ParametrizedCallENS_4hashIS5_vEENSt3__18equal_toIS5_EEED1Ev, symObjAddr: 0x1728, symBinAddr: 0x5AA58, symSize: 0x28 }
  - { offsetInCU: 0x1747D, offset: 0x478F82, size: 0x8, addend: 0x0, symName: __ZN10robin_hood6detail5TableILb0ELm80ENSt3__112basic_stringIcNS2_11char_traitsIcEENS2_9allocatorIcEEEEN3tns10StructInfoENS_4hashIS8_vEENS2_8equal_toIS8_EEED1Ev, symObjAddr: 0x1750, symBinAddr: 0x5AA80, symSize: 0xA }
  - { offsetInCU: 0x174B4, offset: 0x478FB9, size: 0x8, addend: 0x0, symName: __ZN10robin_hood6detail5TableILb0ELm80ENSt3__112basic_stringIcNS2_11char_traitsIcEENS2_9allocatorIcEEEEN3tns10StructInfoENS_4hashIS8_vEENS2_8equal_toIS8_EEED2Ev, symObjAddr: 0x3EF4, symBinAddr: 0x5C244, symSize: 0x40 }
  - { offsetInCU: 0x17AB5, offset: 0x4795BA, size: 0x8, addend: 0x0, symName: __ZNSt3__16vectorImNS_9allocatorImEEE7reserveEm, symObjAddr: 0x1FCC, symBinAddr: 0x5ACBC, symSize: 0x94 }
  - { offsetInCU: 0x17EAF, offset: 0x4799B4, size: 0x8, addend: 0x0, symName: __ZNKSt3__16vectorImNS_9allocatorImEEE20__throw_length_errorB7v160006Ev, symObjAddr: 0x206C, symBinAddr: 0x5AD5C, symSize: 0x10 }
  - { offsetInCU: 0x19421, offset: 0x47AF26, size: 0x8, addend: 0x0, symName: __ZNSt3__128__exception_guard_exceptionsINS_29_AllocatorDestroyRangeReverseINS_9allocatorIN3tns11StructFieldEEENS_16reverse_iteratorIPS4_EEEEED2B7v160006Ev, symObjAddr: 0x2C00, symBinAddr: 0x5AFA0, symSize: 0x1A }
  - { offsetInCU: 0x1945A, offset: 0x47AF5F, size: 0x8, addend: 0x0, symName: __ZNKSt3__129_AllocatorDestroyRangeReverseINS_9allocatorIN3tns11StructFieldEEENS_16reverse_iteratorIPS3_EEEclB7v160006Ev, symObjAddr: 0x2C1A, symBinAddr: 0x5AFBA, symSize: 0x36 }
  - { offsetInCU: 0x196E2, offset: 0x47B1E7, size: 0x8, addend: 0x0, symName: __ZNSt3__114__split_bufferIN3tns11StructFieldERNS_9allocatorIS2_EEE17__destruct_at_endB7v160006EPS2_, symObjAddr: 0x2C78, symBinAddr: 0x5B018, symSize: 0x3E }
  - { offsetInCU: 0x19981, offset: 0x47B486, size: 0x8, addend: 0x0, symName: __ZN10robin_hood6detail5TableILb0ELm80ENSt3__112basic_stringIcNS2_11char_traitsIcEENS2_9allocatorIcEEEEN3tns10StructInfoENS_4hashIS8_vEENS2_8equal_toIS8_EEE13increase_sizeEv, symObjAddr: 0x31AE, symBinAddr: 0x5B51E, symSize: 0x108 }
  - { offsetInCU: 0x19A47, offset: 0x47B54C, size: 0x8, addend: 0x0, symName: __ZN10robin_hood6detail5TableILb0ELm80ENSt3__112basic_stringIcNS2_11char_traitsIcEENS2_9allocatorIcEEEEN3tns10StructInfoENS_4hashIS8_vEENS2_8equal_toIS8_EEE7shiftUpEmm, symObjAddr: 0x32B6, symBinAddr: 0x5B626, symSize: 0x70 }
  - { offsetInCU: 0x19BB5, offset: 0x47B6BA, size: 0x8, addend: 0x0, symName: __ZN10robin_hood6detail17BulkPoolAllocatorINS_4pairIKNSt3__112basic_stringIcNS3_11char_traitsIcEENS3_9allocatorIcEEEEN3tns10StructInfoEEELm4ELm16384EE17performAllocationEv, symObjAddr: 0x3042, symBinAddr: 0x5B3E2, symSize: 0x60 }
  - { offsetInCU: 0x19C68, offset: 0x47B76D, size: 0x8, addend: 0x0, symName: __ZN10robin_hood4pairIKNSt3__112basic_stringIcNS1_11char_traitsIcEENS1_9allocatorIcEEEEN3tns10StructInfoEEC2IRS7_RSA_EEOT_OT0_, symObjAddr: 0x313A, symBinAddr: 0x5B4AA, symSize: 0x74 }
  - { offsetInCU: 0x19FD0, offset: 0x47BAD5, size: 0x8, addend: 0x0, symName: __ZN10robin_hood6detail17BulkPoolAllocatorINS_4pairIKNSt3__112basic_stringIcNS3_11char_traitsIcEENS3_9allocatorIcEEEEN3tns10StructInfoEEELm4ELm16384EE3addEPvm, symObjAddr: 0x30A2, symBinAddr: 0x5B442, symSize: 0x67 }
  - { offsetInCU: 0x1A0C3, offset: 0x47BBC8, size: 0x8, addend: 0x0, symName: __ZN10robin_hood6detail5TableILb0ELm80ENSt3__112basic_stringIcNS2_11char_traitsIcEENS2_9allocatorIcEEEEN3tns10StructInfoENS_4hashIS8_vEENS2_8equal_toIS8_EEE17try_increase_infoEv, symObjAddr: 0x33F8, symBinAddr: 0x5B768, symSize: 0xE8 }
  - { offsetInCU: 0x1A1C2, offset: 0x47BCC7, size: 0x8, addend: 0x0, symName: __ZN10robin_hood6detail5TableILb0ELm80ENSt3__112basic_stringIcNS2_11char_traitsIcEENS2_9allocatorIcEEEEN3tns10StructInfoENS_4hashIS8_vEENS2_8equal_toIS8_EEE8initDataEm, symObjAddr: 0x3326, symBinAddr: 0x5B696, symSize: 0xD2 }
  - { offsetInCU: 0x1A2AC, offset: 0x47BDB1, size: 0x8, addend: 0x0, symName: __ZN10robin_hood6detail5TableILb0ELm80ENSt3__112basic_stringIcNS2_11char_traitsIcEENS2_9allocatorIcEEEEN3tns10StructInfoENS_4hashIS8_vEENS2_8equal_toIS8_EEE17try_increase_infoEv, symObjAddr: 0x33F8, symBinAddr: 0x5B768, symSize: 0xE8 }
  - { offsetInCU: 0x1A2B8, offset: 0x47BDBD, size: 0x8, addend: 0x0, symName: __ZN10robin_hood6detail5TableILb0ELm80ENSt3__112basic_stringIcNS2_11char_traitsIcEENS2_9allocatorIcEEEEN3tns10StructInfoENS_4hashIS8_vEENS2_8equal_toIS8_EEE16rehashPowerOfTwoEmb, symObjAddr: 0x34E0, symBinAddr: 0x5B850, symSize: 0x12A }
  - { offsetInCU: 0x1A49E, offset: 0x47BFA3, size: 0x8, addend: 0x0, symName: __ZN10robin_hood6detail5TableILb0ELm80ENSt3__112basic_stringIcNS2_11char_traitsIcEENS2_9allocatorIcEEEEN3tns10StructInfoENS_4hashIS8_vEENS2_8equal_toIS8_EEE11insert_moveEONSF_8DataNodeISF_Lb0EEE, symObjAddr: 0x360A, symBinAddr: 0x5B97A, symSize: 0xE8 }
  - { offsetInCU: 0x1A6EB, offset: 0x47C1F0, size: 0x8, addend: 0x0, symName: __ZN10robin_hood6detail5TableILb1ELm80EPKN3tns12TypeEncodingEPNS2_16ParametrizedCallENS_4hashIS5_vEENSt3__18equal_toIS5_EEE13increase_sizeEv, symObjAddr: 0x3992, symBinAddr: 0x5BCE2, symSize: 0x108 }
  - { offsetInCU: 0x1A7B1, offset: 0x47C2B6, size: 0x8, addend: 0x0, symName: __ZN10robin_hood6detail5TableILb1ELm80EPKN3tns12TypeEncodingEPNS2_16ParametrizedCallENS_4hashIS5_vEENSt3__18equal_toIS5_EEE7shiftUpEmm, symObjAddr: 0x3A9A, symBinAddr: 0x5BDEA, symSize: 0x8E }
  - { offsetInCU: 0x1A83E, offset: 0x47C343, size: 0x8, addend: 0x0, symName: __ZN10robin_hood6detail5TableILb1ELm80EPKN3tns12TypeEncodingEPNS2_16ParametrizedCallENS_4hashIS5_vEENSt3__18equal_toIS5_EEE17try_increase_infoEv, symObjAddr: 0x3C10, symBinAddr: 0x5BF60, symSize: 0xE8 }
  - { offsetInCU: 0x1A93D, offset: 0x47C442, size: 0x8, addend: 0x0, symName: __ZN10robin_hood6detail5TableILb1ELm80EPKN3tns12TypeEncodingEPNS2_16ParametrizedCallENS_4hashIS5_vEENSt3__18equal_toIS5_EEE8initDataEm, symObjAddr: 0x3B28, symBinAddr: 0x5BE78, symSize: 0xE8 }
  - { offsetInCU: 0x1AA27, offset: 0x47C52C, size: 0x8, addend: 0x0, symName: __ZN10robin_hood6detail5TableILb1ELm80EPKN3tns12TypeEncodingEPNS2_16ParametrizedCallENS_4hashIS5_vEENSt3__18equal_toIS5_EEE17try_increase_infoEv, symObjAddr: 0x3C10, symBinAddr: 0x5BF60, symSize: 0xE8 }
  - { offsetInCU: 0x1AA33, offset: 0x47C538, size: 0x8, addend: 0x0, symName: __ZN10robin_hood6detail5TableILb1ELm80EPKN3tns12TypeEncodingEPNS2_16ParametrizedCallENS_4hashIS5_vEENSt3__18equal_toIS5_EEE16rehashPowerOfTwoEmb, symObjAddr: 0x3CF8, symBinAddr: 0x5C048, symSize: 0xF2 }
  - { offsetInCU: 0x1AB8A, offset: 0x47C68F, size: 0x8, addend: 0x0, symName: __ZN10robin_hood6detail5TableILb1ELm80EPKN3tns12TypeEncodingEPNS2_16ParametrizedCallENS_4hashIS5_vEENSt3__18equal_toIS5_EEE11insert_moveEONSD_8DataNodeISD_Lb1EEE, symObjAddr: 0x3DEA, symBinAddr: 0x5C13A, symSize: 0x10A }
  - { offsetInCU: 0x1AD6E, offset: 0x47C873, size: 0x8, addend: 0x0, symName: __ZN10robin_hood6detail5TableILb0ELm80ENSt3__112basic_stringIcNS2_11char_traitsIcEENS2_9allocatorIcEEEEN3tns10StructInfoENS_4hashIS8_vEENS2_8equal_toIS8_EEE7destroyEv, symObjAddr: 0x3F34, symBinAddr: 0x5C284, symSize: 0x3C }
  - { offsetInCU: 0x1ADAD, offset: 0x47C8B2, size: 0x8, addend: 0x0, symName: __ZNK10robin_hood6detail5TableILb0ELm80ENSt3__112basic_stringIcNS2_11char_traitsIcEENS2_9allocatorIcEEEEN3tns10StructInfoENS_4hashIS8_vEENS2_8equal_toIS8_EEE9DestroyerISF_Lb0EE20nodesDoNotDeallocateERSF_, symObjAddr: 0x3F70, symBinAddr: 0x5C2C0, symSize: 0xB2 }
  - { offsetInCU: 0x1AE90, offset: 0x47C995, size: 0x8, addend: 0x0, symName: __ZN10robin_hood6detail5TableILb0ELm80ENSt3__112basic_stringIcNS2_11char_traitsIcEENS2_9allocatorIcEEEEN3tns10StructInfoENS_4hashIS8_vEENS2_8equal_toIS8_EEE8DataNodeISF_Lb0EE22destroyDoNotDeallocateEv, symObjAddr: 0x4022, symBinAddr: 0x5C372, symSize: 0x3C }
  - { offsetInCU: 0xF2FC, offset: 0x48BFD4, size: 0x8, addend: 0x0, symName: __ZN3tns14ModuleInternalC2EN2v85LocalINS1_7ContextEEE, symObjAddr: 0x0, symBinAddr: 0x5C480, symSize: 0x478 }
  - { offsetInCU: 0x1088B, offset: 0x48D563, size: 0x8, addend: 0x0, symName: __ZN3tns14ModuleInternal18GetRequireFunctionEPN2v87IsolateERKNSt3__112basic_stringIcNS4_11char_traitsIcEENS4_9allocatorIcEEEE, symObjAddr: 0xA52, symBinAddr: 0x5CED2, symSize: 0x184 }
  - { offsetInCU: 0x10F6E, offset: 0x48DC46, size: 0x8, addend: 0x0, symName: __ZN3tns14ModuleInternalC2EN2v85LocalINS1_7ContextEEE.cold.1, symObjAddr: 0x4635, symBinAddr: 0xCB5EC5, symSize: 0x35 }
  - { offsetInCU: 0x11270, offset: 0x48DF48, size: 0x8, addend: 0x0, symName: __ZN3tns14ModuleInternal15RequireCallbackERKN2v820FunctionCallbackInfoINS1_5ValueEEE, symObjAddr: 0x478, symBinAddr: 0x5C8F8, symSize: 0x5DA }
  - { offsetInCU: 0x1291E, offset: 0x48F5F6, size: 0x8, addend: 0x0, symName: __ZN3tns14ModuleInternal8LoadImplEPN2v87IsolateERKNSt3__112basic_stringIcNS4_11char_traitsIcEENS4_9allocatorIcEEEESC_Rb, symObjAddr: 0xE92, symBinAddr: 0x5D262, symSize: 0x37E }
  - { offsetInCU: 0x13EE5, offset: 0x490BBD, size: 0x8, addend: 0x0, symName: __ZN3tns14ModuleInternalC1EN2v85LocalINS1_7ContextEEE, symObjAddr: 0xBD6, symBinAddr: 0x5D056, symSize: 0xA }
  - { offsetInCU: 0x14090, offset: 0x490D68, size: 0x8, addend: 0x0, symName: __ZN3tns14ModuleInternal9RunModuleEPN2v87IsolateENSt3__112basic_stringIcNS4_11char_traitsIcEENS4_9allocatorIcEEEE, symObjAddr: 0xBE0, symBinAddr: 0x5D060, symSize: 0x1FE }
  - { offsetInCU: 0x14F7D, offset: 0x491C55, size: 0x8, addend: 0x0, symName: __ZNK10robin_hood6detail5TableILb1ELm80ENSt3__112basic_stringIcNS2_11char_traitsIcEENS2_9allocatorIcEEEENS2_10shared_ptrIN2v810PersistentINSA_6ObjectENSA_27NonCopyablePersistentTraitsISC_EEEEEENS_4hashIS8_vEENS2_8equal_toIS8_EEE7findIdxIS8_EEmRKT_, symObjAddr: 0x43FC, symBinAddr: 0x6017C, symSize: 0xFA }
  - { offsetInCU: 0x14F88, offset: 0x491C60, size: 0x8, addend: 0x0, symName: __ZNK10robin_hood6detail5TableILb1ELm80ENSt3__112basic_stringIcNS2_11char_traitsIcEENS2_9allocatorIcEEEENS2_10shared_ptrIN2v810PersistentINSA_6ObjectENSA_27NonCopyablePersistentTraitsISC_EEEEEENS_4hashIS8_vEENS2_8equal_toIS8_EEE7findIdxIS8_EEmRKT_, symObjAddr: 0x43FC, symBinAddr: 0x6017C, symSize: 0xFA }
  - { offsetInCU: 0x150BC, offset: 0x491D94, size: 0x8, addend: 0x0, symName: __ZN3tns14ModuleInternal11ResolvePathEPN2v87IsolateERKNSt3__112basic_stringIcNS4_11char_traitsIcEENS4_9allocatorIcEEEESC_, symObjAddr: 0x121C, symBinAddr: 0x5D5EC, symSize: 0x4BC }
  - { offsetInCU: 0x15E44, offset: 0x492B1C, size: 0x8, addend: 0x0, symName: __ZN3tns14ModuleInternal10LoadModuleEPN2v87IsolateERKNSt3__112basic_stringIcNS4_11char_traitsIcEENS4_9allocatorIcEEEESC_, symObjAddr: 0x16D8, symBinAddr: 0x5DAA8, symSize: 0x91E }
  - { offsetInCU: 0x18273, offset: 0x494F4B, size: 0x8, addend: 0x0, symName: __ZN3tns14ModuleInternal8LoadDataEPN2v87IsolateERKNSt3__112basic_stringIcNS4_11char_traitsIcEENS4_9allocatorIcEEEE, symObjAddr: 0x1FF6, symBinAddr: 0x5E3C6, symSize: 0x252 }
  - { offsetInCU: 0x18814, offset: 0x4954EC, size: 0x8, addend: 0x0, symName: __ZN3tns14ModuleInternal26ResolvePathFromPackageJsonERKNSt3__112basic_stringIcNS1_11char_traitsIcEENS1_9allocatorIcEEEERb, symObjAddr: 0x2DEE, symBinAddr: 0x5F1BE, symSize: 0x210 }
  - { offsetInCU: 0x18E79, offset: 0x495B51, size: 0x8, addend: 0x0, symName: __ZN3tns14ModuleInternal10TempModuleC2EPS0_NSt3__112basic_stringIcNS3_11char_traitsIcEENS3_9allocatorIcEEEES9_NS3_10shared_ptrIN2v810PersistentINSB_6ObjectENSB_27NonCopyablePersistentTraitsISD_EEEEEE, symObjAddr: 0x3328, symBinAddr: 0x5F508, symSize: 0xB4 }
  - { offsetInCU: 0x19161, offset: 0x495E39, size: 0x8, addend: 0x0, symName: __ZN3tns14ModuleInternal10LoadScriptEPN2v87IsolateERKNSt3__112basic_stringIcNS4_11char_traitsIcEENS4_9allocatorIcEEEE, symObjAddr: 0x2248, symBinAddr: 0x5E618, symSize: 0x3E2 }
  - { offsetInCU: 0x1A54C, offset: 0x497224, size: 0x8, addend: 0x0, symName: __ZN3tns14ModuleInternal10TempModuleD2Ev, symObjAddr: 0x3FE2, symBinAddr: 0x5FF92, symSize: 0x5A }
  - { offsetInCU: 0x1A842, offset: 0x49751A, size: 0x8, addend: 0x0, symName: __ZN10robin_hood6detail5TableILb1ELm80ENSt3__112basic_stringIcNS2_11char_traitsIcEENS2_9allocatorIcEEEENS2_10shared_ptrIN2v810PersistentINSA_6ObjectENSA_27NonCopyablePersistentTraitsISC_EEEEEENS_4hashIS8_vEENS2_8equal_toIS8_EEE7emplaceIJRKS8_SG_EEENS2_4pairINSL_4IterILb0EEEbEEDpOT_, symObjAddr: 0x262A, symBinAddr: 0x5E9FA, symSize: 0x16A }
  - { offsetInCU: 0x1B529, offset: 0x498201, size: 0x8, addend: 0x0, symName: __ZN3tns14ModuleInternal15LoadScriptCacheERKNSt3__112basic_stringIcNS1_11char_traitsIcEENS1_9allocatorIcEEEE, symObjAddr: 0x27A4, symBinAddr: 0x5EB74, symSize: 0x1EE }
  - { offsetInCU: 0x1BFF1, offset: 0x498CC9, size: 0x8, addend: 0x0, symName: __ZN3tns14ModuleInternal15SaveScriptCacheEN2v85LocalINS1_6ScriptEEERKNSt3__112basic_stringIcNS5_11char_traitsIcEENS5_9allocatorIcEEEE, symObjAddr: 0x2992, symBinAddr: 0x5ED62, symSize: 0x12E }
  - { offsetInCU: 0x1CB36, offset: 0x49980E, size: 0x8, addend: 0x0, symName: __ZN10robin_hood6detail5TableILb1ELm80ENSt3__112basic_stringIcNS2_11char_traitsIcEENS2_9allocatorIcEEEENS2_10shared_ptrIN2v810PersistentINSA_6ObjectENSA_27NonCopyablePersistentTraitsISC_EEEEEENS_4hashIS8_vEENS2_8equal_toIS8_EEE25insertKeyPrepareEmptySpotIRKS8_EENS2_4pairImNSL_14InsertionStateEEEOT_, symObjAddr: 0x3550, symBinAddr: 0x5F730, symSize: 0x160 }
  - { offsetInCU: 0x1CD5A, offset: 0x499A32, size: 0x8, addend: 0x0, symName: __ZNK10robin_hood6detail5TableILb1ELm80ENSt3__112basic_stringIcNS2_11char_traitsIcEENS2_9allocatorIcEEEENS2_10shared_ptrIN2v810PersistentINSA_6ObjectENSA_27NonCopyablePersistentTraitsISC_EEEEEENS_4hashIS8_vEENS2_8equal_toIS8_EEE18throwOverflowErrorEv, symObjAddr: 0x36B0, symBinAddr: 0x5F890, symSize: 0x4C }
  - { offsetInCU: 0x1CD8F, offset: 0x499A67, size: 0x8, addend: 0x0, symName: __ZN10robin_hood6detail5TableILb1ELm80ENSt3__112basic_stringIcNS2_11char_traitsIcEENS2_9allocatorIcEEEENS2_10shared_ptrIN2v810PersistentINSA_6ObjectENSA_27NonCopyablePersistentTraitsISC_EEEEEENS_4hashIS8_vEENS2_8equal_toIS8_EEE8DataNodeISL_Lb1EED1Ev, symObjAddr: 0x36FC, symBinAddr: 0x5F8DC, symSize: 0x2E }
  - { offsetInCU: 0x1CF45, offset: 0x499C1D, size: 0x8, addend: 0x0, symName: __ZN3tns14ModuleInternal17WrapModuleContentEPN2v87IsolateERKNSt3__112basic_stringIcNS4_11char_traitsIcEENS4_9allocatorIcEEEE, symObjAddr: 0x2794, symBinAddr: 0x5EB64, symSize: 0x10 }
  - { offsetInCU: 0x1CFAF, offset: 0x499C87, size: 0x8, addend: 0x0, symName: __ZN3tns14ModuleInternal16GetCacheFileNameERKNSt3__112basic_stringIcNS1_11char_traitsIcEENS1_9allocatorIcEEEE, symObjAddr: 0x2FFE, symBinAddr: 0x5F3CE, symSize: 0x130 }
  - { offsetInCU: 0x1D60A, offset: 0x49A2E2, size: 0x8, addend: 0x0, symName: __ZN3tns14ModuleInternal15RunScriptStringEPN2v87IsolateENS1_5LocalINS1_7ContextEEENSt3__112basic_stringIcNS7_11char_traitsIcEENS7_9allocatorIcEEEE, symObjAddr: 0x2AC0, symBinAddr: 0x5EE90, symSize: 0x172 }
  - { offsetInCU: 0x1DBC0, offset: 0x49A898, size: 0x8, addend: 0x0, symName: __ZN3tns14ModuleInternal9RunScriptEPN2v87IsolateENSt3__112basic_stringIcNS4_11char_traitsIcEENS4_9allocatorIcEEEE, symObjAddr: 0x2C32, symBinAddr: 0x5F002, symSize: 0x1BC }
  - { offsetInCU: 0x1E930, offset: 0x49B608, size: 0x8, addend: 0x0, symName: __ZN10robin_hood6detail5TableILb1ELm80ENSt3__112basic_stringIcNS2_11char_traitsIcEENS2_9allocatorIcEEEENS2_10shared_ptrIN2v810PersistentINSA_6ObjectENSA_27NonCopyablePersistentTraitsISC_EEEEEENS_4hashIS8_vEENS2_8equal_toIS8_EEE7emplaceIJRS8_RSG_EEENS2_4pairINSL_4IterILb0EEEbEEDpOT_, symObjAddr: 0x33DC, symBinAddr: 0x5F5BC, symSize: 0x174 }
  - { offsetInCU: 0x1F41E, offset: 0x49C0F6, size: 0x8, addend: 0x0, symName: __ZN10robin_hood6detail5TableILb1ELm80ENSt3__112basic_stringIcNS2_11char_traitsIcEENS2_9allocatorIcEEEENS2_10shared_ptrIN2v810PersistentINSA_6ObjectENSA_27NonCopyablePersistentTraitsISC_EEEEEENS_4hashIS8_vEENS2_8equal_toIS8_EEE13increase_sizeEv, symObjAddr: 0x37C4, symBinAddr: 0x5F914, symSize: 0x108 }
  - { offsetInCU: 0x1F4E4, offset: 0x49C1BC, size: 0x8, addend: 0x0, symName: __ZN10robin_hood6detail5TableILb1ELm80ENSt3__112basic_stringIcNS2_11char_traitsIcEENS2_9allocatorIcEEEENS2_10shared_ptrIN2v810PersistentINSA_6ObjectENSA_27NonCopyablePersistentTraitsISC_EEEEEENS_4hashIS8_vEENS2_8equal_toIS8_EEE7shiftUpEmm, symObjAddr: 0x38CC, symBinAddr: 0x5FA1C, symSize: 0x122 }
  - { offsetInCU: 0x1F7F3, offset: 0x49C4CB, size: 0x8, addend: 0x0, symName: __ZN10robin_hood6detail5TableILb1ELm80ENSt3__112basic_stringIcNS2_11char_traitsIcEENS2_9allocatorIcEEEENS2_10shared_ptrIN2v810PersistentINSA_6ObjectENSA_27NonCopyablePersistentTraitsISC_EEEEEENS_4hashIS8_vEENS2_8equal_toIS8_EEE17try_increase_infoEv, symObjAddr: 0x3BF2, symBinAddr: 0x5FC32, symSize: 0xE8 }
  - { offsetInCU: 0x1F8F2, offset: 0x49C5CA, size: 0x8, addend: 0x0, symName: __ZN10robin_hood6detail5TableILb1ELm80ENSt3__112basic_stringIcNS2_11char_traitsIcEENS2_9allocatorIcEEEENS2_10shared_ptrIN2v810PersistentINSA_6ObjectENSA_27NonCopyablePersistentTraitsISC_EEEEEENS_4hashIS8_vEENS2_8equal_toIS8_EEE8initDataEm, symObjAddr: 0x3B0C, symBinAddr: 0x5FB4C, symSize: 0xE6 }
  - { offsetInCU: 0x1F9D5, offset: 0x49C6AD, size: 0x8, addend: 0x0, symName: __ZN10robin_hood6detail5TableILb1ELm80ENSt3__112basic_stringIcNS2_11char_traitsIcEENS2_9allocatorIcEEEENS2_10shared_ptrIN2v810PersistentINSA_6ObjectENSA_27NonCopyablePersistentTraitsISC_EEEEEENS_4hashIS8_vEENS2_8equal_toIS8_EEE17try_increase_infoEv, symObjAddr: 0x3BF2, symBinAddr: 0x5FC32, symSize: 0xE8 }
  - { offsetInCU: 0x1F9E0, offset: 0x49C6B8, size: 0x8, addend: 0x0, symName: __ZN10robin_hood6detail5TableILb1ELm80ENSt3__112basic_stringIcNS2_11char_traitsIcEENS2_9allocatorIcEEEENS2_10shared_ptrIN2v810PersistentINSA_6ObjectENSA_27NonCopyablePersistentTraitsISC_EEEEEENS_4hashIS8_vEENS2_8equal_toIS8_EEE16rehashPowerOfTwoEmb, symObjAddr: 0x3CDA, symBinAddr: 0x5FD1A, symSize: 0x10A }
  - { offsetInCU: 0x1FDAD, offset: 0x49CA85, size: 0x8, addend: 0x0, symName: __ZN10robin_hood6detail5TableILb1ELm80ENSt3__112basic_stringIcNS2_11char_traitsIcEENS2_9allocatorIcEEEENS2_10shared_ptrIN2v810PersistentINSA_6ObjectENSA_27NonCopyablePersistentTraitsISC_EEEEEENS_4hashIS8_vEENS2_8equal_toIS8_EEE11insert_moveEONSL_8DataNodeISL_Lb1EEE, symObjAddr: 0x3E16, symBinAddr: 0x5FE26, symSize: 0x15E }
  - { offsetInCU: 0x20248, offset: 0x49CF20, size: 0x8, addend: 0x0, symName: __ZN10robin_hood6detail5TableILb1ELm80ENSt3__112basic_stringIcNS2_11char_traitsIcEENS2_9allocatorIcEEEENS2_10shared_ptrIN2v810PersistentINSA_6ObjectENSA_27NonCopyablePersistentTraitsISC_EEEEEENS_4hashIS8_vEENS2_8equal_toIS8_EEE5eraseERKS8_, symObjAddr: 0x403C, symBinAddr: 0x5FFEC, symSize: 0xB8 }
  - { offsetInCU: 0x2031A, offset: 0x49CFF2, size: 0x8, addend: 0x0, symName: __ZN10robin_hood6detail5TableILb1ELm80ENSt3__112basic_stringIcNS2_11char_traitsIcEENS2_9allocatorIcEEEENS2_10shared_ptrIN2v810PersistentINSA_6ObjectENSA_27NonCopyablePersistentTraitsISC_EEEEEENS_4hashIS8_vEENS2_8equal_toIS8_EEE9shiftDownEm, symObjAddr: 0x40F4, symBinAddr: 0x600A4, symSize: 0xD6 }
  - { offsetInCU: 0x11229, offset: 0x4AEB74, size: 0x8, addend: 0x0, symName: '-[ArrayAdapter initWithJSObject:isolate:]', symObjAddr: 0x0, symBinAddr: 0x60280, symSize: 0x224 }
  - { offsetInCU: 0x1199B, offset: 0x4AF2E6, size: 0x8, addend: 0x0, symName: __ZN10robin_hood6detail5TableILb1ELm80EP11objc_objectNSt3__110shared_ptrIN2v810PersistentINS6_5ValueENS6_27NonCopyablePersistentTraitsIS8_EEEEEENS_4hashIS3_vEENS4_8equal_toIS3_EEE7emplaceIJRP12ArrayAdapterRSC_EEENS4_4pairINSH_4IterILb0EEEbEEDpOT_, symObjAddr: 0x26E, symBinAddr: 0x604AE, symSize: 0x11D }
  - { offsetInCU: 0x1274B, offset: 0x4B0096, size: 0x8, addend: 0x0, symName: '-[ArrayAdapter count]', symObjAddr: 0x38B, symBinAddr: 0x605CB, symSize: 0x1E9 }
  - { offsetInCU: 0x130AC, offset: 0x4B09F7, size: 0x8, addend: 0x0, symName: '-[ArrayAdapter objectAtIndex:]', symObjAddr: 0x574, symBinAddr: 0x607B4, symSize: 0x24B }
  - { offsetInCU: 0x13AD2, offset: 0x4B141D, size: 0x8, addend: 0x0, symName: '-[ArrayAdapter dealloc]', symObjAddr: 0x7BF, symBinAddr: 0x609FF, symSize: 0x245 }
  - { offsetInCU: 0x14312, offset: 0x4B1C5D, size: 0x8, addend: 0x0, symName: '-[ArrayAdapter .cxx_destruct]', symObjAddr: 0xAB3, symBinAddr: 0x60C53, symSize: 0x11 }
  - { offsetInCU: 0x1439E, offset: 0x4B1CE9, size: 0x8, addend: 0x0, symName: '-[ArrayAdapter .cxx_construct]', symObjAddr: 0xAC4, symBinAddr: 0x60C64, symSize: 0x17 }
  - { offsetInCU: 0x64AC, offset: 0x4B8F3B, size: 0x8, addend: 0x0, symName: __ZNSt3__119__allocate_at_leastB7v160006INS_9allocatorIPNS_12basic_stringIcNS_11char_traitsIcEENS1_IcEEEEEEEENS_19__allocation_resultINS_16allocator_traitsIT_E7pointerEEERSB_m, symObjAddr: 0xCC2, symBinAddr: 0x61702, symSize: 0x2E }
  - { offsetInCU: 0x6551, offset: 0x4B8FE0, size: 0x8, addend: 0x0, symName: __ZNSt3__16vectorINS_12basic_stringIcNS_11char_traitsIcEENS_9allocatorIcEEEENS4_IS6_EEED2B7v160006Ev, symObjAddr: 0xCF0, symBinAddr: 0x61730, symSize: 0x26 }
  - { offsetInCU: 0x8E14, offset: 0x4BB8A3, size: 0x8, addend: 0x0, symName: __ZN3tns15ConcurrentQueue10InitializeEP11__CFRunLoopPFvPvES3_, symObjAddr: 0x0, symBinAddr: 0x60C80, symSize: 0xB2 }
  - { offsetInCU: 0x908F, offset: 0x4BBB1E, size: 0x8, addend: 0x0, symName: __ZN3tns15ConcurrentQueue4PushENSt3__112basic_stringIcNS1_11char_traitsIcEENS1_9allocatorIcEEEE, symObjAddr: 0xB2, symBinAddr: 0x60D32, symSize: 0x72 }
  - { offsetInCU: 0x91D1, offset: 0x4BBC60, size: 0x8, addend: 0x0, symName: __ZNSt3__15dequeINS_12basic_stringIcNS_11char_traitsIcEENS_9allocatorIcEEEENS4_IS6_EEE9push_backERKS6_, symObjAddr: 0x42C, symBinAddr: 0x610AC, symSize: 0x9C }
  - { offsetInCU: 0x9380, offset: 0x4BBE0F, size: 0x8, addend: 0x0, symName: __ZN3tns15ConcurrentQueue15SignalAndWakeUpEv, symObjAddr: 0x124, symBinAddr: 0x60DA4, symSize: 0x82 }
  - { offsetInCU: 0x9899, offset: 0x4BC328, size: 0x8, addend: 0x0, symName: __ZN3tns15ConcurrentQueue6PopAllEv, symObjAddr: 0x1A6, symBinAddr: 0x60E26, symSize: 0xEA }
  - { offsetInCU: 0x9D07, offset: 0x4BC796, size: 0x8, addend: 0x0, symName: __ZNSt3__15dequeINS_12basic_stringIcNS_11char_traitsIcEENS_9allocatorIcEEEENS4_IS6_EEE9pop_frontEv, symObjAddr: 0xD8C, symBinAddr: 0x6175C, symSize: 0x70 }
  - { offsetInCU: 0x9EBF, offset: 0x4BC94E, size: 0x8, addend: 0x0, symName: __ZNSt3__16vectorINS_12basic_stringIcNS_11char_traitsIcEENS_9allocatorIcEEEENS4_IS6_EEE9push_backB7v160006ERKS6_, symObjAddr: 0x290, symBinAddr: 0x60F10, symSize: 0x112 }
  - { offsetInCU: 0xA239, offset: 0x4BCCC8, size: 0x8, addend: 0x0, symName: __ZNSt3__16vectorINS_12basic_stringIcNS_11char_traitsIcEENS_9allocatorIcEEEENS4_IS6_EEED2B7v160006Ev, symObjAddr: 0xCF0, symBinAddr: 0x61730, symSize: 0x26 }
  - { offsetInCU: 0xA6A4, offset: 0x4BD133, size: 0x8, addend: 0x0, symName: __ZN3tns15ConcurrentQueue9TerminateEv, symObjAddr: 0x3A2, symBinAddr: 0x61022, symSize: 0x7E }
  - { offsetInCU: 0xA87D, offset: 0x4BD30C, size: 0x8, addend: 0x0, symName: __ZNSt3__15dequeINS_12basic_stringIcNS_11char_traitsIcEENS_9allocatorIcEEEENS4_IS6_EEE19__add_back_capacityEv, symObjAddr: 0x4C8, symBinAddr: 0x61148, symSize: 0x39E }
  - { offsetInCU: 0xC3EE, offset: 0x4BEE7D, size: 0x8, addend: 0x0, symName: __ZNSt3__114__split_bufferIPNS_12basic_stringIcNS_11char_traitsIcEENS_9allocatorIcEEEERNS4_IS7_EEE9push_backEOS7_, symObjAddr: 0xA7C, symBinAddr: 0x615FC, symSize: 0x106 }
  - { offsetInCU: 0xCB63, offset: 0x4BF5F2, size: 0x8, addend: 0x0, symName: __ZNSt3__114__split_bufferIPNS_12basic_stringIcNS_11char_traitsIcEENS_9allocatorIcEEEENS4_IS7_EEE10push_frontEOS7_, symObjAddr: 0x96C, symBinAddr: 0x614EC, symSize: 0x110 }
  - { offsetInCU: 0xD2F0, offset: 0x4BFD7F, size: 0x8, addend: 0x0, symName: __ZNSt3__15dequeINS_12basic_stringIcNS_11char_traitsIcEENS_9allocatorIcEEEENS4_IS6_EEE26__maybe_remove_front_spareB7v160006Eb, symObjAddr: 0xDFC, symBinAddr: 0x617CC, symSize: 0x56 }
  - { offsetInCU: 0x40, offset: 0x4C0447, size: 0x8, addend: 0x0, symName: __ZN3tns7Interop7JSBlock18kJSBlockDescriptorE, symObjAddr: 0xBD10, symBinAddr: 0xE35DD8, symSize: 0x0 }
  - { offsetInCU: 0x20D9, offset: 0x4C24E0, size: 0x8, addend: 0x0, symName: __ZN3tns8IsNumberERKN2v85LocalINS0_5ValueEEE, symObjAddr: 0x2ADE, symBinAddr: 0x63EAE, symSize: 0x36 }
  - { offsetInCU: 0x21D5, offset: 0x4C25DC, size: 0x8, addend: 0x0, symName: __ZN3tns6ToBoolERKN2v85LocalINS0_5ValueEEE, symObjAddr: 0x2902, symBinAddr: 0x63E42, symSize: 0x48 }
  - { offsetInCU: 0x234A, offset: 0x4C2751, size: 0x8, addend: 0x0, symName: __ZN3tns10ToV8StringEPN2v87IsolateEPK8NSString, symObjAddr: 0x615E, symBinAddr: 0x6733E, symSize: 0x62 }
  - { offsetInCU: 0x23C3, offset: 0x4C27CA, size: 0x8, addend: 0x0, symName: __ZN3tns60ExecuteWriteValueValidationsAndStopExecutionAndLogStackTraceEN2v85LocalINS0_7ContextEEEPKNS_12TypeEncodingEPvNS1_INS0_5ValueEEE, symObjAddr: 0x6F22, symBinAddr: 0x68102, symSize: 0x1F0 }
  - { offsetInCU: 0x2FC9, offset: 0x4C33D0, size: 0x8, addend: 0x0, symName: __ZN3tns38IsTypeEncondingHandldedByDebugMessagesEPKNS_12TypeEncodingE, symObjAddr: 0x7112, symBinAddr: 0x682F2, symSize: 0x1B }
  - { offsetInCU: 0x2FF8, offset: 0x4C33FF, size: 0x8, addend: 0x0, symName: __ZN3tns25LogWriteValueTraceMessageEN2v85LocalINS0_7ContextEEEPKNS_12TypeEncodingEPvNS1_INS0_5ValueEEE, symObjAddr: 0x712D, symBinAddr: 0x6830D, symSize: 0x163 }
  - { offsetInCU: 0xF396, offset: 0x4CF79D, size: 0x8, addend: 0x0, symName: __ZNSt3__115allocate_sharedB7v160006IN2v810PersistentINS1_5ValueENS1_27NonCopyablePersistentTraitsIS3_EEEENS_9allocatorIS6_EEJRPNS1_7IsolateERNS1_5LocalINS1_8FunctionEEEEvEENS_10shared_ptrIT_EERKT0_DpOT1_, symObjAddr: 0x8E2E, symBinAddr: 0x68C0E, symSize: 0x5C }
  - { offsetInCU: 0x18D1A, offset: 0x4D9121, size: 0x8, addend: 0x0, symName: __ZN3tns7Interop25GetSwizzledMethodSelectorEP13objc_selector, symObjAddr: 0x6C90, symBinAddr: 0x67E70, symSize: 0x1D8 }
  - { offsetInCU: 0x18D3E, offset: 0x4D9145, size: 0x8, addend: 0x0, symName: __ZZN3tns7Interop25GetSwizzledMethodSelectorEP13objc_selectorE27swizzledMethodSelectorCache, symObjAddr: 0x33AFA8, symBinAddr: 0x16AA228, symSize: 0x0 }
  - { offsetInCU: 0x18D55, offset: 0x4D915C, size: 0x8, addend: 0x0, symName: __ZZN3tns7Interop25GetSwizzledMethodSelectorEP13objc_selectorE1p, symObjAddr: 0x33AFE8, symBinAddr: 0x16AA268, symSize: 0x0 }
  - { offsetInCU: 0x1A8FE, offset: 0x4DAD05, size: 0x8, addend: 0x0, symName: __ZNSt3__16vectorINS_12basic_stringIcNS_11char_traitsIcEENS_9allocatorIcEEEENS4_IS6_EEE26__swap_out_circular_bufferERNS_14__split_bufferIS6_RS7_EE, symObjAddr: 0xA830, symBinAddr: 0x69390, symSize: 0xD2 }
  - { offsetInCU: 0x1C9D8, offset: 0x4DCDDF, size: 0x8, addend: 0x0, symName: '__ZN3tns7Interop7JSBlock3$_08__invokeEPS1_PKS1_', symObjAddr: 0x0, symBinAddr: 0x61830, symSize: 0x6 }
  - { offsetInCU: 0x1CCCA, offset: 0x4DD0D1, size: 0x8, addend: 0x0, symName: '__ZN3tns7Interop7JSBlock3$_18__invokeEPS1_', symObjAddr: 0x6, symBinAddr: 0x61836, symSize: 0x152 }
  - { offsetInCU: 0x1D181, offset: 0x4DD588, size: 0x8, addend: 0x0, symName: __ZN3tns7Interop20CreateMethodInternalEhhPKNS_12TypeEncodingEPFvP7ffi_cifPvPS6_S6_ES6_, symObjAddr: 0x158, symBinAddr: 0x61988, symSize: 0xB8 }
  - { offsetInCU: 0x1D551, offset: 0x4DD958, size: 0x8, addend: 0x0, symName: __ZN3tns7Interop12CreateMethodEhhPKNS_12TypeEncodingEPFvP7ffi_cifPvPS6_S6_ES6_, symObjAddr: 0x210, symBinAddr: 0x61A40, symSize: 0xA }
  - { offsetInCU: 0x1D5BB, offset: 0x4DD9C2, size: 0x8, addend: 0x0, symName: __ZN3tns7Interop11CreateBlockEhhPKNS_12TypeEncodingEPFvP7ffi_cifPvPS6_S6_ES6_, symObjAddr: 0x21A, symBinAddr: 0x61A4A, symSize: 0xD8 }
  - { offsetInCU: 0x1D6D2, offset: 0x4DDAD9, size: 0x8, addend: 0x0, symName: __ZN3tns7Interop12CallFunctionERNS_11CMethodCallE, symObjAddr: 0x2F2, symBinAddr: 0x61B22, symSize: 0xA }
  - { offsetInCU: 0x1D6FD, offset: 0x4DDB04, size: 0x8, addend: 0x0, symName: __ZN3tns7Interop20CallFunctionInternalERNS_10MethodCallE, symObjAddr: 0x2FC, symBinAddr: 0x61B2C, symSize: 0x3F6 }
  - { offsetInCU: 0x1DFDA, offset: 0x4DE3E1, size: 0x8, addend: 0x0, symName: __ZN3tns7FFICallC2EPNS_16ParametrizedCallE, symObjAddr: 0x7B8A, symBinAddr: 0x6873A, symSize: 0x70 }
  - { offsetInCU: 0x1E0A6, offset: 0x4DE4AD, size: 0x8, addend: 0x0, symName: __ZN3tns7Interop12SetFFIParamsEN2v85LocalINS1_7ContextEEEPKNS_12TypeEncodingEPNS_7FFICallEiiRNS_6V8ArgsE, symObjAddr: 0xAA8, symBinAddr: 0x620D8, symSize: 0x86 }
  - { offsetInCU: 0x1E1FB, offset: 0x4DE602, size: 0x8, addend: 0x0, symName: __ZN3tns7Interop9GetResultEN2v85LocalINS1_7ContextEEEPKNS_12TypeEncodingEPNS_8BaseCallEbNSt3__110shared_ptrINS1_10PersistentINS1_5ValueENS1_27NonCopyablePersistentTraitsISD_EEEEEEbbbb, symObjAddr: 0x4624, symBinAddr: 0x658C4, symSize: 0x167C }
  - { offsetInCU: 0x232AD, offset: 0x4E36B4, size: 0x8, addend: 0x0, symName: __ZNSt3__115allocate_sharedB7v160006IN2v810PersistentINS1_5ValueENS1_27NonCopyablePersistentTraitsIS3_EEEENS_9allocatorIS6_EEJRPNS1_7IsolateERNS1_5LocalINS1_8FunctionEEEEvEENS_10shared_ptrIT_EERKT0_DpOT1_, symObjAddr: 0x8E2E, symBinAddr: 0x68C0E, symSize: 0x5C }
  - { offsetInCU: 0x232BF, offset: 0x4E36C6, size: 0x8, addend: 0x0, symName: __ZN3tns7Interop12CallFunctionERNS_14ObjCMethodCallE, symObjAddr: 0x6F2, symBinAddr: 0x61F22, symSize: 0xA }
  - { offsetInCU: 0x234B3, offset: 0x4E38BA, size: 0x8, addend: 0x0, symName: __ZN3tns7Interop15CallInitializerEN2v85LocalINS1_7ContextEEEPKNS_10MethodMetaEP11objc_objectP10objc_classRNS_6V8ArgsE, symObjAddr: 0x6FC, symBinAddr: 0x61F2C, symSize: 0x1A4 }
  - { offsetInCU: 0x2405D, offset: 0x4E4464, size: 0x8, addend: 0x0, symName: __ZN3tns7Interop10WriteValueEN2v85LocalINS1_7ContextEEEPKNS_12TypeEncodingEPvNS2_INS1_5ValueEEE, symObjAddr: 0xC2C, symBinAddr: 0x6216C, symSize: 0x1C34 }
  - { offsetInCU: 0x2A719, offset: 0x4EAB20, size: 0x8, addend: 0x0, symName: __ZN3tns7Interop14isRefTypeEqualEPKNS_12TypeEncodingEPKc, symObjAddr: 0x2860, symBinAddr: 0x63DA0, symSize: 0x9C }
  - { offsetInCU: 0x2AB93, offset: 0x4EAF9A, size: 0x8, addend: 0x0, symName: __ZNK3tns5PtrToIcE8valuePtrEv, symObjAddr: 0x2B14, symBinAddr: 0x63EE4, symSize: 0x64 }
  - { offsetInCU: 0x2B3B8, offset: 0x4EB7BF, size: 0x8, addend: 0x0, symName: __ZN3tns7Interop16InitializeStructEN2v85LocalINS1_7ContextEEEPvNSt3__16vectorINS_11StructFieldENS6_9allocatorIS8_EEEENS2_INS1_5ValueEEE, symObjAddr: 0x2B78, symBinAddr: 0x63F48, symSize: 0x76 }
  - { offsetInCU: 0x2B56A, offset: 0x4EB971, size: 0x8, addend: 0x0, symName: __ZN3tns7Interop7ToArrayEN2v85LocalINS1_6ObjectEEE, symObjAddr: 0x2D26, symBinAddr: 0x63FC6, symSize: 0x384 }
  - { offsetInCU: 0x2C919, offset: 0x4ECD20, size: 0x8, addend: 0x0, symName: __ZN3tns7Interop42ExecuteWriteValueDebugValidationsIfInDebugEN2v85LocalINS1_7ContextEEEPKNS_12TypeEncodingEPvNS2_INS1_5ValueEEE, symObjAddr: 0x28FC, symBinAddr: 0x63E3C, symSize: 0x6 }
  - { offsetInCU: 0x2CC93, offset: 0x4ED09A, size: 0x8, addend: 0x0, symName: __ZN3tns7Interop14IsNumbericTypeENS_22BinaryTypeEncodingTypeE, symObjAddr: 0x2AC4, symBinAddr: 0x63E94, symSize: 0x1A }
  - { offsetInCU: 0x2CCB0, offset: 0x4ED0B7, size: 0x8, addend: 0x0, symName: __ZN3tns7Interop16InitializeStructEN2v85LocalINS1_7ContextEEEPvNSt3__16vectorINS_11StructFieldENS6_9allocatorIS8_EEEENS2_INS1_5ValueEEERl, symObjAddr: 0x39B8, symBinAddr: 0x64C58, symSize: 0x770 }
  - { offsetInCU: 0x2ECF6, offset: 0x4EF0FD, size: 0x8, addend: 0x0, symName: __ZN3tns7Interop8ToObjectEN2v85LocalINS1_7ContextEEENS2_INS1_5ValueEEE, symObjAddr: 0x30AA, symBinAddr: 0x6434A, symSize: 0x298 }
  - { offsetInCU: 0x2F6F9, offset: 0x4EFB00, size: 0x8, addend: 0x0, symName: __ZN3tns7Interop13StructToValueEN2v85LocalINS1_7ContextEEEPvNS_10StructInfoENSt3__110shared_ptrINS1_10PersistentINS1_5ValueENS1_27NonCopyablePersistentTraitsISA_EEEEEE, symObjAddr: 0x3342, symBinAddr: 0x645E2, symSize: 0x47A }
  - { offsetInCU: 0x30D1A, offset: 0x4F1121, size: 0x8, addend: 0x0, symName: __ZN10robin_hood6detail5TableILb1ELm80ENSt3__14pairIPvNS2_12basic_stringIcNS2_11char_traitsIcEENS2_9allocatorIcEEEEEENS2_10shared_ptrIN2v810PersistentINSD_5ValueENSD_27NonCopyablePersistentTraitsISF_EEEEEEN3tns9pair_hashENS2_8equal_toISB_EEE7emplaceIJRSB_RSJ_EEENS3_INSO_4IterILb0EEEbEEDpOT_, symObjAddr: 0x380C, symBinAddr: 0x64AAC, symSize: 0x1AC }
  - { offsetInCU: 0x31594, offset: 0x4F199B, size: 0x8, addend: 0x0, symName: __ZN3tns6Caches3GetEPN2v87IsolateE, symObjAddr: 0x37BC, symBinAddr: 0x64A5C, symSize: 0x50 }
  - { offsetInCU: 0x31C47, offset: 0x4F204E, size: 0x8, addend: 0x0, symName: __ZNSt3__110shared_ptrIN2v810PersistentINS1_5ValueENS1_27NonCopyablePersistentTraitsIS3_EEEEEaSB7v160006EOS7_, symObjAddr: 0xA010, symBinAddr: 0x69260, symSize: 0x4A }
  - { offsetInCU: 0x32002, offset: 0x4F2409, size: 0x8, addend: 0x0, symName: __ZN3tns7Interop14SetStructValueIsEEvN2v85LocalINS2_5ValueEEEPvl, symObjAddr: 0x4208, symBinAddr: 0x654A8, symSize: 0x70 }
  - { offsetInCU: 0x321ED, offset: 0x4F25F4, size: 0x8, addend: 0x0, symName: __ZN3tns7Interop14SetStructValueItEEvN2v85LocalINS2_5ValueEEEPvl, symObjAddr: 0x4198, symBinAddr: 0x65438, symSize: 0x70 }
  - { offsetInCU: 0x323D8, offset: 0x4F27DF, size: 0x8, addend: 0x0, symName: __ZN3tns7Interop14SetStructValueIiEEvN2v85LocalINS2_5ValueEEEPvl, symObjAddr: 0x42E4, symBinAddr: 0x65584, symSize: 0x6C }
  - { offsetInCU: 0x325C3, offset: 0x4F29CA, size: 0x8, addend: 0x0, symName: __ZN3tns7Interop14SetStructValueIjEEvN2v85LocalINS2_5ValueEEEPvl, symObjAddr: 0x4278, symBinAddr: 0x65518, symSize: 0x6C }
  - { offsetInCU: 0x327AE, offset: 0x4F2BB5, size: 0x8, addend: 0x0, symName: __ZN3tns7Interop14SetStructValueIlEEvN2v85LocalINS2_5ValueEEEPvl, symObjAddr: 0x43DA, symBinAddr: 0x6567A, symSize: 0x70 }
  - { offsetInCU: 0x32999, offset: 0x4F2DA0, size: 0x8, addend: 0x0, symName: __ZN3tns7Interop14SetStructValueImEEvN2v85LocalINS2_5ValueEEEPvl, symObjAddr: 0x4350, symBinAddr: 0x655F0, symSize: 0x8A }
  - { offsetInCU: 0x32B84, offset: 0x4F2F8B, size: 0x8, addend: 0x0, symName: __ZN3tns7Interop14SetStructValueIxEEvN2v85LocalINS2_5ValueEEEPvl, symObjAddr: 0x44D4, symBinAddr: 0x65774, symSize: 0x70 }
  - { offsetInCU: 0x32D6F, offset: 0x4F3176, size: 0x8, addend: 0x0, symName: __ZN3tns7Interop14SetStructValueIyEEvN2v85LocalINS2_5ValueEEEPvl, symObjAddr: 0x444A, symBinAddr: 0x656EA, symSize: 0x8A }
  - { offsetInCU: 0x32F5A, offset: 0x4F3361, size: 0x8, addend: 0x0, symName: __ZN3tns7Interop14SetStructValueIhEEvN2v85LocalINS2_5ValueEEEPvl, symObjAddr: 0x4128, symBinAddr: 0x653C8, symSize: 0x70 }
  - { offsetInCU: 0x33145, offset: 0x4F354C, size: 0x8, addend: 0x0, symName: __ZN3tns7Interop14SetStructValueIfEEvN2v85LocalINS2_5ValueEEEPvl, symObjAddr: 0x4544, symBinAddr: 0x657E4, symSize: 0x72 }
  - { offsetInCU: 0x33330, offset: 0x4F3737, size: 0x8, addend: 0x0, symName: __ZN3tns7Interop14SetStructValueIdEEvN2v85LocalINS2_5ValueEEEPvl, symObjAddr: 0x45B6, symBinAddr: 0x65856, symSize: 0x6E }
  - { offsetInCU: 0x33B6F, offset: 0x4F3F76, size: 0x8, addend: 0x0, symName: __ZNKSt3__18functionIFN2v85LocalINS1_16FunctionTemplateEEENS2_INS1_7ContextEEEPKN3tns13BaseClassMetaENS7_21KnownUnknownClassPairERKNS_6vectorINS_12basic_stringIcNS_11char_traitsIcEENS_9allocatorIcEEEENSG_ISI_EEEEEEclES6_SA_SB_SM_, symObjAddr: 0x5CA0, symBinAddr: 0x66F40, symSize: 0x42 }
  - { offsetInCU: 0x33D1A, offset: 0x4F4121, size: 0x8, addend: 0x0, symName: __ZN3tns7Interop22GetPrimitiveReturnTypeEN2v85LocalINS1_7ContextEEENS_22BinaryTypeEncodingTypeEPNS_8BaseCallE, symObjAddr: 0x66CA, symBinAddr: 0x678AA, symSize: 0x31A }
  - { offsetInCU: 0x34792, offset: 0x4F4B99, size: 0x8, addend: 0x0, symName: __ZNSt3__16vectorIN2v85LocalINS1_5ValueEEENS_9allocatorIS4_EEE9push_backB7v160006ERKS4_, symObjAddr: 0x5CE2, symBinAddr: 0x66F82, symSize: 0xF0 }
  - { offsetInCU: 0x34CED, offset: 0x4F50F4, size: 0x8, addend: 0x0, symName: __ZNSt3__16vectorIN2v85LocalINS1_5ValueEEENS_9allocatorIS4_EEE6insertENS_11__wrap_iterIPKS4_EERS9_, symObjAddr: 0x5DD2, symBinAddr: 0x67072, symSize: 0x252 }
  - { offsetInCU: 0x34CF9, offset: 0x4F5100, size: 0x8, addend: 0x0, symName: __ZNSt3__16vectorIN2v85LocalINS1_5ValueEEENS_9allocatorIS4_EEE6insertENS_11__wrap_iterIPKS4_EERS9_, symObjAddr: 0x5DD2, symBinAddr: 0x67072, symSize: 0x252 }
  - { offsetInCU: 0x35A57, offset: 0x4F5E5E, size: 0x8, addend: 0x0, symName: __ZNSt3__119basic_ostringstreamIcNS_11char_traitsIcEENS_9allocatorIcEEED1Ev, symObjAddr: 0x60E8, symBinAddr: 0x672C8, symSize: 0x76 }
  - { offsetInCU: 0x35BEE, offset: 0x4F5FF5, size: 0x8, addend: 0x0, symName: __ZNK10robin_hood6detail5TableILb1ELm80EP11objc_objectNSt3__110shared_ptrIN2v810PersistentINS6_5ValueENS6_27NonCopyablePersistentTraitsIS8_EEEEEENS_4hashIS3_vEENS4_8equal_toIS3_EEE7findIdxIS3_EEmRKT_, symObjAddr: 0xA750, symBinAddr: 0x692B0, symSize: 0xE0 }
  - { offsetInCU: 0x35D78, offset: 0x4F617F, size: 0x8, addend: 0x0, symName: __ZN3tns7Interop22GetAdditionalProtocolsEPKNS_12TypeEncodingE, symObjAddr: 0x61C0, symBinAddr: 0x673A0, symSize: 0x50A }
  - { offsetInCU: 0x388B4, offset: 0x4F8CBB, size: 0x8, addend: 0x0, symName: __ZN3tns7Interop22SetStructPropertyValueEN2v85LocalINS1_7ContextEEEPNS_13StructWrapperENS_11StructFieldENS2_INS1_5ValueEEE, symObjAddr: 0x69E4, symBinAddr: 0x67BC4, symSize: 0x2AC }
  - { offsetInCU: 0x39096, offset: 0x4F949D, size: 0x8, addend: 0x0, symName: __ZNK10robin_hood6detail5TableILb1ELm80EP13objc_selectorS3_NS_4hashIS3_vEENSt3__18equal_toIS3_EEE7findIdxIS3_EEmRKT_, symObjAddr: 0xAA00, symBinAddr: 0x694A0, symSize: 0xD0 }
  - { offsetInCU: 0x39232, offset: 0x4F9639, size: 0x8, addend: 0x0, symName: __ZN10robin_hood6detail5TableILb1ELm80EP13objc_selectorS3_NS_4hashIS3_vEENSt3__18equal_toIS3_EEE7emplaceIJRS3_SB_EEENS6_4pairINS9_4IterILb0EEEbEEDpOT_, symObjAddr: 0x6E90, symBinAddr: 0x68070, symSize: 0x92 }
  - { offsetInCU: 0x39440, offset: 0x4F9847, size: 0x8, addend: 0x0, symName: __ZN10robin_hood6detail5TableILb1ELm80EP13objc_selectorS3_NS_4hashIS3_vEENSt3__18equal_toIS3_EEED1Ev, symObjAddr: 0x6E68, symBinAddr: 0x68048, symSize: 0x28 }
  - { offsetInCU: 0x396A0, offset: 0x4F9AA7, size: 0x8, addend: 0x0, symName: __ZN10robin_hood6detail5TableILb1ELm80EP13objc_selectorS3_NS_4hashIS3_vEENSt3__18equal_toIS3_EEE25insertKeyPrepareEmptySpotIRKS3_EENS6_4pairImNS9_14InsertionStateEEEOT_, symObjAddr: 0xAAD0, symBinAddr: 0x69570, symSize: 0x160 }
  - { offsetInCU: 0x39850, offset: 0x4F9C57, size: 0x8, addend: 0x0, symName: __ZNK10robin_hood6detail5TableILb1ELm80EP13objc_selectorS3_NS_4hashIS3_vEENSt3__18equal_toIS3_EEE18throwOverflowErrorEv, symObjAddr: 0xAC30, symBinAddr: 0x696D0, symSize: 0x4C }
  - { offsetInCU: 0x39E05, offset: 0x4FA20C, size: 0x8, addend: 0x0, symName: __ZN10robin_hood6detail5TableILb1ELm80EPKN3tns10MethodMetaEP13objc_selectorNS_4hashIS5_vEENSt3__18equal_toIS5_EEE17try_increase_infoEv, symObjAddr: 0x7850, symBinAddr: 0x68560, symSize: 0xE8 }
  - { offsetInCU: 0x39F04, offset: 0x4FA30B, size: 0x8, addend: 0x0, symName: __ZN10robin_hood6detail5TableILb1ELm80EPKN3tns10MethodMetaEP13objc_selectorNS_4hashIS5_vEENSt3__18equal_toIS5_EEE8initDataEm, symObjAddr: 0x7768, symBinAddr: 0x68478, symSize: 0xE8 }
  - { offsetInCU: 0x39FEE, offset: 0x4FA3F5, size: 0x8, addend: 0x0, symName: __ZN10robin_hood6detail5TableILb1ELm80EPKN3tns10MethodMetaEP13objc_selectorNS_4hashIS5_vEENSt3__18equal_toIS5_EEE17try_increase_infoEv, symObjAddr: 0x7850, symBinAddr: 0x68560, symSize: 0xE8 }
  - { offsetInCU: 0x39FFA, offset: 0x4FA401, size: 0x8, addend: 0x0, symName: __ZN10robin_hood6detail5TableILb1ELm80EPKN3tns10MethodMetaEP13objc_selectorNS_4hashIS5_vEENSt3__18equal_toIS5_EEE16rehashPowerOfTwoEmb, symObjAddr: 0x7938, symBinAddr: 0x68648, symSize: 0xF2 }
  - { offsetInCU: 0x3A563, offset: 0x4FA96A, size: 0x8, addend: 0x0, symName: __ZN3tns12BlockWrapperD1Ev, symObjAddr: 0x7DFE, symBinAddr: 0x687AE, symSize: 0x6 }
  - { offsetInCU: 0x3A58F, offset: 0x4FA996, size: 0x8, addend: 0x0, symName: __ZN3tns12BlockWrapperD0Ev, symObjAddr: 0x7E04, symBinAddr: 0x687B4, symSize: 0xA }
  - { offsetInCU: 0x3A5BB, offset: 0x4FA9C2, size: 0x8, addend: 0x0, symName: __ZN3tns12BlockWrapper4TypeEv, symObjAddr: 0x7E0E, symBinAddr: 0x687BE, symSize: 0xC }
  - { offsetInCU: 0x3A732, offset: 0x4FAB39, size: 0x8, addend: 0x0, symName: __ZN3tns13StructWrapper4TypeEv, symObjAddr: 0x8000, symBinAddr: 0x687D0, symSize: 0xC }
  - { offsetInCU: 0x3A773, offset: 0x4FAB7A, size: 0x8, addend: 0x0, symName: __ZN3tns17StructTypeWrapperD0Ev, symObjAddr: 0x8048, symBinAddr: 0x687E8, symSize: 0x3E }
  - { offsetInCU: 0x3AC09, offset: 0x4FB010, size: 0x8, addend: 0x0, symName: __ZN3tns20UnmanagedTypeWrapperD1Ev, symObjAddr: 0x8198, symBinAddr: 0x68828, symSize: 0x6 }
  - { offsetInCU: 0x3AC35, offset: 0x4FB03C, size: 0x8, addend: 0x0, symName: __ZN3tns20UnmanagedTypeWrapperD0Ev, symObjAddr: 0x819E, symBinAddr: 0x6882E, symSize: 0xA }
  - { offsetInCU: 0x3AC61, offset: 0x4FB068, size: 0x8, addend: 0x0, symName: __ZN3tns20UnmanagedTypeWrapper4TypeEv, symObjAddr: 0x81A8, symBinAddr: 0x68838, symSize: 0xC }
  - { offsetInCU: 0x3AE6E, offset: 0x4FB275, size: 0x8, addend: 0x0, symName: '__ZZN3tns7Interop9GetResultEN2v85LocalINS1_7ContextEEEPKNS_12TypeEncodingEPNS_8BaseCallEbNSt3__110shared_ptrINS1_10PersistentINS1_5ValueENS1_27NonCopyablePersistentTraitsISD_EEEEEEbbbbEN3$_28__invokeERKNS1_20FunctionCallbackInfoISD_EE', symObjAddr: 0x81B4, symBinAddr: 0x68844, symSize: 0x198 }
  - { offsetInCU: 0x3B223, offset: 0x4FB62A, size: 0x8, addend: 0x0, symName: __ZN3tns24AnonymousFunctionWrapperD1Ev, symObjAddr: 0x8382, symBinAddr: 0x689E2, symSize: 0x6 }
  - { offsetInCU: 0x3B24F, offset: 0x4FB656, size: 0x8, addend: 0x0, symName: __ZN3tns24AnonymousFunctionWrapperD0Ev, symObjAddr: 0x8388, symBinAddr: 0x689E8, symSize: 0xA }
  - { offsetInCU: 0x3B27B, offset: 0x4FB682, size: 0x8, addend: 0x0, symName: __ZN3tns24AnonymousFunctionWrapper4TypeEv, symObjAddr: 0x8392, symBinAddr: 0x689F2, symSize: 0xC }
  - { offsetInCU: 0x3B4D6, offset: 0x4FB8DD, size: 0x8, addend: 0x0, symName: '__ZZN3tns7Interop9GetResultEN2v85LocalINS1_7ContextEEEPKNS_12TypeEncodingEPNS_8BaseCallEbNSt3__110shared_ptrINS1_10PersistentINS1_5ValueENS1_27NonCopyablePersistentTraitsISD_EEEEEEbbbbEN3$_38__invokeERKNS1_20FunctionCallbackInfoISD_EE', symObjAddr: 0x839E, symBinAddr: 0x689FE, symSize: 0xF2 }
  - { offsetInCU: 0x3BA78, offset: 0x4FBE7F, size: 0x8, addend: 0x0, symName: __ZTv0_n24_NSt3__119basic_ostringstreamIcNS_11char_traitsIcEENS_9allocatorIcEEED1Ev, symObjAddr: 0x8490, symBinAddr: 0x68AF0, symSize: 0x86 }
  - { offsetInCU: 0x3BCFB, offset: 0x4FC102, size: 0x8, addend: 0x0, symName: __ZNSt3__16vectorINS_12basic_stringIcNS_11char_traitsIcEENS_9allocatorIcEEEENS4_IS6_EEE16__destroy_vectorclB7v160006Ev, symObjAddr: 0x89F0, symBinAddr: 0x68B80, symSize: 0x32 }
  - { offsetInCU: 0x3C174, offset: 0x4FC57B, size: 0x8, addend: 0x0, symName: __ZNSt3__16vectorIN3tns11StructFieldENS_9allocatorIS2_EEE11__vallocateB7v160006Em, symObjAddr: 0x8B00, symBinAddr: 0x68BC0, symSize: 0x46 }
  - { offsetInCU: 0x3CA16, offset: 0x4FCE1D, size: 0x8, addend: 0x0, symName: __ZNSt3__120__shared_ptr_emplaceIN2v810PersistentINS1_5ValueENS1_27NonCopyablePersistentTraitsIS3_EEEENS_9allocatorIS6_EEEC2B7v160006IJRPNS1_7IsolateERNS1_5LocalINS1_8FunctionEEEEEES8_DpOT_, symObjAddr: 0x8E8A, symBinAddr: 0x68C6A, symSize: 0x52 }
  - { offsetInCU: 0x3CE10, offset: 0x4FD217, size: 0x8, addend: 0x0, symName: __ZNSt12out_of_rangeC1B7v160006EPKc, symObjAddr: 0x9078, symBinAddr: 0x68CC8, symSize: 0x24 }
  - { offsetInCU: 0x3DB4F, offset: 0x4FDF56, size: 0x8, addend: 0x0, symName: __ZN10robin_hood6detail5TableILb1ELm80ENSt3__14pairIPvNS2_12basic_stringIcNS2_11char_traitsIcEENS2_9allocatorIcEEEEEENS2_10shared_ptrIN2v810PersistentINSD_5ValueENSD_27NonCopyablePersistentTraitsISF_EEEEEEN3tns9pair_hashENS2_8equal_toISB_EEE13increase_sizeEv, symObjAddr: 0x9980, symBinAddr: 0x68CF0, symSize: 0x108 }
  - { offsetInCU: 0x3DDC2, offset: 0x4FE1C9, size: 0x8, addend: 0x0, symName: __ZN10robin_hood6detail5TableILb1ELm80ENSt3__14pairIPvNS2_12basic_stringIcNS2_11char_traitsIcEENS2_9allocatorIcEEEEEENS2_10shared_ptrIN2v810PersistentINSD_5ValueENSD_27NonCopyablePersistentTraitsISF_EEEEEEN3tns9pair_hashENS2_8equal_toISB_EEE17try_increase_infoEv, symObjAddr: 0x9C9C, symBinAddr: 0x68EEC, symSize: 0xE8 }
  - { offsetInCU: 0x3DEC1, offset: 0x4FE2C8, size: 0x8, addend: 0x0, symName: __ZN10robin_hood6detail5TableILb1ELm80ENSt3__14pairIPvNS2_12basic_stringIcNS2_11char_traitsIcEENS2_9allocatorIcEEEEEENS2_10shared_ptrIN2v810PersistentINSD_5ValueENSD_27NonCopyablePersistentTraitsISF_EEEEEEN3tns9pair_hashENS2_8equal_toISB_EEE8initDataEm, symObjAddr: 0x9BB4, symBinAddr: 0x68E04, symSize: 0xE8 }
  - { offsetInCU: 0x3DFAB, offset: 0x4FE3B2, size: 0x8, addend: 0x0, symName: __ZN10robin_hood6detail5TableILb1ELm80ENSt3__14pairIPvNS2_12basic_stringIcNS2_11char_traitsIcEENS2_9allocatorIcEEEEEENS2_10shared_ptrIN2v810PersistentINSD_5ValueENSD_27NonCopyablePersistentTraitsISF_EEEEEEN3tns9pair_hashENS2_8equal_toISB_EEE17try_increase_infoEv, symObjAddr: 0x9C9C, symBinAddr: 0x68EEC, symSize: 0xE8 }
  - { offsetInCU: 0x3DFB7, offset: 0x4FE3BE, size: 0x8, addend: 0x0, symName: __ZN10robin_hood6detail5TableILb1ELm80ENSt3__14pairIPvNS2_12basic_stringIcNS2_11char_traitsIcEENS2_9allocatorIcEEEEEENS2_10shared_ptrIN2v810PersistentINSD_5ValueENSD_27NonCopyablePersistentTraitsISF_EEEEEEN3tns9pair_hashENS2_8equal_toISB_EEE16rehashPowerOfTwoEmb, symObjAddr: 0x9D84, symBinAddr: 0x68FD4, symSize: 0x110 }
  - { offsetInCU: 0x3E3D2, offset: 0x4FE7D9, size: 0x8, addend: 0x0, symName: __ZN10robin_hood6detail5TableILb1ELm80ENSt3__14pairIPvNS2_12basic_stringIcNS2_11char_traitsIcEENS2_9allocatorIcEEEEEENS2_10shared_ptrIN2v810PersistentINSD_5ValueENSD_27NonCopyablePersistentTraitsISF_EEEEEEN3tns9pair_hashENS2_8equal_toISB_EEE11insert_moveEONSO_8DataNodeISO_Lb1EEE, symObjAddr: 0x9E94, symBinAddr: 0x690E4, symSize: 0x17C }
  - { offsetInCU: 0x3F421, offset: 0x4FF828, size: 0x8, addend: 0x0, symName: __ZNKSt3__129_AllocatorDestroyRangeReverseINS_9allocatorINS_12basic_stringIcNS_11char_traitsIcEENS1_IcEEEEEENS_16reverse_iteratorIPS6_EEEclB7v160006Ev, symObjAddr: 0xA964, symBinAddr: 0x69464, symSize: 0x36 }
  - { offsetInCU: 0x3F8A5, offset: 0x4FFCAC, size: 0x8, addend: 0x0, symName: __ZN10robin_hood6detail5TableILb1ELm80EP13objc_selectorS3_NS_4hashIS3_vEENSt3__18equal_toIS3_EEE13increase_sizeEv, symObjAddr: 0xAC7C, symBinAddr: 0x6971C, symSize: 0x108 }
  - { offsetInCU: 0x3F96B, offset: 0x4FFD72, size: 0x8, addend: 0x0, symName: __ZN10robin_hood6detail5TableILb1ELm80EP13objc_selectorS3_NS_4hashIS3_vEENSt3__18equal_toIS3_EEE7shiftUpEmm, symObjAddr: 0xAD84, symBinAddr: 0x69824, symSize: 0x8E }
  - { offsetInCU: 0x3F9F8, offset: 0x4FFDFF, size: 0x8, addend: 0x0, symName: __ZN10robin_hood6detail5TableILb1ELm80EP13objc_selectorS3_NS_4hashIS3_vEENSt3__18equal_toIS3_EEE17try_increase_infoEv, symObjAddr: 0xAEFA, symBinAddr: 0x6999A, symSize: 0xE8 }
  - { offsetInCU: 0x3FAF7, offset: 0x4FFEFE, size: 0x8, addend: 0x0, symName: __ZN10robin_hood6detail5TableILb1ELm80EP13objc_selectorS3_NS_4hashIS3_vEENSt3__18equal_toIS3_EEE8initDataEm, symObjAddr: 0xAE12, symBinAddr: 0x698B2, symSize: 0xE8 }
  - { offsetInCU: 0x3FBE1, offset: 0x4FFFE8, size: 0x8, addend: 0x0, symName: __ZN10robin_hood6detail5TableILb1ELm80EP13objc_selectorS3_NS_4hashIS3_vEENSt3__18equal_toIS3_EEE17try_increase_infoEv, symObjAddr: 0xAEFA, symBinAddr: 0x6999A, symSize: 0xE8 }
  - { offsetInCU: 0x3FBED, offset: 0x4FFFF4, size: 0x8, addend: 0x0, symName: __ZN10robin_hood6detail5TableILb1ELm80EP13objc_selectorS3_NS_4hashIS3_vEENSt3__18equal_toIS3_EEE16rehashPowerOfTwoEmb, symObjAddr: 0xAFE2, symBinAddr: 0x69A82, symSize: 0xF2 }
  - { offsetInCU: 0x3FD44, offset: 0x50014B, size: 0x8, addend: 0x0, symName: __ZN10robin_hood6detail5TableILb1ELm80EP13objc_selectorS3_NS_4hashIS3_vEENSt3__18equal_toIS3_EEE11insert_moveEONS9_8DataNodeIS9_Lb1EEE, symObjAddr: 0xB0D4, symBinAddr: 0x69B74, symSize: 0x10A }
  - { offsetInCU: 0x26, offset: 0x500456, size: 0x8, addend: 0x0, symName: __ZN3tns12PromiseProxy4InitEN2v85LocalINS1_7ContextEEE, symObjAddr: 0x0, symBinAddr: 0x69C7E, symSize: 0x136 }
  - { offsetInCU: 0xCD08, offset: 0x50D138, size: 0x8, addend: 0x0, symName: __ZN3tns12PromiseProxy4InitEN2v85LocalINS1_7ContextEEE, symObjAddr: 0x0, symBinAddr: 0x69C7E, symSize: 0x136 }
  - { offsetInCU: 0x26, offset: 0x50DD7B, size: 0x8, addend: 0x0, symName: __ZNK3tns14IsolateWrapper7IsValidEv, symObjAddr: 0x0, symBinAddr: 0x69DB4, symSize: 0xB0 }
  - { offsetInCU: 0xBE97, offset: 0x519BEC, size: 0x8, addend: 0x0, symName: __ZNK3tns14IsolateWrapper7IsValidEv, symObjAddr: 0x0, symBinAddr: 0x69DB4, symSize: 0xB0 }
  - { offsetInCU: 0xCBA0, offset: 0x526C87, size: 0x8, addend: 0x0, symName: __ZN3tns13UnmanagedType6CreateEN2v85LocalINS1_7ContextEEEPNS_20UnmanagedTypeWrapperE, symObjAddr: 0x0, symBinAddr: 0x69E70, symSize: 0x426 }
  - { offsetInCU: 0xDE76, offset: 0x527F5D, size: 0x8, addend: 0x0, symName: __ZN3tns13UnmanagedType19ConstructorCallbackERKN2v820FunctionCallbackInfoINS1_5ValueEEE, symObjAddr: 0x426, symBinAddr: 0x6A296, symSize: 0x4C }
  - { offsetInCU: 0xE007, offset: 0x5280EE, size: 0x8, addend: 0x0, symName: __ZN3tns13UnmanagedType27TakeUnretainedValueCallbackERKN2v820FunctionCallbackInfoINS1_5ValueEEE, symObjAddr: 0x472, symBinAddr: 0x6A2E2, symSize: 0x6C }
  - { offsetInCU: 0xE0C8, offset: 0x5281AF, size: 0x8, addend: 0x0, symName: __ZN3tns13UnmanagedType9TakeValueERKN2v820FunctionCallbackInfoINS1_5ValueEEEb, symObjAddr: 0x54C, symBinAddr: 0x6A3BC, symSize: 0x164 }
  - { offsetInCU: 0xE569, offset: 0x528650, size: 0x8, addend: 0x0, symName: __ZN3tns13UnmanagedType25TakeRetainedValueCallbackERKN2v820FunctionCallbackInfoINS1_5ValueEEE, symObjAddr: 0x4DE, symBinAddr: 0x6A34E, symSize: 0x6E }
  - { offsetInCU: 0x26, offset: 0x528E24, size: 0x8, addend: 0x0, symName: __ZN3tns17FunctionReference8RegisterEN2v85LocalINS1_7ContextEEENS2_INS1_6ObjectEEE, symObjAddr: 0x0, symBinAddr: 0x6A520, symSize: 0x100 }
  - { offsetInCU: 0xC4B6, offset: 0x5352B4, size: 0x8, addend: 0x0, symName: __ZN3tns17FunctionReference8RegisterEN2v85LocalINS1_7ContextEEENS2_INS1_6ObjectEEE, symObjAddr: 0x0, symBinAddr: 0x6A520, symSize: 0x100 }
  - { offsetInCU: 0xC8EB, offset: 0x5356E9, size: 0x8, addend: 0x0, symName: __ZN3tns17FunctionReference28GetFunctionReferenceCtorFuncEN2v85LocalINS1_7ContextEEE, symObjAddr: 0x100, symBinAddr: 0x6A620, symSize: 0x284 }
  - { offsetInCU: 0xDBD4, offset: 0x5369D2, size: 0x8, addend: 0x0, symName: __ZN3tns17FunctionReference36FunctionReferenceConstructorCallbackERKN2v820FunctionCallbackInfoINS1_5ValueEEE, symObjAddr: 0x384, symBinAddr: 0x6A8A4, symSize: 0x1E5 }
  - { offsetInCU: 0xE70B, offset: 0x537509, size: 0x8, addend: 0x0, symName: __ZN3tns28FunctionReferenceTypeWrapperD1Ev, symObjAddr: 0x670, symBinAddr: 0x6AA8A, symSize: 0x6 }
  - { offsetInCU: 0xE737, offset: 0x537535, size: 0x8, addend: 0x0, symName: __ZN3tns28FunctionReferenceTypeWrapperD0Ev, symObjAddr: 0x676, symBinAddr: 0x6AA90, symSize: 0xA }
  - { offsetInCU: 0xE763, offset: 0x537561, size: 0x8, addend: 0x0, symName: __ZN3tns28FunctionReferenceTypeWrapper4TypeEv, symObjAddr: 0x680, symBinAddr: 0x6AA9A, symSize: 0xC }
  - { offsetInCU: 0xE7A4, offset: 0x5375A2, size: 0x8, addend: 0x0, symName: __ZN3tns24FunctionReferenceWrapperD1Ev, symObjAddr: 0x68C, symBinAddr: 0x6AAA6, symSize: 0x1C }
  - { offsetInCU: 0xE82F, offset: 0x53762D, size: 0x8, addend: 0x0, symName: __ZN3tns24FunctionReferenceWrapperD0Ev, symObjAddr: 0x6A8, symBinAddr: 0x6AAC2, symSize: 0x2E }
  - { offsetInCU: 0xE8CB, offset: 0x5376C9, size: 0x8, addend: 0x0, symName: __ZN3tns24FunctionReferenceWrapper4TypeEv, symObjAddr: 0x6D6, symBinAddr: 0x6AAF0, symSize: 0xC }
  - { offsetInCU: 0x27, offset: 0x53798C, size: 0x8, addend: 0x0, symName: __ZN12v8_inspector11GetMIMETypeENSt3__112basic_stringIcNS0_11char_traitsIcEENS0_9allocatorIcEEEE, symObjAddr: 0x0, symBinAddr: 0x6AAFC, symSize: 0xEE }
  - { offsetInCU: 0x965C, offset: 0x540FC1, size: 0x8, addend: 0x0, symName: __ZNSt3__112basic_stringIDsNS_11char_traitsIDsEENS_9allocatorIDsEEEC2B7v160006INS_11__wrap_iterIPtEEvEET_SA_, symObjAddr: 0x968, symBinAddr: 0x6B1A8, symSize: 0x80 }
  - { offsetInCU: 0x983E, offset: 0x5411A3, size: 0x8, addend: 0x0, symName: __ZNSt3__119__throw_range_errorB7v160006EPKc, symObjAddr: 0xFB2, symBinAddr: 0x6B754, symSize: 0x4C }
  - { offsetInCU: 0xC5C6, offset: 0x543F2B, size: 0x8, addend: 0x0, symName: __ZN12v8_inspector11GetMIMETypeENSt3__112basic_stringIcNS0_11char_traitsIcEENS0_9allocatorIcEEEE, symObjAddr: 0x0, symBinAddr: 0x6AAFC, symSize: 0xEE }
  - { offsetInCU: 0xC7BF, offset: 0x544124, size: 0x8, addend: 0x0, symName: __ZN12v8_inspector11ToStdStringERKNS_10StringViewE, symObjAddr: 0xEE, symBinAddr: 0x6ABEA, symSize: 0x1E1 }
  - { offsetInCU: 0xD118, offset: 0x544A7D, size: 0x8, addend: 0x0, symName: __ZN12v8_inspector19GetDebuggerFunctionEN2v85LocalINS0_7ContextEEENSt3__112basic_stringIcNS4_11char_traitsIcEENS4_9allocatorIcEEEESA_RNS1_INS0_6ObjectEEE, symObjAddr: 0x2CF, symBinAddr: 0x6ADCB, symSize: 0xC9 }
  - { offsetInCU: 0xD370, offset: 0x544CD5, size: 0x8, addend: 0x0, symName: __ZN12v8_inspector29GetDebuggerFunctionFromObjectEN2v85LocalINS0_7ContextEEERKNS1_INS0_6ObjectEEERS5_, symObjAddr: 0x398, symBinAddr: 0x6AE94, symSize: 0x2AA }
  - { offsetInCU: 0xE62E, offset: 0x545F93, size: 0x8, addend: 0x0, symName: __ZNSt3__16vectorItNS_9allocatorItEEEC2Em, symObjAddr: 0x892, symBinAddr: 0x6B13E, symSize: 0x6A }
  - { offsetInCU: 0xEB2D, offset: 0x546492, size: 0x8, addend: 0x0, symName: __ZNSt3__16vectorItNS_9allocatorItEEEC2Em, symObjAddr: 0x892, symBinAddr: 0x6B13E, symSize: 0x6A }
  - { offsetInCU: 0xEDD8, offset: 0x54673D, size: 0x8, addend: 0x0, symName: __ZNSt3__112basic_stringIDsNS_11char_traitsIDsEENS_9allocatorIDsEEEC2B7v160006INS_11__wrap_iterIPtEEvEET_SA_, symObjAddr: 0x968, symBinAddr: 0x6B1A8, symSize: 0x80 }
  - { offsetInCU: 0xF065, offset: 0x5469CA, size: 0x8, addend: 0x0, symName: __ZNSt3__115wstring_convertINS_18codecvt_utf8_utf16IDsLm1114111ELNS_12codecvt_modeE0EEEDsNS_9allocatorIDsEENS4_IcEEE8to_bytesEPKDsS9_, symObjAddr: 0xA86, symBinAddr: 0x6B228, symSize: 0x3E4 }
  - { offsetInCU: 0x10D01, offset: 0x548666, size: 0x8, addend: 0x0, symName: __ZNSt3__112basic_stringIcNS_11char_traitsIcEENS_9allocatorIcEEEC2B7v160006IPKcvEET_S9_RKS4_, symObjAddr: 0x1076, symBinAddr: 0x6B7A0, symSize: 0x80 }
  - { offsetInCU: 0x10D0D, offset: 0x548672, size: 0x8, addend: 0x0, symName: __ZNSt3__112basic_stringIcNS_11char_traitsIcEENS_9allocatorIcEEE6appendB7v160006IPKcEENS_9enable_ifIXsr27__is_cpp17_forward_iteratorIT_EE5valueERS5_E4typeESA_SA_, symObjAddr: 0xE6A, symBinAddr: 0x6B60C, symSize: 0x148 }
  - { offsetInCU: 0x1140E, offset: 0x548D73, size: 0x8, addend: 0x0, symName: __ZNSt3__112basic_stringIcNS_11char_traitsIcEENS_9allocatorIcEEEC2B7v160006IPKcvEET_S9_RKS4_, symObjAddr: 0x1076, symBinAddr: 0x6B7A0, symSize: 0x80 }
  - { offsetInCU: 0x26, offset: 0x5494BE, size: 0x8, addend: 0x0, symName: __ZN4rnv814V8PointerValueC2EPN2v87IsolateERKNS1_5LocalINS1_5ValueEEE, symObjAddr: 0x0, symBinAddr: 0x6B820, symSize: 0x3A }
  - { offsetInCU: 0x2D84, offset: 0x54C21C, size: 0x8, addend: 0x0, symName: __ZN4rnv814V8PointerValueC2EPN2v87IsolateERKNS1_5LocalINS1_5ValueEEE, symObjAddr: 0x0, symBinAddr: 0x6B820, symSize: 0x3A }
  - { offsetInCU: 0x2EBA, offset: 0x54C352, size: 0x8, addend: 0x0, symName: __ZN4rnv814V8PointerValueC1EPN2v87IsolateERKNS1_5LocalINS1_5ValueEEE, symObjAddr: 0x3A, symBinAddr: 0x6B85A, symSize: 0x3A }
  - { offsetInCU: 0x3043, offset: 0x54C4DB, size: 0x8, addend: 0x0, symName: __ZN4rnv814V8PointerValueC2EPN2v87IsolateEONS1_6GlobalINS1_5ValueEEE, symObjAddr: 0x74, symBinAddr: 0x6B894, symSize: 0x44 }
  - { offsetInCU: 0x311A, offset: 0x54C5B2, size: 0x8, addend: 0x0, symName: __ZN4rnv814V8PointerValueC1EPN2v87IsolateEONS1_6GlobalINS1_5ValueEEE, symObjAddr: 0xB8, symBinAddr: 0x6B8D8, symSize: 0x44 }
  - { offsetInCU: 0x326C, offset: 0x54C704, size: 0x8, addend: 0x0, symName: __ZN4rnv814V8PointerValueD2Ev, symObjAddr: 0xFC, symBinAddr: 0x6B91C, symSize: 0x2E }
  - { offsetInCU: 0x3318, offset: 0x54C7B0, size: 0x8, addend: 0x0, symName: __ZN4rnv814V8PointerValueD1Ev, symObjAddr: 0x12A, symBinAddr: 0x6B94A, symSize: 0xA }
  - { offsetInCU: 0x335F, offset: 0x54C7F7, size: 0x8, addend: 0x0, symName: __ZN4rnv814V8PointerValueD0Ev, symObjAddr: 0x134, symBinAddr: 0x6B954, symSize: 0x1C }
  - { offsetInCU: 0x34C4, offset: 0x54C95C, size: 0x8, addend: 0x0, symName: __ZNK4rnv814V8PointerValue3GetEPN2v87IsolateE, symObjAddr: 0x150, symBinAddr: 0x6B970, symSize: 0x6A }
  - { offsetInCU: 0x36B7, offset: 0x54CB4F, size: 0x8, addend: 0x0, symName: __ZN4rnv814V8PointerValue17createFromOneByteEPN2v87IsolateEPKcm, symObjAddr: 0x1BA, symBinAddr: 0x6B9DA, symSize: 0xA4 }
  - { offsetInCU: 0x382D, offset: 0x54CCC5, size: 0x8, addend: 0x0, symName: __ZN4rnv814V8PointerValue14createFromUtf8EPN2v87IsolateEPKhm, symObjAddr: 0x25E, symBinAddr: 0x6BA7E, symSize: 0xA4 }
  - { offsetInCU: 0x3A7C, offset: 0x54CF14, size: 0x8, addend: 0x0, symName: __ZN4rnv814V8PointerValue10invalidateEv, symObjAddr: 0x302, symBinAddr: 0x6BB22, symSize: 0x9E }
  - { offsetInCU: 0x41, offset: 0x54D100, size: 0x8, addend: 0x0, symName: _runtime_, symObjAddr: 0x138D70, symBinAddr: 0x16C0EB8, symSize: 0x0 }
  - { offsetInCU: 0xA13B, offset: 0x5571FA, size: 0x8, addend: 0x0, symName: '-[Config BaseDir]', symObjAddr: 0x0, symBinAddr: 0x6BBC0, symSize: 0xA }
  - { offsetInCU: 0xA16F, offset: 0x55722E, size: 0x8, addend: 0x0, symName: '-[Config setBaseDir:]', symObjAddr: 0xA, symBinAddr: 0x6BBCA, symSize: 0xF }
  - { offsetInCU: 0xA1AE, offset: 0x55726D, size: 0x8, addend: 0x0, symName: '-[Config ApplicationPath]', symObjAddr: 0x19, symBinAddr: 0x6BBD9, symSize: 0xA }
  - { offsetInCU: 0xA1E2, offset: 0x5572A1, size: 0x8, addend: 0x0, symName: '-[Config setApplicationPath:]', symObjAddr: 0x23, symBinAddr: 0x6BBE3, symSize: 0xF }
  - { offsetInCU: 0xA221, offset: 0x5572E0, size: 0x8, addend: 0x0, symName: '-[Config MetadataPtr]', symObjAddr: 0x32, symBinAddr: 0x6BBF2, symSize: 0xA }
  - { offsetInCU: 0xA255, offset: 0x557314, size: 0x8, addend: 0x0, symName: '-[Config setMetadataPtr:]', symObjAddr: 0x3C, symBinAddr: 0x6BBFC, symSize: 0xA }
  - { offsetInCU: 0xA291, offset: 0x557350, size: 0x8, addend: 0x0, symName: '-[Config IsDebug]', symObjAddr: 0x46, symBinAddr: 0x6BC06, symSize: 0xB }
  - { offsetInCU: 0xA2C5, offset: 0x557384, size: 0x8, addend: 0x0, symName: '-[Config setIsDebug:]', symObjAddr: 0x51, symBinAddr: 0x6BC11, symSize: 0x9 }
  - { offsetInCU: 0xA301, offset: 0x5573C0, size: 0x8, addend: 0x0, symName: '-[Config LogToSystemConsole]', symObjAddr: 0x5A, symBinAddr: 0x6BC1A, symSize: 0xB }
  - { offsetInCU: 0xA335, offset: 0x5573F4, size: 0x8, addend: 0x0, symName: '-[Config setLogToSystemConsole:]', symObjAddr: 0x65, symBinAddr: 0x6BC25, symSize: 0x9 }
  - { offsetInCU: 0xA371, offset: 0x557430, size: 0x8, addend: 0x0, symName: '-[Config ArgumentsCount]', symObjAddr: 0x6E, symBinAddr: 0x6BC2E, symSize: 0x9 }
  - { offsetInCU: 0xA3A5, offset: 0x557464, size: 0x8, addend: 0x0, symName: '-[Config setArgumentsCount:]', symObjAddr: 0x77, symBinAddr: 0x6BC37, symSize: 0x9 }
  - { offsetInCU: 0xA3E1, offset: 0x5574A0, size: 0x8, addend: 0x0, symName: '-[Config Arguments]', symObjAddr: 0x80, symBinAddr: 0x6BC40, symSize: 0xA }
  - { offsetInCU: 0xA415, offset: 0x5574D4, size: 0x8, addend: 0x0, symName: '-[Config setArguments:]', symObjAddr: 0x8A, symBinAddr: 0x6BC4A, symSize: 0xA }
  - { offsetInCU: 0xA55F, offset: 0x55761E, size: 0x8, addend: 0x0, symName: '-[NativeScript runScriptString:runLoop:]', symObjAddr: 0x94, symBinAddr: 0x6BC54, symSize: 0xC4 }
  - { offsetInCU: 0xAD79, offset: 0x557E38, size: 0x8, addend: 0x0, symName: __ZNSt3__110unique_ptrIN3tns7RuntimeENS_14default_deleteIS2_EEED1B7v160006Ev, symObjAddr: 0x158, symBinAddr: 0x6BD18, symSize: 0xC }
  - { offsetInCU: 0xADCE, offset: 0x557E8D, size: 0x8, addend: 0x0, symName: __ZNSt3__110unique_ptrIN3tns7RuntimeENS_14default_deleteIS2_EEE5resetB7v160006EPS2_, symObjAddr: 0x60C, symBinAddr: 0x6C1CC, symSize: 0x2E }
  - { offsetInCU: 0xAE42, offset: 0x557F01, size: 0x8, addend: 0x0, symName: '-[NativeScript runMainApplication]', symObjAddr: 0x164, symBinAddr: 0x6BD24, symSize: 0x2D }
  - { offsetInCU: 0xAEAC, offset: 0x557F6B, size: 0x8, addend: 0x0, symName: '-[NativeScript liveSync]', symObjAddr: 0x191, symBinAddr: 0x6BD51, symSize: 0x22 }
  - { offsetInCU: 0xB024, offset: 0x5580E3, size: 0x8, addend: 0x0, symName: '-[NativeScript shutdownRuntime]', symObjAddr: 0x1B3, symBinAddr: 0x6BD73, symSize: 0xB1 }
  - { offsetInCU: 0xB269, offset: 0x558328, size: 0x8, addend: 0x0, symName: '-[NativeScript initializeWithConfig:]', symObjAddr: 0x264, symBinAddr: 0x6BE24, symSize: 0x2FC }
  - { offsetInCU: 0xB5ED, offset: 0x5586AC, size: 0x8, addend: 0x0, symName: '-[NativeScript initWithConfig:]', symObjAddr: 0x560, symBinAddr: 0x6C120, symSize: 0x56 }
  - { offsetInCU: 0xB63F, offset: 0x5586FE, size: 0x8, addend: 0x0, symName: '-[NativeScript restartWithConfig:]', symObjAddr: 0x5B6, symBinAddr: 0x6C176, symSize: 0x4A }
  - { offsetInCU: 0x26, offset: 0x558BD7, size: 0x8, addend: 0x0, symName: __ZN3tns21KnownUnknownClassPair10EmptyValueEv, symObjAddr: 0x0, symBinAddr: 0x6C21A, symSize: 0x40 }
  - { offsetInCU: 0x109, offset: 0x558CBA, size: 0x8, addend: 0x0, symName: __ZN3tns21KnownUnknownClassPair10EmptyValueEv, symObjAddr: 0x0, symBinAddr: 0x6C21A, symSize: 0x40 }
  - { offsetInCU: 0x12B, offset: 0x558CDC, size: 0x8, addend: 0x0, symName: __ZZN3tns21KnownUnknownClassPair10EmptyValueEvE10emptyValue, symObjAddr: 0x2658, symBinAddr: 0x16AA270, symSize: 0x0 }
  - { offsetInCU: 0x17C, offset: 0x558D2D, size: 0x8, addend: 0x0, symName: __ZN3tns21KnownUnknownClassPair12DeletedValueEv, symObjAddr: 0x40, symBinAddr: 0x6C25A, symSize: 0x41 }
  - { offsetInCU: 0x19E, offset: 0x558D4F, size: 0x8, addend: 0x0, symName: __ZZN3tns21KnownUnknownClassPair12DeletedValueEvE12deletedValue, symObjAddr: 0x2670, symBinAddr: 0x16AA288, symSize: 0x0 }
  - { offsetInCU: 0x3F, offset: 0x558E64, size: 0x8, addend: 0x0, symName: __ZN3tns5Tasks6tasks_E, symObjAddr: 0x3DE20, symBinAddr: 0x16C0EC0, symSize: 0x0 }
  - { offsetInCU: 0x2AA5, offset: 0x55B8CA, size: 0x8, addend: 0x0, symName: __ZNSt3__119__allocate_at_leastB7v160006INS_9allocatorINS_8functionIFvvEEEEEEENS_19__allocation_resultINS_16allocator_traitsIT_E7pointerEEERS8_m, symObjAddr: 0x389, symBinAddr: 0x6C5B9, symSize: 0x37 }
  - { offsetInCU: 0x2B4A, offset: 0x55B96F, size: 0x8, addend: 0x0, symName: __ZSt28__throw_bad_array_new_lengthB7v160006v, symObjAddr: 0x3C0, symBinAddr: 0x6C5F0, symSize: 0x31 }
  - { offsetInCU: 0x2E7E, offset: 0x55BCA3, size: 0x8, addend: 0x0, symName: __ZNSt3__125__throw_bad_function_callB7v160006Ev, symObjAddr: 0x5F0, symBinAddr: 0x6C7E0, symSize: 0x32 }
  - { offsetInCU: 0x2F19, offset: 0x55BD3E, size: 0x8, addend: 0x0, symName: __ZNSt3__142__uninitialized_allocator_move_if_noexceptB7v160006INS_9allocatorINS_8functionIFvvEEEEENS_16reverse_iteratorIPS4_EES8_S8_EET2_RT_T0_T1_S9_, symObjAddr: 0x3F1, symBinAddr: 0x6C621, symSize: 0x8D }
  - { offsetInCU: 0x3486, offset: 0x55C2AB, size: 0x8, addend: 0x0, symName: __ZSt28__throw_bad_array_new_lengthB7v160006v, symObjAddr: 0x3C0, symBinAddr: 0x6C5F0, symSize: 0x31 }
  - { offsetInCU: 0x3697, offset: 0x55C4BC, size: 0x8, addend: 0x0, symName: __ZNSt3__16vectorINS_8functionIFvvEEENS_9allocatorIS3_EEE26__swap_out_circular_bufferERNS_14__split_bufferIS3_RS5_EE, symObjAddr: 0x27C, symBinAddr: 0x6C51C, symSize: 0x7A }
  - { offsetInCU: 0x55C2, offset: 0x55E3E7, size: 0x8, addend: 0x0, symName: __ZN3tns5Tasks8RegisterENSt3__18functionIFvvEEE, symObjAddr: 0x0, symBinAddr: 0x6C2A0, symSize: 0x14 }
  - { offsetInCU: 0x55F6, offset: 0x55E41B, size: 0x8, addend: 0x0, symName: __ZNSt3__16vectorINS_8functionIFvvEEENS_9allocatorIS3_EEE9push_backB7v160006ERKS3_, symObjAddr: 0x14, symBinAddr: 0x6C2B4, symSize: 0x118 }
  - { offsetInCU: 0x5E39, offset: 0x55EC5E, size: 0x8, addend: 0x0, symName: __ZNSt3__114__split_bufferINS_8functionIFvvEEERNS_9allocatorIS3_EEED2Ev, symObjAddr: 0x52C, symBinAddr: 0x6C75C, symSize: 0x24 }
  - { offsetInCU: 0x5F00, offset: 0x55ED25, size: 0x8, addend: 0x0, symName: __ZNKSt3__16vectorINS_8functionIFvvEEENS_9allocatorIS3_EEE20__throw_length_errorB7v160006Ev, symObjAddr: 0x2F6, symBinAddr: 0x6C596, symSize: 0x1A }
  - { offsetInCU: 0x6101, offset: 0x55EF26, size: 0x8, addend: 0x0, symName: __ZN3tns5Tasks5DrainEv, symObjAddr: 0x12C, symBinAddr: 0x6C3CC, symSize: 0x146 }
  - { offsetInCU: 0x659B, offset: 0x55F3C0, size: 0x8, addend: 0x0, symName: __ZNKSt3__111__move_loopINS_17_ClassicAlgPolicyEEclB7v160006IPNS_8functionIFvvEEES7_S7_EENS_4pairIT_T1_EES9_T0_SA_, symObjAddr: 0x648, symBinAddr: 0x6C818, symSize: 0x4C }
  - { offsetInCU: 0x663D, offset: 0x55F462, size: 0x8, addend: 0x0, symName: __ZNSt3__16vectorINS_8functionIFvvEEENS_9allocatorIS3_EEED1B7v160006Ev, symObjAddr: 0x272, symBinAddr: 0x6C512, symSize: 0xA }
  - { offsetInCU: 0x6674, offset: 0x55F499, size: 0x8, addend: 0x0, symName: __ZNSt3__16vectorINS_8functionIFvvEEENS_9allocatorIS3_EEED2B7v160006Ev, symObjAddr: 0x70C, symBinAddr: 0x6C8DC, symSize: 0x26 }
  - { offsetInCU: 0x699B, offset: 0x55F7C0, size: 0x8, addend: 0x0, symName: __ZNSt3__110__function12__value_funcIFvvEEC2B7v160006EOS3_, symObjAddr: 0x47E, symBinAddr: 0x6C6AE, symSize: 0x4A }
  - { offsetInCU: 0x69E3, offset: 0x55F808, size: 0x8, addend: 0x0, symName: __ZNSt3__128__exception_guard_exceptionsINS_29_AllocatorDestroyRangeReverseINS_9allocatorINS_8functionIFvvEEEEENS_16reverse_iteratorIPS5_EEEEED2B7v160006Ev, symObjAddr: 0x4C8, symBinAddr: 0x6C6F8, symSize: 0x1A }
  - { offsetInCU: 0x6A1C, offset: 0x55F841, size: 0x8, addend: 0x0, symName: __ZNKSt3__129_AllocatorDestroyRangeReverseINS_9allocatorINS_8functionIFvvEEEEENS_16reverse_iteratorIPS4_EEEclB7v160006Ev, symObjAddr: 0x4E2, symBinAddr: 0x6C712, symSize: 0x4A }
  - { offsetInCU: 0x6C08, offset: 0x55FA2D, size: 0x8, addend: 0x0, symName: __ZNSt3__114__split_bufferINS_8functionIFvvEEERNS_9allocatorIS3_EEE5clearB7v160006Ev, symObjAddr: 0x550, symBinAddr: 0x6C780, symSize: 0x54 }
  - { offsetInCU: 0x6DF7, offset: 0x55FC1C, size: 0x8, addend: 0x0, symName: __ZNSt3__110__function12__value_funcIFvvEEaSB7v160006EOS3_, symObjAddr: 0x694, symBinAddr: 0x6C864, symSize: 0x78 }
  - { offsetInCU: 0x6EF3, offset: 0x55FD18, size: 0x8, addend: 0x0, symName: __ZNSt3__16vectorINS_8functionIFvvEEENS_9allocatorIS3_EEE16__destroy_vectorclB7v160006Ev, symObjAddr: 0x732, symBinAddr: 0x6C902, symSize: 0x72 }
  - { offsetInCU: 0x3F, offset: 0x55FF4A, size: 0x8, addend: 0x0, symName: __ZN3tns6Caches8MetadataE, symObjAddr: 0x1B7A98, symBinAddr: 0x16C0ED8, symSize: 0x0 }
  - { offsetInCU: 0x5D6, offset: 0x5604E1, size: 0x8, addend: 0x0, symName: __ZN3tns6Caches7WorkersE, symObjAddr: 0x1B7AA8, symBinAddr: 0x16C0EE8, symSize: 0x0 }
  - { offsetInCU: 0x5F36, offset: 0x565E41, size: 0x8, addend: 0x0, symName: __ZNSt3__115allocate_sharedB7v160006IN2v810PersistentINS1_7ContextENS1_27NonCopyablePersistentTraitsIS3_EEEENS_9allocatorIS6_EEJRPNS1_7IsolateERNS1_5LocalIS3_EEEvEENS_10shared_ptrIT_EERKT0_DpOT1_, symObjAddr: 0x1F59, symBinAddr: 0x6E849, symSize: 0x5D }
  - { offsetInCU: 0x107DA, offset: 0x5706E5, size: 0x8, addend: 0x0, symName: __ZN3tns6CachesC2EPN2v87IsolateERKi, symObjAddr: 0x0, symBinAddr: 0x6C9B0, symSize: 0x2D0 }
  - { offsetInCU: 0x10D4C, offset: 0x570C57, size: 0x8, addend: 0x0, symName: __ZN3tns6CachesC1EPN2v87IsolateERKi, symObjAddr: 0x2D0, symBinAddr: 0x6CC80, symSize: 0xA }
  - { offsetInCU: 0x11157, offset: 0x571062, size: 0x8, addend: 0x0, symName: __ZN3tns6CachesD2Ev, symObjAddr: 0x2DA, symBinAddr: 0x6CC8A, symSize: 0x31A }
  - { offsetInCU: 0x11E0F, offset: 0x571D1A, size: 0x8, addend: 0x0, symName: __ZN10robin_hood6detail5TableILb1ELm80EPKN3tns4MetaENSt3__110unique_ptrIN2v810PersistentINS8_5ValueENS8_27NonCopyablePersistentTraitsISA_EEEENS6_14default_deleteISD_EEEENS_4hashIS5_vEENS6_8equal_toIS5_EEE5clearEv, symObjAddr: 0x5F4, symBinAddr: 0x6CFA4, symSize: 0xBC }
  - { offsetInCU: 0x11F95, offset: 0x571EA0, size: 0x8, addend: 0x0, symName: __ZN10robin_hood6detail5TableILb1ELm80ENSt3__112basic_stringIcNS2_11char_traitsIcEENS2_9allocatorIcEEEENS2_10unique_ptrIN2v810PersistentINSA_6ObjectENSA_27NonCopyablePersistentTraitsISC_EEEENS2_14default_deleteISF_EEEENS_4hashIS8_vEENS2_8equal_toIS8_EEE5clearEv, symObjAddr: 0x6BC, symBinAddr: 0x6D06C, symSize: 0xBC }
  - { offsetInCU: 0x1211B, offset: 0x572026, size: 0x8, addend: 0x0, symName: __ZN10robin_hood6detail5TableILb1ELm80EPKN3tns13BaseClassMetaENSt3__110unique_ptrIN2v810PersistentINS8_16FunctionTemplateENS8_27NonCopyablePersistentTraitsISA_EEEENS6_14default_deleteISD_EEEENS_4hashIS5_vEENS6_8equal_toIS5_EEE5clearEv, symObjAddr: 0x778, symBinAddr: 0x6D128, symSize: 0xBC }
  - { offsetInCU: 0x122A1, offset: 0x5721AC, size: 0x8, addend: 0x0, symName: __ZN10robin_hood6detail5TableILb1ELm80ENSt3__112basic_stringIcNS2_11char_traitsIcEENS2_9allocatorIcEEEENS2_10unique_ptrIN2v810PersistentINSA_8FunctionENSA_27NonCopyablePersistentTraitsISC_EEEENS2_14default_deleteISF_EEEENS_4hashIS8_vEENS2_8equal_toIS8_EEE5clearEv, symObjAddr: 0x834, symBinAddr: 0x6D1E4, symSize: 0xBC }
  - { offsetInCU: 0x12427, offset: 0x572332, size: 0x8, addend: 0x0, symName: __ZN10robin_hood6detail5TableILb1ELm80EN3tns22BinaryTypeEncodingTypeENSt3__110unique_ptrIN2v810PersistentINS6_6ObjectENS6_27NonCopyablePersistentTraitsIS8_EEEENS4_14default_deleteISB_EEEENS_4hashIS3_vEENS4_8equal_toIS3_EEE5clearEv, symObjAddr: 0x8F0, symBinAddr: 0x6D2A0, symSize: 0xBC }
  - { offsetInCU: 0x125AD, offset: 0x5724B8, size: 0x8, addend: 0x0, symName: __ZN10robin_hood6detail5TableILb1ELm80EP11objc_objectNSt3__110shared_ptrIN2v810PersistentINS6_5ValueENS6_27NonCopyablePersistentTraitsIS8_EEEEEENS_4hashIS3_vEENS4_8equal_toIS3_EEE5clearEv, symObjAddr: 0x9AC, symBinAddr: 0x6D35C, symSize: 0xBC }
  - { offsetInCU: 0x12733, offset: 0x57263E, size: 0x8, addend: 0x0, symName: __ZN10robin_hood6detail5TableILb1ELm80ENSt3__14pairIPvNS2_12basic_stringIcNS2_11char_traitsIcEENS2_9allocatorIcEEEEEENS2_10shared_ptrIN2v810PersistentINSD_5ValueENSD_27NonCopyablePersistentTraitsISF_EEEEEEN3tns9pair_hashENS2_8equal_toISB_EEE5clearEv, symObjAddr: 0xA68, symBinAddr: 0x6D418, symSize: 0xBC }
  - { offsetInCU: 0x128B9, offset: 0x5727C4, size: 0x8, addend: 0x0, symName: __ZN10robin_hood6detail5TableILb1ELm80EPKvNSt3__110shared_ptrIN2v810PersistentINS6_6ObjectENS6_27NonCopyablePersistentTraitsIS8_EEEEEENS_4hashIS3_vEENS4_8equal_toIS3_EEE5clearEv, symObjAddr: 0xB24, symBinAddr: 0x6D4D4, symSize: 0xBC }
  - { offsetInCU: 0x12A3F, offset: 0x57294A, size: 0x8, addend: 0x0, symName: __ZNSt3__16vectorINS_10unique_ptrIvPFvPKvEEENS_9allocatorIS6_EEE22__base_destruct_at_endB7v160006EPS6_, symObjAddr: 0x186C, symBinAddr: 0x6E15C, symSize: 0x4E }
  - { offsetInCU: 0x12B06, offset: 0x572A11, size: 0x8, addend: 0x0, symName: __ZNSt3__110shared_ptrIN2v810PersistentINS1_7ContextENS1_27NonCopyablePersistentTraitsIS3_EEEEED2B7v160006Ev, symObjAddr: 0x18BA, symBinAddr: 0x6E1AA, symSize: 0x40 }
  - { offsetInCU: 0x12B83, offset: 0x572A8E, size: 0x8, addend: 0x0, symName: __ZNSt3__16vectorINS_10unique_ptrIvPFvPKvEEENS_9allocatorIS6_EEED2B7v160006Ev, symObjAddr: 0x1814, symBinAddr: 0x6E104, symSize: 0x26 }
  - { offsetInCU: 0x12C0A, offset: 0x572B15, size: 0x8, addend: 0x0, symName: __ZN10robin_hood6detail5TableILb1ELm80EPKN3tns13InterfaceMetaENSt3__16vectorIPKNS2_10MethodMetaENS6_9allocatorISA_EEEENS_4hashIS5_vEENS6_8equal_toIS5_EEE7destroyEv, symObjAddr: 0x1718, symBinAddr: 0x6E008, symSize: 0x3C }
  - { offsetInCU: 0x12C3F, offset: 0x572B4A, size: 0x8, addend: 0x0, symName: __ZN10robin_hood6detail5TableILb1ELm80ENSt3__112basic_stringIcNS2_11char_traitsIcEENS2_9allocatorIcEEEEdNS_4hashIS8_vEENS2_8equal_toIS8_EEE7destroyEv, symObjAddr: 0x161E, symBinAddr: 0x6DF0E, symSize: 0x3C }
  - { offsetInCU: 0x12C74, offset: 0x572B7F, size: 0x8, addend: 0x0, symName: __ZN10robin_hood6detail5TableILb1ELm80EPKvNSt3__110shared_ptrIN2v810PersistentINS6_6ObjectENS6_27NonCopyablePersistentTraitsIS8_EEEEEENS_4hashIS3_vEENS4_8equal_toIS3_EEE7destroyEv, symObjAddr: 0x14EC, symBinAddr: 0x6DE1C, symSize: 0x3C }
  - { offsetInCU: 0x12CA9, offset: 0x572BB4, size: 0x8, addend: 0x0, symName: __ZN10robin_hood6detail5TableILb1ELm80ENSt3__14pairIPvNS2_12basic_stringIcNS2_11char_traitsIcEENS2_9allocatorIcEEEEEENS2_10shared_ptrIN2v810PersistentINSD_5ValueENSD_27NonCopyablePersistentTraitsISF_EEEEEEN3tns9pair_hashENS2_8equal_toISB_EEE7destroyEv, symObjAddr: 0x13D8, symBinAddr: 0x6DD08, symSize: 0x3C }
  - { offsetInCU: 0x12CDE, offset: 0x572BE9, size: 0x8, addend: 0x0, symName: __ZN10robin_hood6detail5TableILb1ELm80EP11objc_objectNSt3__110shared_ptrIN2v810PersistentINS6_5ValueENS6_27NonCopyablePersistentTraitsIS8_EEEEEENS_4hashIS3_vEENS4_8equal_toIS3_EEE7destroyEv, symObjAddr: 0x12A6, symBinAddr: 0x6DC16, symSize: 0x3C }
  - { offsetInCU: 0x12D13, offset: 0x572C1E, size: 0x8, addend: 0x0, symName: __ZN10robin_hood6detail5TableILb1ELm80ENSt3__112basic_stringIcNS2_11char_traitsIcEENS2_9allocatorIcEEEENS2_10unique_ptrIN2v810PersistentINSA_8FunctionENSA_27NonCopyablePersistentTraitsISC_EEEENS2_14default_deleteISF_EEEENS_4hashIS8_vEENS2_8equal_toIS8_EEE7destroyEv, symObjAddr: 0x1082, symBinAddr: 0x6D9F2, symSize: 0x3C }
  - { offsetInCU: 0x12D48, offset: 0x572C53, size: 0x8, addend: 0x0, symName: __ZN10robin_hood6detail5TableILb1ELm80EN3tns22BinaryTypeEncodingTypeENSt3__110unique_ptrIN2v810PersistentINS6_6ObjectENS6_27NonCopyablePersistentTraitsIS8_EEEENS4_14default_deleteISB_EEEENS_4hashIS3_vEENS4_8equal_toIS3_EEE7destroyEv, symObjAddr: 0x11A6, symBinAddr: 0x6DB16, symSize: 0x3C }
  - { offsetInCU: 0x12D7D, offset: 0x572C88, size: 0x8, addend: 0x0, symName: __ZN10robin_hood6detail5TableILb1ELm80EPKN3tns13BaseClassMetaENSt3__110unique_ptrIN2v810PersistentINS8_16FunctionTemplateENS8_27NonCopyablePersistentTraitsISA_EEEENS6_14default_deleteISD_EEEENS_4hashIS5_vEENS6_8equal_toIS5_EEE7destroyEv, symObjAddr: 0xF82, symBinAddr: 0x6D8F2, symSize: 0x3C }
  - { offsetInCU: 0x12DB2, offset: 0x572CBD, size: 0x8, addend: 0x0, symName: __ZN10robin_hood6detail5TableILb1ELm80ENSt3__112basic_stringIcNS2_11char_traitsIcEENS2_9allocatorIcEEEENS2_10unique_ptrIN2v810PersistentINSA_6ObjectENSA_27NonCopyablePersistentTraitsISC_EEEENS2_14default_deleteISF_EEEENS_4hashIS8_vEENS2_8equal_toIS8_EEE7destroyEv, symObjAddr: 0xE5E, symBinAddr: 0x6D7CE, symSize: 0x3C }
  - { offsetInCU: 0x12DE7, offset: 0x572CF2, size: 0x8, addend: 0x0, symName: __ZN10robin_hood6detail5TableILb1ELm80EPKN3tns4MetaENSt3__110unique_ptrIN2v810PersistentINS8_5ValueENS8_27NonCopyablePersistentTraitsISA_EEEENS6_14default_deleteISD_EEEENS_4hashIS5_vEENS6_8equal_toIS5_EEE7destroyEv, symObjAddr: 0xD5E, symBinAddr: 0x6D6CE, symSize: 0x3C }
  - { offsetInCU: 0x12EBD, offset: 0x572DC8, size: 0x8, addend: 0x0, symName: __ZNK10robin_hood6detail5TableILb1ELm80EPKN3tns4MetaENSt3__110unique_ptrIN2v810PersistentINS8_5ValueENS8_27NonCopyablePersistentTraitsISA_EEEENS6_14default_deleteISD_EEEENS_4hashIS5_vEENS6_8equal_toIS5_EEE9DestroyerISL_Lb0EE5nodesERSL_, symObjAddr: 0x18FA, symBinAddr: 0x6E1EA, symSize: 0xC4 }
  - { offsetInCU: 0x1316B, offset: 0x573076, size: 0x8, addend: 0x0, symName: __ZNK10robin_hood6detail5TableILb1ELm80ENSt3__112basic_stringIcNS2_11char_traitsIcEENS2_9allocatorIcEEEENS2_10unique_ptrIN2v810PersistentINSA_6ObjectENSA_27NonCopyablePersistentTraitsISC_EEEENS2_14default_deleteISF_EEEENS_4hashIS8_vEENS2_8equal_toIS8_EEE9DestroyerISN_Lb0EE5nodesERSN_, symObjAddr: 0x19BE, symBinAddr: 0x6E2AE, symSize: 0xE8 }
  - { offsetInCU: 0x1356A, offset: 0x573475, size: 0x8, addend: 0x0, symName: __ZNK10robin_hood6detail5TableILb1ELm80EPKN3tns13BaseClassMetaENSt3__110unique_ptrIN2v810PersistentINS8_16FunctionTemplateENS8_27NonCopyablePersistentTraitsISA_EEEENS6_14default_deleteISD_EEEENS_4hashIS5_vEENS6_8equal_toIS5_EEE9DestroyerISL_Lb0EE5nodesERSL_, symObjAddr: 0x1AA6, symBinAddr: 0x6E396, symSize: 0xC4 }
  - { offsetInCU: 0x13818, offset: 0x573723, size: 0x8, addend: 0x0, symName: __ZNK10robin_hood6detail5TableILb1ELm80ENSt3__112basic_stringIcNS2_11char_traitsIcEENS2_9allocatorIcEEEENS2_10unique_ptrIN2v810PersistentINSA_8FunctionENSA_27NonCopyablePersistentTraitsISC_EEEENS2_14default_deleteISF_EEEENS_4hashIS8_vEENS2_8equal_toIS8_EEE9DestroyerISN_Lb0EE5nodesERSN_, symObjAddr: 0x1B6A, symBinAddr: 0x6E45A, symSize: 0xE8 }
  - { offsetInCU: 0x13C17, offset: 0x573B22, size: 0x8, addend: 0x0, symName: __ZNK10robin_hood6detail5TableILb1ELm80EN3tns22BinaryTypeEncodingTypeENSt3__110unique_ptrIN2v810PersistentINS6_6ObjectENS6_27NonCopyablePersistentTraitsIS8_EEEENS4_14default_deleteISB_EEEENS_4hashIS3_vEENS4_8equal_toIS3_EEE9DestroyerISJ_Lb0EE5nodesERSJ_, symObjAddr: 0x1C52, symBinAddr: 0x6E542, symSize: 0xC4 }
  - { offsetInCU: 0x13EC5, offset: 0x573DD0, size: 0x8, addend: 0x0, symName: __ZNK10robin_hood6detail5TableILb1ELm80EP11objc_objectNSt3__110shared_ptrIN2v810PersistentINS6_5ValueENS6_27NonCopyablePersistentTraitsIS8_EEEEEENS_4hashIS3_vEENS4_8equal_toIS3_EEE9DestroyerISH_Lb0EE5nodesERSH_, symObjAddr: 0x1D16, symBinAddr: 0x6E606, symSize: 0xB6 }
  - { offsetInCU: 0x140B1, offset: 0x573FBC, size: 0x8, addend: 0x0, symName: __ZNK10robin_hood6detail5TableILb1ELm80ENSt3__14pairIPvNS2_12basic_stringIcNS2_11char_traitsIcEENS2_9allocatorIcEEEEEENS2_10shared_ptrIN2v810PersistentINSD_5ValueENSD_27NonCopyablePersistentTraitsISF_EEEEEEN3tns9pair_hashENS2_8equal_toISB_EEE9DestroyerISO_Lb0EE5nodesERSO_, symObjAddr: 0x1DCC, symBinAddr: 0x6E6BC, symSize: 0xD8 }
  - { offsetInCU: 0x1447E, offset: 0x574389, size: 0x8, addend: 0x0, symName: __ZNK10robin_hood6detail5TableILb1ELm80EPKvNSt3__110shared_ptrIN2v810PersistentINS6_6ObjectENS6_27NonCopyablePersistentTraitsIS8_EEEEEENS_4hashIS3_vEENS4_8equal_toIS3_EEE9DestroyerISH_Lb0EE5nodesERSH_, symObjAddr: 0x1EA4, symBinAddr: 0x6E794, symSize: 0xB5 }
  - { offsetInCU: 0x145D3, offset: 0x5744DE, size: 0x8, addend: 0x0, symName: __ZN3tns6CachesD1Ev, symObjAddr: 0xBE0, symBinAddr: 0x6D590, symSize: 0xA }
  - { offsetInCU: 0x146E4, offset: 0x5745EF, size: 0x8, addend: 0x0, symName: __ZN3tns6Caches6RemoveEPN2v87IsolateE, symObjAddr: 0xBEA, symBinAddr: 0x6D59A, symSize: 0x3A }
  - { offsetInCU: 0x148A4, offset: 0x5747AF, size: 0x8, addend: 0x0, symName: __ZN3tns6Caches10SetContextEN2v85LocalINS1_7ContextEEE, symObjAddr: 0xC24, symBinAddr: 0x6D5D4, symSize: 0x74 }
  - { offsetInCU: 0x149BF, offset: 0x5748CA, size: 0x8, addend: 0x0, symName: __ZNSt3__110shared_ptrIN2v810PersistentINS1_7ContextENS1_27NonCopyablePersistentTraitsIS3_EEEEEaSB7v160006EOS7_, symObjAddr: 0xC98, symBinAddr: 0x6D648, symSize: 0x4A }
  - { offsetInCU: 0x14C34, offset: 0x574B3F, size: 0x8, addend: 0x0, symName: __ZN3tns6Caches10GetContextEv, symObjAddr: 0xCE2, symBinAddr: 0x6D692, symSize: 0x28 }
  - { offsetInCU: 0x14CF4, offset: 0x574BFF, size: 0x8, addend: 0x0, symName: __ZNSt3__110shared_ptrIN3tns13ConcurrentMapINS_12basic_stringIcNS_11char_traitsIcEENS_9allocatorIcEEEEPKNS1_4MetaEEEED1B7v160006Ev, symObjAddr: 0xD0A, symBinAddr: 0x6D6BA, symSize: 0xA }
  - { offsetInCU: 0x14D2B, offset: 0x574C36, size: 0x8, addend: 0x0, symName: __ZNSt3__110shared_ptrIN3tns13ConcurrentMapINS_12basic_stringIcNS_11char_traitsIcEENS_9allocatorIcEEEEPKNS1_4MetaEEEED2B7v160006Ev, symObjAddr: 0x21CC, symBinAddr: 0x6EABC, symSize: 0x40 }
  - { offsetInCU: 0x14DB1, offset: 0x574CBC, size: 0x8, addend: 0x0, symName: __ZNSt3__110shared_ptrIN3tns13ConcurrentMapIiNS0_INS1_6Caches11WorkerStateEEEEEED1B7v160006Ev, symObjAddr: 0xD14, symBinAddr: 0x6D6C4, symSize: 0xA }
  - { offsetInCU: 0x14E3D, offset: 0x574D48, size: 0x8, addend: 0x0, symName: __ZNK10robin_hood6detail5TableILb1ELm80EPKN3tns4MetaENSt3__110unique_ptrIN2v810PersistentINS8_5ValueENS8_27NonCopyablePersistentTraitsISA_EEEENS6_14default_deleteISD_EEEENS_4hashIS5_vEENS6_8equal_toIS5_EEE9DestroyerISL_Lb0EE20nodesDoNotDeallocateERSL_, symObjAddr: 0xD9A, symBinAddr: 0x6D70A, symSize: 0xC4 }
  - { offsetInCU: 0x15152, offset: 0x57505D, size: 0x8, addend: 0x0, symName: __ZNK10robin_hood6detail5TableILb1ELm80ENSt3__112basic_stringIcNS2_11char_traitsIcEENS2_9allocatorIcEEEENS2_10unique_ptrIN2v810PersistentINSA_6ObjectENSA_27NonCopyablePersistentTraitsISC_EEEENS2_14default_deleteISF_EEEENS_4hashIS8_vEENS2_8equal_toIS8_EEE9DestroyerISN_Lb0EE20nodesDoNotDeallocateERSN_, symObjAddr: 0xE9A, symBinAddr: 0x6D80A, symSize: 0xE8 }
  - { offsetInCU: 0x15686, offset: 0x575591, size: 0x8, addend: 0x0, symName: __ZNK10robin_hood6detail5TableILb1ELm80EPKN3tns13BaseClassMetaENSt3__110unique_ptrIN2v810PersistentINS8_16FunctionTemplateENS8_27NonCopyablePersistentTraitsISA_EEEENS6_14default_deleteISD_EEEENS_4hashIS5_vEENS6_8equal_toIS5_EEE9DestroyerISL_Lb0EE20nodesDoNotDeallocateERSL_, symObjAddr: 0xFBE, symBinAddr: 0x6D92E, symSize: 0xC4 }
  - { offsetInCU: 0x1599B, offset: 0x5758A6, size: 0x8, addend: 0x0, symName: __ZNK10robin_hood6detail5TableILb1ELm80ENSt3__112basic_stringIcNS2_11char_traitsIcEENS2_9allocatorIcEEEENS2_10unique_ptrIN2v810PersistentINSA_8FunctionENSA_27NonCopyablePersistentTraitsISC_EEEENS2_14default_deleteISF_EEEENS_4hashIS8_vEENS2_8equal_toIS8_EEE9DestroyerISN_Lb0EE20nodesDoNotDeallocateERSN_, symObjAddr: 0x10BE, symBinAddr: 0x6DA2E, symSize: 0xE8 }
  - { offsetInCU: 0x15D78, offset: 0x575C83, size: 0x8, addend: 0x0, symName: __ZNK10robin_hood6detail5TableILb1ELm80EN3tns22BinaryTypeEncodingTypeENSt3__110unique_ptrIN2v810PersistentINS6_6ObjectENS6_27NonCopyablePersistentTraitsIS8_EEEENS4_14default_deleteISB_EEEENS_4hashIS3_vEENS4_8equal_toIS3_EEE9DestroyerISJ_Lb0EE20nodesDoNotDeallocateERSJ_, symObjAddr: 0x11E2, symBinAddr: 0x6DB52, symSize: 0xC4 }
  - { offsetInCU: 0x16004, offset: 0x575F0F, size: 0x8, addend: 0x0, symName: __ZNK10robin_hood6detail5TableILb1ELm80EP11objc_objectNSt3__110shared_ptrIN2v810PersistentINS6_5ValueENS6_27NonCopyablePersistentTraitsIS8_EEEEEENS_4hashIS3_vEENS4_8equal_toIS3_EEE9DestroyerISH_Lb0EE20nodesDoNotDeallocateERSH_, symObjAddr: 0x12E2, symBinAddr: 0x6DC52, symSize: 0xB6 }
  - { offsetInCU: 0x16240, offset: 0x57614B, size: 0x8, addend: 0x0, symName: __ZNK10robin_hood6detail5TableILb1ELm80ENSt3__14pairIPvNS2_12basic_stringIcNS2_11char_traitsIcEENS2_9allocatorIcEEEEEENS2_10shared_ptrIN2v810PersistentINSD_5ValueENSD_27NonCopyablePersistentTraitsISF_EEEEEEN3tns9pair_hashENS2_8equal_toISB_EEE9DestroyerISO_Lb0EE20nodesDoNotDeallocateERSO_, symObjAddr: 0x1414, symBinAddr: 0x6DD44, symSize: 0xD8 }
  - { offsetInCU: 0x16624, offset: 0x57652F, size: 0x8, addend: 0x0, symName: __ZNK10robin_hood6detail5TableILb1ELm80EPKvNSt3__110shared_ptrIN2v810PersistentINS6_6ObjectENS6_27NonCopyablePersistentTraitsIS8_EEEEEENS_4hashIS3_vEENS4_8equal_toIS3_EEE9DestroyerISH_Lb0EE20nodesDoNotDeallocateERSH_, symObjAddr: 0x1528, symBinAddr: 0x6DE58, symSize: 0xB6 }
  - { offsetInCU: 0x1686A, offset: 0x576775, size: 0x8, addend: 0x0, symName: __ZNK10robin_hood6detail5TableILb1ELm80ENSt3__112basic_stringIcNS2_11char_traitsIcEENS2_9allocatorIcEEEEdNS_4hashIS8_vEENS2_8equal_toIS8_EEE9DestroyerISD_Lb0EE20nodesDoNotDeallocateERSD_, symObjAddr: 0x165A, symBinAddr: 0x6DF4A, symSize: 0xBE }
  - { offsetInCU: 0x16BEF, offset: 0x576AFA, size: 0x8, addend: 0x0, symName: __ZNK10robin_hood6detail5TableILb1ELm80EPKN3tns13InterfaceMetaENSt3__16vectorIPKNS2_10MethodMetaENS6_9allocatorISA_EEEENS_4hashIS5_vEENS6_8equal_toIS5_EEE9DestroyerISI_Lb0EE20nodesDoNotDeallocateERSI_, symObjAddr: 0x1754, symBinAddr: 0x6E044, symSize: 0xC0 }
  - { offsetInCU: 0x170E9, offset: 0x576FF4, size: 0x8, addend: 0x0, symName: __ZNSt3__16vectorINS_10unique_ptrIvPFvPKvEEENS_9allocatorIS6_EEE16__destroy_vectorclB7v160006Ev, symObjAddr: 0x183A, symBinAddr: 0x6E12A, symSize: 0x32 }
  - { offsetInCU: 0x17534, offset: 0x57743F, size: 0x8, addend: 0x0, symName: __ZNSt3__120__shared_ptr_emplaceIN2v810PersistentINS1_7ContextENS1_27NonCopyablePersistentTraitsIS3_EEEENS_9allocatorIS6_EEEC2B7v160006IJRPNS1_7IsolateERNS1_5LocalIS3_EEEEES8_DpOT_, symObjAddr: 0x1FB6, symBinAddr: 0x6E8A6, symSize: 0x52 }
  - { offsetInCU: 0x177D0, offset: 0x5776DB, size: 0x8, addend: 0x0, symName: __ZNSt3__120__shared_ptr_emplaceIN2v810PersistentINS1_7ContextENS1_27NonCopyablePersistentTraitsIS3_EEEENS_9allocatorIS6_EEED1Ev, symObjAddr: 0x2008, symBinAddr: 0x6E8F8, symSize: 0x18 }
  - { offsetInCU: 0x17829, offset: 0x577734, size: 0x8, addend: 0x0, symName: __ZNSt3__120__shared_ptr_emplaceIN2v810PersistentINS1_7ContextENS1_27NonCopyablePersistentTraitsIS3_EEEENS_9allocatorIS6_EEED0Ev, symObjAddr: 0x2020, symBinAddr: 0x6E910, symSize: 0x2A }
  - { offsetInCU: 0x17893, offset: 0x57779E, size: 0x8, addend: 0x0, symName: __ZNSt3__120__shared_ptr_emplaceIN2v810PersistentINS1_7ContextENS1_27NonCopyablePersistentTraitsIS3_EEEENS_9allocatorIS6_EEE16__on_zero_sharedEv, symObjAddr: 0x204A, symBinAddr: 0x6E93A, symSize: 0x6 }
  - { offsetInCU: 0x178B8, offset: 0x5777C3, size: 0x8, addend: 0x0, symName: __ZNSt3__120__shared_ptr_emplaceIN2v810PersistentINS1_7ContextENS1_27NonCopyablePersistentTraitsIS3_EEEENS_9allocatorIS6_EEE21__on_zero_shared_weakEv, symObjAddr: 0x2050, symBinAddr: 0x6E940, symSize: 0xA }
  - { offsetInCU: 0x179CF, offset: 0x5778DA, size: 0x8, addend: 0x0, symName: __ZNSt3__120__shared_ptr_emplaceIN3tns13ConcurrentMapINS_12basic_stringIcNS_11char_traitsIcEENS_9allocatorIcEEEEPKNS1_4MetaEEENS6_ISC_EEED1Ev, symObjAddr: 0x205A, symBinAddr: 0x6E94A, symSize: 0x18 }
  - { offsetInCU: 0x17A28, offset: 0x577933, size: 0x8, addend: 0x0, symName: __ZNSt3__120__shared_ptr_emplaceIN3tns13ConcurrentMapINS_12basic_stringIcNS_11char_traitsIcEENS_9allocatorIcEEEEPKNS1_4MetaEEENS6_ISC_EEED0Ev, symObjAddr: 0x2072, symBinAddr: 0x6E962, symSize: 0x2A }
  - { offsetInCU: 0x17B10, offset: 0x577A1B, size: 0x8, addend: 0x0, symName: __ZNSt3__120__shared_ptr_emplaceIN3tns13ConcurrentMapINS_12basic_stringIcNS_11char_traitsIcEENS_9allocatorIcEEEEPKNS1_4MetaEEENS6_ISC_EEE16__on_zero_sharedEv, symObjAddr: 0x209C, symBinAddr: 0x6E98C, symSize: 0x2C }
  - { offsetInCU: 0x17BC5, offset: 0x577AD0, size: 0x8, addend: 0x0, symName: __ZN10robin_hood6detail5TableILb1ELm80ENSt3__112basic_stringIcNS2_11char_traitsIcEENS2_9allocatorIcEEEEPKN3tns4MetaENS_4hashIS8_vEENS2_8equal_toIS8_EEE7destroyEv, symObjAddr: 0x20D2, symBinAddr: 0x6E9C2, symSize: 0x3C }
  - { offsetInCU: 0x17C86, offset: 0x577B91, size: 0x8, addend: 0x0, symName: __ZNSt3__120__shared_ptr_emplaceIN3tns13ConcurrentMapINS_12basic_stringIcNS_11char_traitsIcEENS_9allocatorIcEEEEPKNS1_4MetaEEENS6_ISC_EEE21__on_zero_shared_weakEv, symObjAddr: 0x20C8, symBinAddr: 0x6E9B8, symSize: 0xA }
  - { offsetInCU: 0x17D8F, offset: 0x577C9A, size: 0x8, addend: 0x0, symName: __ZNK10robin_hood6detail5TableILb1ELm80ENSt3__112basic_stringIcNS2_11char_traitsIcEENS2_9allocatorIcEEEEPKN3tns4MetaENS_4hashIS8_vEENS2_8equal_toIS8_EEE9DestroyerISH_Lb0EE20nodesDoNotDeallocateERSH_, symObjAddr: 0x210E, symBinAddr: 0x6E9FE, symSize: 0xBE }
  - { offsetInCU: 0x18126, offset: 0x578031, size: 0x8, addend: 0x0, symName: __ZNSt3__120__shared_ptr_emplaceIN3tns13ConcurrentMapIiNS_10shared_ptrINS1_6Caches11WorkerStateEEEEENS_9allocatorIS7_EEED1Ev, symObjAddr: 0x220C, symBinAddr: 0x6EAFC, symSize: 0x18 }
  - { offsetInCU: 0x1817F, offset: 0x57808A, size: 0x8, addend: 0x0, symName: __ZNSt3__120__shared_ptr_emplaceIN3tns13ConcurrentMapIiNS_10shared_ptrINS1_6Caches11WorkerStateEEEEENS_9allocatorIS7_EEED0Ev, symObjAddr: 0x2224, symBinAddr: 0x6EB14, symSize: 0x2A }
  - { offsetInCU: 0x18267, offset: 0x578172, size: 0x8, addend: 0x0, symName: __ZNSt3__120__shared_ptr_emplaceIN3tns13ConcurrentMapIiNS_10shared_ptrINS1_6Caches11WorkerStateEEEEENS_9allocatorIS7_EEE16__on_zero_sharedEv, symObjAddr: 0x224E, symBinAddr: 0x6EB3E, symSize: 0x2C }
  - { offsetInCU: 0x1831C, offset: 0x578227, size: 0x8, addend: 0x0, symName: __ZN10robin_hood6detail5TableILb1ELm80EiNSt3__110shared_ptrIN3tns6Caches11WorkerStateEEENS_4hashIivEENS2_8equal_toIiEEE7destroyEv, symObjAddr: 0x2284, symBinAddr: 0x6EB74, symSize: 0x3C }
  - { offsetInCU: 0x183DD, offset: 0x5782E8, size: 0x8, addend: 0x0, symName: __ZNSt3__120__shared_ptr_emplaceIN3tns13ConcurrentMapIiNS_10shared_ptrINS1_6Caches11WorkerStateEEEEENS_9allocatorIS7_EEE21__on_zero_shared_weakEv, symObjAddr: 0x227A, symBinAddr: 0x6EB6A, symSize: 0xA }
  - { offsetInCU: 0x184E6, offset: 0x5783F1, size: 0x8, addend: 0x0, symName: __ZNK10robin_hood6detail5TableILb1ELm80EiNSt3__110shared_ptrIN3tns6Caches11WorkerStateEEENS_4hashIivEENS2_8equal_toIiEEE9DestroyerISC_Lb0EE20nodesDoNotDeallocateERSC_, symObjAddr: 0x22C0, symBinAddr: 0x6EBB0, symSize: 0xB6 }
  - { offsetInCU: 0xDE48, offset: 0x586551, size: 0x8, addend: 0x0, symName: __ZN3tns21NativeScriptExceptionC2ERKNSt3__112basic_stringIcNS1_11char_traitsIcEENS1_9allocatorIcEEEE, symObjAddr: 0x0, symBinAddr: 0x6EDA0, symSize: 0x66 }
  - { offsetInCU: 0xDFD2, offset: 0x5866DB, size: 0x8, addend: 0x0, symName: __ZN3tns21NativeScriptExceptionC2ERKNSt3__112basic_stringIcNS1_11char_traitsIcEENS1_9allocatorIcEEEE.cold.1, symObjAddr: 0x2D01, symBinAddr: 0xCB5F01, symSize: 0x33 }
  - { offsetInCU: 0xE0C1, offset: 0x5867CA, size: 0x8, addend: 0x0, symName: __ZN3tns21NativeScriptExceptionC1ERKNSt3__112basic_stringIcNS1_11char_traitsIcEENS1_9allocatorIcEEEE, symObjAddr: 0x66, symBinAddr: 0x6EE06, symSize: 0xA }
  - { offsetInCU: 0xE266, offset: 0x58696F, size: 0x8, addend: 0x0, symName: __ZN3tns21NativeScriptExceptionC2EPN2v87IsolateERNS1_8TryCatchERKNSt3__112basic_stringIcNS6_11char_traitsIcEENS6_9allocatorIcEEEE, symObjAddr: 0x70, symBinAddr: 0x6EE10, symSize: 0x1AA }
  - { offsetInCU: 0xEB52, offset: 0x58725B, size: 0x8, addend: 0x0, symName: __ZN3tns21NativeScriptException15GetErrorMessageEPN2v87IsolateERNS1_5LocalINS1_5ValueEEERKNSt3__112basic_stringIcNS8_11char_traitsIcEENS8_9allocatorIcEEEE, symObjAddr: 0x21A, symBinAddr: 0x6EFBA, symSize: 0x47C }
  - { offsetInCU: 0xFCCD, offset: 0x5883D6, size: 0x8, addend: 0x0, symName: __ZN3tns21NativeScriptException18GetErrorStackTraceEPN2v87IsolateERKNS1_5LocalINS1_10StackTraceEEE, symObjAddr: 0x696, symBinAddr: 0x6F436, symSize: 0x38A }
  - { offsetInCU: 0x109B8, offset: 0x5890C1, size: 0x8, addend: 0x0, symName: __ZN3tns21NativeScriptException14GetFullMessageEPN2v87IsolateERKNS1_8TryCatchERKNSt3__112basic_stringIcNS7_11char_traitsIcEENS7_9allocatorIcEEEE, symObjAddr: 0xA20, symBinAddr: 0x6F7C0, symSize: 0x764 }
  - { offsetInCU: 0x12841, offset: 0x58AF4A, size: 0x8, addend: 0x0, symName: __ZNSt3__112basic_stringIcNS_11char_traitsIcEENS_9allocatorIcEEEC2B7v160006ENS_24__uninitialized_size_tagEmRKS4_, symObjAddr: 0x28E0, symBinAddr: 0x70BF0, symSize: 0x64 }
  - { offsetInCU: 0x12CD2, offset: 0x58B3DB, size: 0x8, addend: 0x0, symName: __ZN3tns21NativeScriptExceptionC1EPN2v87IsolateERNS1_8TryCatchERKNSt3__112basic_stringIcNS6_11char_traitsIcEENS6_9allocatorIcEEEE, symObjAddr: 0x1184, symBinAddr: 0x6FF24, symSize: 0xA }
  - { offsetInCU: 0x12D35, offset: 0x58B43E, size: 0x8, addend: 0x0, symName: __ZN3tns21NativeScriptExceptionD2Ev, symObjAddr: 0x118E, symBinAddr: 0x6FF2E, symSize: 0x50 }
  - { offsetInCU: 0x130AE, offset: 0x58B7B7, size: 0x8, addend: 0x0, symName: __ZN3tns21NativeScriptExceptionD1Ev, symObjAddr: 0x11DE, symBinAddr: 0x6FF7E, symSize: 0xA }
  - { offsetInCU: 0x1321C, offset: 0x58B925, size: 0x8, addend: 0x0, symName: __ZN3tns21NativeScriptException15OnUncaughtErrorEN2v85LocalINS1_7MessageEEENS2_INS1_5ValueEEE, symObjAddr: 0x11E8, symBinAddr: 0x6FF88, symSize: 0x722 }
  - { offsetInCU: 0x15191, offset: 0x58D89A, size: 0x8, addend: 0x0, symName: __ZNSt3__112basic_stringIcNS_11char_traitsIcEENS_9allocatorIcEEEC2B7v160006ENS_24__uninitialized_size_tagEmRKS4_, symObjAddr: 0x28E0, symBinAddr: 0x70BF0, symSize: 0x64 }
  - { offsetInCU: 0x15654, offset: 0x58DD5D, size: 0x8, addend: 0x0, symName: ____ZN3tns21NativeScriptException15OnUncaughtErrorEN2v85LocalINS1_7MessageEEENS2_INS1_5ValueEEE_block_invoke, symObjAddr: 0x19BE, symBinAddr: 0x706AE, symSize: 0x9E }
  - { offsetInCU: 0x156EE, offset: 0x58DDF7, size: 0x8, addend: 0x0, symName: ___copy_helper_block_e8_32o, symObjAddr: 0x1A5C, symBinAddr: 0x7074C, symSize: 0x17 }
  - { offsetInCU: 0x15717, offset: 0x58DE20, size: 0x8, addend: 0x0, symName: ___destroy_helper_block_e8_32o, symObjAddr: 0x1A73, symBinAddr: 0x70763, symSize: 0x13 }
  - { offsetInCU: 0x157E3, offset: 0x58DEEC, size: 0x8, addend: 0x0, symName: __ZN3tns21NativeScriptException11ReThrowToV8EPN2v87IsolateE, symObjAddr: 0x1A86, symBinAddr: 0x70776, symSize: 0x3DC }
  - { offsetInCU: 0x16697, offset: 0x58EDA0, size: 0x8, addend: 0x0, symName: __ZNSt3__118basic_stringstreamIcNS_11char_traitsIcEENS_9allocatorIcEEED0Ev, symObjAddr: 0x22F0, symBinAddr: 0x70B60, symSize: 0x8C }
  - { offsetInCU: 0x26, offset: 0x58F7DA, size: 0x8, addend: 0x0, symName: __ZN12v8_inspector8protocol5Value11parseBinaryEPKhm, symObjAddr: 0x0, symBinAddr: 0xC094B0, symSize: 0xC0 }
  - { offsetInCU: 0x49, offset: 0x58F7FD, size: 0x8, addend: 0x0, symName: __ZNSt3__1L19piecewise_constructE, symObjAddr: 0x6F80, symBinAddr: 0xD38D00, symSize: 0x0 }
  - { offsetInCU: 0x12420, offset: 0x5A1BD4, size: 0x8, addend: 0x0, symName: __ZNSt3__16removeINS_11__wrap_iterIPN12v8_inspector8String16EEES3_EET_S6_S6_RKT0_, symObjAddr: 0x1FB0, symBinAddr: 0xC0B460, symSize: 0x210 }
  - { offsetInCU: 0x1A1F2, offset: 0x5A99A6, size: 0x8, addend: 0x0, symName: __ZN12v8_inspector8protocol5Value11parseBinaryEPKhm, symObjAddr: 0x0, symBinAddr: 0xC094B0, symSize: 0xC0 }
  - { offsetInCU: 0x1A759, offset: 0x5A9F0D, size: 0x8, addend: 0x0, symName: __ZN12v8_inspector8protocol12_GLOBAL__N_118ValueParserHandlerD1Ev, symObjAddr: 0xC0, symBinAddr: 0xC09570, symSize: 0x60 }
  - { offsetInCU: 0x1AAC6, offset: 0x5AA27A, size: 0x8, addend: 0x0, symName: __ZNK12v8_inspector8protocol5Value9asBooleanEPb, symObjAddr: 0x120, symBinAddr: 0xC095D0, symSize: 0x10 }
  - { offsetInCU: 0x1AAF2, offset: 0x5AA2A6, size: 0x8, addend: 0x0, symName: __ZNK12v8_inspector8protocol5Value8asDoubleEPd, symObjAddr: 0x130, symBinAddr: 0xC095E0, symSize: 0x10 }
  - { offsetInCU: 0x1AB1E, offset: 0x5AA2D2, size: 0x8, addend: 0x0, symName: __ZNK12v8_inspector8protocol5Value9asIntegerEPi, symObjAddr: 0x140, symBinAddr: 0xC095F0, symSize: 0x10 }
  - { offsetInCU: 0x1AB4A, offset: 0x5AA2FE, size: 0x8, addend: 0x0, symName: __ZNK12v8_inspector8protocol5Value8asStringEPNS_8String16E, symObjAddr: 0x150, symBinAddr: 0xC09600, symSize: 0x10 }
  - { offsetInCU: 0x1AB76, offset: 0x5AA32A, size: 0x8, addend: 0x0, symName: __ZNK12v8_inspector8protocol5Value8asBinaryEPNS0_6BinaryE, symObjAddr: 0x160, symBinAddr: 0xC09610, symSize: 0x10 }
  - { offsetInCU: 0x1AF0C, offset: 0x5AA6C0, size: 0x8, addend: 0x0, symName: __ZNK12v8_inspector8protocol5Value16AppendSerializedEPNSt3__16vectorIhNS2_9allocatorIhEEEE, symObjAddr: 0x170, symBinAddr: 0xC09620, symSize: 0xF0 }
  - { offsetInCU: 0x1B4EA, offset: 0x5AAC9E, size: 0x8, addend: 0x0, symName: __ZNK12v8_inspector8protocol5Value5cloneEv, symObjAddr: 0x260, symBinAddr: 0xC09710, symSize: 0x40 }
  - { offsetInCU: 0x1B60F, offset: 0x5AADC3, size: 0x8, addend: 0x0, symName: __ZNK12v8_inspector8protocol16FundamentalValue9asBooleanEPb, symObjAddr: 0x2A0, symBinAddr: 0xC09750, symSize: 0x20 }
  - { offsetInCU: 0x1B660, offset: 0x5AAE14, size: 0x8, addend: 0x0, symName: __ZNK12v8_inspector8protocol16FundamentalValue8asDoubleEPd, symObjAddr: 0x2C0, symBinAddr: 0xC09770, symSize: 0x30 }
  - { offsetInCU: 0x1B6B1, offset: 0x5AAE65, size: 0x8, addend: 0x0, symName: __ZNK12v8_inspector8protocol16FundamentalValue9asIntegerEPi, symObjAddr: 0x2F0, symBinAddr: 0xC097A0, symSize: 0x20 }
  - { offsetInCU: 0x1B706, offset: 0x5AAEBA, size: 0x8, addend: 0x0, symName: __ZNK12v8_inspector8protocol16FundamentalValue16AppendSerializedEPNSt3__16vectorIhNS2_9allocatorIhEEEE, symObjAddr: 0x310, symBinAddr: 0xC097C0, symSize: 0x150 }
  - { offsetInCU: 0x1BF4C, offset: 0x5AB700, size: 0x8, addend: 0x0, symName: __ZNK12v8_inspector8protocol16FundamentalValue5cloneEv, symObjAddr: 0x460, symBinAddr: 0xC09910, symSize: 0xC0 }
  - { offsetInCU: 0x1C381, offset: 0x5ABB35, size: 0x8, addend: 0x0, symName: __ZNK12v8_inspector8protocol11StringValue8asStringEPNS_8String16E, symObjAddr: 0x520, symBinAddr: 0xC099D0, symSize: 0x30 }
  - { offsetInCU: 0x1C3FD, offset: 0x5ABBB1, size: 0x8, addend: 0x0, symName: __ZNSt3__112basic_stringItNS_11char_traitsItEENS_9allocatorItEEEaSERKS5_, symObjAddr: 0x4930, symBinAddr: 0xC0DDD0, symSize: 0x3E0 }
  - { offsetInCU: 0x1CA12, offset: 0x5AC1C6, size: 0x8, addend: 0x0, symName: __ZNK12v8_inspector8protocol11StringValue16AppendSerializedEPNSt3__16vectorIhNS2_9allocatorIhEEEE, symObjAddr: 0x550, symBinAddr: 0xC09A00, symSize: 0x50 }
  - { offsetInCU: 0x1CF37, offset: 0x5AC6EB, size: 0x8, addend: 0x0, symName: __ZNK12v8_inspector8protocol11StringValue5cloneEv, symObjAddr: 0x5A0, symBinAddr: 0xC09A50, symSize: 0x2A0 }
  - { offsetInCU: 0x1D491, offset: 0x5ACC45, size: 0x8, addend: 0x0, symName: __ZNK12v8_inspector8protocol11BinaryValue8asBinaryEPNS0_6BinaryE, symObjAddr: 0x840, symBinAddr: 0xC09CF0, symSize: 0x60 }
  - { offsetInCU: 0x1D71C, offset: 0x5ACED0, size: 0x8, addend: 0x0, symName: __ZNK12v8_inspector8protocol11BinaryValue16AppendSerializedEPNSt3__16vectorIhNS2_9allocatorIhEEEE, symObjAddr: 0x8A0, symBinAddr: 0xC09D50, symSize: 0x20 }
  - { offsetInCU: 0x1D9BC, offset: 0x5AD170, size: 0x8, addend: 0x0, symName: __ZNK12v8_inspector8protocol11BinaryValue5cloneEv, symObjAddr: 0x8C0, symBinAddr: 0xC09D70, symSize: 0x50 }
  - { offsetInCU: 0x1DF7F, offset: 0x5AD733, size: 0x8, addend: 0x0, symName: __ZN12v8_inspector8protocol15DictionaryValueD2Ev, symObjAddr: 0x910, symBinAddr: 0xC09DC0, symSize: 0xE0 }
  - { offsetInCU: 0x1E7B8, offset: 0x5ADF6C, size: 0x8, addend: 0x0, symName: __ZN12v8_inspector8protocol15DictionaryValueD1Ev, symObjAddr: 0x9F0, symBinAddr: 0xC09EA0, symSize: 0x10 }
  - { offsetInCU: 0x1E80A, offset: 0x5ADFBE, size: 0x8, addend: 0x0, symName: __ZN12v8_inspector8protocol15DictionaryValueD0Ev, symObjAddr: 0xA00, symBinAddr: 0xC09EB0, symSize: 0x20 }
  - { offsetInCU: 0x1E893, offset: 0x5AE047, size: 0x8, addend: 0x0, symName: __ZN12v8_inspector8protocol15DictionaryValue10setBooleanERKNS_8String16Eb, symObjAddr: 0xA20, symBinAddr: 0xC09ED0, symSize: 0x70 }
  - { offsetInCU: 0x1EAE5, offset: 0x5AE299, size: 0x8, addend: 0x0, symName: __ZN12v8_inspector8protocol15DictionaryValue3setINS0_5ValueEEEvRKNS_8String16ERNSt3__110unique_ptrIT_NS7_14default_deleteIS9_EEEE, symObjAddr: 0xE50, symBinAddr: 0xC0A300, symSize: 0x2D0 }
  - { offsetInCU: 0x1F0C1, offset: 0x5AE875, size: 0x8, addend: 0x0, symName: __ZN12v8_inspector8protocol15DictionaryValue8setValueERKNS_8String16ENSt3__110unique_ptrINS0_5ValueENS5_14default_deleteIS7_EEEE, symObjAddr: 0xA90, symBinAddr: 0xC09F40, symSize: 0x10 }
  - { offsetInCU: 0x1F116, offset: 0x5AE8CA, size: 0x8, addend: 0x0, symName: __ZN12v8_inspector8protocol15DictionaryValue10setIntegerERKNS_8String16Ei, symObjAddr: 0xAA0, symBinAddr: 0xC09F50, symSize: 0x70 }
  - { offsetInCU: 0x1F376, offset: 0x5AEB2A, size: 0x8, addend: 0x0, symName: __ZN12v8_inspector8protocol15DictionaryValue9setDoubleERKNS_8String16Ed, symObjAddr: 0xB10, symBinAddr: 0xC09FC0, symSize: 0x70 }
  - { offsetInCU: 0x1F5D9, offset: 0x5AED8D, size: 0x8, addend: 0x0, symName: __ZN12v8_inspector8protocol15DictionaryValue9setStringERKNS_8String16ES4_, symObjAddr: 0xB80, symBinAddr: 0xC0A030, symSize: 0x2D0 }
  - { offsetInCU: 0x1FCA5, offset: 0x5AF459, size: 0x8, addend: 0x0, symName: __ZNSt3__112__hash_tableINS_17__hash_value_typeIN12v8_inspector8String16ENS_10unique_ptrINS2_8protocol5ValueENS_14default_deleteIS6_EEEEEENS_22__unordered_map_hasherIS3_SA_NS_4hashIS3_EENS_8equal_toIS3_EELb1EEENS_21__unordered_map_equalIS3_SA_SF_SD_Lb1EEENS_9allocatorISA_EEE4findIS3_EENS_15__hash_iteratorIPNS_11__hash_nodeISA_PvEEEERKT_, symObjAddr: 0x5270, symBinAddr: 0xC0E710, symSize: 0x2B0 }
